GAS LISTING /tmp/ccW0DJiF.s 			page 1


   1              		.file	"abi.c"
   2              		.option nopic
   3              		.option norelax
   4              		.text
   5              	.Ltext0:
   6              		.cfi_sections	.debug_frame
   7              		.align	2
   8              		.globl	abi_mem_alloc
  10              	abi_mem_alloc:
  11              	.LFB0:
  12              		.file 1 "src/abi.c"
   1:src/abi.c     **** #include "../h/abi.h"
   2:src/abi.c     **** #include "../h/codes.h"
   3:src/abi.c     **** 
   4:src/abi.c     **** uint64 mem_alloc_trap(ThreadContext* c, size_t blocks);
   5:src/abi.c     **** int thread_create_trap(ThreadContext* c, thread_t* handle, void(*startRoutine)(void*), void* args, 
   6:src/abi.c     **** int mem_free_trap(ThreadContext* c, void* ptr);
   7:src/abi.c     **** int thread_exit_trap(ThreadContext* c);
   8:src/abi.c     **** void thread_dispatch_trap(ThreadContext* c);
   9:src/abi.c     **** size_t mem_get_free_space_trap();
  10:src/abi.c     **** size_t mem_get_largest_free_block_trap();
  11:src/abi.c     **** int sem_open_trap(ThreadContext *t, sem_t* handle, int init);
  12:src/abi.c     **** int sem_wait_trap(ThreadContext* t, sem_t id);
  13:src/abi.c     **** int sem_signal_trap(ThreadContext* t, sem_t id);
  14:src/abi.c     **** int sem_close_trap(ThreadContext* t, sem_t id);
  15:src/abi.c     **** char getc_trap(ThreadContext* t);
  16:src/abi.c     **** void putc_trap(ThreadContext* t, char c);
  17:src/abi.c     **** void time_sleep_trap(ThreadContext* t, time_t slice);
  18:src/abi.c     **** 
  19:src/abi.c     **** 
  20:src/abi.c     **** void* abi_mem_alloc(ThreadContext* c, size_t blocks) {
  13              		.loc 1 20 54
  14              		.cfi_startproc
  15              	.LVL0:
  16 0000 130101FF 		addi	sp,sp,-16
  17              		.cfi_def_cfa_offset 16
  18 0004 23341100 		sd	ra,8(sp)
  19 0008 23308100 		sd	s0,0(sp)
  20              		.cfi_offset 1, -8
  21              		.cfi_offset 8, -16
  22 000c 13040101 		addi	s0,sp,16
  23              		.cfi_def_cfa 8, 0
  21:src/abi.c     **** 
  22:src/abi.c     ****     uint64 result =  mem_alloc_trap(c, blocks);
  24              		.loc 1 22 5
  25              		.loc 1 22 22 is_stmt 0
  26 0010 97000000 		call	mem_alloc_trap
  26      E7800000 
  27              	.LVL1:
  23:src/abi.c     ****     void* res = (void*)result;
  28              		.loc 1 23 5 is_stmt 1
  24:src/abi.c     ****     return res;
  29              		.loc 1 24 5
  25:src/abi.c     **** 
  26:src/abi.c     **** }
  30              		.loc 1 26 1 is_stmt 0
  31 0018 83308100 		ld	ra,8(sp)
GAS LISTING /tmp/ccW0DJiF.s 			page 2


  32              		.cfi_restore 1
  33 001c 03340100 		ld	s0,0(sp)
  34              		.cfi_restore 8
  35              		.cfi_def_cfa 2, 16
  36 0020 13010101 		addi	sp,sp,16
  37              		.cfi_def_cfa_offset 0
  38 0024 67800000 		jr	ra
  39              		.cfi_endproc
  40              	.LFE0:
  42              		.align	2
  43              		.globl	abi_mem_free
  45              	abi_mem_free:
  46              	.LFB1:
  27:src/abi.c     **** 
  28:src/abi.c     **** int abi_mem_free(ThreadContext* c, void* ptr){
  47              		.loc 1 28 46 is_stmt 1
  48              		.cfi_startproc
  49              	.LVL2:
  50 0028 130101FF 		addi	sp,sp,-16
  51              		.cfi_def_cfa_offset 16
  52 002c 23341100 		sd	ra,8(sp)
  53 0030 23308100 		sd	s0,0(sp)
  54              		.cfi_offset 1, -8
  55              		.cfi_offset 8, -16
  56 0034 13040101 		addi	s0,sp,16
  57              		.cfi_def_cfa 8, 0
  29:src/abi.c     ****     return mem_free_trap(c, ptr);
  58              		.loc 1 29 5
  59              		.loc 1 29 12 is_stmt 0
  60 0038 97000000 		call	mem_free_trap
  60      E7800000 
  61              	.LVL3:
  30:src/abi.c     **** }
  62              		.loc 1 30 1
  63 0040 83308100 		ld	ra,8(sp)
  64              		.cfi_restore 1
  65 0044 03340100 		ld	s0,0(sp)
  66              		.cfi_restore 8
  67              		.cfi_def_cfa 2, 16
  68 0048 13010101 		addi	sp,sp,16
  69              		.cfi_def_cfa_offset 0
  70 004c 67800000 		jr	ra
  71              		.cfi_endproc
  72              	.LFE1:
  74              		.align	2
  75              		.globl	abi_thread_create
  77              	abi_thread_create:
  78              	.LFB2:
  31:src/abi.c     **** 
  32:src/abi.c     **** int abi_thread_create(ThreadContext* c, thread_t* handle, void(*startRoutine)(void*), void* args, v
  79              		.loc 1 32 117 is_stmt 1
  80              		.cfi_startproc
  81              	.LVL4:
  82 0050 130101FF 		addi	sp,sp,-16
  83              		.cfi_def_cfa_offset 16
  84 0054 23341100 		sd	ra,8(sp)
  85 0058 23308100 		sd	s0,0(sp)
GAS LISTING /tmp/ccW0DJiF.s 			page 3


  86              		.cfi_offset 1, -8
  87              		.cfi_offset 8, -16
  88 005c 13040101 		addi	s0,sp,16
  89              		.cfi_def_cfa 8, 0
  33:src/abi.c     ****     return thread_create_trap(c, handle, startRoutine, args, stack_space);
  90              		.loc 1 33 5
  91              		.loc 1 33 12 is_stmt 0
  92 0060 97000000 		call	thread_create_trap
  92      E7800000 
  93              	.LVL5:
  34:src/abi.c     **** }
  94              		.loc 1 34 1
  95 0068 83308100 		ld	ra,8(sp)
  96              		.cfi_restore 1
  97 006c 03340100 		ld	s0,0(sp)
  98              		.cfi_restore 8
  99              		.cfi_def_cfa 2, 16
 100 0070 13010101 		addi	sp,sp,16
 101              		.cfi_def_cfa_offset 0
 102 0074 67800000 		jr	ra
 103              		.cfi_endproc
 104              	.LFE2:
 106              		.align	2
 107              		.globl	abi_thread_exit
 109              	abi_thread_exit:
 110              	.LFB3:
  35:src/abi.c     **** int abi_thread_exit(ThreadContext* c){
 111              		.loc 1 35 38 is_stmt 1
 112              		.cfi_startproc
 113              	.LVL6:
 114 0078 130101FF 		addi	sp,sp,-16
 115              		.cfi_def_cfa_offset 16
 116 007c 23341100 		sd	ra,8(sp)
 117 0080 23308100 		sd	s0,0(sp)
 118              		.cfi_offset 1, -8
 119              		.cfi_offset 8, -16
 120 0084 13040101 		addi	s0,sp,16
 121              		.cfi_def_cfa 8, 0
  36:src/abi.c     ****     return thread_exit_trap(c);
 122              		.loc 1 36 5
 123              		.loc 1 36 12 is_stmt 0
 124 0088 97000000 		call	thread_exit_trap
 124      E7800000 
 125              	.LVL7:
  37:src/abi.c     **** }
 126              		.loc 1 37 1
 127 0090 83308100 		ld	ra,8(sp)
 128              		.cfi_restore 1
 129 0094 03340100 		ld	s0,0(sp)
 130              		.cfi_restore 8
 131              		.cfi_def_cfa 2, 16
 132 0098 13010101 		addi	sp,sp,16
 133              		.cfi_def_cfa_offset 0
 134 009c 67800000 		jr	ra
 135              		.cfi_endproc
 136              	.LFE3:
 138              		.align	2
GAS LISTING /tmp/ccW0DJiF.s 			page 4


 139              		.globl	abi_thread_dispatch
 141              	abi_thread_dispatch:
 142              	.LFB4:
  38:src/abi.c     **** 
  39:src/abi.c     **** void abi_thread_dispatch(ThreadContext* c){
 143              		.loc 1 39 43 is_stmt 1
 144              		.cfi_startproc
 145              	.LVL8:
 146 00a0 130101FF 		addi	sp,sp,-16
 147              		.cfi_def_cfa_offset 16
 148 00a4 23341100 		sd	ra,8(sp)
 149 00a8 23308100 		sd	s0,0(sp)
 150              		.cfi_offset 1, -8
 151              		.cfi_offset 8, -16
 152 00ac 13040101 		addi	s0,sp,16
 153              		.cfi_def_cfa 8, 0
  40:src/abi.c     ****    return thread_dispatch_trap(c);
 154              		.loc 1 40 4
 155              		.loc 1 40 11 is_stmt 0
 156 00b0 97000000 		call	thread_dispatch_trap
 156      E7800000 
 157              	.LVL9:
  41:src/abi.c     **** }
 158              		.loc 1 41 1
 159 00b8 83308100 		ld	ra,8(sp)
 160              		.cfi_restore 1
 161 00bc 03340100 		ld	s0,0(sp)
 162              		.cfi_restore 8
 163              		.cfi_def_cfa 2, 16
 164 00c0 13010101 		addi	sp,sp,16
 165              		.cfi_def_cfa_offset 0
 166 00c4 67800000 		jr	ra
 167              		.cfi_endproc
 168              	.LFE4:
 170              		.align	2
 171              		.globl	abi_mem_get_free_space
 173              	abi_mem_get_free_space:
 174              	.LFB5:
  42:src/abi.c     **** 
  43:src/abi.c     **** size_t abi_mem_get_free_space(){
 175              		.loc 1 43 32 is_stmt 1
 176              		.cfi_startproc
 177 00c8 130101FF 		addi	sp,sp,-16
 178              		.cfi_def_cfa_offset 16
 179 00cc 23341100 		sd	ra,8(sp)
 180 00d0 23308100 		sd	s0,0(sp)
 181              		.cfi_offset 1, -8
 182              		.cfi_offset 8, -16
 183 00d4 13040101 		addi	s0,sp,16
 184              		.cfi_def_cfa 8, 0
  44:src/abi.c     ****     return mem_get_free_space_trap();
 185              		.loc 1 44 5
 186              		.loc 1 44 12 is_stmt 0
 187 00d8 97000000 		call	mem_get_free_space_trap
 187      E7800000 
 188              	.LVL10:
  45:src/abi.c     **** }
GAS LISTING /tmp/ccW0DJiF.s 			page 5


 189              		.loc 1 45 1
 190 00e0 83308100 		ld	ra,8(sp)
 191              		.cfi_restore 1
 192 00e4 03340100 		ld	s0,0(sp)
 193              		.cfi_restore 8
 194              		.cfi_def_cfa 2, 16
 195 00e8 13010101 		addi	sp,sp,16
 196              		.cfi_def_cfa_offset 0
 197 00ec 67800000 		jr	ra
 198              		.cfi_endproc
 199              	.LFE5:
 201              		.align	2
 202              		.globl	abi_mem_get_largest_free_block
 204              	abi_mem_get_largest_free_block:
 205              	.LFB6:
  46:src/abi.c     **** size_t abi_mem_get_largest_free_block(){
 206              		.loc 1 46 40 is_stmt 1
 207              		.cfi_startproc
 208 00f0 130101FF 		addi	sp,sp,-16
 209              		.cfi_def_cfa_offset 16
 210 00f4 23341100 		sd	ra,8(sp)
 211 00f8 23308100 		sd	s0,0(sp)
 212              		.cfi_offset 1, -8
 213              		.cfi_offset 8, -16
 214 00fc 13040101 		addi	s0,sp,16
 215              		.cfi_def_cfa 8, 0
  47:src/abi.c     ****     return mem_get_largest_free_block_trap();
 216              		.loc 1 47 5
 217              		.loc 1 47 12 is_stmt 0
 218 0100 97000000 		call	mem_get_largest_free_block_trap
 218      E7800000 
 219              	.LVL11:
  48:src/abi.c     **** }
 220              		.loc 1 48 1
 221 0108 83308100 		ld	ra,8(sp)
 222              		.cfi_restore 1
 223 010c 03340100 		ld	s0,0(sp)
 224              		.cfi_restore 8
 225              		.cfi_def_cfa 2, 16
 226 0110 13010101 		addi	sp,sp,16
 227              		.cfi_def_cfa_offset 0
 228 0114 67800000 		jr	ra
 229              		.cfi_endproc
 230              	.LFE6:
 232              		.align	2
 233              		.globl	abi_sem_open
 235              	abi_sem_open:
 236              	.LFB7:
  49:src/abi.c     **** int abi_sem_open(ThreadContext* t, sem_t* handle, int init){
 237              		.loc 1 49 60 is_stmt 1
 238              		.cfi_startproc
 239              	.LVL12:
 240 0118 130101FF 		addi	sp,sp,-16
 241              		.cfi_def_cfa_offset 16
 242 011c 23341100 		sd	ra,8(sp)
 243 0120 23308100 		sd	s0,0(sp)
 244              		.cfi_offset 1, -8
GAS LISTING /tmp/ccW0DJiF.s 			page 6


 245              		.cfi_offset 8, -16
 246 0124 13040101 		addi	s0,sp,16
 247              		.cfi_def_cfa 8, 0
  50:src/abi.c     ****     return sem_open_trap(t, handle, init);
 248              		.loc 1 50 5
 249              		.loc 1 50 12 is_stmt 0
 250 0128 97000000 		call	sem_open_trap
 250      E7800000 
 251              	.LVL13:
  51:src/abi.c     **** }
 252              		.loc 1 51 1
 253 0130 83308100 		ld	ra,8(sp)
 254              		.cfi_restore 1
 255 0134 03340100 		ld	s0,0(sp)
 256              		.cfi_restore 8
 257              		.cfi_def_cfa 2, 16
 258 0138 13010101 		addi	sp,sp,16
 259              		.cfi_def_cfa_offset 0
 260 013c 67800000 		jr	ra
 261              		.cfi_endproc
 262              	.LFE7:
 264              		.align	2
 265              		.globl	abi_sem_wait
 267              	abi_sem_wait:
 268              	.LFB8:
  52:src/abi.c     **** int abi_sem_wait(ThreadContext* t, sem_t id){
 269              		.loc 1 52 45 is_stmt 1
 270              		.cfi_startproc
 271              	.LVL14:
 272 0140 130101FF 		addi	sp,sp,-16
 273              		.cfi_def_cfa_offset 16
 274 0144 23341100 		sd	ra,8(sp)
 275 0148 23308100 		sd	s0,0(sp)
 276              		.cfi_offset 1, -8
 277              		.cfi_offset 8, -16
 278 014c 13040101 		addi	s0,sp,16
 279              		.cfi_def_cfa 8, 0
  53:src/abi.c     ****     return sem_wait_trap(t, id);
 280              		.loc 1 53 5
 281              		.loc 1 53 12 is_stmt 0
 282 0150 97000000 		call	sem_wait_trap
 282      E7800000 
 283              	.LVL15:
  54:src/abi.c     **** }
 284              		.loc 1 54 1
 285 0158 83308100 		ld	ra,8(sp)
 286              		.cfi_restore 1
 287 015c 03340100 		ld	s0,0(sp)
 288              		.cfi_restore 8
 289              		.cfi_def_cfa 2, 16
 290 0160 13010101 		addi	sp,sp,16
 291              		.cfi_def_cfa_offset 0
 292 0164 67800000 		jr	ra
 293              		.cfi_endproc
 294              	.LFE8:
 296              		.align	2
 297              		.globl	abi_sem_signal
GAS LISTING /tmp/ccW0DJiF.s 			page 7


 299              	abi_sem_signal:
 300              	.LFB9:
  55:src/abi.c     **** int abi_sem_signal(ThreadContext* t, sem_t id){
 301              		.loc 1 55 47 is_stmt 1
 302              		.cfi_startproc
 303              	.LVL16:
 304 0168 130101FF 		addi	sp,sp,-16
 305              		.cfi_def_cfa_offset 16
 306 016c 23341100 		sd	ra,8(sp)
 307 0170 23308100 		sd	s0,0(sp)
 308              		.cfi_offset 1, -8
 309              		.cfi_offset 8, -16
 310 0174 13040101 		addi	s0,sp,16
 311              		.cfi_def_cfa 8, 0
  56:src/abi.c     ****     return sem_signal_trap(t, id);
 312              		.loc 1 56 5
 313              		.loc 1 56 12 is_stmt 0
 314 0178 97000000 		call	sem_signal_trap
 314      E7800000 
 315              	.LVL17:
  57:src/abi.c     **** }
 316              		.loc 1 57 1
 317 0180 83308100 		ld	ra,8(sp)
 318              		.cfi_restore 1
 319 0184 03340100 		ld	s0,0(sp)
 320              		.cfi_restore 8
 321              		.cfi_def_cfa 2, 16
 322 0188 13010101 		addi	sp,sp,16
 323              		.cfi_def_cfa_offset 0
 324 018c 67800000 		jr	ra
 325              		.cfi_endproc
 326              	.LFE9:
 328              		.align	2
 329              		.globl	abi_sem_close
 331              	abi_sem_close:
 332              	.LFB10:
  58:src/abi.c     **** int abi_sem_close(ThreadContext* t, sem_t id){
 333              		.loc 1 58 46 is_stmt 1
 334              		.cfi_startproc
 335              	.LVL18:
 336 0190 130101FF 		addi	sp,sp,-16
 337              		.cfi_def_cfa_offset 16
 338 0194 23341100 		sd	ra,8(sp)
 339 0198 23308100 		sd	s0,0(sp)
 340              		.cfi_offset 1, -8
 341              		.cfi_offset 8, -16
 342 019c 13040101 		addi	s0,sp,16
 343              		.cfi_def_cfa 8, 0
  59:src/abi.c     ****     return sem_close_trap(t, id);
 344              		.loc 1 59 5
 345              		.loc 1 59 12 is_stmt 0
 346 01a0 97000000 		call	sem_close_trap
 346      E7800000 
 347              	.LVL19:
  60:src/abi.c     **** }
 348              		.loc 1 60 1
 349 01a8 83308100 		ld	ra,8(sp)
GAS LISTING /tmp/ccW0DJiF.s 			page 8


 350              		.cfi_restore 1
 351 01ac 03340100 		ld	s0,0(sp)
 352              		.cfi_restore 8
 353              		.cfi_def_cfa 2, 16
 354 01b0 13010101 		addi	sp,sp,16
 355              		.cfi_def_cfa_offset 0
 356 01b4 67800000 		jr	ra
 357              		.cfi_endproc
 358              	.LFE10:
 360              		.align	2
 361              		.globl	abi_getc
 363              	abi_getc:
 364              	.LFB11:
  61:src/abi.c     **** 
  62:src/abi.c     **** char abi_getc(ThreadContext* t){
 365              		.loc 1 62 32 is_stmt 1
 366              		.cfi_startproc
 367              	.LVL20:
 368 01b8 130101FF 		addi	sp,sp,-16
 369              		.cfi_def_cfa_offset 16
 370 01bc 23341100 		sd	ra,8(sp)
 371 01c0 23308100 		sd	s0,0(sp)
 372              		.cfi_offset 1, -8
 373              		.cfi_offset 8, -16
 374 01c4 13040101 		addi	s0,sp,16
 375              		.cfi_def_cfa 8, 0
  63:src/abi.c     ****     return getc_trap(t);
 376              		.loc 1 63 5
 377              		.loc 1 63 12 is_stmt 0
 378 01c8 97000000 		call	getc_trap
 378      E7800000 
 379              	.LVL21:
  64:src/abi.c     **** }
 380              		.loc 1 64 1
 381 01d0 83308100 		ld	ra,8(sp)
 382              		.cfi_restore 1
 383 01d4 03340100 		ld	s0,0(sp)
 384              		.cfi_restore 8
 385              		.cfi_def_cfa 2, 16
 386 01d8 13010101 		addi	sp,sp,16
 387              		.cfi_def_cfa_offset 0
 388 01dc 67800000 		jr	ra
 389              		.cfi_endproc
 390              	.LFE11:
 392              		.align	2
 393              		.globl	abi_putc
 395              	abi_putc:
 396              	.LFB12:
  65:src/abi.c     **** void abi_putc(ThreadContext* t, char c){
 397              		.loc 1 65 40 is_stmt 1
 398              		.cfi_startproc
 399              	.LVL22:
 400 01e0 130101FF 		addi	sp,sp,-16
 401              		.cfi_def_cfa_offset 16
 402 01e4 23341100 		sd	ra,8(sp)
 403 01e8 23308100 		sd	s0,0(sp)
 404              		.cfi_offset 1, -8
GAS LISTING /tmp/ccW0DJiF.s 			page 9


 405              		.cfi_offset 8, -16
 406 01ec 13040101 		addi	s0,sp,16
 407              		.cfi_def_cfa 8, 0
  66:src/abi.c     ****      putc_trap(t, c);
 408              		.loc 1 66 6
 409 01f0 97000000 		call	putc_trap
 409      E7800000 
 410              	.LVL23:
  67:src/abi.c     **** }
 411              		.loc 1 67 1 is_stmt 0
 412 01f8 83308100 		ld	ra,8(sp)
 413              		.cfi_restore 1
 414 01fc 03340100 		ld	s0,0(sp)
 415              		.cfi_restore 8
 416              		.cfi_def_cfa 2, 16
 417 0200 13010101 		addi	sp,sp,16
 418              		.cfi_def_cfa_offset 0
 419 0204 67800000 		jr	ra
 420              		.cfi_endproc
 421              	.LFE12:
 423              		.align	2
 424              		.globl	abi_time_sleep
 426              	abi_time_sleep:
 427              	.LFB13:
  68:src/abi.c     **** void abi_time_sleep(ThreadContext* t, time_t slice){
 428              		.loc 1 68 52 is_stmt 1
 429              		.cfi_startproc
 430              	.LVL24:
 431 0208 130101FF 		addi	sp,sp,-16
 432              		.cfi_def_cfa_offset 16
 433 020c 23348100 		sd	s0,8(sp)
 434              		.cfi_offset 8, -8
 435 0210 13040101 		addi	s0,sp,16
 436              		.cfi_def_cfa 8, 0
  69:src/abi.c     ****     //return time_sleep_trap(t, slice);
  70:src/abi.c     **** }...
 437              		.loc 1 70 1
 438 0214 03348100 		ld	s0,8(sp)
 439              		.cfi_restore 8
 440              		.cfi_def_cfa 2, 16
 441 0218 13010101 		addi	sp,sp,16
 442              		.cfi_def_cfa_offset 0
 443 021c 67800000 		jr	ra
 444              		.cfi_endproc
 445              	.LFE13:
 447              	.Letext0:
 448              		.file 2 "src/../h/../lib/hw.h"
 449              		.file 3 "src/../h/memory_structs.h"
GAS LISTING /tmp/ccW0DJiF.s 			page 10

