GAS LISTING /tmp/ccpztAtM.s 			page 1


   1              		.file	"Buffer.cpp"
   2              		.option pic
   3              		.option norelax
   4              		.text
   5              	.Ltext0:
   6              		.align	2
   7              		.globl	_ZN13ConsoleBufferC2Ev
   9              	_ZN13ConsoleBufferC2Ev:
  10              	.LFB2:
  11              		.file 1 "src/Buffer.cpp"
   1:src/Buffer.cpp **** #include "../h/Buffer.hpp"
   2:src/Buffer.cpp **** 
   3:src/Buffer.cpp **** ConsoleBuffer::ConsoleBuffer() {
  12              		.loc 1 3 1
  13              		.cfi_startproc
  14              		.cfi_personality 0x9b,DW.ref.__gxx_personality_v0
  15              		.cfi_lsda 0x1b,.LLSDA2
  16              	.LVL0:
  17 0000 130101FE 		addi	sp,sp,-32
  18              		.cfi_def_cfa_offset 32
  19 0004 233C1100 		sd	ra,24(sp)
  20 0008 23388100 		sd	s0,16(sp)
  21 000c 23349100 		sd	s1,8(sp)
  22 0010 23302101 		sd	s2,0(sp)
  23              		.cfi_offset 1, -8
  24              		.cfi_offset 8, -16
  25              		.cfi_offset 9, -24
  26              		.cfi_offset 18, -32
  27 0014 13040102 		addi	s0,sp,32
  28              		.cfi_def_cfa 8, 0
  29 0018 93040500 		mv	s1,a0
  30              	.LBB2:
   4:src/Buffer.cpp ****     head = tail = count = 0;
  31              		.loc 1 4 5
  32              		.loc 1 4 25 is_stmt 0
  33 001c 23380520 		sd	zero,528(a0)
  34              		.loc 1 4 17
  35 0020 23340520 		sd	zero,520(a0)
  36              		.loc 1 4 10
  37 0024 23300520 		sd	zero,512(a0)
   5:src/Buffer.cpp ****     itemAvailable  = new Semaphore(0);
  38              		.loc 1 5 5 is_stmt 1
  39              		.loc 1 5 37 is_stmt 0
  40 0028 13050002 		li	a0,32
  41              	.LVL1:
  42              	.LEHB0:
  43 002c 97000000 		call	_ZN9SemaphorenwEm@plt
  43      E7800000 
  44              	.LVL2:
  45              	.LEHE0:
  46 0034 13090500 		mv	s2,a0
  47 0038 93050000 		li	a1,0
  48              	.LEHB1:
  49 003c 97000000 		call	_ZN9SemaphoreC1Ej@plt
  49      E7800000 
  50              	.LVL3:
  51              	.LEHE1:
GAS LISTING /tmp/ccpztAtM.s 			page 2


  52              		.loc 1 5 20 discriminator 2
  53 0044 23BC2421 		sd	s2,536(s1)
   6:src/Buffer.cpp ****     spaceAvailable = new Semaphore(BUFF_SIZE);
  54              		.loc 1 6 5 is_stmt 1 discriminator 2
  55              		.loc 1 6 45 is_stmt 0 discriminator 2
  56 0048 13050002 		li	a0,32
  57              	.LEHB2:
  58 004c 97000000 		call	_ZN9SemaphorenwEm@plt
  58      E7800000 
  59              	.LVL4:
  60              	.LEHE2:
  61 0054 13090500 		mv	s2,a0
  62 0058 93050020 		li	a1,512
  63              	.LEHB3:
  64 005c 97000000 		call	_ZN9SemaphoreC1Ej@plt
  64      E7800000 
  65              	.LVL5:
  66              	.LEHE3:
  67              		.loc 1 6 20 discriminator 2
  68 0064 23B02423 		sd	s2,544(s1)
   7:src/Buffer.cpp ****     mutex          = new Semaphore(1);
  69              		.loc 1 7 5 is_stmt 1 discriminator 2
  70              		.loc 1 7 37 is_stmt 0 discriminator 2
  71 0068 13050002 		li	a0,32
  72              	.LEHB4:
  73 006c 97000000 		call	_ZN9SemaphorenwEm@plt
  73      E7800000 
  74              	.LVL6:
  75              	.LEHE4:
  76 0074 13090500 		mv	s2,a0
  77 0078 93051000 		li	a1,1
  78              	.LEHB5:
  79 007c 97000000 		call	_ZN9SemaphoreC1Ej@plt
  79      E7800000 
  80              	.LVL7:
  81              	.LEHE5:
  82              		.loc 1 7 20 discriminator 2
  83 0084 23B42423 		sd	s2,552(s1)
  84              	.LBE2:
   8:src/Buffer.cpp **** }
  85              		.loc 1 8 1 discriminator 2
  86 0088 83308101 		ld	ra,24(sp)
  87              		.cfi_remember_state
  88              		.cfi_restore 1
  89 008c 03340101 		ld	s0,16(sp)
  90              		.cfi_restore 8
  91              		.cfi_def_cfa 2, 32
  92 0090 83348100 		ld	s1,8(sp)
  93              		.cfi_restore 9
  94              	.LVL8:
  95 0094 03390100 		ld	s2,0(sp)
  96              		.cfi_restore 18
  97 0098 13010102 		addi	sp,sp,32
  98              		.cfi_def_cfa_offset 0
  99 009c 67800000 		jr	ra
 100              	.LVL9:
 101              	.L5:
GAS LISTING /tmp/ccpztAtM.s 			page 3


 102              		.cfi_restore_state
 103 00a0 93040500 		mv	s1,a0
 104              	.LVL10:
 105              	.LBB3:
   5:src/Buffer.cpp ****     spaceAvailable = new Semaphore(BUFF_SIZE);
 106              		.loc 1 5 37
 107 00a4 13050900 		mv	a0,s2
 108 00a8 97000000 		call	_ZN9SemaphoredlEPv@plt
 108      E7800000 
 109              	.LVL11:
 110 00b0 13850400 		mv	a0,s1
 111              	.LEHB6:
 112 00b4 97000000 		call	_Unwind_Resume@plt
 112      E7800000 
 113              	.LVL12:
 114              	.L6:
 115 00bc 93040500 		mv	s1,a0
 116              	.LVL13:
   6:src/Buffer.cpp ****     mutex          = new Semaphore(1);
 117              		.loc 1 6 45
 118 00c0 13050900 		mv	a0,s2
 119 00c4 97000000 		call	_ZN9SemaphoredlEPv@plt
 119      E7800000 
 120              	.LVL14:
 121 00cc 13850400 		mv	a0,s1
 122 00d0 97000000 		call	_Unwind_Resume@plt
 122      E7800000 
 123              	.LVL15:
 124              	.L7:
 125 00d8 93040500 		mv	s1,a0
 126              	.LVL16:
   7:src/Buffer.cpp **** }
 127              		.loc 1 7 37
 128 00dc 13050900 		mv	a0,s2
 129 00e0 97000000 		call	_ZN9SemaphoredlEPv@plt
 129      E7800000 
 130              	.LVL17:
 131 00e8 13850400 		mv	a0,s1
 132 00ec 97000000 		call	_Unwind_Resume@plt
 132      E7800000 
 133              	.LVL18:
 134              	.LEHE6:
 135              	.LBE3:
 136              		.cfi_endproc
 137              	.LFE2:
 138              		.globl	__gxx_personality_v0
 139              		.section	.gcc_except_table,"a",@progbits
 140              	.LLSDA2:
 141 0000 FF       		.byte	0xff
 142 0001 FF       		.byte	0xff
 143 0002 03       		.byte	0x3
 144 0003 5B       		.byte	0x5b
 145 0004 00000000 		.4byte	.LEHB0-.LFB2
 146 0008 00000000 		.4byte	.LEHE0-.LEHB0
 147 000c 00000000 		.4byte	0
 148 0010 00       		.byte	0
 149 0011 00000000 		.4byte	.LEHB1-.LFB2
GAS LISTING /tmp/ccpztAtM.s 			page 4


 150 0015 00000000 		.4byte	.LEHE1-.LEHB1
 151 0019 00000000 		.4byte	.L5-.LFB2
 152 001d 00       		.byte	0
 153 001e 00000000 		.4byte	.LEHB2-.LFB2
 154 0022 00000000 		.4byte	.LEHE2-.LEHB2
 155 0026 00000000 		.4byte	0
 156 002a 00       		.byte	0
 157 002b 00000000 		.4byte	.LEHB3-.LFB2
 158 002f 00000000 		.4byte	.LEHE3-.LEHB3
 159 0033 00000000 		.4byte	.L6-.LFB2
 160 0037 00       		.byte	0
 161 0038 00000000 		.4byte	.LEHB4-.LFB2
 162 003c 00000000 		.4byte	.LEHE4-.LEHB4
 163 0040 00000000 		.4byte	0
 164 0044 00       		.byte	0
 165 0045 00000000 		.4byte	.LEHB5-.LFB2
 166 0049 00000000 		.4byte	.LEHE5-.LEHB5
 167 004d 00000000 		.4byte	.L7-.LFB2
 168 0051 00       		.byte	0
 169 0052 00000000 		.4byte	.LEHB6-.LFB2
 170 0056 00000000 		.4byte	.LEHE6-.LEHB6
 171 005a 00000000 		.4byte	0
 172 005e 00       		.byte	0
 173              		.text
 175              		.globl	_ZN13ConsoleBufferC1Ev
 176              		.set	_ZN13ConsoleBufferC1Ev,_ZN13ConsoleBufferC2Ev
 177              		.align	2
 178              		.globl	_ZN13ConsoleBuffer4putcEc
 180              	_ZN13ConsoleBuffer4putcEc:
 181              	.LFB4:
   9:src/Buffer.cpp **** 
  10:src/Buffer.cpp **** void ConsoleBuffer::putc(char c) {
 182              		.loc 1 10 34 is_stmt 1
 183              		.cfi_startproc
 184              	.LVL19:
 185 00f4 130101FE 		addi	sp,sp,-32
 186              		.cfi_def_cfa_offset 32
 187 00f8 233C1100 		sd	ra,24(sp)
 188 00fc 23388100 		sd	s0,16(sp)
 189 0100 23349100 		sd	s1,8(sp)
 190 0104 23302101 		sd	s2,0(sp)
 191              		.cfi_offset 1, -8
 192              		.cfi_offset 8, -16
 193              		.cfi_offset 9, -24
 194              		.cfi_offset 18, -32
 195 0108 13040102 		addi	s0,sp,32
 196              		.cfi_def_cfa 8, 0
 197 010c 93040500 		mv	s1,a0
 198 0110 13890500 		mv	s2,a1
  11:src/Buffer.cpp **** 
  12:src/Buffer.cpp ****     spaceAvailable->wait();
 199              		.loc 1 12 5
 200              		.loc 1 12 25 is_stmt 0
 201 0114 03350522 		ld	a0,544(a0)
 202              	.LVL20:
 203 0118 97000000 		call	_ZN9Semaphore4waitEv@plt
 203      E7800000 
GAS LISTING /tmp/ccpztAtM.s 			page 5


 204              	.LVL21:
  13:src/Buffer.cpp **** 
  14:src/Buffer.cpp **** 
  15:src/Buffer.cpp ****     buffer[tail] = c;
 205              		.loc 1 15 5 is_stmt 1
 206              		.loc 1 15 12 is_stmt 0
 207 0120 83B78420 		ld	a5,520(s1)
 208              		.loc 1 15 18
 209 0124 3387F400 		add	a4,s1,a5
 210 0128 23002701 		sb	s2,0(a4)
  16:src/Buffer.cpp ****     tail = (tail + 1) % BUFF_SIZE;
 211              		.loc 1 16 5 is_stmt 1
 212              		.loc 1 16 18 is_stmt 0
 213 012c 93871700 		addi	a5,a5,1
 214              		.loc 1 16 23
 215 0130 93F7F71F 		andi	a5,a5,511
 216              		.loc 1 16 10
 217 0134 23B4F420 		sd	a5,520(s1)
  17:src/Buffer.cpp ****     count++;
 218              		.loc 1 17 5 is_stmt 1
 219 0138 83B70421 		ld	a5,528(s1)
 220              		.loc 1 17 10 is_stmt 0
 221 013c 93871700 		addi	a5,a5,1
 222 0140 23B8F420 		sd	a5,528(s1)
  18:src/Buffer.cpp **** 
  19:src/Buffer.cpp **** 
  20:src/Buffer.cpp ****     itemAvailable->signal();
 223              		.loc 1 20 5 is_stmt 1
 224              		.loc 1 20 26 is_stmt 0
 225 0144 03B58421 		ld	a0,536(s1)
 226 0148 97000000 		call	_ZN9Semaphore6signalEv@plt
 226      E7800000 
 227              	.LVL22:
  21:src/Buffer.cpp **** }
 228              		.loc 1 21 1
 229 0150 83308101 		ld	ra,24(sp)
 230              		.cfi_restore 1
 231 0154 03340101 		ld	s0,16(sp)
 232              		.cfi_restore 8
 233              		.cfi_def_cfa 2, 32
 234 0158 83348100 		ld	s1,8(sp)
 235              		.cfi_restore 9
 236              	.LVL23:
 237 015c 03390100 		ld	s2,0(sp)
 238              		.cfi_restore 18
 239 0160 13010102 		addi	sp,sp,32
 240              		.cfi_def_cfa_offset 0
 241 0164 67800000 		jr	ra
 242              		.cfi_endproc
 243              	.LFE4:
 245              		.align	2
 246              		.globl	_ZN13ConsoleBuffer4getcEv
 248              	_ZN13ConsoleBuffer4getcEv:
 249              	.LFB5:
  22:src/Buffer.cpp **** 
  23:src/Buffer.cpp **** char ConsoleBuffer::getc() {
 250              		.loc 1 23 28 is_stmt 1
GAS LISTING /tmp/ccpztAtM.s 			page 6


 251              		.cfi_startproc
 252              	.LVL24:
 253 0168 130101FE 		addi	sp,sp,-32
 254              		.cfi_def_cfa_offset 32
 255 016c 233C1100 		sd	ra,24(sp)
 256 0170 23388100 		sd	s0,16(sp)
 257 0174 23349100 		sd	s1,8(sp)
 258 0178 23302101 		sd	s2,0(sp)
 259              		.cfi_offset 1, -8
 260              		.cfi_offset 8, -16
 261              		.cfi_offset 9, -24
 262              		.cfi_offset 18, -32
 263 017c 13040102 		addi	s0,sp,32
 264              		.cfi_def_cfa 8, 0
 265 0180 93040500 		mv	s1,a0
  24:src/Buffer.cpp ****     itemAvailable->wait();
 266              		.loc 1 24 5
 267              		.loc 1 24 24 is_stmt 0
 268 0184 03358521 		ld	a0,536(a0)
 269              	.LVL25:
 270 0188 97000000 		call	_ZN9Semaphore4waitEv@plt
 270      E7800000 
 271              	.LVL26:
  25:src/Buffer.cpp **** 
  26:src/Buffer.cpp ****     char c = buffer[head];
 272              		.loc 1 26 5 is_stmt 1
 273              		.loc 1 26 21 is_stmt 0
 274 0190 83B70420 		ld	a5,512(s1)
 275              		.loc 1 26 10
 276 0194 3387F400 		add	a4,s1,a5
 277 0198 03490700 		lbu	s2,0(a4)
 278              	.LVL27:
  27:src/Buffer.cpp ****     head = (head + 1) % BUFF_SIZE;
 279              		.loc 1 27 5 is_stmt 1
 280              		.loc 1 27 18 is_stmt 0
 281 019c 93871700 		addi	a5,a5,1
 282              		.loc 1 27 23
 283 01a0 93F7F71F 		andi	a5,a5,511
 284              		.loc 1 27 10
 285 01a4 23B0F420 		sd	a5,512(s1)
  28:src/Buffer.cpp ****     count--;
 286              		.loc 1 28 5 is_stmt 1
 287 01a8 83B70421 		ld	a5,528(s1)
 288              		.loc 1 28 10 is_stmt 0
 289 01ac 9387F7FF 		addi	a5,a5,-1
 290 01b0 23B8F420 		sd	a5,528(s1)
  29:src/Buffer.cpp **** 
  30:src/Buffer.cpp **** 
  31:src/Buffer.cpp ****     spaceAvailable->signal();
 291              		.loc 1 31 5 is_stmt 1
 292              		.loc 1 31 27 is_stmt 0
 293 01b4 03B50422 		ld	a0,544(s1)
 294 01b8 97000000 		call	_ZN9Semaphore6signalEv@plt
 294      E7800000 
 295              	.LVL28:
  32:src/Buffer.cpp **** 
  33:src/Buffer.cpp ****     return c;
GAS LISTING /tmp/ccpztAtM.s 			page 7


 296              		.loc 1 33 5 is_stmt 1
  34:src/Buffer.cpp **** }
 297              		.loc 1 34 1 is_stmt 0
 298 01c0 13050900 		mv	a0,s2
 299 01c4 83308101 		ld	ra,24(sp)
 300              		.cfi_restore 1
 301 01c8 03340101 		ld	s0,16(sp)
 302              		.cfi_restore 8
 303              		.cfi_def_cfa 2, 32
 304 01cc 83348100 		ld	s1,8(sp)
 305              		.cfi_restore 9
 306              	.LVL29:
 307 01d0 03390100 		ld	s2,0(sp)
 308              		.cfi_restore 18
 309              	.LVL30:
 310 01d4 13010102 		addi	sp,sp,32
 311              		.cfi_def_cfa_offset 0
 312 01d8 67800000 		jr	ra
 313              		.cfi_endproc
 314              	.LFE5:
 316              		.align	2
 317              		.globl	_ZNK13ConsoleBuffer11getCapacityEv
 319              	_ZNK13ConsoleBuffer11getCapacityEv:
 320              	.LFB6:
  35:src/Buffer.cpp **** uint64 ConsoleBuffer::getCapacity() const {
 321              		.loc 1 35 43 is_stmt 1
 322              		.cfi_startproc
 323              	.LVL31:
 324 01dc 130101FF 		addi	sp,sp,-16
 325              		.cfi_def_cfa_offset 16
 326 01e0 23348100 		sd	s0,8(sp)
 327              		.cfi_offset 8, -8
 328 01e4 13040101 		addi	s0,sp,16
 329              		.cfi_def_cfa 8, 0
  36:src/Buffer.cpp ****     return BUFF_SIZE;
 330              		.loc 1 36 5
  37:src/Buffer.cpp **** }
 331              		.loc 1 37 1 is_stmt 0
 332 01e8 13050020 		li	a0,512
 333              	.LVL32:
 334 01ec 03348100 		ld	s0,8(sp)
 335              		.cfi_restore 8
 336              		.cfi_def_cfa 2, 16
 337 01f0 13010101 		addi	sp,sp,16
 338              		.cfi_def_cfa_offset 0
 339 01f4 67800000 		jr	ra
 340              		.cfi_endproc
 341              	.LFE6:
 343              	.Letext0:
 344              		.file 2 "src/../h/../lib/hw.h"
 345              		.file 3 "src/../h/Buffer.hpp"
 346              		.file 4 "src/../h/Semaphore.hpp"
 1723              		.align	3
 1726              	DW.ref.__gxx_personality_v0:
 1727 0000 00000000 		.dword	__gxx_personality_v0
 1727      00000000 
 1728              		.ident	"GCC: (Ubuntu 9.4.0-1ubuntu1~20.04) 9.4.0"
GAS LISTING /tmp/ccpztAtM.s 			page 8


 1729              		.section	.note.GNU-stack,"",@progbits
GAS LISTING /tmp/ccpztAtM.s 			page 9

