GAS LISTING /tmp/ccFEuJOx.s 			page 1


   1              		.file	"Console.cpp"
   2              		.option pic
   3              		.option norelax
   4              		.text
   5              	.Ltext0:
   6              		.align	2
   7              		.globl	_ZN7Console15producerRoutineEPv
   9              	_ZN7Console15producerRoutineEPv:
  10              	.LFB5:
  11              		.file 1 "src/Console.cpp"
   1:src/Console.cpp **** #include "../h/Console.hpp"
   2:src/Console.cpp **** #include "../lib/hw.h"
   3:src/Console.cpp **** #include "../h/Scheduler.hpp"
   4:src/Console.cpp **** 
   5:src/Console.cpp **** Console* Console::Instance() {
   6:src/Console.cpp ****     static Console instance;
   7:src/Console.cpp ****     return &instance;
   8:src/Console.cpp **** }
   9:src/Console.cpp **** 
  10:src/Console.cpp **** void Console::producerRoutine(void* arg) {
  12              		.loc 1 10 42
  13              		.cfi_startproc
  14              	.LVL0:
  15 0000 130101FF 		addi	sp,sp,-16
  16              		.cfi_def_cfa_offset 16
  17 0004 23348100 		sd	s0,8(sp)
  18              		.cfi_offset 8, -8
  19 0008 13040101 		addi	s0,sp,16
  20              		.cfi_def_cfa 8, 0
  11:src/Console.cpp **** //    for (;;) {
  12:src/Console.cpp **** //        // Ako nema podataka u txBuffer-u, čekaj
  13:src/Console.cpp **** //        if (Console::Instance()->txBuffer.getCount() == 0) {
  14:src/Console.cpp **** //
  15:src/Console.cpp **** //            Console::Instance()->putcSemaphore->wait();
  16:src/Console.cpp **** //        }
  17:src/Console.cpp **** //
  18:src/Console.cpp **** //        uint8 cstatus = *((volatile uint8*) CONSOLE_STATUS);
  19:src/Console.cpp **** //        uint8 txReady = cstatus & CONSOLE_TX_STATUS_BIT;
  20:src/Console.cpp **** //        uint8 rxReady = cstatus & CONSOLE_RX_STATUS_BIT;
  21:src/Console.cpp **** //
  22:src/Console.cpp **** //        if (txReady && Console::Instance()->isInterrupted) {
  23:src/Console.cpp **** //            char c = Console::Instance()->txBuffer.getc();
  24:src/Console.cpp **** //            *((volatile uint8*) CONSOLE_TX_DATA) = (uint8)c;
  25:src/Console.cpp **** //            break;
  26:src/Console.cpp **** //        } else if (!rxReady && !txReady && Console::Instance()->isInterrupted) {
  27:src/Console.cpp **** //            Console::Instance()->isInterrupted = false;
  28:src/Console.cpp **** //            plic_complete(CONSOLE_IRQ);
  29:src/Console.cpp **** //        } else {
  30:src/Console.cpp **** //            Thread::thread_dispatch_kernel();
  31:src/Console.cpp **** //        }
  32:src/Console.cpp **** //    }
  33:src/Console.cpp **** }
  21              		.loc 1 33 1 is_stmt 0
  22 000c 03348100 		ld	s0,8(sp)
  23              		.cfi_restore 8
  24              		.cfi_def_cfa 2, 16
  25 0010 13010101 		addi	sp,sp,16
GAS LISTING /tmp/ccFEuJOx.s 			page 2


  26              		.cfi_def_cfa_offset 0
  27 0014 67800000 		jr	ra
  28              		.cfi_endproc
  29              	.LFE5:
  31              		.align	2
  32              		.globl	_ZN7Console15consumerRoutineEPv
  34              	_ZN7Console15consumerRoutineEPv:
  35              	.LFB6:
  34:src/Console.cpp **** 
  35:src/Console.cpp **** void Console::consumerRoutine(void* arg) {
  36              		.loc 1 35 42 is_stmt 1
  37              		.cfi_startproc
  38              	.LVL1:
  39 0018 130101FF 		addi	sp,sp,-16
  40              		.cfi_def_cfa_offset 16
  41 001c 23348100 		sd	s0,8(sp)
  42              		.cfi_offset 8, -8
  43 0020 13040101 		addi	s0,sp,16
  44              		.cfi_def_cfa 8, 0
  36:src/Console.cpp **** //    for (;;) {
  37:src/Console.cpp **** //        // Čekaj dok rxBuffer nije pun
  38:src/Console.cpp **** //        while (Console::Instance()->rxBuffer.getCount() == Console::Instance()->rxBuffer.getCapac
  39:src/Console.cpp **** //
  40:src/Console.cpp **** //            Thread::thread_dispatch_kernel();
  41:src/Console.cpp **** //        }
  42:src/Console.cpp **** //
  43:src/Console.cpp **** //        uint8 cstatus = *((volatile uint8*) CONSOLE_STATUS);
  44:src/Console.cpp **** //        uint8 txReady = cstatus & CONSOLE_TX_STATUS_BIT;
  45:src/Console.cpp **** //        uint8 rxReady = cstatus & CONSOLE_RX_STATUS_BIT;
  46:src/Console.cpp **** //
  47:src/Console.cpp **** //        if (rxReady && Console::Instance()->isInterrupted) {
  48:src/Console.cpp **** //            uint8 c = *((volatile uint8*) CONSOLE_RX_DATA);
  49:src/Console.cpp **** //            Console::Instance()->rxBuffer.putc((char)c);
  50:src/Console.cpp **** //            //izmenila
  51:src/Console.cpp **** //            Console::Instance()->putcSemaphore->signal();
  52:src/Console.cpp **** //        } else if (!rxReady && !txReady && Console::Instance()->isInterrupted) {
  53:src/Console.cpp **** //            Console::Instance()->isInterrupted = false;
  54:src/Console.cpp **** //            plic_complete(CONSOLE_IRQ);
  55:src/Console.cpp **** //        } else {
  56:src/Console.cpp **** //            Thread::thread_dispatch_kernel();
  57:src/Console.cpp **** //        }
  58:src/Console.cpp **** //    }
  59:src/Console.cpp **** }
  45              		.loc 1 59 1 is_stmt 0
  46 0024 03348100 		ld	s0,8(sp)
  47              		.cfi_restore 8
  48              		.cfi_def_cfa 2, 16
  49 0028 13010101 		addi	sp,sp,16
  50              		.cfi_def_cfa_offset 0
  51 002c 67800000 		jr	ra
  52              		.cfi_endproc
  53              	.LFE6:
  55              		.align	2
  56              		.globl	_ZN7ConsoleC2Ev
  58              	_ZN7ConsoleC2Ev:
  59              	.LFB8:
  60:src/Console.cpp **** 
GAS LISTING /tmp/ccFEuJOx.s 			page 3


  61:src/Console.cpp **** Console::Console() {
  60              		.loc 1 61 1 is_stmt 1
  61              		.cfi_startproc
  62              		.cfi_personality 0x9b,DW.ref.__gxx_personality_v0
  63              		.cfi_lsda 0x1b,.LLSDA8
  64              	.LVL2:
  65 0030 130101FE 		addi	sp,sp,-32
  66              		.cfi_def_cfa_offset 32
  67 0034 233C1100 		sd	ra,24(sp)
  68 0038 23388100 		sd	s0,16(sp)
  69 003c 23349100 		sd	s1,8(sp)
  70 0040 23302101 		sd	s2,0(sp)
  71              		.cfi_offset 1, -8
  72              		.cfi_offset 8, -16
  73              		.cfi_offset 9, -24
  74              		.cfi_offset 18, -32
  75 0044 13040102 		addi	s0,sp,32
  76              		.cfi_def_cfa 8, 0
  77 0048 93040500 		mv	s1,a0
  78              	.LEHB0:
  79              	.LBB4:
  80              		.loc 1 61 18 is_stmt 0
  81 004c 97000000 		call	_ZN13ConsoleBufferC1Ev@plt
  81      E7800000 
  82              	.LVL3:
  83 0054 13850423 		addi	a0,s1,560
  84 0058 97000000 		call	_ZN13ConsoleBufferC1Ev@plt
  84      E7800000 
  85              	.LVL4:
  62:src/Console.cpp ****     isInterrupted = false;
  86              		.loc 1 62 5 is_stmt 1
  87              		.loc 1 62 19 is_stmt 0
  88 0060 23800448 		sb	zero,1152(s1)
  63:src/Console.cpp **** 
  64:src/Console.cpp ****     // Kreiranje semafora
  65:src/Console.cpp ****     putcSemaphore = new Semaphore(0);
  89              		.loc 1 65 5 is_stmt 1
  90              		.loc 1 65 36 is_stmt 0
  91 0064 13050002 		li	a0,32
  92 0068 97000000 		call	_ZN9SemaphorenwEm@plt
  92      E7800000 
  93              	.LVL5:
  94              	.LEHE0:
  95 0070 13090500 		mv	s2,a0
  96 0074 93050000 		li	a1,0
  97              	.LEHB1:
  98 0078 97000000 		call	_ZN9SemaphoreC1Ej@plt
  98      E7800000 
  99              	.LVL6:
 100              	.LEHE1:
 101              		.loc 1 65 19 discriminator 2
 102 0080 23B02447 		sd	s2,1120(s1)
  66:src/Console.cpp ****     getcSemaphore = new Semaphore(0);
 103              		.loc 1 66 5 is_stmt 1 discriminator 2
 104              		.loc 1 66 36 is_stmt 0 discriminator 2
 105 0084 13050002 		li	a0,32
 106              	.LEHB2:
GAS LISTING /tmp/ccFEuJOx.s 			page 4


 107 0088 97000000 		call	_ZN9SemaphorenwEm@plt
 107      E7800000 
 108              	.LVL7:
 109              	.LEHE2:
 110 0090 13090500 		mv	s2,a0
 111 0094 93050000 		li	a1,0
 112              	.LEHB3:
 113 0098 97000000 		call	_ZN9SemaphoreC1Ej@plt
 113      E7800000 
 114              	.LVL8:
 115              	.LEHE3:
 116              		.loc 1 66 19 discriminator 2
 117 00a0 23B42447 		sd	s2,1128(s1)
 118              	.LBE4:
  67:src/Console.cpp **** 
  68:src/Console.cpp ****     // Kernel niti
  69:src/Console.cpp **** //    producerThread = new Thread(producerRoutine, this);
  70:src/Console.cpp **** //    consumerThread = new Thread(consumerRoutine, this);
  71:src/Console.cpp **** //    scheduler.put(consumerThread);
  72:src/Console.cpp **** //    scheduler.put(producerThread);
  73:src/Console.cpp **** }
 119              		.loc 1 73 1 discriminator 2
 120 00a4 83308101 		ld	ra,24(sp)
 121              		.cfi_remember_state
 122              		.cfi_restore 1
 123 00a8 03340101 		ld	s0,16(sp)
 124              		.cfi_restore 8
 125              		.cfi_def_cfa 2, 32
 126 00ac 83348100 		ld	s1,8(sp)
 127              		.cfi_restore 9
 128              	.LVL9:
 129 00b0 03390100 		ld	s2,0(sp)
 130              		.cfi_restore 18
 131 00b4 13010102 		addi	sp,sp,32
 132              		.cfi_def_cfa_offset 0
 133 00b8 67800000 		jr	ra
 134              	.LVL10:
 135              	.L8:
 136              		.cfi_restore_state
 137 00bc 93040500 		mv	s1,a0
 138              	.LVL11:
 139              	.LBB5:
  65:src/Console.cpp ****     getcSemaphore = new Semaphore(0);
 140              		.loc 1 65 36
 141 00c0 13050900 		mv	a0,s2
 142 00c4 97000000 		call	_ZN9SemaphoredlEPv@plt
 142      E7800000 
 143              	.LVL12:
 144 00cc 13850400 		mv	a0,s1
 145              	.LEHB4:
 146 00d0 97000000 		call	_Unwind_Resume@plt
 146      E7800000 
 147              	.LVL13:
 148              	.L9:
 149 00d8 93040500 		mv	s1,a0
 150              	.LVL14:
  66:src/Console.cpp ****     getcSemaphore = new Semaphore(0);
GAS LISTING /tmp/ccFEuJOx.s 			page 5


 151              		.loc 1 66 36
 152 00dc 13050900 		mv	a0,s2
 153 00e0 97000000 		call	_ZN9SemaphoredlEPv@plt
 153      E7800000 
 154              	.LVL15:
 155 00e8 13850400 		mv	a0,s1
 156 00ec 97000000 		call	_Unwind_Resume@plt
 156      E7800000 
 157              	.LVL16:
 158              	.LEHE4:
 159              	.LBE5:
 160              		.cfi_endproc
 161              	.LFE8:
 162              		.globl	__gxx_personality_v0
 163              		.section	.gcc_except_table,"a",@progbits
 164              	.LLSDA8:
 165 0000 FF       		.byte	0xff
 166 0001 FF       		.byte	0xff
 167 0002 03       		.byte	0x3
 168 0003 41       		.byte	0x41
 169 0004 00000000 		.4byte	.LEHB0-.LFB8
 170 0008 00000000 		.4byte	.LEHE0-.LEHB0
 171 000c 00000000 		.4byte	0
 172 0010 00       		.byte	0
 173 0011 00000000 		.4byte	.LEHB1-.LFB8
 174 0015 00000000 		.4byte	.LEHE1-.LEHB1
 175 0019 00000000 		.4byte	.L8-.LFB8
 176 001d 00       		.byte	0
 177 001e 00000000 		.4byte	.LEHB2-.LFB8
 178 0022 00000000 		.4byte	.LEHE2-.LEHB2
 179 0026 00000000 		.4byte	0
 180 002a 00       		.byte	0
 181 002b 00000000 		.4byte	.LEHB3-.LFB8
 182 002f 00000000 		.4byte	.LEHE3-.LEHB3
 183 0033 00000000 		.4byte	.L9-.LFB8
 184 0037 00       		.byte	0
 185 0038 00000000 		.4byte	.LEHB4-.LFB8
 186 003c 00000000 		.4byte	.LEHE4-.LEHB4
 187 0040 00000000 		.4byte	0
 188 0044 00       		.byte	0
 189              		.text
 191              		.globl	_ZN7ConsoleC1Ev
 192              		.set	_ZN7ConsoleC1Ev,_ZN7ConsoleC2Ev
 193              		.align	2
 194              		.globl	_ZN7Console8InstanceEv
 196              	_ZN7Console8InstanceEv:
 197              	.LFB4:
   5:src/Console.cpp ****     static Console instance;
 198              		.loc 1 5 30 is_stmt 1
 199              		.cfi_startproc
   6:src/Console.cpp ****     return &instance;
 200              		.loc 1 6 5
   6:src/Console.cpp ****     return &instance;
 201              		.loc 1 6 20 is_stmt 0
 202 00f4 97070000 		lbu	a5,.LANCHOR0
 202      83C70700 
 203 00fc 63880700 		beqz	a5,.L18
GAS LISTING /tmp/ccFEuJOx.s 			page 6


   7:src/Console.cpp **** }
 204              		.loc 1 7 5 is_stmt 1
   8:src/Console.cpp **** 
 205              		.loc 1 8 1 is_stmt 0
 206 0100 17050000 		lla	a0,.LANCHOR0+8
 206      13050500 
 207 0108 67800000 		ret
 208              	.L18:
   5:src/Console.cpp ****     static Console instance;
 209              		.loc 1 5 30 discriminator 1
 210 010c 130101FF 		addi	sp,sp,-16
 211              		.cfi_def_cfa_offset 16
 212 0110 23341100 		sd	ra,8(sp)
 213 0114 23308100 		sd	s0,0(sp)
 214              		.cfi_offset 1, -8
 215              		.cfi_offset 8, -16
 216 0118 13040101 		addi	s0,sp,16
 217              		.cfi_def_cfa 8, 0
   6:src/Console.cpp ****     return &instance;
 218              		.loc 1 6 20 discriminator 1
 219 011c 17050000 		lla	a0,.LANCHOR0+8
 219      13050500 
 220 0124 97000000 		call	_ZN7ConsoleC1Ev
 220      E7800000 
 221              	.LVL17:
 222 012c 93071000 		li	a5,1
 223 0130 17070000 		sb	a5,.LANCHOR0,a4
 223      2300F700 
   7:src/Console.cpp **** }
 224              		.loc 1 7 5 is_stmt 1 discriminator 1
   8:src/Console.cpp **** 
 225              		.loc 1 8 1 is_stmt 0 discriminator 1
 226 0138 17050000 		lla	a0,.LANCHOR0+8
 226      13050500 
 227 0140 83308100 		ld	ra,8(sp)
 228              		.cfi_restore 1
 229 0144 03340100 		ld	s0,0(sp)
 230              		.cfi_restore 8
 231              		.cfi_def_cfa 2, 16
 232 0148 13010101 		addi	sp,sp,16
 233              		.cfi_def_cfa_offset 0
 234 014c 67800000 		jr	ra
 235              		.cfi_endproc
 236              	.LFE4:
 238              		.align	2
 239              		.globl	_ZN7Console12setInterruptEv
 241              	_ZN7Console12setInterruptEv:
 242              	.LFB10:
  74:src/Console.cpp **** 
  75:src/Console.cpp **** void Console::setInterrupt() {
 243              		.loc 1 75 30 is_stmt 1
 244              		.cfi_startproc
 245 0150 130101FF 		addi	sp,sp,-16
 246              		.cfi_def_cfa_offset 16
 247 0154 23341100 		sd	ra,8(sp)
 248 0158 23308100 		sd	s0,0(sp)
 249              		.cfi_offset 1, -8
GAS LISTING /tmp/ccFEuJOx.s 			page 7


 250              		.cfi_offset 8, -16
 251 015c 13040101 		addi	s0,sp,16
 252              		.cfi_def_cfa 8, 0
  76:src/Console.cpp ****     Console::Instance()->isInterrupted = true;
 253              		.loc 1 76 5
 254              		.loc 1 76 22 is_stmt 0
 255 0160 97000000 		call	_ZN7Console8InstanceEv
 255      E7800000 
 256              	.LVL18:
 257              		.loc 1 76 40
 258 0168 93071000 		li	a5,1
 259 016c 2300F548 		sb	a5,1152(a0)
  77:src/Console.cpp **** }
 260              		.loc 1 77 1
 261 0170 83308100 		ld	ra,8(sp)
 262              		.cfi_restore 1
 263 0174 03340100 		ld	s0,0(sp)
 264              		.cfi_restore 8
 265              		.cfi_def_cfa 2, 16
 266 0178 13010101 		addi	sp,sp,16
 267              		.cfi_def_cfa_offset 0
 268 017c 67800000 		jr	ra
 269              		.cfi_endproc
 270              	.LFE10:
 272              		.align	2
 273              		.globl	_ZN7Console4putcEc
 275              	_ZN7Console4putcEc:
 276              	.LFB11:
  78:src/Console.cpp **** 
  79:src/Console.cpp **** void Console::putc(char c) {
 277              		.loc 1 79 28 is_stmt 1
 278              		.cfi_startproc
 279              	.LVL19:
 280 0180 130101FE 		addi	sp,sp,-32
 281              		.cfi_def_cfa_offset 32
 282 0184 233C1100 		sd	ra,24(sp)
 283 0188 23388100 		sd	s0,16(sp)
 284 018c 23349100 		sd	s1,8(sp)
 285              		.cfi_offset 1, -8
 286              		.cfi_offset 8, -16
 287              		.cfi_offset 9, -24
 288 0190 13040102 		addi	s0,sp,32
 289              		.cfi_def_cfa 8, 0
 290 0194 93040500 		mv	s1,a0
  80:src/Console.cpp ****     Console::Instance()->txBuffer.putc(c);
 291              		.loc 1 80 5
 292              		.loc 1 80 22 is_stmt 0
 293 0198 97000000 		call	_ZN7Console8InstanceEv
 293      E7800000 
 294              	.LVL20:
 295              		.loc 1 80 39
 296 01a0 93850400 		mv	a1,s1
 297 01a4 13050523 		addi	a0,a0,560
 298 01a8 97000000 		call	_ZN13ConsoleBuffer4putcEc@plt
 298      E7800000 
 299              	.LVL21:
  81:src/Console.cpp ****     Console::Instance()->putcSemaphore->signal();
GAS LISTING /tmp/ccFEuJOx.s 			page 8


 300              		.loc 1 81 5 is_stmt 1
 301              		.loc 1 81 22 is_stmt 0
 302 01b0 97000000 		call	_ZN7Console8InstanceEv
 302      E7800000 
 303              	.LVL22:
 304              		.loc 1 81 47
 305 01b8 03350546 		ld	a0,1120(a0)
 306 01bc 97000000 		call	_ZN9Semaphore6signalEv@plt
 306      E7800000 
 307              	.LVL23:
  82:src/Console.cpp **** }
 308              		.loc 1 82 1
 309 01c4 83308101 		ld	ra,24(sp)
 310              		.cfi_restore 1
 311 01c8 03340101 		ld	s0,16(sp)
 312              		.cfi_restore 8
 313              		.cfi_def_cfa 2, 32
 314 01cc 83348100 		ld	s1,8(sp)
 315              		.cfi_restore 9
 316 01d0 13010102 		addi	sp,sp,32
 317              		.cfi_def_cfa_offset 0
 318 01d4 67800000 		jr	ra
 319              		.cfi_endproc
 320              	.LFE11:
 322              		.align	2
 323              		.globl	_ZN7Console4getcEv
 325              	_ZN7Console4getcEv:
 326              	.LFB12:
  83:src/Console.cpp **** 
  84:src/Console.cpp **** char Console::getc() {
 327              		.loc 1 84 22 is_stmt 1
 328              		.cfi_startproc
 329 01d8 130101FF 		addi	sp,sp,-16
 330              		.cfi_def_cfa_offset 16
 331 01dc 23341100 		sd	ra,8(sp)
 332 01e0 23308100 		sd	s0,0(sp)
 333              		.cfi_offset 1, -8
 334              		.cfi_offset 8, -16
 335 01e4 13040101 		addi	s0,sp,16
 336              		.cfi_def_cfa 8, 0
  85:src/Console.cpp ****     Console::Instance()->getcSemaphore->wait();
 337              		.loc 1 85 5
 338              		.loc 1 85 22 is_stmt 0
 339 01e8 97000000 		call	_ZN7Console8InstanceEv
 339      E7800000 
 340              	.LVL24:
 341              		.loc 1 85 45
 342 01f0 03358546 		ld	a0,1128(a0)
 343 01f4 97000000 		call	_ZN9Semaphore4waitEv@plt
 343      E7800000 
 344              	.LVL25:
  86:src/Console.cpp ****     return Console::Instance()->rxBuffer.getc();
 345              		.loc 1 86 5 is_stmt 1
 346              		.loc 1 86 29 is_stmt 0
 347 01fc 97000000 		call	_ZN7Console8InstanceEv
 347      E7800000 
 348              	.LVL26:
GAS LISTING /tmp/ccFEuJOx.s 			page 9


 349              		.loc 1 86 46
 350 0204 97000000 		call	_ZN13ConsoleBuffer4getcEv@plt
 350      E7800000 
 351              	.LVL27:
  87:src/Console.cpp **** }
 352              		.loc 1 87 1
 353 020c 83308100 		ld	ra,8(sp)
 354              		.cfi_restore 1
 355 0210 03340100 		ld	s0,0(sp)
 356              		.cfi_restore 8
 357              		.cfi_def_cfa 2, 16
 358 0214 13010101 		addi	sp,sp,16
 359              		.cfi_def_cfa_offset 0
 360 0218 67800000 		jr	ra
 361              		.cfi_endproc
 362              	.LFE12:
 364              		.align	2
 365              		.globl	_ZN7Console10getTxCountEv
 367              	_ZN7Console10getTxCountEv:
 368              	.LFB13:
  88:src/Console.cpp **** 
  89:src/Console.cpp **** uint64 Console::getTxCount() {
 369              		.loc 1 89 30 is_stmt 1
 370              		.cfi_startproc
 371 021c 130101FF 		addi	sp,sp,-16
 372              		.cfi_def_cfa_offset 16
 373 0220 23341100 		sd	ra,8(sp)
 374 0224 23308100 		sd	s0,0(sp)
 375              		.cfi_offset 1, -8
 376              		.cfi_offset 8, -16
 377 0228 13040101 		addi	s0,sp,16
 378              		.cfi_def_cfa 8, 0
  90:src/Console.cpp ****     return Console::Instance()->txBuffer.getCount();
 379              		.loc 1 90 5
 380              		.loc 1 90 29 is_stmt 0
 381 022c 97000000 		call	_ZN7Console8InstanceEv
 381      E7800000 
 382              	.LVL28:
 383              	.LBB6:
 384              	.LBB7:
 385              		.file 2 "src/../h/Buffer.hpp"
   1:src/../h/Buffer.hpp **** #ifndef PROJECT_BASE_BUFFER_HPP
   2:src/../h/Buffer.hpp **** #define PROJECT_BASE_BUFFER_HPP
   3:src/../h/Buffer.hpp **** #include "../lib/hw.h"
   4:src/../h/Buffer.hpp **** #include "Semaphore.hpp"
   5:src/../h/Buffer.hpp **** 
   6:src/../h/Buffer.hpp **** class ConsoleBuffer {
   7:src/../h/Buffer.hpp **** public:
   8:src/../h/Buffer.hpp ****     ConsoleBuffer();
   9:src/../h/Buffer.hpp **** 
  10:src/../h/Buffer.hpp ****     void putc(char c);
  11:src/../h/Buffer.hpp ****     char getc();
  12:src/../h/Buffer.hpp **** 
  13:src/../h/Buffer.hpp ****     uint64 getCount() const { return count; }
 386              		.loc 2 13 31 is_stmt 1
 387              	.LBE7:
 388              	.LBE6:
GAS LISTING /tmp/ccFEuJOx.s 			page 10


  91:src/Console.cpp **** }
 389              		.loc 1 91 1 is_stmt 0
 390 0234 03350544 		ld	a0,1088(a0)
 391 0238 83308100 		ld	ra,8(sp)
 392              		.cfi_restore 1
 393 023c 03340100 		ld	s0,0(sp)
 394              		.cfi_restore 8
 395              		.cfi_def_cfa 2, 16
 396 0240 13010101 		addi	sp,sp,16
 397              		.cfi_def_cfa_offset 0
 398 0244 67800000 		jr	ra
 399              		.cfi_endproc
 400              	.LFE13:
 402              		.bss
 403              		.align	3
 404              		.set	.LANCHOR0,. + 0
 407              	_ZGVZN7Console8InstanceEvE8instance:
 408 0000 00000000 		.zero	8
 408      00000000 
 411              	_ZZN7Console8InstanceEvE8instance:
 412 0008 00000000 		.zero	1160
 412      00000000 
 412      00000000 
 412      00000000 
 412      00000000 
 413              		.text
 414              	.Letext0:
 415              		.file 3 "src/../h/../lib/hw.h"
 416              		.file 4 "src/../h/Semaphore.hpp"
 417              		.file 5 "src/../h/Console.hpp"
 418              		.file 6 "src/../h/Scheduler.hpp"
 2406              		.align	3
 2409              	DW.ref.__gxx_personality_v0:
 2410 0000 00000000 		.dword	__gxx_personality_v0
 2410      00000000 
 2411              		.ident	"GCC: (Ubuntu 9.4.0-1ubuntu1~20.04) 9.4.0"
 2412              		.section	.note.GNU-stack,"",@progbits
GAS LISTING /tmp/ccFEuJOx.s 			page 11

