GAS LISTING /tmp/ccQ09rqI.s 			page 1


   1              		.file	"interrupt.cpp"
   2              		.option pic
   3              		.option norelax
   4              		.text
   5              	.Ltext0:
   6              		.align	2
   7              		.globl	interrupt
   9              	interrupt:
  10              	.LFB19:
  11              		.file 1 "src/interrupt.cpp"
   1:src/interrupt.cpp **** #include "../h/interrupt.hpp"
   2:src/interrupt.cpp **** #include "../h/MemoryAllocator.hpp"
   3:src/interrupt.cpp **** #include "../h/Thread.hpp"
   4:src/interrupt.cpp **** #include "../h/Semaphore.hpp"
   5:src/interrupt.cpp **** #include "../h/RiscV.hpp"
   6:src/interrupt.cpp **** #include "../h/codes.h"
   7:src/interrupt.cpp **** #include "../h/Console.hpp"
   8:src/interrupt.cpp **** #include "../h/SleepingThreadsList.hpp"
   9:src/interrupt.cpp **** 
  10:src/interrupt.cpp **** 
  11:src/interrupt.cpp **** 
  12:src/interrupt.cpp **** extern "C" uint64 interrupt(uint64 a0, uint64 a1, uint64 a2, uint64 a3, uint64 a4, uint64 a5){
  12              		.loc 1 12 94
  13              		.cfi_startproc
  14              	.LVL0:
  15 0000 130101FB 		addi	sp,sp,-80
  16              		.cfi_def_cfa_offset 80
  17 0004 23341104 		sd	ra,72(sp)
  18 0008 23308104 		sd	s0,64(sp)
  19 000c 233C9102 		sd	s1,56(sp)
  20 0010 23382103 		sd	s2,48(sp)
  21 0014 23343103 		sd	s3,40(sp)
  22 0018 23304103 		sd	s4,32(sp)
  23 001c 233C5101 		sd	s5,24(sp)
  24 0020 23386101 		sd	s6,16(sp)
  25 0024 23347101 		sd	s7,8(sp)
  26 0028 23308101 		sd	s8,0(sp)
  27              		.cfi_offset 1, -8
  28              		.cfi_offset 8, -16
  29              		.cfi_offset 9, -24
  30              		.cfi_offset 18, -32
  31              		.cfi_offset 19, -40
  32              		.cfi_offset 20, -48
  33              		.cfi_offset 21, -56
  34              		.cfi_offset 22, -64
  35              		.cfi_offset 23, -72
  36              		.cfi_offset 24, -80
  37 002c 13040105 		addi	s0,sp,80
  38              		.cfi_def_cfa 8, 0
  39 0030 93040500 		mv	s1,a0
  40 0034 93090600 		mv	s3,a2
  41 0038 138B0600 		mv	s6,a3
  42 003c 930B0700 		mv	s7,a4
  43 0040 138C0700 		mv	s8,a5
  13:src/interrupt.cpp ****     uint64 cause = RiscV::r_scause();
  44              		.loc 1 13 5
  45              		.loc 1 13 35 is_stmt 0
GAS LISTING /tmp/ccQ09rqI.s 			page 2


  46 0044 97000000 		call	_ZN5RiscV8r_scauseEv@plt
  46      E7800000 
  47              	.LVL1:
  48 004c 13090500 		mv	s2,a0
  49              	.LVL2:
  14:src/interrupt.cpp ****     uint64 sepc  = RiscV::r_sepc();
  50              		.loc 1 14 5 is_stmt 1
  51              		.loc 1 14 33 is_stmt 0
  52 0050 97000000 		call	_ZN5RiscV6r_sepcEv@plt
  52      E7800000 
  53              	.LVL3:
  54 0058 130A0500 		mv	s4,a0
  55              	.LVL4:
  15:src/interrupt.cpp ****     uint64 sstatus = RiscV::r_sstatus();
  56              		.loc 1 15 5 is_stmt 1
  57              		.loc 1 15 38 is_stmt 0
  58 005c 97000000 		call	_ZN5RiscV9r_sstatusEv@plt
  58      E7800000 
  59              	.LVL5:
  60 0064 930A0500 		mv	s5,a0
  61              	.LVL6:
  16:src/interrupt.cpp **** 
  17:src/interrupt.cpp ****     if(cause == SYS_ECALL || cause == USER_ECALL){
  62              		.loc 1 17 5 is_stmt 1
  63              	.LBB69:
  64              		.loc 1 17 27 is_stmt 0
  65 0068 130789FF 		addi	a4,s2,-8
  66              		.loc 1 17 5
  67 006c 93071000 		li	a5,1
  68 0070 63F0E70A 		bleu	a4,a5,.L35
  69              	.LBE69:
  18:src/interrupt.cpp ****         sepc += 4;
  19:src/interrupt.cpp **** 
  20:src/interrupt.cpp ****         switch(a0){
  21:src/interrupt.cpp ****             case MEM_ALLOC_SYSCALL:
  22:src/interrupt.cpp ****                 a0 = (uint64)MemoryAllocator::Instance()->mem_alloc(a2);
  23:src/interrupt.cpp **** 
  24:src/interrupt.cpp **** 
  25:src/interrupt.cpp ****                 break;
  26:src/interrupt.cpp ****             case MEM_FREE_SYSCALL:
  27:src/interrupt.cpp ****                 a0 = (uint64)MemoryAllocator::Instance()->mem_free((void*)a2);
  28:src/interrupt.cpp **** 
  29:src/interrupt.cpp ****                 break;
  30:src/interrupt.cpp ****             case CREATE_THREAD:
  31:src/interrupt.cpp ****                 a0 = Thread::create_thread_kernel((thread_t*) a2, (void(*)(void*)) a3, (void*) a4, 
  32:src/interrupt.cpp **** 
  33:src/interrupt.cpp ****                 break;
  34:src/interrupt.cpp ****             case THREAD_EXIT:
  35:src/interrupt.cpp ****                 a0 = Thread::thread_exit_kernel();
  36:src/interrupt.cpp **** 
  37:src/interrupt.cpp ****                 break;
  38:src/interrupt.cpp ****             case THREAD_DISPATCH:
  39:src/interrupt.cpp ****                 Thread::thread_dispatch_kernel();
  40:src/interrupt.cpp **** 
  41:src/interrupt.cpp ****                 break;
  42:src/interrupt.cpp ****             case GET_FREE_MEM:
  43:src/interrupt.cpp ****                 a0 = MemoryAllocator::Instance()->free_memory_remaining();
GAS LISTING /tmp/ccQ09rqI.s 			page 3


  44:src/interrupt.cpp **** 
  45:src/interrupt.cpp ****                 break;
  46:src/interrupt.cpp ****             case GET_LARGEST_MEM_BLOCK:
  47:src/interrupt.cpp ****                 a0 = MemoryAllocator::Instance()->get_largest_mem_block();
  48:src/interrupt.cpp **** 
  49:src/interrupt.cpp ****                 break;
  50:src/interrupt.cpp ****             case SEM_OPEN:
  51:src/interrupt.cpp ****                 a0 = Semaphore::sem_open((sem_t*)a2, (unsigned)a3);
  52:src/interrupt.cpp **** 
  53:src/interrupt.cpp ****                 break;
  54:src/interrupt.cpp ****             case SEM_WAIT:
  55:src/interrupt.cpp ****                 a0 = Semaphore::sem_wait((sem_t)a2);
  56:src/interrupt.cpp **** 
  57:src/interrupt.cpp ****                 break;
  58:src/interrupt.cpp ****             case SEM_SIGNAL:
  59:src/interrupt.cpp ****                 a0 = Semaphore::sem_signal((sem_t)a2);
  60:src/interrupt.cpp **** 
  61:src/interrupt.cpp ****                 break;
  62:src/interrupt.cpp ****             case SEM_CLOSE:
  63:src/interrupt.cpp ****                 a0 = Semaphore::sem_close((sem_t)a2);
  64:src/interrupt.cpp **** 
  65:src/interrupt.cpp ****                 break;
  66:src/interrupt.cpp ****             case GET_C:
  67:src/interrupt.cpp ****                 //a0 = Console::Instance()->getc();
  68:src/interrupt.cpp ****                 a0 = __getc();
  69:src/interrupt.cpp ****                 break;
  70:src/interrupt.cpp ****             case PUT_C:
  71:src/interrupt.cpp ****                 //Console::Instance()->putc((char)a2);
  72:src/interrupt.cpp ****                 __putc((char)a2);
  73:src/interrupt.cpp ****                 break;
  74:src/interrupt.cpp ****         }
  75:src/interrupt.cpp ****     }
  76:src/interrupt.cpp ****     else if(cause == CONSOLE_INTERRUPT){
  70              		.loc 1 76 10 is_stmt 1
  71              	.LBB119:
  72              	.LBB70:
  73 0074 9307F0FF 		li	a5,-1
  74 0078 9397F703 		slli	a5,a5,63
  75 007c 93879700 		addi	a5,a5,9
  76 0080 6308F91C 		beq	s2,a5,.L36
  77              	.LBE70:
  78              	.LBE119:
  77:src/interrupt.cpp **** 
  78:src/interrupt.cpp **** //        int s = plic_claim();
  79:src/interrupt.cpp **** //        if(s == 10){
  80:src/interrupt.cpp **** //            Console::Instance()->setInterrupt();
  81:src/interrupt.cpp **** //        }
  82:src/interrupt.cpp ****         console_handler();
  83:src/interrupt.cpp ****    }
  84:src/interrupt.cpp **** 
  85:src/interrupt.cpp **** 
  86:src/interrupt.cpp ****     else if(cause == TIMER_INTERRUPT){
  79              		.loc 1 86 10
  80              	.LBB120:
  81              	.LBB115:
  82              	.LBB71:
  83 0084 9307F0FF 		li	a5,-1
GAS LISTING /tmp/ccQ09rqI.s 			page 4


  84 0088 9397F703 		slli	a5,a5,63
  85 008c 93871700 		addi	a5,a5,1
  86 0090 6306F91C 		beq	s2,a5,.L37
  87              	.LBE71:
  88              	.LBE115:
  89              	.LBE120:
  87:src/interrupt.cpp **** //        time_t temp = SleepingThreadList::Instance()->peekFirstSlice();
  88:src/interrupt.cpp **** //        time_t t1 = -1;
  89:src/interrupt.cpp **** //
  90:src/interrupt.cpp **** //        if (temp != t1){
  91:src/interrupt.cpp **** //            SleepingThreadList::Instance()->decFirst();
  92:src/interrupt.cpp **** //            if (SleepingThreadList::Instance()->peekFirstSlice() == 0) {
  93:src/interrupt.cpp **** //                SleepingThreadList::Instance()->removeFinishedThreads();
  94:src/interrupt.cpp **** //            }
  95:src/interrupt.cpp **** //        }
  96:src/interrupt.cpp ****         RiscV::mc_sip(RiscV::SIP_SSIP);
  97:src/interrupt.cpp ****         Thread::running->incrementtimeSliceCounter();
  98:src/interrupt.cpp ****         if(Thread::running && Thread::running->getTimeSliceCounter() >= Thread::running->getTimeSli
  99:src/interrupt.cpp ****             Thread::running->clearTimeSliceCounter();
 100:src/interrupt.cpp ****             Thread::thread_dispatch_kernel();
 101:src/interrupt.cpp **** 
 102:src/interrupt.cpp ****         }
 103:src/interrupt.cpp **** 
 104:src/interrupt.cpp ****     }
 105:src/interrupt.cpp ****     else if(cause == TIME_SLEEP){
  90              		.loc 1 105 10
  91              	.LBB121:
  92              	.LBB116:
  93              	.LBB112:
  94              	.LBB72:
  95 0094 93071003 		li	a5,49
  96 0098 631CF936 		bne	s2,a5,.L32
  97              	.LBB73:
 106:src/interrupt.cpp ****         time_t slice = (time_t)a2;
  98              		.loc 1 106 9
  99              	.LVL7:
 107:src/interrupt.cpp ****         if(slice != 0) {
 100              		.loc 1 107 9
 101 009c 63840928 		beqz	s3,.L21
 108:src/interrupt.cpp ****             Thread::running->setSleeping(true);
 102              		.loc 1 108 13
 103              		.loc 1 108 41 is_stmt 0
 104 00a0 97070000 		la	a5,_ZN6Thread7runningE
 104      83B70700 
 105 00a8 83BB0700 		ld	s7,0(a5)
 106              	.LVL8:
 107              	.LBB74:
 108              	.LBB75:
 109              		.file 2 "src/../h/Thread.hpp"
   1:src/../h/Thread.hpp **** #ifndef THREAD_HPP
   2:src/../h/Thread.hpp **** #define THREAD_HPP
   3:src/../h/Thread.hpp **** #include "memory_structs.h"
   4:src/../h/Thread.hpp **** #include "List.hpp"
   5:src/../h/Thread.hpp **** #include "../lib/hw.h"
   6:src/../h/Thread.hpp **** #include "RiscV.hpp"
   7:src/../h/Thread.hpp **** #ifdef __cplusplus
   8:src/../h/Thread.hpp **** extern "C" {
GAS LISTING /tmp/ccQ09rqI.s 			page 5


   9:src/../h/Thread.hpp **** #endif
  10:src/../h/Thread.hpp **** 
  11:src/../h/Thread.hpp **** void restore_context_kernel_mode(ThreadContext* newContext);
  12:src/../h/Thread.hpp **** 
  13:src/../h/Thread.hpp **** void context_switch(ThreadContext* c1, ThreadContext* c2);
  14:src/../h/Thread.hpp **** 
  15:src/../h/Thread.hpp **** #ifdef __cplusplus
  16:src/../h/Thread.hpp **** }
  17:src/../h/Thread.hpp **** #endif
  18:src/../h/Thread.hpp **** 
  19:src/../h/Thread.hpp **** class Thread{
  20:src/../h/Thread.hpp ****     friend class ThreadPool;
  21:src/../h/Thread.hpp **** public:
  22:src/../h/Thread.hpp ****     Thread();
  23:src/../h/Thread.hpp ****     Thread(void(*kernelBody)(void*), void* arg);
  24:src/../h/Thread.hpp ****     virtual ~Thread ();
  25:src/../h/Thread.hpp ****     int start ();
  26:src/../h/Thread.hpp ****     static void dispatch();
  27:src/../h/Thread.hpp ****     static void* operator new(size_t size);
  28:src/../h/Thread.hpp ****     static void operator delete(void*) noexcept;
  29:src/../h/Thread.hpp ****     virtual void run (){};
  30:src/../h/Thread.hpp ****     static Thread* running;
  31:src/../h/Thread.hpp ****     int semWaitStatus;
  32:src/../h/Thread.hpp ****     ThreadContext* getContext();
  33:src/../h/Thread.hpp ****     ThreadWrapperArgs* getWrapperArgs();
  34:src/../h/Thread.hpp ****     static int create_thread_kernel(thread_t* handle, void(*routine)(void*) , void* args, void* sta
  35:src/../h/Thread.hpp ****     static int sleep (time_t);
  36:src/../h/Thread.hpp ****     static int thread_exit_kernel();
  37:src/../h/Thread.hpp ****     static void thread_dispatch_kernel();
  38:src/../h/Thread.hpp ****     Thread* next;
  39:src/../h/Thread.hpp ****     static void threadWrapper();
  40:src/../h/Thread.hpp ****     static void kernelThreadWrapper();
  41:src/../h/Thread.hpp ****     void clearTimeSliceCounter();
  42:src/../h/Thread.hpp ****     uint64 getTimeSliceCounter();
  43:src/../h/Thread.hpp ****     void incrementtimeSliceCounter();
  44:src/../h/Thread.hpp ****     bool isSleeping() const { return sleeping; }
  45:src/../h/Thread.hpp ****     void setSleeping(bool value) { sleeping = value; }
 110              		.loc 2 45 36 is_stmt 1
 111              		.loc 2 45 45 is_stmt 0
 112 00ac 93071000 		li	a5,1
 113 00b0 2380FB02 		sb	a5,32(s7)
 114              	.LVL9:
 115              	.LBE75:
 116              	.LBE74:
 109:src/interrupt.cpp ****             SleepingThreadList::Instance()->put(Thread::running, slice);
 117              		.loc 1 109 13 is_stmt 1
 118              	.LBB76:
 119              	.LBB77:
 120              		.file 3 "src/../h/SleepingThreadsList.hpp"
   1:src/../h/SleepingThreadsList.hpp **** 
   2:src/../h/SleepingThreadsList.hpp **** 
   3:src/../h/SleepingThreadsList.hpp **** #ifndef PROJECT_BASE_SLEEPINGTHREADSLIST_HPP
   4:src/../h/SleepingThreadsList.hpp **** #define PROJECT_BASE_SLEEPINGTHREADSLIST_HPP
   5:src/../h/SleepingThreadsList.hpp **** 
   6:src/../h/SleepingThreadsList.hpp **** 
   7:src/../h/SleepingThreadsList.hpp **** #include "Scheduler.hpp"
   8:src/../h/SleepingThreadsList.hpp **** 
GAS LISTING /tmp/ccQ09rqI.s 			page 6


   9:src/../h/SleepingThreadsList.hpp **** class SleepingThreadList
  10:src/../h/SleepingThreadsList.hpp **** {
  11:src/../h/SleepingThreadsList.hpp **** private:
  12:src/../h/SleepingThreadsList.hpp ****     struct Elem
  13:src/../h/SleepingThreadsList.hpp ****     {
  14:src/../h/SleepingThreadsList.hpp ****         Thread *data;
  15:src/../h/SleepingThreadsList.hpp ****         Elem *next;
  16:src/../h/SleepingThreadsList.hpp ****         time_t relativeTime;
  17:src/../h/SleepingThreadsList.hpp **** 
  18:src/../h/SleepingThreadsList.hpp ****         Elem(Thread *data, Elem *next, time_t relativeTime) : data(data), next(next), relativeTime(
  19:src/../h/SleepingThreadsList.hpp ****     };
  20:src/../h/SleepingThreadsList.hpp **** 
  21:src/../h/SleepingThreadsList.hpp ****     Elem *head, *tail;
  22:src/../h/SleepingThreadsList.hpp ****     SleepingThreadList() : head(nullptr), tail(nullptr) {}
  23:src/../h/SleepingThreadsList.hpp **** 
  24:src/../h/SleepingThreadsList.hpp **** public:
  25:src/../h/SleepingThreadsList.hpp ****     static SleepingThreadList* Instance(){
  26:src/../h/SleepingThreadsList.hpp ****         static SleepingThreadList instance;
 121              		.loc 3 26 9
 122              		.loc 3 26 35 is_stmt 0
 123 00b4 97070000 		lbu	a5,_ZGVZN18SleepingThreadList8InstanceEvE8instance
 123      83C70700 
 124 00bc 63900702 		bnez	a5,.L22
 125              	.LVL10:
 126              	.LBB78:
 127              	.LBB79:
 128              	.LBB80:
  22:src/../h/SleepingThreadsList.hpp **** 
 129              		.loc 3 22 55
 130 00c0 97070000 		lla	a5,_ZZN18SleepingThreadList8InstanceEvE8instance
 130      93870700 
 131 00c8 23B00700 		sd	zero,0(a5)
 132 00cc 23B40700 		sd	zero,8(a5)
 133              	.LVL11:
 134              	.LBE80:
 135              	.LBE79:
 136              	.LBE78:
 137              		.loc 3 26 35
 138 00d0 93071000 		li	a5,1
 139 00d4 17070000 		sb	a5,_ZGVZN18SleepingThreadList8InstanceEvE8instance,a4
 139      2300F700 
 140              	.L22:
  27:src/../h/SleepingThreadsList.hpp ****         return &instance;
 141              		.loc 3 27 9 is_stmt 1
 142              	.LVL12:
 143              	.LBE77:
 144              	.LBE76:
 145              	.LBB81:
 146              	.LBB82:
  28:src/../h/SleepingThreadsList.hpp ****     }
  29:src/../h/SleepingThreadsList.hpp **** 
  30:src/../h/SleepingThreadsList.hpp **** 
  31:src/../h/SleepingThreadsList.hpp ****     SleepingThreadList(const SleepingThreadList&) = delete;
  32:src/../h/SleepingThreadsList.hpp **** 
  33:src/../h/SleepingThreadsList.hpp ****     SleepingThreadList &operator=(const SleepingThreadList&) = delete;
  34:src/../h/SleepingThreadsList.hpp **** 
  35:src/../h/SleepingThreadsList.hpp ****     void decFirst(){
GAS LISTING /tmp/ccQ09rqI.s 			page 7


  36:src/../h/SleepingThreadsList.hpp ****         if (head != nullptr) {
  37:src/../h/SleepingThreadsList.hpp ****             head->relativeTime -= 1;
  38:src/../h/SleepingThreadsList.hpp ****         }
  39:src/../h/SleepingThreadsList.hpp ****     }
  40:src/../h/SleepingThreadsList.hpp ****     time_t peekFirstSlice()
  41:src/../h/SleepingThreadsList.hpp ****     {
  42:src/../h/SleepingThreadsList.hpp ****         if (!head) { return -1; }
  43:src/../h/SleepingThreadsList.hpp ****         return head->relativeTime;
  44:src/../h/SleepingThreadsList.hpp ****     }
  45:src/../h/SleepingThreadsList.hpp **** 
  46:src/../h/SleepingThreadsList.hpp ****     void removeFinishedThreads()
  47:src/../h/SleepingThreadsList.hpp ****     {
  48:src/../h/SleepingThreadsList.hpp ****         while (head != nullptr && head->relativeTime == 0){
  49:src/../h/SleepingThreadsList.hpp ****             Elem *elem = head;
  50:src/../h/SleepingThreadsList.hpp ****             head = head->next;
  51:src/../h/SleepingThreadsList.hpp ****             if (!head) { tail = nullptr; }
  52:src/../h/SleepingThreadsList.hpp ****             elem->data->setSleeping(false);
  53:src/../h/SleepingThreadsList.hpp ****             scheduler.put(elem->data);
  54:src/../h/SleepingThreadsList.hpp ****             delete elem;
  55:src/../h/SleepingThreadsList.hpp ****         }
  56:src/../h/SleepingThreadsList.hpp ****     }
  57:src/../h/SleepingThreadsList.hpp **** 
  58:src/../h/SleepingThreadsList.hpp ****     void put(Thread* thread, time_t slice){
  59:src/../h/SleepingThreadsList.hpp ****         if (head == nullptr) {
 147              		.loc 3 59 9
 148              	.LBB83:
 149              		.loc 3 59 13 is_stmt 0
 150 00dc 17090000 		ld	s2,_ZZN18SleepingThreadList8InstanceEvE8instance
 150      03390900 
 151              	.LVL13:
 152              		.loc 3 59 9
 153 00e4 6302091E 		beqz	s2,.L38
 154              	.LBB84:
  60:src/../h/SleepingThreadsList.hpp ****             head = new Elem(thread, nullptr, slice);
  61:src/../h/SleepingThreadsList.hpp ****             tail = head;
  62:src/../h/SleepingThreadsList.hpp ****         }
  63:src/../h/SleepingThreadsList.hpp ****         else {
  64:src/../h/SleepingThreadsList.hpp ****             Elem* temp = head;
  65:src/../h/SleepingThreadsList.hpp ****             Elem* prev = nullptr;
 155              		.loc 3 65 19
 156 00e8 130B0000 		li	s6,0
 157              	.LVL14:
 158              	.L23:
  66:src/../h/SleepingThreadsList.hpp ****             while (temp != tail && slice >= temp->relativeTime) {
 159              		.loc 3 66 13 is_stmt 1
 160              		.loc 3 66 33
 161              		.loc 3 66 28 is_stmt 0
 162 00ec 17070000 		ld	a4,_ZZN18SleepingThreadList8InstanceEvE8instance+8
 162      03370700 
 163              		.loc 3 66 33
 164 00f4 63002721 		beq	a4,s2,.L25
 165              		.loc 3 66 51
 166 00f8 83370901 		ld	a5,16(s2)
 167              		.loc 3 66 33
 168 00fc 63ECF91E 		bgtu	a5,s3,.L25
  67:src/../h/SleepingThreadsList.hpp ****                 slice -= temp->relativeTime;
 169              		.loc 3 67 17 is_stmt 1
GAS LISTING /tmp/ccQ09rqI.s 			page 8


 170              		.loc 3 67 23 is_stmt 0
 171 0100 B389F940 		sub	s3,s3,a5
 172              	.LVL15:
  68:src/../h/SleepingThreadsList.hpp ****                 prev = temp;
 173              		.loc 3 68 17 is_stmt 1
  69:src/../h/SleepingThreadsList.hpp ****                 temp = temp->next;
 174              		.loc 3 69 17
  68:src/../h/SleepingThreadsList.hpp ****                 prev = temp;
 175              		.loc 3 68 22 is_stmt 0
 176 0104 130B0900 		mv	s6,s2
 177              		.loc 3 69 22
 178 0108 03398900 		ld	s2,8(s2)
 179              	.LVL16:
  66:src/../h/SleepingThreadsList.hpp ****                 slice -= temp->relativeTime;
 180              		.loc 3 66 13
 181 010c 6FF01FFE 		j	.L23
 182              	.LVL17:
 183              	.L35:
 184              	.LBE84:
 185              	.LBE83:
 186              	.LBE82:
 187              	.LBE81:
 188              	.LBE73:
 189              	.LBE72:
 190              	.LBE112:
 191              	.LBE116:
  18:src/interrupt.cpp **** 
 192              		.loc 1 18 9 is_stmt 1
  18:src/interrupt.cpp **** 
 193              		.loc 1 18 14 is_stmt 0
 194 0110 130A4A00 		addi	s4,s4,4
 195              	.LVL18:
  20:src/interrupt.cpp ****             case MEM_ALLOC_SYSCALL:
 196              		.loc 1 20 9 is_stmt 1
 197 0114 93072004 		li	a5,66
 198 0118 63EA9720 		bgtu	s1,a5,.L3
 199 011c 13972400 		slli	a4,s1,2
 200 0120 97060000 		lla	a3,.L5
 200      93860600 
 201 0128 3307D700 		add	a4,a4,a3
 202 012c 83270700 		lw	a5,0(a4)
 203 0130 B387D700 		add	a5,a5,a3
 204 0134 67800700 		jr	a5
 205              		.section	.rodata
 206              		.align	2
 207              		.align	2
 208              	.L5:
 209 0000 00000000 		.word	.L3-.L5
 210 0004 00000000 		.word	.L17-.L5
 211 0008 00000000 		.word	.L16-.L5
 212 000c 00000000 		.word	.L15-.L5
 213 0010 00000000 		.word	.L14-.L5
 214 0014 00000000 		.word	.L3-.L5
 215 0018 00000000 		.word	.L3-.L5
 216 001c 00000000 		.word	.L3-.L5
 217 0020 00000000 		.word	.L3-.L5
 218 0024 00000000 		.word	.L3-.L5
GAS LISTING /tmp/ccQ09rqI.s 			page 9


 219 0028 00000000 		.word	.L3-.L5
 220 002c 00000000 		.word	.L3-.L5
 221 0030 00000000 		.word	.L3-.L5
 222 0034 00000000 		.word	.L3-.L5
 223 0038 00000000 		.word	.L3-.L5
 224 003c 00000000 		.word	.L3-.L5
 225 0040 00000000 		.word	.L3-.L5
 226 0044 00000000 		.word	.L13-.L5
 227 0048 00000000 		.word	.L12-.L5
 228 004c 00000000 		.word	.L11-.L5
 229 0050 00000000 		.word	.L3-.L5
 230 0054 00000000 		.word	.L3-.L5
 231 0058 00000000 		.word	.L3-.L5
 232 005c 00000000 		.word	.L3-.L5
 233 0060 00000000 		.word	.L3-.L5
 234 0064 00000000 		.word	.L3-.L5
 235 0068 00000000 		.word	.L3-.L5
 236 006c 00000000 		.word	.L3-.L5
 237 0070 00000000 		.word	.L3-.L5
 238 0074 00000000 		.word	.L3-.L5
 239 0078 00000000 		.word	.L3-.L5
 240 007c 00000000 		.word	.L3-.L5
 241 0080 00000000 		.word	.L3-.L5
 242 0084 00000000 		.word	.L10-.L5
 243 0088 00000000 		.word	.L9-.L5
 244 008c 00000000 		.word	.L8-.L5
 245 0090 00000000 		.word	.L7-.L5
 246 0094 00000000 		.word	.L3-.L5
 247 0098 00000000 		.word	.L3-.L5
 248 009c 00000000 		.word	.L3-.L5
 249 00a0 00000000 		.word	.L3-.L5
 250 00a4 00000000 		.word	.L3-.L5
 251 00a8 00000000 		.word	.L3-.L5
 252 00ac 00000000 		.word	.L3-.L5
 253 00b0 00000000 		.word	.L3-.L5
 254 00b4 00000000 		.word	.L3-.L5
 255 00b8 00000000 		.word	.L3-.L5
 256 00bc 00000000 		.word	.L3-.L5
 257 00c0 00000000 		.word	.L3-.L5
 258 00c4 00000000 		.word	.L3-.L5
 259 00c8 00000000 		.word	.L3-.L5
 260 00cc 00000000 		.word	.L3-.L5
 261 00d0 00000000 		.word	.L3-.L5
 262 00d4 00000000 		.word	.L3-.L5
 263 00d8 00000000 		.word	.L3-.L5
 264 00dc 00000000 		.word	.L3-.L5
 265 00e0 00000000 		.word	.L3-.L5
 266 00e4 00000000 		.word	.L3-.L5
 267 00e8 00000000 		.word	.L3-.L5
 268 00ec 00000000 		.word	.L3-.L5
 269 00f0 00000000 		.word	.L3-.L5
 270 00f4 00000000 		.word	.L3-.L5
 271 00f8 00000000 		.word	.L3-.L5
 272 00fc 00000000 		.word	.L3-.L5
 273 0100 00000000 		.word	.L3-.L5
 274 0104 00000000 		.word	.L6-.L5
 275 0108 00000000 		.word	.L4-.L5
GAS LISTING /tmp/ccQ09rqI.s 			page 10


 276              		.text
 277              	.L17:
  21:src/interrupt.cpp ****                 a0 = (uint64)MemoryAllocator::Instance()->mem_alloc(a2);
 278              		.loc 1 21 13
  22:src/interrupt.cpp **** 
 279              		.loc 1 22 17
  22:src/interrupt.cpp **** 
 280              		.loc 1 22 68 is_stmt 0
 281 0138 97000000 		call	_ZN15MemoryAllocator8InstanceEv@plt
 281      E7800000 
 282              	.LVL19:
 283 0140 93850900 		mv	a1,s3
 284 0144 97000000 		call	_ZN15MemoryAllocator9mem_allocEm@plt
 284      E7800000 
 285              	.LVL20:
 286 014c 93040500 		mv	s1,a0
 287              	.LVL21:
  25:src/interrupt.cpp ****             case MEM_FREE_SYSCALL:
 288              		.loc 1 25 17 is_stmt 1
 289 0150 6F00C01D 		j	.L3
 290              	.LVL22:
 291              	.L16:
  26:src/interrupt.cpp ****                 a0 = (uint64)MemoryAllocator::Instance()->mem_free((void*)a2);
 292              		.loc 1 26 13
  27:src/interrupt.cpp **** 
 293              		.loc 1 27 17
  27:src/interrupt.cpp **** 
 294              		.loc 1 27 67 is_stmt 0
 295 0154 97000000 		call	_ZN15MemoryAllocator8InstanceEv@plt
 295      E7800000 
 296              	.LVL23:
 297 015c 93850900 		mv	a1,s3
 298 0160 97000000 		call	_ZN15MemoryAllocator8mem_freeEPv@plt
 298      E7800000 
 299              	.LVL24:
  27:src/interrupt.cpp **** 
 300              		.loc 1 27 20
 301 0168 93040500 		mv	s1,a0
 302              	.LVL25:
  29:src/interrupt.cpp ****             case CREATE_THREAD:
 303              		.loc 1 29 17 is_stmt 1
 304 016c 6F00001C 		j	.L3
 305              	.LVL26:
 306              	.L13:
  30:src/interrupt.cpp ****                 a0 = Thread::create_thread_kernel((thread_t*) a2, (void(*)(void*)) a3, (void*) a4, 
 307              		.loc 1 30 13
  31:src/interrupt.cpp **** 
 308              		.loc 1 31 17
  31:src/interrupt.cpp **** 
 309              		.loc 1 31 50 is_stmt 0
 310 0170 93060C00 		mv	a3,s8
 311 0174 13860B00 		mv	a2,s7
 312 0178 93050B00 		mv	a1,s6
 313 017c 13850900 		mv	a0,s3
 314              	.LVL27:
 315 0180 97000000 		call	_ZN6Thread20create_thread_kernelEPjPFvPvES1_S1_@plt
 315      E7800000 
GAS LISTING /tmp/ccQ09rqI.s 			page 11


 316              	.LVL28:
  31:src/interrupt.cpp **** 
 317              		.loc 1 31 20
 318 0188 93040500 		mv	s1,a0
 319              	.LVL29:
  33:src/interrupt.cpp ****             case THREAD_EXIT:
 320              		.loc 1 33 17 is_stmt 1
 321 018c 6F00001A 		j	.L3
 322              	.LVL30:
 323              	.L12:
  34:src/interrupt.cpp ****                 a0 = Thread::thread_exit_kernel();
 324              		.loc 1 34 13
  35:src/interrupt.cpp **** 
 325              		.loc 1 35 17
  35:src/interrupt.cpp **** 
 326              		.loc 1 35 48 is_stmt 0
 327 0190 97000000 		call	_ZN6Thread18thread_exit_kernelEv@plt
 327      E7800000 
 328              	.LVL31:
  35:src/interrupt.cpp **** 
 329              		.loc 1 35 20
 330 0198 93040500 		mv	s1,a0
 331              	.LVL32:
  37:src/interrupt.cpp ****             case THREAD_DISPATCH:
 332              		.loc 1 37 17 is_stmt 1
 333 019c 6F000019 		j	.L3
 334              	.LVL33:
 335              	.L11:
  38:src/interrupt.cpp ****                 Thread::thread_dispatch_kernel();
 336              		.loc 1 38 13
  39:src/interrupt.cpp **** 
 337              		.loc 1 39 17
  39:src/interrupt.cpp **** 
 338              		.loc 1 39 47 is_stmt 0
 339 01a0 97000000 		call	_ZN6Thread22thread_dispatch_kernelEv@plt
 339      E7800000 
 340              	.LVL34:
  41:src/interrupt.cpp ****             case GET_FREE_MEM:
 341              		.loc 1 41 17 is_stmt 1
 342 01a8 6F004018 		j	.L3
 343              	.LVL35:
 344              	.L15:
  42:src/interrupt.cpp ****                 a0 = MemoryAllocator::Instance()->free_memory_remaining();
 345              		.loc 1 42 13
  43:src/interrupt.cpp **** 
 346              		.loc 1 43 17
  43:src/interrupt.cpp **** 
 347              		.loc 1 43 72 is_stmt 0
 348 01ac 97000000 		call	_ZN15MemoryAllocator8InstanceEv@plt
 348      E7800000 
 349              	.LVL36:
 350 01b4 97000000 		call	_ZN15MemoryAllocator21free_memory_remainingEv@plt
 350      E7800000 
 351              	.LVL37:
 352 01bc 93040500 		mv	s1,a0
 353              	.LVL38:
  45:src/interrupt.cpp ****             case GET_LARGEST_MEM_BLOCK:
GAS LISTING /tmp/ccQ09rqI.s 			page 12


 354              		.loc 1 45 17 is_stmt 1
 355 01c0 6F00C016 		j	.L3
 356              	.LVL39:
 357              	.L14:
  46:src/interrupt.cpp ****                 a0 = MemoryAllocator::Instance()->get_largest_mem_block();
 358              		.loc 1 46 13
  47:src/interrupt.cpp **** 
 359              		.loc 1 47 17
  47:src/interrupt.cpp **** 
 360              		.loc 1 47 72 is_stmt 0
 361 01c4 97000000 		call	_ZN15MemoryAllocator8InstanceEv@plt
 361      E7800000 
 362              	.LVL40:
 363 01cc 97000000 		call	_ZN15MemoryAllocator21get_largest_mem_blockEv@plt
 363      E7800000 
 364              	.LVL41:
 365 01d4 93040500 		mv	s1,a0
 366              	.LVL42:
  49:src/interrupt.cpp ****             case SEM_OPEN:
 367              		.loc 1 49 17 is_stmt 1
 368 01d8 6F004015 		j	.L3
 369              	.LVL43:
 370              	.L10:
  50:src/interrupt.cpp ****                 a0 = Semaphore::sem_open((sem_t*)a2, (unsigned)a3);
 371              		.loc 1 50 13
  51:src/interrupt.cpp **** 
 372              		.loc 1 51 17
  51:src/interrupt.cpp **** 
 373              		.loc 1 51 41 is_stmt 0
 374 01dc 9B050B00 		sext.w	a1,s6
 375 01e0 13850900 		mv	a0,s3
 376              	.LVL44:
 377 01e4 97000000 		call	_ZN9Semaphore8sem_openEPjj@plt
 377      E7800000 
 378              	.LVL45:
  51:src/interrupt.cpp **** 
 379              		.loc 1 51 20
 380 01ec 93040500 		mv	s1,a0
 381              	.LVL46:
  53:src/interrupt.cpp ****             case SEM_WAIT:
 382              		.loc 1 53 17 is_stmt 1
 383 01f0 6F00C013 		j	.L3
 384              	.LVL47:
 385              	.L8:
  54:src/interrupt.cpp ****                 a0 = Semaphore::sem_wait((sem_t)a2);
 386              		.loc 1 54 13
  55:src/interrupt.cpp **** 
 387              		.loc 1 55 17
  55:src/interrupt.cpp **** 
 388              		.loc 1 55 41 is_stmt 0
 389 01f4 1B850900 		sext.w	a0,s3
 390              	.LVL48:
 391 01f8 97000000 		call	_ZN9Semaphore8sem_waitEj@plt
 391      E7800000 
 392              	.LVL49:
  55:src/interrupt.cpp **** 
 393              		.loc 1 55 20
GAS LISTING /tmp/ccQ09rqI.s 			page 13


 394 0200 93040500 		mv	s1,a0
 395              	.LVL50:
  57:src/interrupt.cpp ****             case SEM_SIGNAL:
 396              		.loc 1 57 17 is_stmt 1
 397 0204 6F008012 		j	.L3
 398              	.LVL51:
 399              	.L7:
  58:src/interrupt.cpp ****                 a0 = Semaphore::sem_signal((sem_t)a2);
 400              		.loc 1 58 13
  59:src/interrupt.cpp **** 
 401              		.loc 1 59 17
  59:src/interrupt.cpp **** 
 402              		.loc 1 59 43 is_stmt 0
 403 0208 1B850900 		sext.w	a0,s3
 404              	.LVL52:
 405 020c 97000000 		call	_ZN9Semaphore10sem_signalEj@plt
 405      E7800000 
 406              	.LVL53:
  59:src/interrupt.cpp **** 
 407              		.loc 1 59 20
 408 0214 93040500 		mv	s1,a0
 409              	.LVL54:
  61:src/interrupt.cpp ****             case SEM_CLOSE:
 410              		.loc 1 61 17 is_stmt 1
 411 0218 6F004011 		j	.L3
 412              	.LVL55:
 413              	.L9:
  62:src/interrupt.cpp ****                 a0 = Semaphore::sem_close((sem_t)a2);
 414              		.loc 1 62 13
  63:src/interrupt.cpp **** 
 415              		.loc 1 63 17
  63:src/interrupt.cpp **** 
 416              		.loc 1 63 42 is_stmt 0
 417 021c 1B850900 		sext.w	a0,s3
 418              	.LVL56:
 419 0220 97000000 		call	_ZN9Semaphore9sem_closeEj@plt
 419      E7800000 
 420              	.LVL57:
  63:src/interrupt.cpp **** 
 421              		.loc 1 63 20
 422 0228 93040500 		mv	s1,a0
 423              	.LVL58:
  65:src/interrupt.cpp ****             case GET_C:
 424              		.loc 1 65 17 is_stmt 1
 425 022c 6F000010 		j	.L3
 426              	.LVL59:
 427              	.L6:
  66:src/interrupt.cpp ****                 //a0 = Console::Instance()->getc();
 428              		.loc 1 66 13
  68:src/interrupt.cpp ****                 break;
 429              		.loc 1 68 17
  68:src/interrupt.cpp ****                 break;
 430              		.loc 1 68 28 is_stmt 0
 431 0230 97000000 		call	__getc@plt
 431      E7800000 
 432              	.LVL60:
  68:src/interrupt.cpp ****                 break;
GAS LISTING /tmp/ccQ09rqI.s 			page 14


 433              		.loc 1 68 20
 434 0238 93040500 		mv	s1,a0
 435              	.LVL61:
  69:src/interrupt.cpp ****             case PUT_C:
 436              		.loc 1 69 17 is_stmt 1
 437 023c 6F00000F 		j	.L3
 438              	.LVL62:
 439              	.L4:
  70:src/interrupt.cpp ****                 //Console::Instance()->putc((char)a2);
 440              		.loc 1 70 13
  72:src/interrupt.cpp ****                 break;
 441              		.loc 1 72 17
  72:src/interrupt.cpp ****                 break;
 442              		.loc 1 72 23 is_stmt 0
 443 0240 13F5F90F 		andi	a0,s3,0xff
 444              	.LVL63:
 445 0244 97000000 		call	__putc@plt
 445      E7800000 
 446              	.LVL64:
  73:src/interrupt.cpp ****         }
 447              		.loc 1 73 17 is_stmt 1
 448 024c 6F00000E 		j	.L3
 449              	.LVL65:
 450              	.L36:
 451              	.LBB117:
  82:src/interrupt.cpp ****    }
 452              		.loc 1 82 9
  82:src/interrupt.cpp ****    }
 453              		.loc 1 82 24 is_stmt 0
 454 0250 97000000 		call	console_handler@plt
 454      E7800000 
 455              	.LVL66:
 456 0258 6F00400D 		j	.L3
 457              	.LVL67:
 458              	.L37:
 459              	.LBB113:
  96:src/interrupt.cpp ****         Thread::running->incrementtimeSliceCounter();
 460              		.loc 1 96 9 is_stmt 1
  96:src/interrupt.cpp ****         Thread::running->incrementtimeSliceCounter();
 461              		.loc 1 96 22 is_stmt 0
 462 025c 13052000 		li	a0,2
 463              	.LVL68:
 464 0260 97000000 		call	_ZN5RiscV6mc_sipEm@plt
 464      E7800000 
 465              	.LVL69:
  97:src/interrupt.cpp ****         if(Thread::running && Thread::running->getTimeSliceCounter() >= Thread::running->getTimeSli
 466              		.loc 1 97 9 is_stmt 1
  97:src/interrupt.cpp ****         if(Thread::running && Thread::running->getTimeSliceCounter() >= Thread::running->getTimeSli
 467              		.loc 1 97 51 is_stmt 0
 468 0268 17090000 		la	s2,_ZN6Thread7runningE
 468      03390900 
 469              	.LVL70:
 470 0270 03350900 		ld	a0,0(s2)
 471 0274 97000000 		call	_ZN6Thread25incrementtimeSliceCounterEv@plt
 471      E7800000 
 472              	.LVL71:
  98:src/interrupt.cpp ****             Thread::running->clearTimeSliceCounter();
GAS LISTING /tmp/ccQ09rqI.s 			page 15


 473              		.loc 1 98 9 is_stmt 1
  98:src/interrupt.cpp ****             Thread::running->clearTimeSliceCounter();
 474              		.loc 1 98 103 is_stmt 0
 475 027c 03350900 		ld	a0,0(s2)
  98:src/interrupt.cpp ****             Thread::running->clearTimeSliceCounter();
 476              		.loc 1 98 28
 477 0280 6306050A 		beqz	a0,.L3
  98:src/interrupt.cpp ****             Thread::running->clearTimeSliceCounter();
 478              		.loc 1 98 67 discriminator 1
 479 0284 97000000 		call	_ZN6Thread19getTimeSliceCounterEv@plt
 479      E7800000 
 480              	.LVL72:
 481 028c 13090500 		mv	s2,a0
  98:src/interrupt.cpp ****             Thread::running->clearTimeSliceCounter();
 482              		.loc 1 98 102 discriminator 1
 483 0290 97070000 		la	a5,_ZN6Thread7runningE
 483      83B70700 
 484 0298 03B50700 		ld	a0,0(a5)
 485 029c 97000000 		call	_ZN6Thread12getTimeSliceEv@plt
 485      E7800000 
 486              	.LVL73:
  98:src/interrupt.cpp ****             Thread::running->clearTimeSliceCounter();
 487              		.loc 1 98 28 discriminator 1
 488 02a4 6364A908 		bltu	s2,a0,.L3
  99:src/interrupt.cpp ****             Thread::thread_dispatch_kernel();
 489              		.loc 1 99 13 is_stmt 1
  99:src/interrupt.cpp ****             Thread::thread_dispatch_kernel();
 490              		.loc 1 99 51 is_stmt 0
 491 02a8 97070000 		la	a5,_ZN6Thread7runningE
 491      83B70700 
 492 02b0 03B50700 		ld	a0,0(a5)
 493 02b4 97000000 		call	_ZN6Thread21clearTimeSliceCounterEv@plt
 493      E7800000 
 494              	.LVL74:
 100:src/interrupt.cpp **** 
 495              		.loc 1 100 13 is_stmt 1
 100:src/interrupt.cpp **** 
 496              		.loc 1 100 43 is_stmt 0
 497 02bc 97000000 		call	_ZN6Thread22thread_dispatch_kernelEv@plt
 497      E7800000 
 498              	.LVL75:
 499 02c4 6F008006 		j	.L3
 500              	.LVL76:
 501              	.L38:
 502              	.LBB110:
 503              	.LBB108:
 504              	.LBB106:
 505              	.LBB104:
 506              	.LBB102:
  60:src/../h/SleepingThreadsList.hpp ****             tail = head;
 507              		.loc 3 60 13 is_stmt 1
  60:src/../h/SleepingThreadsList.hpp ****             tail = head;
 508              		.loc 3 60 51 is_stmt 0
 509 02c8 13058001 		li	a0,24
 510              	.LVL77:
 511 02cc 97000000 		call	_Znwm@plt
 511      E7800000 
GAS LISTING /tmp/ccQ09rqI.s 			page 16


 512              	.LVL78:
 513              	.LBB98:
 514              	.LBB99:
  18:src/../h/SleepingThreadsList.hpp ****     };
 515              		.loc 3 18 112
 516 02d4 23307501 		sd	s7,0(a0)
 517 02d8 23340500 		sd	zero,8(a0)
 518 02dc 23383501 		sd	s3,16(a0)
 519              	.LVL79:
 520              	.LBE99:
 521              	.LBE98:
  60:src/../h/SleepingThreadsList.hpp ****             tail = head;
 522              		.loc 3 60 18
 523 02e0 97070000 		lla	a5,_ZZN18SleepingThreadList8InstanceEvE8instance
 523      93870700 
 524 02e8 23B0A700 		sd	a0,0(a5)
  61:src/../h/SleepingThreadsList.hpp ****         }
 525              		.loc 3 61 13 is_stmt 1
  61:src/../h/SleepingThreadsList.hpp ****         }
 526              		.loc 3 61 18 is_stmt 0
 527 02ec 23B4A700 		sd	a0,8(a5)
 528 02f0 6F004003 		j	.L21
 529              	.LVL80:
 530              	.L25:
 531              	.LBB100:
  70:src/../h/SleepingThreadsList.hpp ****             }
  71:src/../h/SleepingThreadsList.hpp ****             if (temp == tail){
 532              		.loc 3 71 13 is_stmt 1
 533              	.LBB85:
 534 02f4 63022709 		beq	a4,s2,.L39
 535              	.LBB86:
  72:src/../h/SleepingThreadsList.hpp ****                 if (slice >= tail->relativeTime){
  73:src/../h/SleepingThreadsList.hpp ****                     Elem* novi = new Elem(thread, nullptr, slice - tail->relativeTime);
  74:src/../h/SleepingThreadsList.hpp ****                     tail->next = novi;
  75:src/../h/SleepingThreadsList.hpp ****                     tail = novi;
  76:src/../h/SleepingThreadsList.hpp ****                 }
  77:src/../h/SleepingThreadsList.hpp ****                 else {
  78:src/../h/SleepingThreadsList.hpp ****                     Elem* novi = new Elem(thread, tail, slice);
  79:src/../h/SleepingThreadsList.hpp ****                     if (prev != nullptr){
  80:src/../h/SleepingThreadsList.hpp ****                         prev->next = novi;
  81:src/../h/SleepingThreadsList.hpp ****                     }
  82:src/../h/SleepingThreadsList.hpp ****                     else {
  83:src/../h/SleepingThreadsList.hpp ****                         head = novi;
  84:src/../h/SleepingThreadsList.hpp ****                     }
  85:src/../h/SleepingThreadsList.hpp ****                     tail->relativeTime -= slice;
  86:src/../h/SleepingThreadsList.hpp ****                 }
  87:src/../h/SleepingThreadsList.hpp ****             }
  88:src/../h/SleepingThreadsList.hpp ****             else {
  89:src/../h/SleepingThreadsList.hpp ****                 Elem* novi = new Elem(thread, temp, slice);
 536              		.loc 3 89 17
 537              		.loc 3 89 58 is_stmt 0
 538 02f8 13058001 		li	a0,24
 539              	.LVL81:
 540 02fc 97000000 		call	_Znwm@plt
 540      E7800000 
 541              	.LVL82:
 542              	.LBB87:
GAS LISTING /tmp/ccQ09rqI.s 			page 17


 543              	.LBB88:
  18:src/../h/SleepingThreadsList.hpp ****     };
 544              		.loc 3 18 112
 545 0304 23307501 		sd	s7,0(a0)
 546 0308 23342501 		sd	s2,8(a0)
 547 030c 23383501 		sd	s3,16(a0)
 548              	.LVL83:
 549              	.LBE88:
 550              	.LBE87:
  90:src/../h/SleepingThreadsList.hpp ****                 if (prev) {
 551              		.loc 3 90 17 is_stmt 1
 552 0310 630A0B0E 		beqz	s6,.L30
  91:src/../h/SleepingThreadsList.hpp ****                     prev->next = novi;
 553              		.loc 3 91 21
 554              		.loc 3 91 32 is_stmt 0
 555 0314 2334AB00 		sd	a0,8(s6)
 556              	.L31:
  92:src/../h/SleepingThreadsList.hpp ****                 }
  93:src/../h/SleepingThreadsList.hpp ****                 else {
  94:src/../h/SleepingThreadsList.hpp ****                     head = novi;
  95:src/../h/SleepingThreadsList.hpp ****                 }
  96:src/../h/SleepingThreadsList.hpp ****                 temp->relativeTime -= slice;
 557              		.loc 3 96 17 is_stmt 1
 558              		.loc 3 96 36 is_stmt 0
 559 0318 83370901 		ld	a5,16(s2)
 560 031c B3893741 		sub	s3,a5,s3
 561              	.LVL84:
 562 0320 23383901 		sd	s3,16(s2)
 563              	.LVL85:
 564              	.L21:
 565              	.LBE86:
 566              	.LBE85:
 567              	.LBE100:
 568              	.LBE102:
 569              	.LBE104:
 570              	.LBE106:
 110:src/interrupt.cpp ****         }
 111:src/interrupt.cpp **** 
 112:src/interrupt.cpp ****         Thread::thread_dispatch_kernel();
 571              		.loc 1 112 9 is_stmt 1
 572              		.loc 1 112 39 is_stmt 0
 573 0324 97000000 		call	_ZN6Thread22thread_dispatch_kernelEv@plt
 573      E7800000 
 574              	.LVL86:
 575              	.L3:
 576              	.LBE108:
 577              	.LBE110:
 578              	.LBE113:
 579              	.LBE117:
 580              	.LBE121:
 113:src/interrupt.cpp ****     }
 114:src/interrupt.cpp ****     else
 115:src/interrupt.cpp ****     {
 116:src/interrupt.cpp ****         return a0;
 117:src/interrupt.cpp ****     }
 118:src/interrupt.cpp **** 
 119:src/interrupt.cpp ****     RiscV::w_sepc(sepc);
GAS LISTING /tmp/ccQ09rqI.s 			page 18


 581              		.loc 1 119 5 is_stmt 1
 582              		.loc 1 119 18 is_stmt 0
 583 032c 13050A00 		mv	a0,s4
 584 0330 97000000 		call	_ZN5RiscV6w_sepcEm@plt
 584      E7800000 
 585              	.LVL87:
 120:src/interrupt.cpp ****     RiscV::w_sstatus(sstatus);
 586              		.loc 1 120 5 is_stmt 1
 587              		.loc 1 120 21 is_stmt 0
 588 0338 13850A00 		mv	a0,s5
 589 033c 97000000 		call	_ZN5RiscV9w_sstatusEm@plt
 589      E7800000 
 590              	.LVL88:
 121:src/interrupt.cpp ****     return a0;
 591              		.loc 1 121 5 is_stmt 1
 592              		.loc 1 121 12 is_stmt 0
 593 0344 13850400 		mv	a0,s1
 594              	.L1:
 122:src/interrupt.cpp **** 
 123:src/interrupt.cpp **** }
 595              		.loc 1 123 1
 596 0348 83308104 		ld	ra,72(sp)
 597              		.cfi_remember_state
 598              		.cfi_restore 1
 599 034c 03340104 		ld	s0,64(sp)
 600              		.cfi_restore 8
 601              		.cfi_def_cfa 2, 80
 602 0350 83348103 		ld	s1,56(sp)
 603              		.cfi_restore 9
 604              	.LVL89:
 605 0354 03390103 		ld	s2,48(sp)
 606              		.cfi_restore 18
 607 0358 83398102 		ld	s3,40(sp)
 608              		.cfi_restore 19
 609 035c 033A0102 		ld	s4,32(sp)
 610              		.cfi_restore 20
 611              	.LVL90:
 612 0360 833A8101 		ld	s5,24(sp)
 613              		.cfi_restore 21
 614              	.LVL91:
 615 0364 033B0101 		ld	s6,16(sp)
 616              		.cfi_restore 22
 617 0368 833B8100 		ld	s7,8(sp)
 618              		.cfi_restore 23
 619 036c 033C0100 		ld	s8,0(sp)
 620              		.cfi_restore 24
 621              	.LVL92:
 622 0370 13010105 		addi	sp,sp,80
 623              		.cfi_def_cfa_offset 0
 624 0374 67800000 		jr	ra
 625              	.LVL93:
 626              	.L39:
 627              		.cfi_restore_state
  72:src/../h/SleepingThreadsList.hpp ****                     Elem* novi = new Elem(thread, nullptr, slice - tail->relativeTime);
 628              		.loc 3 72 17 is_stmt 1
 629              	.LBB122:
 630              	.LBB118:
GAS LISTING /tmp/ccQ09rqI.s 			page 19


 631              	.LBB114:
 632              	.LBB111:
 633              	.LBB109:
 634              	.LBB107:
 635              	.LBB105:
 636              	.LBB103:
 637              	.LBB101:
 638              	.LBB97:
 639              	.LBB89:
  72:src/../h/SleepingThreadsList.hpp ****                     Elem* novi = new Elem(thread, nullptr, slice - tail->relativeTime);
 640              		.loc 3 72 36 is_stmt 0
 641 0378 83370701 		ld	a5,16(a4)
  72:src/../h/SleepingThreadsList.hpp ****                     Elem* novi = new Elem(thread, nullptr, slice - tail->relativeTime);
 642              		.loc 3 72 17
 643 037c 63EEF902 		bltu	s3,a5,.L27
 644              	.LBB90:
  73:src/../h/SleepingThreadsList.hpp ****                     tail->next = novi;
 645              		.loc 3 73 21 is_stmt 1
  73:src/../h/SleepingThreadsList.hpp ****                     tail->next = novi;
 646              		.loc 3 73 86 is_stmt 0
 647 0380 13058001 		li	a0,24
 648              	.LVL94:
 649 0384 97000000 		call	_Znwm@plt
 649      E7800000 
 650              	.LVL95:
  73:src/../h/SleepingThreadsList.hpp ****                     tail->next = novi;
 651              		.loc 3 73 68
 652 038c 17070000 		lla	a4,_ZZN18SleepingThreadList8InstanceEvE8instance
 652      13070700 
 653 0394 83368700 		ld	a3,8(a4)
  73:src/../h/SleepingThreadsList.hpp ****                     tail->next = novi;
 654              		.loc 3 73 74
 655 0398 83B70601 		ld	a5,16(a3)
  73:src/../h/SleepingThreadsList.hpp ****                     tail->next = novi;
 656              		.loc 3 73 86
 657 039c B389F940 		sub	s3,s3,a5
 658              	.LVL96:
 659              	.LBB91:
 660              	.LBB92:
  18:src/../h/SleepingThreadsList.hpp ****     };
 661              		.loc 3 18 112
 662 03a0 23307501 		sd	s7,0(a0)
 663 03a4 23340500 		sd	zero,8(a0)
 664 03a8 23383501 		sd	s3,16(a0)
 665              	.LVL97:
 666              	.LBE92:
 667              	.LBE91:
  74:src/../h/SleepingThreadsList.hpp ****                     tail = novi;
 668              		.loc 3 74 21 is_stmt 1
  74:src/../h/SleepingThreadsList.hpp ****                     tail = novi;
 669              		.loc 3 74 32 is_stmt 0
 670 03ac 23B4A600 		sd	a0,8(a3)
  75:src/../h/SleepingThreadsList.hpp ****                 }
 671              		.loc 3 75 21 is_stmt 1
  75:src/../h/SleepingThreadsList.hpp ****                 }
 672              		.loc 3 75 26 is_stmt 0
 673 03b0 2334A700 		sd	a0,8(a4)
GAS LISTING /tmp/ccQ09rqI.s 			page 20


 674              	.LBE90:
 675 03b4 6FF01FF7 		j	.L21
 676              	.LVL98:
 677              	.L27:
 678              	.LBB93:
  78:src/../h/SleepingThreadsList.hpp ****                     if (prev != nullptr){
 679              		.loc 3 78 21 is_stmt 1
  78:src/../h/SleepingThreadsList.hpp ****                     if (prev != nullptr){
 680              		.loc 3 78 62 is_stmt 0
 681 03b8 13058001 		li	a0,24
 682              	.LVL99:
 683 03bc 97000000 		call	_Znwm@plt
 683      E7800000 
 684              	.LVL100:
 685              	.LBB94:
 686              	.LBB95:
  18:src/../h/SleepingThreadsList.hpp ****     };
 687              		.loc 3 18 112
 688 03c4 23307501 		sd	s7,0(a0)
 689              	.LVL101:
 690 03c8 97070000 		ld	a5,_ZZN18SleepingThreadList8InstanceEvE8instance+8
 690      83B70700 
 691 03d0 2334F500 		sd	a5,8(a0)
 692 03d4 23383501 		sd	s3,16(a0)
 693              	.LVL102:
 694              	.LBE95:
 695              	.LBE94:
  79:src/../h/SleepingThreadsList.hpp ****                         prev->next = novi;
 696              		.loc 3 79 21 is_stmt 1
 697 03d8 63000B02 		beqz	s6,.L28
  80:src/../h/SleepingThreadsList.hpp ****                     }
 698              		.loc 3 80 25
  80:src/../h/SleepingThreadsList.hpp ****                     }
 699              		.loc 3 80 36 is_stmt 0
 700 03dc 2334AB00 		sd	a0,8(s6)
 701              	.L29:
  85:src/../h/SleepingThreadsList.hpp ****                 }
 702              		.loc 3 85 21 is_stmt 1
 703 03e0 17070000 		ld	a4,_ZZN18SleepingThreadList8InstanceEvE8instance+8
 703      03370700 
  85:src/../h/SleepingThreadsList.hpp ****                 }
 704              		.loc 3 85 40 is_stmt 0
 705 03e8 83370701 		ld	a5,16(a4)
 706 03ec B3893741 		sub	s3,a5,s3
 707              	.LVL103:
 708 03f0 23383701 		sd	s3,16(a4)
 709 03f4 6FF01FF3 		j	.L21
 710              	.LVL104:
 711              	.L28:
  83:src/../h/SleepingThreadsList.hpp ****                     }
 712              		.loc 3 83 25 is_stmt 1
  83:src/../h/SleepingThreadsList.hpp ****                     }
 713              		.loc 3 83 30 is_stmt 0
 714 03f8 97070000 		sd	a0,_ZZN18SleepingThreadList8InstanceEvE8instance,a5
 714      23B0A700 
 715 0400 6FF01FFE 		j	.L29
 716              	.LVL105:
GAS LISTING /tmp/ccQ09rqI.s 			page 21


 717              	.L30:
 718              	.LBE93:
 719              	.LBE89:
 720              	.LBB96:
  94:src/../h/SleepingThreadsList.hpp ****                 }
 721              		.loc 3 94 21 is_stmt 1
  94:src/../h/SleepingThreadsList.hpp ****                 }
 722              		.loc 3 94 26 is_stmt 0
 723 0404 97070000 		sd	a0,_ZZN18SleepingThreadList8InstanceEvE8instance,a5
 723      23B0A700 
 724 040c 6FF0DFF0 		j	.L31
 725              	.LVL106:
 726              	.L32:
 727              	.LBE96:
 728              	.LBE97:
 729              	.LBE101:
 730              	.LBE103:
 731              	.LBE105:
 732              	.LBE107:
 733              	.LBE109:
 116:src/interrupt.cpp ****     }
 734              		.loc 1 116 16
 735 0410 13850400 		mv	a0,s1
 736              	.LVL107:
 737 0414 6FF05FF3 		j	.L1
 738              	.LBE111:
 739              	.LBE114:
 740              	.LBE118:
 741              	.LBE122:
 742              		.cfi_endproc
 743              	.LFE19:
 745              		.weak	_ZGVZN18SleepingThreadList8InstanceEvE8instance
 746              		.section	.bss._ZGVZN18SleepingThreadList8InstanceEvE8instance,"awG",@nobits,_ZGVZN18SleepingThread
 747              		.align	3
 750              	_ZGVZN18SleepingThreadList8InstanceEvE8instance:
 751 0000 00000000 		.zero	8
 751      00000000 
 752              		.weak	_ZZN18SleepingThreadList8InstanceEvE8instance
 753              		.section	.bss._ZZN18SleepingThreadList8InstanceEvE8instance,"awG",@nobits,_ZZN18SleepingThreadList
 754              		.align	3
 757              	_ZZN18SleepingThreadList8InstanceEvE8instance:
 758 0000 00000000 		.zero	16
 758      00000000 
 758      00000000 
 758      00000000 
 759              		.text
 760              	.Letext0:
 761              		.file 4 "src/../h/../lib/hw.h"
 762              		.file 5 "src/../h/memory_structs.h"
 763              		.file 6 "src/../h/RiscV.hpp"
 764              		.file 7 "src/../h/ThreadPool.hpp"
 765              		.file 8 "src/../h/SemaphorePool.hpp"
 766              		.file 9 "src/../h/Semaphore.hpp"
 767              		.file 10 "src/../h/MemoryAllocator.hpp"
 768              		.file 11 "src/../h/Scheduler.hpp"
 769              		.file 12 "src/../h/../lib/console.h"
GAS LISTING /tmp/ccQ09rqI.s 			page 22

