GAS LISTING /tmp/ccMbVF88.s 			page 1


   1              		.file	"main.cpp"
   2              		.option pic
   3              		.option norelax
   4              		.text
   5              	.Ltext0:
   6              		.align	2
   7              		.globl	_Z15userMainWrapperPv
   9              	_Z15userMainWrapperPv:
  10              	.LFB9:
  11              		.file 1 "src/main.cpp"
   1:src/main.cpp  **** #include "../lib/hw.h"
   2:src/main.cpp  **** #include "../lib/console.h"
   3:src/main.cpp  **** #include "../h/codes.h"
   4:src/main.cpp  **** #include "../h/MemoryAllocator.hpp"
   5:src/main.cpp  **** #include "../h/List.hpp"
   6:src/main.cpp  **** #include "../h/Thread.hpp"
   7:src/main.cpp  **** #include "../h/console.hpp"
   8:src/main.cpp  **** #include "../h/Scheduler.hpp"
   9:src/main.cpp  **** #include "../h/MemoryAllocator.hpp"
  10:src/main.cpp  **** #include "../h/Pool.hpp"
  11:src/main.cpp  **** #include "../h/RiscV.hpp"
  12:src/main.cpp  **** #include "../h/interrupt.hpp"
  13:src/main.cpp  **** #include "../h/syscall_c.hpp"
  14:src/main.cpp  **** #include "../h/syscall_cpp.hpp"
  15:src/main.cpp  **** 
  16:src/main.cpp  **** 
  17:src/main.cpp  **** extern "C" void userMain();
  18:src/main.cpp  **** 
  19:src/main.cpp  **** 
  20:src/main.cpp  **** extern "C" {
  21:src/main.cpp  **** 
  22:src/main.cpp  **** int __cxa_atexit(void (*func)(void *), void *arg, void *d) {
  23:src/main.cpp  ****     return 0;
  24:src/main.cpp  **** }
  25:src/main.cpp  **** 
  26:src/main.cpp  **** }
  27:src/main.cpp  **** void* __dso_handle = nullptr;
  28:src/main.cpp  **** 
  29:src/main.cpp  **** 
  30:src/main.cpp  **** void userMainWrapper(void* args){
  12              		.loc 1 30 33
  13              		.cfi_startproc
  14              	.LVL0:
  15 0000 130101FF 		addi	sp,sp,-16
  16              		.cfi_def_cfa_offset 16
  17 0004 23341100 		sd	ra,8(sp)
  18 0008 23308100 		sd	s0,0(sp)
  19              		.cfi_offset 1, -8
  20              		.cfi_offset 8, -16
  21 000c 13040101 		addi	s0,sp,16
  22              		.cfi_def_cfa 8, 0
  31:src/main.cpp  **** 
  32:src/main.cpp  ****     //RiscV::switchToUserMode();
  33:src/main.cpp  ****     userMain();
  23              		.loc 1 33 5
  24              		.loc 1 33 13 is_stmt 0
  25 0010 97000000 		call	userMain@plt
GAS LISTING /tmp/ccMbVF88.s 			page 2


  25      E7800000 
  26              	.LVL1:
  34:src/main.cpp  ****     thread_exit();
  27              		.loc 1 34 5 is_stmt 1
  28              		.loc 1 34 16 is_stmt 0
  29 0018 97000000 		call	thread_exit@plt
  29      E7800000 
  30              	.LVL2:
  35:src/main.cpp  **** }
  31              		.loc 1 35 1
  32 0020 83308100 		ld	ra,8(sp)
  33              		.cfi_restore 1
  34 0024 03340100 		ld	s0,0(sp)
  35              		.cfi_restore 8
  36              		.cfi_def_cfa 2, 16
  37 0028 13010101 		addi	sp,sp,16
  38              		.cfi_def_cfa_offset 0
  39 002c 67800000 		jr	ra
  40              		.cfi_endproc
  41              	.LFE9:
  43              		.align	2
  44              		.globl	_Z8idleBodyPv
  46              	_Z8idleBodyPv:
  47              	.LFB10:
  36:src/main.cpp  **** void idleBody(void*) {
  48              		.loc 1 36 22 is_stmt 1
  49              		.cfi_startproc
  50 0030 130101FF 		addi	sp,sp,-16
  51              		.cfi_def_cfa_offset 16
  52 0034 23341100 		sd	ra,8(sp)
  53 0038 23308100 		sd	s0,0(sp)
  54              		.cfi_offset 1, -8
  55              		.cfi_offset 8, -16
  56 003c 13040101 		addi	s0,sp,16
  57              		.cfi_def_cfa 8, 0
  58              	.L4:
  37:src/main.cpp  ****     while (true){
  59              		.loc 1 37 5 discriminator 1
  38:src/main.cpp  ****         thread_dispatch();
  60              		.loc 1 38 9 discriminator 1
  61              		.loc 1 38 24 is_stmt 0 discriminator 1
  62 0040 97000000 		call	thread_dispatch@plt
  62      E7800000 
  63              	.LVL3:
  37:src/main.cpp  ****     while (true){
  64              		.loc 1 37 5 is_stmt 1 discriminator 1
  65 0048 6FF09FFF 		j	.L4
  66              		.cfi_endproc
  67              	.LFE10:
  69              		.align	2
  70              		.globl	__cxa_atexit
  72              	__cxa_atexit:
  73              	.LFB8:
  22:src/main.cpp  ****     return 0;
  74              		.loc 1 22 60
  75              		.cfi_startproc
  76              	.LVL4:
GAS LISTING /tmp/ccMbVF88.s 			page 3


  77 004c 130101FF 		addi	sp,sp,-16
  78              		.cfi_def_cfa_offset 16
  79 0050 23348100 		sd	s0,8(sp)
  80              		.cfi_offset 8, -8
  81 0054 13040101 		addi	s0,sp,16
  82              		.cfi_def_cfa 8, 0
  23:src/main.cpp  **** }
  83              		.loc 1 23 5
  24:src/main.cpp  **** 
  84              		.loc 1 24 1 is_stmt 0
  85 0058 13050000 		li	a0,0
  86              	.LVL5:
  87 005c 03348100 		ld	s0,8(sp)
  88              		.cfi_restore 8
  89              		.cfi_def_cfa 2, 16
  90 0060 13010101 		addi	sp,sp,16
  91              		.cfi_def_cfa_offset 0
  92 0064 67800000 		jr	ra
  93              		.cfi_endproc
  94              	.LFE8:
  96              		.align	2
  97              		.globl	main
  99              	main:
 100              	.LFB11:
  39:src/main.cpp  ****     }
  40:src/main.cpp  **** }
  41:src/main.cpp  **** 
  42:src/main.cpp  **** void main() {
 101              		.loc 1 42 13 is_stmt 1
 102              		.cfi_startproc
 103 0068 130101FD 		addi	sp,sp,-48
 104              		.cfi_def_cfa_offset 48
 105 006c 23341102 		sd	ra,40(sp)
 106 0070 23308102 		sd	s0,32(sp)
 107 0074 233C9100 		sd	s1,24(sp)
 108 0078 23382101 		sd	s2,16(sp)
 109              		.cfi_offset 1, -8
 110              		.cfi_offset 8, -16
 111              		.cfi_offset 9, -24
 112              		.cfi_offset 18, -32
 113 007c 13040103 		addi	s0,sp,48
 114              		.cfi_def_cfa 8, 0
  43:src/main.cpp  **** 
  44:src/main.cpp  **** 
  45:src/main.cpp  **** 
  46:src/main.cpp  ****     __asm__ volatile("csrw stvec, %[val]" : : [val] "r" (&handle_interrupt));
 115              		.loc 1 46 5
 116              		.loc 1 46 77 is_stmt 0
 117 0080 97070000 		la	a5,handle_interrupt
 117      83B70700 
 118              	#APP
 119              	# 46 "src/main.cpp" 1
  47              	
  48:src/main.cpp  **** //    uint64 stack_start;
  49:src/main.cpp  **** //    if((uint64)HEAP_START_ADDR % MEM_BLOCK_SIZE == 0){
  50:src/main.cpp  **** //        stack_start = (uint64)HEAP_START_ADDR;
  51:src/main.cpp  **** //    }
GAS LISTING /tmp/ccMbVF88.s 			page 4


  52:src/main.cpp  **** //    else {
  53:src/main.cpp  **** //        stack_start = (uint64)HEAP_START_ADDR + (MEM_BLOCK_SIZE - (uint64)HEAP_START_ADDR % MEM_B
  54:src/main.cpp  **** //    }
  55:src/main.cpp  **** //    uint64 sp = stack_start + 3*(uint64)DEFAULT_STACK_SIZE;
  56:src/main.cpp  ****     size_t numOfBlocks = (2 * DEFAULT_STACK_SIZE + sizeof(Header) + MEM_BLOCK_SIZE - 1) / MEM_BLOCK
 120              		csrw stvec, a5
 121              	# 0 "" 2
 122              		.loc 1 56 5 is_stmt 1
 123              	.LVL6:
  57:src/main.cpp  ****      void* result = MemoryAllocator::Instance()->mem_alloc(numOfBlocks);
 124              		.loc 1 57 6
 125              		.loc 1 57 59 is_stmt 0
 126              	#NO_APP
 127 008c 97000000 		call	_ZN15MemoryAllocator8InstanceEv@plt
 127      E7800000 
 128              	.LVL7:
 129 0094 93051008 		li	a1,129
 130 0098 97000000 		call	_ZN15MemoryAllocator9mem_allocEm@plt
 130      E7800000 
 131              	.LVL8:
  58:src/main.cpp  ****     void* stack = (char*)result + sizeof(Header);
 132              		.loc 1 58 5 is_stmt 1
  59:src/main.cpp  ****     void* stack_top = (char*)stack + 2*DEFAULT_STACK_SIZE;
 133              		.loc 1 59 5
 134              		.loc 1 59 11 is_stmt 0
 135 00a0 B7240000 		li	s1,8192
 136 00a4 93848400 		addi	s1,s1,8
 137 00a8 33059500 		add	a0,a0,s1
 138              	.LVL9:
  60:src/main.cpp  **** 
  61:src/main.cpp  ****     __asm__ volatile("mv sp, %[sp]" : : [sp] "r" ((uint64)(stack_top)));
 139              		.loc 1 61 5 is_stmt 1
 140              		.loc 1 61 72 is_stmt 0
 141              	#APP
 142              	# 61 "src/main.cpp" 1
  62              	
  63:src/main.cpp  ****      numOfBlocks = (2 * DEFAULT_STACK_SIZE + sizeof(Header) + MEM_BLOCK_SIZE - 1) / MEM_BLOCK_SIZE;
 143              		mv sp, a0
 144              	# 0 "" 2
 145              		.loc 1 63 6 is_stmt 1
  64:src/main.cpp  **** 
  65:src/main.cpp  ****     result = MemoryAllocator::Instance()->mem_alloc(numOfBlocks);
 146              		.loc 1 65 5
 147              		.loc 1 65 52 is_stmt 0
 148              	#NO_APP
 149 00b0 97000000 		call	_ZN15MemoryAllocator8InstanceEv@plt
 149      E7800000 
 150              	.LVL10:
 151 00b8 93051008 		li	a1,129
 152 00bc 97000000 		call	_ZN15MemoryAllocator9mem_allocEm@plt
 152      E7800000 
 153              	.LVL11:
  66:src/main.cpp  ****     stack = (char*)result + sizeof(Header);
 154              		.loc 1 66 5 is_stmt 1
  67:src/main.cpp  ****     stack_top = (char*)stack + 2*DEFAULT_STACK_SIZE;
 155              		.loc 1 67 5
  68:src/main.cpp  ****     thread_t  pid;
GAS LISTING /tmp/ccMbVF88.s 			page 5


 156              		.loc 1 68 5
  69:src/main.cpp  ****     Thread::create_thread_kernel(&pid, idleBody, nullptr, stack_top);
 157              		.loc 1 69 5
 158              		.loc 1 69 33 is_stmt 0
 159 00c4 B3069500 		add	a3,a0,s1
 160              	.LVL12:
 161 00c8 13060000 		li	a2,0
 162 00cc 97050000 		lla	a1,_Z8idleBodyPv
 162      93850500 
 163 00d4 1309C4FD 		addi	s2,s0,-36
 164 00d8 13050900 		mv	a0,s2
 165              	.LVL13:
 166 00dc 97000000 		call	_ZN6Thread20create_thread_kernelEPjPFvPvES1_S1_@plt
 166      E7800000 
 167              	.LVL14:
  70:src/main.cpp  ****     result = MemoryAllocator::Instance()->mem_alloc(numOfBlocks);
 168              		.loc 1 70 5 is_stmt 1
 169              		.loc 1 70 52 is_stmt 0
 170 00e4 97000000 		call	_ZN15MemoryAllocator8InstanceEv@plt
 170      E7800000 
 171              	.LVL15:
 172 00ec 93051008 		li	a1,129
 173 00f0 97000000 		call	_ZN15MemoryAllocator9mem_allocEm@plt
 173      E7800000 
 174              	.LVL16:
  71:src/main.cpp  ****     stack = (char*)result + sizeof(Header);
 175              		.loc 1 71 5 is_stmt 1
  72:src/main.cpp  ****     stack_top = (char*)stack + 2*DEFAULT_STACK_SIZE;
 176              		.loc 1 72 5
  73:src/main.cpp  **** 
  74:src/main.cpp  ****     Thread::create_thread_kernel(&pid, userMainWrapper, nullptr, stack_top);
 177              		.loc 1 74 5
 178              		.loc 1 74 33 is_stmt 0
 179 00f8 B3069500 		add	a3,a0,s1
 180              	.LVL17:
 181 00fc 13060000 		li	a2,0
 182 0100 97050000 		lla	a1,_Z15userMainWrapperPv
 182      93850500 
 183 0108 13050900 		mv	a0,s2
 184              	.LVL18:
 185 010c 97000000 		call	_ZN6Thread20create_thread_kernelEPjPFvPvES1_S1_@plt
 185      E7800000 
 186              	.LVL19:
  75:src/main.cpp  ****     Console::Instance();
 187              		.loc 1 75 5 is_stmt 1
 188              		.loc 1 75 22 is_stmt 0
 189 0114 97000000 		call	_ZN7Console8InstanceEv@plt
 189      E7800000 
 190              	.LVL20:
  76:src/main.cpp  ****     thread_dispatch();
 191              		.loc 1 76 5 is_stmt 1
 192              		.loc 1 76 20 is_stmt 0
 193 011c 97000000 		call	thread_dispatch@plt
 193      E7800000 
 194              	.LVL21:
  77:src/main.cpp  **** 
  78:src/main.cpp  **** }
GAS LISTING /tmp/ccMbVF88.s 			page 6


 195              		.loc 1 78 1
 196 0124 83308102 		ld	ra,40(sp)
 197              		.cfi_restore 1
 198 0128 03340102 		ld	s0,32(sp)
 199              		.cfi_restore 8
 200              		.cfi_def_cfa 2, 48
 201 012c 83348101 		ld	s1,24(sp)
 202              		.cfi_restore 9
 203 0130 03390101 		ld	s2,16(sp)
 204              		.cfi_restore 18
 205 0134 13010103 		addi	sp,sp,48
 206              		.cfi_def_cfa_offset 0
 207 0138 67800000 		jr	ra
 208              		.cfi_endproc
 209              	.LFE11:
 211              		.globl	__dso_handle
 212              		.bss
 213              		.align	3
 216              	__dso_handle:
 217 0000 00000000 		.zero	8
 217      00000000 
 218              		.text
 219              	.Letext0:
 220              		.file 2 "src/../lib/hw.h"
 221              		.file 3 "src/../h/memory_structs.h"
 222              		.file 4 "src/../h/ThreadPool.hpp"
 223              		.file 5 "src/../h/SemaphorePool.hpp"
 224              		.file 6 "src/../h/Buffer.hpp"
 225              		.file 7 "src/../h/Console.hpp"
 226              		.file 8 "src/../h/MemoryAllocator.hpp"
 227              		.file 9 "src/../h/Scheduler.hpp"
 228              		.file 10 "src/../h/Thread.hpp"
 229              		.file 11 "src/../h/syscall_c.hpp"
GAS LISTING /tmp/ccMbVF88.s 			page 7


DEFINED SYMBOLS
                            *ABS*:0000000000000000 main.cpp
     /tmp/ccMbVF88.s:9      .text:0000000000000000 _Z15userMainWrapperPv
     /tmp/ccMbVF88.s:13     .text:0000000000000000 .L0 
     /tmp/ccMbVF88.s:15     .text:0000000000000000 .L0 
     /tmp/ccMbVF88.s:16     .text:0000000000000004 .L0 
     /tmp/ccMbVF88.s:19     .text:000000000000000c .L0 
     /tmp/ccMbVF88.s:20     .text:000000000000000c .L0 
     /tmp/ccMbVF88.s:22     .text:0000000000000010 .L0 
     /tmp/ccMbVF88.s:24     .text:0000000000000010 .L0 
     /tmp/ccMbVF88.s:25     .text:0000000000000010 .L0 
     /tmp/ccMbVF88.s:28     .text:0000000000000018 .L0 
     /tmp/ccMbVF88.s:29     .text:0000000000000018 .L0 
     /tmp/ccMbVF88.s:32     .text:0000000000000020 .L0 
     /tmp/ccMbVF88.s:33     .text:0000000000000024 .L0 
     /tmp/ccMbVF88.s:35     .text:0000000000000028 .L0 
     /tmp/ccMbVF88.s:36     .text:0000000000000028 .L0 
     /tmp/ccMbVF88.s:38     .text:000000000000002c .L0 
     /tmp/ccMbVF88.s:40     .text:0000000000000030 .L0 
     /tmp/ccMbVF88.s:46     .text:0000000000000030 _Z8idleBodyPv
     /tmp/ccMbVF88.s:49     .text:0000000000000030 .L0 
     /tmp/ccMbVF88.s:50     .text:0000000000000030 .L0 
     /tmp/ccMbVF88.s:51     .text:0000000000000034 .L0 
     /tmp/ccMbVF88.s:54     .text:000000000000003c .L0 
     /tmp/ccMbVF88.s:55     .text:000000000000003c .L0 
     /tmp/ccMbVF88.s:57     .text:0000000000000040 .L0 
     /tmp/ccMbVF88.s:60     .text:0000000000000040 .L0 
     /tmp/ccMbVF88.s:61     .text:0000000000000040 .L0 
     /tmp/ccMbVF88.s:62     .text:0000000000000040 .L0 
     /tmp/ccMbVF88.s:65     .text:0000000000000048 .L0 
     /tmp/ccMbVF88.s:66     .text:000000000000004c .L0 
     /tmp/ccMbVF88.s:72     .text:000000000000004c __cxa_atexit
     /tmp/ccMbVF88.s:75     .text:000000000000004c .L0 
     /tmp/ccMbVF88.s:77     .text:000000000000004c .L0 
     /tmp/ccMbVF88.s:78     .text:0000000000000050 .L0 
     /tmp/ccMbVF88.s:80     .text:0000000000000054 .L0 
     /tmp/ccMbVF88.s:82     .text:0000000000000058 .L0 
     /tmp/ccMbVF88.s:84     .text:0000000000000058 .L0 
     /tmp/ccMbVF88.s:85     .text:0000000000000058 .L0 
     /tmp/ccMbVF88.s:88     .text:0000000000000060 .L0 
     /tmp/ccMbVF88.s:89     .text:0000000000000060 .L0 
     /tmp/ccMbVF88.s:91     .text:0000000000000064 .L0 
     /tmp/ccMbVF88.s:93     .text:0000000000000068 .L0 
     /tmp/ccMbVF88.s:99     .text:0000000000000068 main
     /tmp/ccMbVF88.s:102    .text:0000000000000068 .L0 
     /tmp/ccMbVF88.s:103    .text:0000000000000068 .L0 
     /tmp/ccMbVF88.s:104    .text:000000000000006c .L0 
     /tmp/ccMbVF88.s:109    .text:000000000000007c .L0 
     /tmp/ccMbVF88.s:110    .text:000000000000007c .L0 
     /tmp/ccMbVF88.s:111    .text:000000000000007c .L0 
     /tmp/ccMbVF88.s:112    .text:000000000000007c .L0 
     /tmp/ccMbVF88.s:114    .text:0000000000000080 .L0 
     /tmp/ccMbVF88.s:116    .text:0000000000000080 .L0 
     /tmp/ccMbVF88.s:117    .text:0000000000000080 .L0 
     /tmp/ccMbVF88.s:124    .text:000000000000008c .L0 
     /tmp/ccMbVF88.s:125    .text:000000000000008c .L0 
     /tmp/ccMbVF88.s:127    .text:000000000000008c .L0 
GAS LISTING /tmp/ccMbVF88.s 			page 8


     /tmp/ccMbVF88.s:133    .text:00000000000000a0 .L0 
     /tmp/ccMbVF88.s:134    .text:00000000000000a0 .L0 
     /tmp/ccMbVF88.s:135    .text:00000000000000a0 .L0 
     /tmp/ccMbVF88.s:140    .text:00000000000000ac .L0 
        src/main.cpp:61     .text:00000000000000ac .L0 
     /tmp/ccMbVF88.s:146    .text:00000000000000b0 .L0 
     /tmp/ccMbVF88.s:147    .text:00000000000000b0 .L0 
     /tmp/ccMbVF88.s:149    .text:00000000000000b0 .L0 
     /tmp/ccMbVF88.s:155    .text:00000000000000c4 .L0 
     /tmp/ccMbVF88.s:156    .text:00000000000000c4 .L0 
     /tmp/ccMbVF88.s:157    .text:00000000000000c4 .L0 
     /tmp/ccMbVF88.s:158    .text:00000000000000c4 .L0 
     /tmp/ccMbVF88.s:159    .text:00000000000000c4 .L0 
     /tmp/ccMbVF88.s:169    .text:00000000000000e4 .L0 
     /tmp/ccMbVF88.s:170    .text:00000000000000e4 .L0 
     /tmp/ccMbVF88.s:176    .text:00000000000000f8 .L0 
     /tmp/ccMbVF88.s:177    .text:00000000000000f8 .L0 
     /tmp/ccMbVF88.s:178    .text:00000000000000f8 .L0 
     /tmp/ccMbVF88.s:179    .text:00000000000000f8 .L0 
     /tmp/ccMbVF88.s:188    .text:0000000000000114 .L0 
     /tmp/ccMbVF88.s:189    .text:0000000000000114 .L0 
     /tmp/ccMbVF88.s:192    .text:000000000000011c .L0 
     /tmp/ccMbVF88.s:193    .text:000000000000011c .L0 
     /tmp/ccMbVF88.s:196    .text:0000000000000124 .L0 
     /tmp/ccMbVF88.s:197    .text:0000000000000128 .L0 
     /tmp/ccMbVF88.s:199    .text:000000000000012c .L0 
     /tmp/ccMbVF88.s:200    .text:000000000000012c .L0 
     /tmp/ccMbVF88.s:202    .text:0000000000000130 .L0 
     /tmp/ccMbVF88.s:204    .text:0000000000000134 .L0 
     /tmp/ccMbVF88.s:206    .text:0000000000000138 .L0 
     /tmp/ccMbVF88.s:208    .text:000000000000013c .L0 
     /tmp/ccMbVF88.s:216    .bss:0000000000000000 __dso_handle
     /tmp/ccMbVF88.s:230    .text:000000000000013c .L0 
     /tmp/ccMbVF88.s:117    .text:0000000000000080 .L0 
     /tmp/ccMbVF88.s:162    .text:00000000000000cc .L0 
     /tmp/ccMbVF88.s:182    .text:0000000000000100 .L0 
     /tmp/ccMbVF88.s:58     .text:0000000000000040 .L4
     /tmp/ccMbVF88.s:1470   .debug_abbrev:0000000000000000 .Ldebug_abbrev0
     /tmp/ccMbVF88.s:2756   .debug_str:00000000000007c4 .LASF125
     /tmp/ccMbVF88.s:2596   .debug_str:000000000000023f .LASF126
     /tmp/ccMbVF88.s:2606   .debug_str:0000000000000291 .LASF127
     /tmp/ccMbVF88.s:5      .text:0000000000000000 .Ltext0
     /tmp/ccMbVF88.s:219    .text:000000000000013c .Letext0
     /tmp/ccMbVF88.s:2524   .debug_line:0000000000000000 .Ldebug_line0
     /tmp/ccMbVF88.s:2620   .debug_str:000000000000030f .LASF0
     /tmp/ccMbVF88.s:2646   .debug_str:00000000000003fb .LASF1
     /tmp/ccMbVF88.s:2720   .debug_str:00000000000006aa .LASF2
     /tmp/ccMbVF88.s:2722   .debug_str:00000000000006b8 .LASF4
     /tmp/ccMbVF88.s:2632   .debug_str:0000000000000353 .LASF3
     /tmp/ccMbVF88.s:2528   .debug_str:0000000000000006 .LASF5
     /tmp/ccMbVF88.s:2774   .debug_str:0000000000000914 .LASF6
     /tmp/ccMbVF88.s:2784   .debug_str:0000000000000964 .LASF7
     /tmp/ccMbVF88.s:2692   .debug_str:00000000000005a8 .LASF8
     /tmp/ccMbVF88.s:2638   .debug_str:00000000000003a5 .LASF9
     /tmp/ccMbVF88.s:2566   .debug_str:0000000000000120 .LASF10
     /tmp/ccMbVF88.s:2602   .debug_str:000000000000025b .LASF11
     /tmp/ccMbVF88.s:2608   .debug_str:00000000000002af .LASF12
GAS LISTING /tmp/ccMbVF88.s 			page 9


     /tmp/ccMbVF88.s:2556   .debug_str:00000000000000db .LASF13
     /tmp/ccMbVF88.s:2592   .debug_str:0000000000000202 .LASF14
     /tmp/ccMbVF88.s:2570   .debug_str:000000000000013b .LASF15
     /tmp/ccMbVF88.s:2554   .debug_str:00000000000000cb .LASF16
     /tmp/ccMbVF88.s:2742   .debug_str:0000000000000773 .LASF17
     /tmp/ccMbVF88.s:2584   .debug_str:00000000000001c5 .LASF18
     /tmp/ccMbVF88.s:2738   .debug_str:0000000000000753 .LASF19
     /tmp/ccMbVF88.s:2752   .debug_str:00000000000007a2 .LASF23
     /tmp/ccMbVF88.s:2558   .debug_str:00000000000000ea .LASF20
     /tmp/ccMbVF88.s:2538   .debug_str:000000000000005f .LASF21
     /tmp/ccMbVF88.s:2644   .debug_str:00000000000003f6 .LASF22
     /tmp/ccMbVF88.s:2664   .debug_str:00000000000004b6 .LASF24
     /tmp/ccMbVF88.s:2776   .debug_str:000000000000091d .LASF26
     /tmp/ccMbVF88.s:2544   .debug_str:000000000000008f .LASF25
     /tmp/ccMbVF88.s:2678   .debug_str:0000000000000529 .LASF27
     /tmp/ccMbVF88.s:2730   .debug_str:000000000000070f .LASF28
     /tmp/ccMbVF88.s:2662   .debug_str:0000000000000492 .LASF30
     /tmp/ccMbVF88.s:2804   .debug_str:0000000000000a1b .LASF29
     /tmp/ccMbVF88.s:2586   .debug_str:00000000000001db .LASF31
     /tmp/ccMbVF88.s:2668   .debug_str:00000000000004c6 .LASF32
     /tmp/ccMbVF88.s:2728   .debug_str:00000000000006ea .LASF33
     /tmp/ccMbVF88.s:2778   .debug_str:0000000000000931 .LASF34
     /tmp/ccMbVF88.s:2700   .debug_str:00000000000005ef .LASF35
     /tmp/ccMbVF88.s:2610   .debug_str:00000000000002bd .LASF128
     /tmp/ccMbVF88.s:2578   .debug_str:0000000000000179 .LASF120
     /tmp/ccMbVF88.s:2652   .debug_str:0000000000000451 .LASF122
     /tmp/ccMbVF88.s:2658   .debug_str:0000000000000485 .LASF36
     /tmp/ccMbVF88.s:2686   .debug_str:0000000000000561 .LASF37
     /tmp/ccMbVF88.s:2734   .debug_str:000000000000072e .LASF38
     /tmp/ccMbVF88.s:2560   .debug_str:00000000000000ef .LASF39
     /tmp/ccMbVF88.s:2642   .debug_str:00000000000003cf .LASF40
     /tmp/ccMbVF88.s:2770   .debug_str:00000000000008ed .LASF41
     /tmp/ccMbVF88.s:2618   .debug_str:00000000000002e4 .LASF42
     /tmp/ccMbVF88.s:2740   .debug_str:0000000000000769 .LASF129
     /tmp/ccMbVF88.s:2736   .debug_str:0000000000000745 .LASF43
     /tmp/ccMbVF88.s:2640   .debug_str:00000000000003b8 .LASF44
     /tmp/ccMbVF88.s:2666   .debug_str:00000000000004c1 .LASF45
     /tmp/ccMbVF88.s:2712   .debug_str:0000000000000665 .LASF46
     /tmp/ccMbVF88.s:2626   .debug_str:0000000000000338 .LASF47
     /tmp/ccMbVF88.s:2702   .debug_str:00000000000005f4 .LASF48
     /tmp/ccMbVF88.s:2760   .debug_str:000000000000088f .LASF49
     /tmp/ccMbVF88.s:2672   .debug_str:00000000000004df .LASF50
     /tmp/ccMbVF88.s:2548   .debug_str:00000000000000a0 .LASF51
     /tmp/ccMbVF88.s:2650   .debug_str:000000000000042e .LASF52
     /tmp/ccMbVF88.s:2562   .debug_str:000000000000010d .LASF130
     /tmp/ccMbVF88.s:2758   .debug_str:0000000000000888 .LASF53
     /tmp/ccMbVF88.s:2590   .debug_str:00000000000001fd .LASF54
     /tmp/ccMbVF88.s:2680   .debug_str:0000000000000544 .LASF55
     /tmp/ccMbVF88.s:2526   .debug_str:0000000000000000 .LASF56
     /tmp/ccMbVF88.s:2670   .debug_str:00000000000004d1 .LASF57
     /tmp/ccMbVF88.s:2764   .debug_str:00000000000008ae .LASF58
     /tmp/ccMbVF88.s:2716   .debug_str:000000000000068d .LASF59
     /tmp/ccMbVF88.s:2746   .debug_str:0000000000000788 .LASF60
     /tmp/ccMbVF88.s:2660   .debug_str:000000000000048a .LASF61
     /tmp/ccMbVF88.s:2706   .debug_str:000000000000061e .LASF62
     /tmp/ccMbVF88.s:2718   .debug_str:0000000000000693 .LASF63
     /tmp/ccMbVF88.s:2580   .debug_str:00000000000001a9 .LASF67
GAS LISTING /tmp/ccMbVF88.s 			page 10


     /tmp/ccMbVF88.s:2574   .debug_str:000000000000015d .LASF64
     /tmp/ccMbVF88.s:2572   .debug_str:000000000000014b .LASF131
     /tmp/ccMbVF88.s:2726   .debug_str:00000000000006df .LASF65
     /tmp/ccMbVF88.s:2754   .debug_str:00000000000007aa .LASF66
     /tmp/ccMbVF88.s:2624   .debug_str:000000000000032b .LASF132
     /tmp/ccMbVF88.s:2798   .debug_str:00000000000009de .LASF133
     /tmp/ccMbVF88.s:2656   .debug_str:0000000000000475 .LASF68
     /tmp/ccMbVF88.s:2552   .debug_str:00000000000000c2 .LASF69
     /tmp/ccMbVF88.s:2616   .debug_str:00000000000002d4 .LASF70
     /tmp/ccMbVF88.s:2576   .debug_str:0000000000000170 .LASF71
     /tmp/ccMbVF88.s:2772   .debug_str:000000000000090b .LASF72
     /tmp/ccMbVF88.s:2684   .debug_str:0000000000000553 .LASF73
     /tmp/ccMbVF88.s:2698   .debug_str:00000000000005e1 .LASF74
     /tmp/ccMbVF88.s:2654   .debug_str:0000000000000466 .LASF75
     /tmp/ccMbVF88.s:2622   .debug_str:000000000000031c .LASF76
     /tmp/ccMbVF88.s:2564   .debug_str:0000000000000117 .LASF134
     /tmp/ccMbVF88.s:2714   .debug_str:000000000000067f .LASF77
     /tmp/ccMbVF88.s:2540   .debug_str:0000000000000064 .LASF135
     /tmp/ccMbVF88.s:2780   .debug_str:0000000000000936 .LASF136
     /tmp/ccMbVF88.s:2704   .debug_str:000000000000060e .LASF137
     /tmp/ccMbVF88.s:2648   .debug_str:000000000000040e .LASF138
     /tmp/ccMbVF88.s:2688   .debug_str:000000000000056f .LASF78
     /tmp/ccMbVF88.s:2724   .debug_str:00000000000006bf .LASF79
     /tmp/ccMbVF88.s:2782   .debug_str:0000000000000956 .LASF80
     /tmp/ccMbVF88.s:2604   .debug_str:000000000000026b .LASF81
     /tmp/ccMbVF88.s:2800   .debug_str:00000000000009fa .LASF82
     /tmp/ccMbVF88.s:2690   .debug_str:000000000000057f .LASF83
     /tmp/ccMbVF88.s:2806   .debug_str:0000000000000a24 .LASF84
     /tmp/ccMbVF88.s:2594   .debug_str:0000000000000211 .LASF85
     /tmp/ccMbVF88.s:2550   .debug_str:00000000000000ac .LASF86
     /tmp/ccMbVF88.s:2710   .debug_str:0000000000000637 .LASF87
     /tmp/ccMbVF88.s:2674   .debug_str:00000000000004fe .LASF88
     /tmp/ccMbVF88.s:2530   .debug_str:000000000000000d .LASF89
     /tmp/ccMbVF88.s:2744   .debug_str:000000000000077f .LASF90
     /tmp/ccMbVF88.s:2676   .debug_str:0000000000000508 .LASF91
     /tmp/ccMbVF88.s:2536   .debug_str:0000000000000046 .LASF92
     /tmp/ccMbVF88.s:2682   .debug_str:0000000000000549 .LASF93
     /tmp/ccMbVF88.s:2614   .debug_str:00000000000002ce .LASF94
     /tmp/ccMbVF88.s:2694   .debug_str:00000000000005bb .LASF95
     /tmp/ccMbVF88.s:2628   .debug_str:000000000000033d .LASF96
     /tmp/ccMbVF88.s:2634   .debug_str:0000000000000365 .LASF97
     /tmp/ccMbVF88.s:2794   .debug_str:00000000000009c6 .LASF98
     /tmp/ccMbVF88.s:2732   .debug_str:0000000000000720 .LASF99
     /tmp/ccMbVF88.s:2636   .debug_str:000000000000038e .LASF100
     /tmp/ccMbVF88.s:2786   .debug_str:000000000000096a .LASF101
     /tmp/ccMbVF88.s:2802   .debug_str:0000000000000a0b .LASF102
     /tmp/ccMbVF88.s:2766   .debug_str:00000000000008bd .LASF103
     /tmp/ccMbVF88.s:2600   .debug_str:0000000000000251 .LASF104
     /tmp/ccMbVF88.s:2788   .debug_str:000000000000099a .LASF105
     /tmp/ccMbVF88.s:2542   .debug_str:0000000000000074 .LASF139
     /tmp/ccMbVF88.s:2790   .debug_str:00000000000009ac .LASF140
     /tmp/ccMbVF88.s:2532   .debug_str:000000000000002e .LASF106
     /tmp/ccMbVF88.s:2796   .debug_str:00000000000009d1 .LASF107
     /tmp/ccMbVF88.s:2598   .debug_str:000000000000024c .LASF108
     /tmp/ccMbVF88.s:100    .text:0000000000000068 .LFB11
     /tmp/ccMbVF88.s:209    .text:000000000000013c .LFE11
     /tmp/ccMbVF88.s:2546   .debug_str:0000000000000094 .LASF109
GAS LISTING /tmp/ccMbVF88.s 			page 11


     /tmp/ccMbVF88.s:2588   .debug_str:00000000000001f6 .LASF110
     /tmp/ccMbVF88.s:2378   .debug_loc:0000000000000000 .LLST2
     /tmp/ccMbVF88.s:2792   .debug_str:00000000000009c0 .LASF111
     /tmp/ccMbVF88.s:2411   .debug_loc:000000000000008e .LLST3
     /tmp/ccMbVF88.s:2612   .debug_str:00000000000002c4 .LASF112
     /tmp/ccMbVF88.s:2450   .debug_loc:000000000000011f .LLST4
     /tmp/ccMbVF88.s:128    .text:0000000000000094 .LVL7
     /tmp/ccMbVF88.s:131    .text:00000000000000a0 .LVL8
     /tmp/ccMbVF88.s:150    .text:00000000000000b8 .LVL10
     /tmp/ccMbVF88.s:153    .text:00000000000000c4 .LVL11
     /tmp/ccMbVF88.s:167    .text:00000000000000e4 .LVL14
     /tmp/ccMbVF88.s:171    .text:00000000000000ec .LVL15
     /tmp/ccMbVF88.s:174    .text:00000000000000f8 .LVL16
     /tmp/ccMbVF88.s:186    .text:0000000000000114 .LVL19
     /tmp/ccMbVF88.s:190    .text:000000000000011c .LVL20
     /tmp/ccMbVF88.s:194    .text:0000000000000124 .LVL21
     /tmp/ccMbVF88.s:2582   .debug_str:00000000000001bc .LASF113
     /tmp/ccMbVF88.s:2534   .debug_str:0000000000000038 .LASF114
     /tmp/ccMbVF88.s:47     .text:0000000000000030 .LFB10
     /tmp/ccMbVF88.s:67     .text:000000000000004c .LFE10
     /tmp/ccMbVF88.s:63     .text:0000000000000048 .LVL3
     /tmp/ccMbVF88.s:2750   .debug_str:0000000000000792 .LASF115
     /tmp/ccMbVF88.s:2762   .debug_str:0000000000000898 .LASF116
     /tmp/ccMbVF88.s:10     .text:0000000000000000 .LFB9
     /tmp/ccMbVF88.s:41     .text:0000000000000030 .LFE9
     /tmp/ccMbVF88.s:2768   .debug_str:00000000000008e8 .LASF118
     /tmp/ccMbVF88.s:2483   .debug_loc:0000000000000198 .LLST0
     /tmp/ccMbVF88.s:26     .text:0000000000000018 .LVL1
     /tmp/ccMbVF88.s:30     .text:0000000000000020 .LVL2
     /tmp/ccMbVF88.s:2568   .debug_str:000000000000012e .LASF117
     /tmp/ccMbVF88.s:73     .text:000000000000004c .LFB8
     /tmp/ccMbVF88.s:94     .text:0000000000000068 .LFE8
     /tmp/ccMbVF88.s:2748   .debug_str:000000000000078d .LASF119
     /tmp/ccMbVF88.s:2497   .debug_loc:00000000000001d1 .LLST1
     /tmp/ccMbVF88.s:2708   .debug_str:0000000000000627 .LASF121
     /tmp/ccMbVF88.s:2696   .debug_str:00000000000005d8 .LASF123
     /tmp/ccMbVF88.s:2630   .debug_str:0000000000000347 .LASF124
     /tmp/ccMbVF88.s:138    .text:00000000000000ac .LVL9
     /tmp/ccMbVF88.s:165    .text:00000000000000dc .LVL13
     /tmp/ccMbVF88.s:184    .text:000000000000010c .LVL18
     /tmp/ccMbVF88.s:160    .text:00000000000000c8 .LVL12
     /tmp/ccMbVF88.s:180    .text:00000000000000fc .LVL17
     /tmp/ccMbVF88.s:14     .text:0000000000000000 .LVL0
     /tmp/ccMbVF88.s:76     .text:000000000000004c .LVL4
     /tmp/ccMbVF88.s:86     .text:000000000000005c .LVL5
     /tmp/ccMbVF88.s:231    .debug_info:0000000000000000 .Ldebug_info0

UNDEFINED SYMBOLS
userMain
thread_exit
thread_dispatch
handle_interrupt
_ZN15MemoryAllocator8InstanceEv
_ZN15MemoryAllocator9mem_allocEm
_ZN6Thread20create_thread_kernelEPjPFvPvES1_S1_
_ZN7Console8InstanceEv
