GAS LISTING /tmp/cc0OSxQD.s 			page 1


   1              		.file	"main.cpp"
   2              		.option pic
   3              		.option norelax
   4              		.text
   5              	.Ltext0:
   6              		.align	2
   7              		.globl	_Z15userMainWrapperPv
   9              	_Z15userMainWrapperPv:
  10              	.LFB7:
  11              		.file 1 "src/main.cpp"
   1:src/main.cpp  **** #include "../lib/hw.h"
   2:src/main.cpp  **** #include "../lib/console.h"
   3:src/main.cpp  **** #include "../h/codes.h"
   4:src/main.cpp  **** #include "../h/MemoryAllocator.hpp"
   5:src/main.cpp  **** #include "../h/List.hpp"
   6:src/main.cpp  **** #include "../h/Thread.hpp"
   7:src/main.cpp  **** #include "../h/console.hpp"
   8:src/main.cpp  **** #include "../h/Scheduler.hpp"
   9:src/main.cpp  **** #include "../h/MemoryAllocator.hpp"
  10:src/main.cpp  **** #include "../h/Pool.hpp"
  11:src/main.cpp  **** #include "../h/RiscV.hpp"
  12:src/main.cpp  **** #include "../h/interrupt.hpp"
  13:src/main.cpp  **** #include "../h/syscall_c.hpp"
  14:src/main.cpp  **** #include "../h/syscall_cpp.hpp"
  15:src/main.cpp  **** 
  16:src/main.cpp  **** 
  17:src/main.cpp  **** extern "C" void userMain();
  18:src/main.cpp  **** 
  19:src/main.cpp  **** 
  20:src/main.cpp  **** extern "C" {
  21:src/main.cpp  **** 
  22:src/main.cpp  **** int __cxa_atexit(void (*func)(void *), void *arg, void *d) {
  23:src/main.cpp  ****     return 0;
  24:src/main.cpp  **** }
  25:src/main.cpp  **** 
  26:src/main.cpp  **** }
  27:src/main.cpp  **** void* __dso_handle = nullptr;
  28:src/main.cpp  **** 
  29:src/main.cpp  **** 
  30:src/main.cpp  **** void userMainWrapper(void* args){
  12              		.loc 1 30 33
  13              		.cfi_startproc
  14              	.LVL0:
  15 0000 130101FF 		addi	sp,sp,-16
  16              		.cfi_def_cfa_offset 16
  17 0004 23341100 		sd	ra,8(sp)
  18 0008 23308100 		sd	s0,0(sp)
  19              		.cfi_offset 1, -8
  20              		.cfi_offset 8, -16
  21 000c 13040101 		addi	s0,sp,16
  22              		.cfi_def_cfa 8, 0
  31:src/main.cpp  **** 
  32:src/main.cpp  ****     //RiscV::switchToUserMode();
  33:src/main.cpp  ****     userMain();
  23              		.loc 1 33 5
  24              		.loc 1 33 13 is_stmt 0
  25 0010 97000000 		call	userMain@plt
GAS LISTING /tmp/cc0OSxQD.s 			page 2


  25      E7800000 
  26              	.LVL1:
  34:src/main.cpp  **** }
  27              		.loc 1 34 1
  28 0018 83308100 		ld	ra,8(sp)
  29              		.cfi_restore 1
  30 001c 03340100 		ld	s0,0(sp)
  31              		.cfi_restore 8
  32              		.cfi_def_cfa 2, 16
  33 0020 13010101 		addi	sp,sp,16
  34              		.cfi_def_cfa_offset 0
  35 0024 67800000 		jr	ra
  36              		.cfi_endproc
  37              	.LFE7:
  39              		.align	2
  40              		.globl	_Z8idleBodyPv
  42              	_Z8idleBodyPv:
  43              	.LFB8:
  35:src/main.cpp  **** void idleBody(void*) {
  44              		.loc 1 35 22 is_stmt 1
  45              		.cfi_startproc
  46 0028 130101FF 		addi	sp,sp,-16
  47              		.cfi_def_cfa_offset 16
  48 002c 23341100 		sd	ra,8(sp)
  49 0030 23308100 		sd	s0,0(sp)
  50              		.cfi_offset 1, -8
  51              		.cfi_offset 8, -16
  52 0034 13040101 		addi	s0,sp,16
  53              		.cfi_def_cfa 8, 0
  54              	.L4:
  36:src/main.cpp  ****     while (true){
  55              		.loc 1 36 5 discriminator 1
  37:src/main.cpp  ****         thread_dispatch();
  56              		.loc 1 37 9 discriminator 1
  57              		.loc 1 37 24 is_stmt 0 discriminator 1
  58 0038 97000000 		call	thread_dispatch@plt
  58      E7800000 
  59              	.LVL2:
  36:src/main.cpp  ****     while (true){
  60              		.loc 1 36 5 is_stmt 1 discriminator 1
  61 0040 6FF09FFF 		j	.L4
  62              		.cfi_endproc
  63              	.LFE8:
  65              		.align	2
  66              		.globl	__cxa_atexit
  68              	__cxa_atexit:
  69              	.LFB6:
  22:src/main.cpp  ****     return 0;
  70              		.loc 1 22 60
  71              		.cfi_startproc
  72              	.LVL3:
  73 0044 130101FF 		addi	sp,sp,-16
  74              		.cfi_def_cfa_offset 16
  75 0048 23348100 		sd	s0,8(sp)
  76              		.cfi_offset 8, -8
  77 004c 13040101 		addi	s0,sp,16
  78              		.cfi_def_cfa 8, 0
GAS LISTING /tmp/cc0OSxQD.s 			page 3


  23:src/main.cpp  **** }
  79              		.loc 1 23 5
  24:src/main.cpp  **** 
  80              		.loc 1 24 1 is_stmt 0
  81 0050 13050000 		li	a0,0
  82              	.LVL4:
  83 0054 03348100 		ld	s0,8(sp)
  84              		.cfi_restore 8
  85              		.cfi_def_cfa 2, 16
  86 0058 13010101 		addi	sp,sp,16
  87              		.cfi_def_cfa_offset 0
  88 005c 67800000 		jr	ra
  89              		.cfi_endproc
  90              	.LFE6:
  92              		.align	2
  93              		.globl	main
  95              	main:
  96              	.LFB9:
  38:src/main.cpp  ****     }
  39:src/main.cpp  **** }
  40:src/main.cpp  **** 
  41:src/main.cpp  **** void main() {
  97              		.loc 1 41 13 is_stmt 1
  98              		.cfi_startproc
  99 0060 130101FD 		addi	sp,sp,-48
 100              		.cfi_def_cfa_offset 48
 101 0064 23341102 		sd	ra,40(sp)
 102 0068 23308102 		sd	s0,32(sp)
 103 006c 233C9100 		sd	s1,24(sp)
 104 0070 23382101 		sd	s2,16(sp)
 105              		.cfi_offset 1, -8
 106              		.cfi_offset 8, -16
 107              		.cfi_offset 9, -24
 108              		.cfi_offset 18, -32
 109 0074 13040103 		addi	s0,sp,48
 110              		.cfi_def_cfa 8, 0
  42:src/main.cpp  **** 
  43:src/main.cpp  **** 
  44:src/main.cpp  **** 
  45:src/main.cpp  ****     __asm__ volatile("csrw stvec, %[val]" : : [val] "r" (&handle_interrupt));
 111              		.loc 1 45 5
 112              		.loc 1 45 77 is_stmt 0
 113 0078 97070000 		la	a5,handle_interrupt
 113      83B70700 
 114              	#APP
 115              	# 45 "src/main.cpp" 1
  46              	
  47:src/main.cpp  **** //    uint64 stack_start;
  48:src/main.cpp  **** //    if((uint64)HEAP_START_ADDR % MEM_BLOCK_SIZE == 0){
  49:src/main.cpp  **** //        stack_start = (uint64)HEAP_START_ADDR;
  50:src/main.cpp  **** //    }
  51:src/main.cpp  **** //    else {
  52:src/main.cpp  **** //        stack_start = (uint64)HEAP_START_ADDR + (MEM_BLOCK_SIZE - (uint64)HEAP_START_ADDR % MEM_B
  53:src/main.cpp  **** //    }
  54:src/main.cpp  **** //    uint64 sp = stack_start + 3*(uint64)DEFAULT_STACK_SIZE;
  55:src/main.cpp  ****     size_t numOfBlocks = (2 * DEFAULT_STACK_SIZE + sizeof(Header) + MEM_BLOCK_SIZE - 1) / MEM_BLOCK
 116              		csrw stvec, a5
GAS LISTING /tmp/cc0OSxQD.s 			page 4


 117              	# 0 "" 2
 118              		.loc 1 55 5 is_stmt 1
 119              	.LVL5:
  56:src/main.cpp  ****      void* result = MemoryAllocator::Instance()->mem_alloc(numOfBlocks);
 120              		.loc 1 56 6
 121              		.loc 1 56 59 is_stmt 0
 122              	#NO_APP
 123 0084 97000000 		call	_ZN15MemoryAllocator8InstanceEv@plt
 123      E7800000 
 124              	.LVL6:
 125 008c 93051008 		li	a1,129
 126 0090 97000000 		call	_ZN15MemoryAllocator9mem_allocEm@plt
 126      E7800000 
 127              	.LVL7:
  57:src/main.cpp  ****     void* stack = (char*)result + sizeof(Header);
 128              		.loc 1 57 5 is_stmt 1
  58:src/main.cpp  ****     void* stack_top = (char*)stack + 2*DEFAULT_STACK_SIZE;
 129              		.loc 1 58 5
 130              		.loc 1 58 11 is_stmt 0
 131 0098 B7240000 		li	s1,8192
 132 009c 93848400 		addi	s1,s1,8
 133 00a0 33059500 		add	a0,a0,s1
 134              	.LVL8:
  59:src/main.cpp  **** 
  60:src/main.cpp  ****     __asm__ volatile("mv sp, %[sp]" : : [sp] "r" ((uint64)(stack_top)));
 135              		.loc 1 60 5 is_stmt 1
 136              		.loc 1 60 72 is_stmt 0
 137              	#APP
 138              	# 60 "src/main.cpp" 1
  61              	
  62:src/main.cpp  ****      numOfBlocks = (2 * DEFAULT_STACK_SIZE + sizeof(Header) + MEM_BLOCK_SIZE - 1) / MEM_BLOCK_SIZE;
 139              		mv sp, a0
 140              	# 0 "" 2
 141              		.loc 1 62 6 is_stmt 1
  63:src/main.cpp  **** 
  64:src/main.cpp  ****     result = MemoryAllocator::Instance()->mem_alloc(numOfBlocks);
 142              		.loc 1 64 5
 143              		.loc 1 64 52 is_stmt 0
 144              	#NO_APP
 145 00a8 97000000 		call	_ZN15MemoryAllocator8InstanceEv@plt
 145      E7800000 
 146              	.LVL9:
 147 00b0 93051008 		li	a1,129
 148 00b4 97000000 		call	_ZN15MemoryAllocator9mem_allocEm@plt
 148      E7800000 
 149              	.LVL10:
  65:src/main.cpp  ****     stack = (char*)result + sizeof(Header);
 150              		.loc 1 65 5 is_stmt 1
  66:src/main.cpp  ****     stack_top = (char*)stack + 2*DEFAULT_STACK_SIZE;
 151              		.loc 1 66 5
  67:src/main.cpp  ****     thread_t  pid;
 152              		.loc 1 67 5
  68:src/main.cpp  ****     Thread::create_thread_kernel(&pid, idleBody, nullptr, stack_top);
 153              		.loc 1 68 5
 154              		.loc 1 68 33 is_stmt 0
 155 00bc B3069500 		add	a3,a0,s1
 156              	.LVL11:
GAS LISTING /tmp/cc0OSxQD.s 			page 5


 157 00c0 13060000 		li	a2,0
 158 00c4 97050000 		lla	a1,_Z8idleBodyPv
 158      93850500 
 159 00cc 1309C4FD 		addi	s2,s0,-36
 160 00d0 13050900 		mv	a0,s2
 161              	.LVL12:
 162 00d4 97000000 		call	_ZN6Thread20create_thread_kernelEPjPFvPvES1_S1_@plt
 162      E7800000 
 163              	.LVL13:
  69:src/main.cpp  ****     result = MemoryAllocator::Instance()->mem_alloc(numOfBlocks);
 164              		.loc 1 69 5 is_stmt 1
 165              		.loc 1 69 52 is_stmt 0
 166 00dc 97000000 		call	_ZN15MemoryAllocator8InstanceEv@plt
 166      E7800000 
 167              	.LVL14:
 168 00e4 93051008 		li	a1,129
 169 00e8 97000000 		call	_ZN15MemoryAllocator9mem_allocEm@plt
 169      E7800000 
 170              	.LVL15:
  70:src/main.cpp  ****     stack = (char*)result + sizeof(Header);
 171              		.loc 1 70 5 is_stmt 1
  71:src/main.cpp  ****     stack_top = (char*)stack + 2*DEFAULT_STACK_SIZE;
 172              		.loc 1 71 5
  72:src/main.cpp  **** 
  73:src/main.cpp  ****     Thread::create_thread_kernel(&pid, userMainWrapper, nullptr, stack_top);
 173              		.loc 1 73 5
 174              		.loc 1 73 33 is_stmt 0
 175 00f0 B3069500 		add	a3,a0,s1
 176              	.LVL16:
 177 00f4 13060000 		li	a2,0
 178 00f8 97050000 		lla	a1,_Z15userMainWrapperPv
 178      93850500 
 179 0100 13050900 		mv	a0,s2
 180              	.LVL17:
 181 0104 97000000 		call	_ZN6Thread20create_thread_kernelEPjPFvPvES1_S1_@plt
 181      E7800000 
 182              	.LVL18:
  74:src/main.cpp  ****     Console::Instance();
 183              		.loc 1 74 5 is_stmt 1
 184              		.loc 1 74 22 is_stmt 0
 185 010c 97000000 		call	_ZN7Console8InstanceEv@plt
 185      E7800000 
 186              	.LVL19:
  75:src/main.cpp  ****     thread_dispatch();
 187              		.loc 1 75 5 is_stmt 1
 188              		.loc 1 75 20 is_stmt 0
 189 0114 97000000 		call	thread_dispatch@plt
 189      E7800000 
 190              	.LVL20:
  76:src/main.cpp  **** 
  77:src/main.cpp  **** }
 191              		.loc 1 77 1
 192 011c 83308102 		ld	ra,40(sp)
 193              		.cfi_restore 1
 194 0120 03340102 		ld	s0,32(sp)
 195              		.cfi_restore 8
 196              		.cfi_def_cfa 2, 48
GAS LISTING /tmp/cc0OSxQD.s 			page 6


 197 0124 83348101 		ld	s1,24(sp)
 198              		.cfi_restore 9
 199 0128 03390101 		ld	s2,16(sp)
 200              		.cfi_restore 18
 201 012c 13010103 		addi	sp,sp,48
 202              		.cfi_def_cfa_offset 0
 203 0130 67800000 		jr	ra
 204              		.cfi_endproc
 205              	.LFE9:
 207              		.globl	__dso_handle
 208              		.bss
 209              		.align	3
 212              	__dso_handle:
 213 0000 00000000 		.zero	8
 213      00000000 
 214              		.text
 215              	.Letext0:
 216              		.file 2 "src/../lib/hw.h"
 217              		.file 3 "src/../h/memory_structs.h"
 218              		.file 4 "src/../h/ThreadPool.hpp"
 219              		.file 5 "src/../h/SemaphorePool.hpp"
 220              		.file 6 "src/../h/Buffer.hpp"
 221              		.file 7 "src/../h/Console.hpp"
 222              		.file 8 "src/../h/MemoryAllocator.hpp"
 223              		.file 9 "src/../h/Scheduler.hpp"
 224              		.file 10 "src/../h/Thread.hpp"
 225              		.file 11 "src/../h/syscall_c.hpp"
GAS LISTING /tmp/cc0OSxQD.s 			page 7

