GAS LISTING /tmp/ccQtcBro.s 			page 1


   1              		.file	"MemoryAllocator.cpp"
   2              		.option pic
   3              		.option norelax
   4              		.text
   5              	.Ltext0:
   6              		.align	2
   7              		.globl	_Z23getWaitStatusForRunningv
   9              	_Z23getWaitStatusForRunningv:
  10              	.LFB6:
  11              		.file 1 "src/MemoryAllocator.cpp"
   1:src/MemoryAllocator.cpp **** #include "../h/MemoryAllocator.hpp"
   2:src/MemoryAllocator.cpp **** #include "../h/syscall_c.hpp"
   3:src/MemoryAllocator.cpp **** #include "../lib/hw.h"
   4:src/MemoryAllocator.cpp **** #include "../h/Thread.hpp"
   5:src/MemoryAllocator.cpp **** 
   6:src/MemoryAllocator.cpp **** // Povratak statusa čekanja za tekuću nit
   7:src/MemoryAllocator.cpp **** int getWaitStatusForRunning() {
  12              		.loc 1 7 31
  13              		.cfi_startproc
  14 0000 130101FF 		addi	sp,sp,-16
  15              		.cfi_def_cfa_offset 16
  16 0004 23348100 		sd	s0,8(sp)
  17              		.cfi_offset 8, -8
  18 0008 13040101 		addi	s0,sp,16
  19              		.cfi_def_cfa 8, 0
   8:src/MemoryAllocator.cpp ****     return Thread::running->semWaitStatus;
  20              		.loc 1 8 5
  21              		.loc 1 8 29 is_stmt 0
  22 000c 97070000 		la	a5,_ZN6Thread7runningE
  22      83B70700 
  23 0014 83B70700 		ld	a5,0(a5)
   9:src/MemoryAllocator.cpp **** }
  24              		.loc 1 9 1
  25 0018 03A58700 		lw	a0,8(a5)
  26 001c 03348100 		ld	s0,8(sp)
  27              		.cfi_restore 8
  28              		.cfi_def_cfa 2, 16
  29 0020 13010101 		addi	sp,sp,16
  30              		.cfi_def_cfa_offset 0
  31 0024 67800000 		jr	ra
  32              		.cfi_endproc
  33              	.LFE6:
  35              		.align	2
  36              		.globl	_ZN15MemoryAllocator5alignEm
  38              	_ZN15MemoryAllocator5alignEm:
  39              	.LFB8:
  10:src/MemoryAllocator.cpp **** 
  11:src/MemoryAllocator.cpp **** // Singleton MemoryAllocator
  12:src/MemoryAllocator.cpp **** MemoryAllocator* MemoryAllocator::Instance() {
  13:src/MemoryAllocator.cpp ****     static MemoryAllocator instance;
  14:src/MemoryAllocator.cpp ****     return &instance;
  15:src/MemoryAllocator.cpp **** }
  16:src/MemoryAllocator.cpp **** 
  17:src/MemoryAllocator.cpp **** // Poravnanje adrese
  18:src/MemoryAllocator.cpp **** uint64 MemoryAllocator::align(uint64 addr) {
  40              		.loc 1 18 44 is_stmt 1
  41              		.cfi_startproc
GAS LISTING /tmp/ccQtcBro.s 			page 2


  42              	.LVL0:
  43 0028 130101FF 		addi	sp,sp,-16
  44              		.cfi_def_cfa_offset 16
  45 002c 23348100 		sd	s0,8(sp)
  46              		.cfi_offset 8, -8
  47 0030 13040101 		addi	s0,sp,16
  48              		.cfi_def_cfa 8, 0
  19:src/MemoryAllocator.cpp ****     if (addr % MEM_BLOCK_SIZE == 0) return addr;
  49              		.loc 1 19 5
  50              		.loc 1 19 14 is_stmt 0
  51 0034 93F7F503 		andi	a5,a1,63
  52              		.loc 1 19 5
  53 0038 638C0700 		beqz	a5,.L5
  20:src/MemoryAllocator.cpp ****     return addr + (MEM_BLOCK_SIZE - addr % MEM_BLOCK_SIZE);
  54              		.loc 1 20 5 is_stmt 1
  55              		.loc 1 20 17 is_stmt 0
  56 003c 93F505FC 		andi	a1,a1,-64
  57              	.LVL1:
  58              		.loc 1 20 58
  59 0040 13850504 		addi	a0,a1,64
  60              	.LVL2:
  61              	.L3:
  21:src/MemoryAllocator.cpp **** }
  62              		.loc 1 21 1
  63 0044 03348100 		ld	s0,8(sp)
  64              		.cfi_remember_state
  65              		.cfi_restore 8
  66              		.cfi_def_cfa 2, 16
  67 0048 13010101 		addi	sp,sp,16
  68              		.cfi_def_cfa_offset 0
  69 004c 67800000 		jr	ra
  70              	.LVL3:
  71              	.L5:
  72              		.cfi_restore_state
  19:src/MemoryAllocator.cpp ****     if (addr % MEM_BLOCK_SIZE == 0) return addr;
  73              		.loc 1 19 44
  74 0050 13850500 		mv	a0,a1
  75              	.LVL4:
  76 0054 6FF01FFF 		j	.L3
  77              		.cfi_endproc
  78              	.LFE8:
  80              		.align	2
  81              		.globl	_ZN15MemoryAllocator13getThreadPoolEv
  83              	_ZN15MemoryAllocator13getThreadPoolEv:
  84              	.LFB12:
  22:src/MemoryAllocator.cpp **** 
  23:src/MemoryAllocator.cpp **** // Konstruktor MemoryAllocator-a
  24:src/MemoryAllocator.cpp **** MemoryAllocator::MemoryAllocator() {
  25:src/MemoryAllocator.cpp ****     fmem_head = (FreeMem*)(align((uint64)HEAP_START_ADDR) + (uint64)DEFAULT_STACK_SIZE);
  26:src/MemoryAllocator.cpp ****     fmem_head->next = nullptr;
  27:src/MemoryAllocator.cpp ****     fmem_head->prev = nullptr;
  28:src/MemoryAllocator.cpp **** 
  29:src/MemoryAllocator.cpp ****     uint64 totalBlocks = (((uint64)HEAP_END_ADDR - (uint64)fmem_head) -
  30:src/MemoryAllocator.cpp ****                           (((uint64)HEAP_END_ADDR - (uint64)fmem_head) % MEM_BLOCK_SIZE)) / MEM_BLO
  31:src/MemoryAllocator.cpp ****     fmem_head->size = totalBlocks;
  32:src/MemoryAllocator.cpp **** 
  33:src/MemoryAllocator.cpp ****     void* threadManagerPoolAddress = mem_alloc_for_managers(MAX_THREADS, sizeof(Thread));
GAS LISTING /tmp/ccQtcBro.s 			page 3


  34:src/MemoryAllocator.cpp ****     void* threadManagerUsedArrayAddress = mem_alloc_for_managers(MAX_THREADS, sizeof(bool));
  35:src/MemoryAllocator.cpp ****     threadPool.init(threadManagerPoolAddress, threadManagerUsedArrayAddress);
  36:src/MemoryAllocator.cpp **** 
  37:src/MemoryAllocator.cpp ****     void* semaphoreManagerPoolAddress = mem_alloc_for_managers(MAX_SEMAPHORES, sizeof(Semaphore));
  38:src/MemoryAllocator.cpp ****     void* semaphoreManagerUsedArrayAddress = mem_alloc_for_managers(MAX_SEMAPHORES, sizeof(bool));
  39:src/MemoryAllocator.cpp ****     semaphorePool.init(semaphoreManagerPoolAddress, semaphoreManagerUsedArrayAddress);
  40:src/MemoryAllocator.cpp **** }
  41:src/MemoryAllocator.cpp **** 
  42:src/MemoryAllocator.cpp **** ThreadPool& MemoryAllocator::getThreadPool() {
  85              		.loc 1 42 46 is_stmt 1
  86              		.cfi_startproc
  87              	.LVL5:
  88 0058 130101FF 		addi	sp,sp,-16
  89              		.cfi_def_cfa_offset 16
  90 005c 23348100 		sd	s0,8(sp)
  91              		.cfi_offset 8, -8
  92 0060 13040101 		addi	s0,sp,16
  93              		.cfi_def_cfa 8, 0
  43:src/MemoryAllocator.cpp ****     return threadPool;
  94              		.loc 1 43 5
  44:src/MemoryAllocator.cpp **** }
  95              		.loc 1 44 1 is_stmt 0
  96 0064 13058500 		addi	a0,a0,8
  97              	.LVL6:
  98 0068 03348100 		ld	s0,8(sp)
  99              		.cfi_restore 8
 100              		.cfi_def_cfa 2, 16
 101 006c 13010101 		addi	sp,sp,16
 102              		.cfi_def_cfa_offset 0
 103 0070 67800000 		jr	ra
 104              		.cfi_endproc
 105              	.LFE12:
 107              		.align	2
 108              		.globl	_ZN15MemoryAllocator16getSemaphorePoolEv
 110              	_ZN15MemoryAllocator16getSemaphorePoolEv:
 111              	.LFB13:
  45:src/MemoryAllocator.cpp **** 
  46:src/MemoryAllocator.cpp **** SemaphorePool& MemoryAllocator::getSemaphorePool() {
 112              		.loc 1 46 52 is_stmt 1
 113              		.cfi_startproc
 114              	.LVL7:
 115 0074 130101FF 		addi	sp,sp,-16
 116              		.cfi_def_cfa_offset 16
 117 0078 23348100 		sd	s0,8(sp)
 118              		.cfi_offset 8, -8
 119 007c 13040101 		addi	s0,sp,16
 120              		.cfi_def_cfa 8, 0
  47:src/MemoryAllocator.cpp ****     return semaphorePool;
 121              		.loc 1 47 5
  48:src/MemoryAllocator.cpp **** }
 122              		.loc 1 48 1 is_stmt 0
 123 0080 13058501 		addi	a0,a0,24
 124              	.LVL8:
 125 0084 03348100 		ld	s0,8(sp)
 126              		.cfi_restore 8
 127              		.cfi_def_cfa 2, 16
 128 0088 13010101 		addi	sp,sp,16
GAS LISTING /tmp/ccQtcBro.s 			page 4


 129              		.cfi_def_cfa_offset 0
 130 008c 67800000 		jr	ra
 131              		.cfi_endproc
 132              	.LFE13:
 134              		.align	2
 135              		.globl	_ZN15MemoryAllocator9mem_allocEm
 137              	_ZN15MemoryAllocator9mem_allocEm:
 138              	.LFB14:
  49:src/MemoryAllocator.cpp **** 
  50:src/MemoryAllocator.cpp **** 
  51:src/MemoryAllocator.cpp **** 
  52:src/MemoryAllocator.cpp **** void* MemoryAllocator::mem_alloc(uint64 numOfBlocks) {
 139              		.loc 1 52 54 is_stmt 1
 140              		.cfi_startproc
 141              	.LVL9:
 142 0090 130101FF 		addi	sp,sp,-16
 143              		.cfi_def_cfa_offset 16
 144 0094 23348100 		sd	s0,8(sp)
 145              		.cfi_offset 8, -8
 146 0098 13040101 		addi	s0,sp,16
 147              		.cfi_def_cfa 8, 0
 148 009c 13070500 		mv	a4,a0
  53:src/MemoryAllocator.cpp ****     FreeMem* temp = fmem_head;
 149              		.loc 1 53 5
 150              		.loc 1 53 14 is_stmt 0
 151 00a0 03350500 		ld	a0,0(a0)
 152              	.LVL10:
 153              	.L20:
  54:src/MemoryAllocator.cpp **** 
  55:src/MemoryAllocator.cpp ****     while(temp)
 154              		.loc 1 55 5 is_stmt 1
 155              		.loc 1 55 11
 156 00a4 63080504 		beqz	a0,.L11
 157              	.LBB2:
  56:src/MemoryAllocator.cpp ****     {
  57:src/MemoryAllocator.cpp ****         if(temp->size >= numOfBlocks)
 158              		.loc 1 57 9
 159              	.LBB3:
 160              		.loc 1 57 18 is_stmt 0
 161 00a8 83370501 		ld	a5,16(a0)
 162              		.loc 1 57 9
 163 00ac 63F6B700 		bgeu	a5,a1,.L22
 164              	.LBE3:
  58:src/MemoryAllocator.cpp ****         {
  59:src/MemoryAllocator.cpp ****             char* addr = (char*)temp;
  60:src/MemoryAllocator.cpp **** 
  61:src/MemoryAllocator.cpp ****             if(temp->size == numOfBlocks){
  62:src/MemoryAllocator.cpp ****                 // ceo blok se koristi - ukloni ga iz liste
  63:src/MemoryAllocator.cpp ****                 if(temp->prev)
  64:src/MemoryAllocator.cpp ****                     temp->prev->next = temp->next;
  65:src/MemoryAllocator.cpp ****                 else
  66:src/MemoryAllocator.cpp ****                 {
  67:src/MemoryAllocator.cpp ****                     fmem_head = temp->next;
  68:src/MemoryAllocator.cpp **** 
  69:src/MemoryAllocator.cpp ****                 }
  70:src/MemoryAllocator.cpp **** 
  71:src/MemoryAllocator.cpp ****                 if(temp->next)
GAS LISTING /tmp/ccQtcBro.s 			page 5


  72:src/MemoryAllocator.cpp ****                     temp->next->prev = temp->prev;
  73:src/MemoryAllocator.cpp ****             }
  74:src/MemoryAllocator.cpp ****             else
  75:src/MemoryAllocator.cpp ****             {
  76:src/MemoryAllocator.cpp **** 
  77:src/MemoryAllocator.cpp ****                 FreeMem* newnode = (FreeMem*)((char*)temp + numOfBlocks * MEM_BLOCK_SIZE);
  78:src/MemoryAllocator.cpp **** 
  79:src/MemoryAllocator.cpp ****                 newnode->size = temp->size - numOfBlocks;
  80:src/MemoryAllocator.cpp ****                 newnode->next = temp->next;
  81:src/MemoryAllocator.cpp ****                 newnode->prev = temp->prev;
  82:src/MemoryAllocator.cpp **** 
  83:src/MemoryAllocator.cpp ****                 if(newnode->prev)
  84:src/MemoryAllocator.cpp ****                     newnode->prev->next = newnode;
  85:src/MemoryAllocator.cpp ****                 else
  86:src/MemoryAllocator.cpp ****                 {
  87:src/MemoryAllocator.cpp ****                     fmem_head = newnode;
  88:src/MemoryAllocator.cpp **** 
  89:src/MemoryAllocator.cpp ****                 }
  90:src/MemoryAllocator.cpp **** 
  91:src/MemoryAllocator.cpp **** 
  92:src/MemoryAllocator.cpp ****                 if(newnode->next)
  93:src/MemoryAllocator.cpp ****                     newnode->next->prev = newnode;
  94:src/MemoryAllocator.cpp ****             }
  95:src/MemoryAllocator.cpp ****             Header* header = (Header*)addr;
  96:src/MemoryAllocator.cpp ****             header->numOfBlocks = numOfBlocks;
  97:src/MemoryAllocator.cpp **** 
  98:src/MemoryAllocator.cpp ****             return addr;
  99:src/MemoryAllocator.cpp ****         }
 100:src/MemoryAllocator.cpp **** 
 101:src/MemoryAllocator.cpp ****         temp = temp->next;
 165              		.loc 1 101 9 is_stmt 1
 166              		.loc 1 101 14 is_stmt 0
 167 00b0 03350500 		ld	a0,0(a0)
 168              	.LVL11:
 169              	.LBE2:
  55:src/MemoryAllocator.cpp ****     {
 170              		.loc 1 55 5
 171 00b4 6FF01FFF 		j	.L20
 172              	.L22:
 173              	.LBB12:
 174              	.LBB10:
 175              	.LBB4:
  59:src/MemoryAllocator.cpp **** 
 176              		.loc 1 59 13 is_stmt 1
 177              	.LVL12:
  61:src/MemoryAllocator.cpp ****                 // ceo blok se koristi - ukloni ga iz liste
 178              		.loc 1 61 13
 179              	.LBB5:
 180 00b8 6384B704 		beq	a5,a1,.L23
 181              	.LBB6:
  77:src/MemoryAllocator.cpp **** 
 182              		.loc 1 77 17
  77:src/MemoryAllocator.cpp **** 
 183              		.loc 1 77 73 is_stmt 0
 184 00bc 93966500 		slli	a3,a1,6
  77:src/MemoryAllocator.cpp **** 
 185              		.loc 1 77 26
GAS LISTING /tmp/ccQtcBro.s 			page 6


 186 00c0 B306D500 		add	a3,a0,a3
 187              	.LVL13:
  79:src/MemoryAllocator.cpp ****                 newnode->next = temp->next;
 188              		.loc 1 79 17 is_stmt 1
  79:src/MemoryAllocator.cpp ****                 newnode->next = temp->next;
 189              		.loc 1 79 44 is_stmt 0
 190 00c4 B387B740 		sub	a5,a5,a1
  79:src/MemoryAllocator.cpp ****                 newnode->next = temp->next;
 191              		.loc 1 79 31
 192 00c8 23B8F600 		sd	a5,16(a3)
  80:src/MemoryAllocator.cpp ****                 newnode->prev = temp->prev;
 193              		.loc 1 80 17 is_stmt 1
  80:src/MemoryAllocator.cpp ****                 newnode->prev = temp->prev;
 194              		.loc 1 80 39 is_stmt 0
 195 00cc 83370500 		ld	a5,0(a0)
  80:src/MemoryAllocator.cpp ****                 newnode->prev = temp->prev;
 196              		.loc 1 80 31
 197 00d0 23B0F600 		sd	a5,0(a3)
  81:src/MemoryAllocator.cpp **** 
 198              		.loc 1 81 17 is_stmt 1
  81:src/MemoryAllocator.cpp **** 
 199              		.loc 1 81 39 is_stmt 0
 200 00d4 83378500 		ld	a5,8(a0)
  81:src/MemoryAllocator.cpp **** 
 201              		.loc 1 81 31
 202 00d8 23B4F600 		sd	a5,8(a3)
  83:src/MemoryAllocator.cpp ****                     newnode->prev->next = newnode;
 203              		.loc 1 83 17 is_stmt 1
 204 00dc 638A0704 		beqz	a5,.L18
  84:src/MemoryAllocator.cpp ****                 else
 205              		.loc 1 84 21
  84:src/MemoryAllocator.cpp ****                 else
 206              		.loc 1 84 41 is_stmt 0
 207 00e0 23B0D700 		sd	a3,0(a5)
 208              	.L19:
  92:src/MemoryAllocator.cpp ****                     newnode->next->prev = newnode;
 209              		.loc 1 92 17 is_stmt 1
  92:src/MemoryAllocator.cpp ****                     newnode->next->prev = newnode;
 210              		.loc 1 92 29 is_stmt 0
 211 00e4 83B70600 		ld	a5,0(a3)
  92:src/MemoryAllocator.cpp ****                     newnode->next->prev = newnode;
 212              		.loc 1 92 17
 213 00e8 63840700 		beqz	a5,.L17
  93:src/MemoryAllocator.cpp ****             }
 214              		.loc 1 93 21 is_stmt 1
  93:src/MemoryAllocator.cpp ****             }
 215              		.loc 1 93 41 is_stmt 0
 216 00ec 23B4D700 		sd	a3,8(a5)
 217              	.LVL14:
 218              	.L17:
 219              	.LBE6:
 220              	.LBE5:
  95:src/MemoryAllocator.cpp ****             header->numOfBlocks = numOfBlocks;
 221              		.loc 1 95 13 is_stmt 1
  96:src/MemoryAllocator.cpp **** 
 222              		.loc 1 96 13
  96:src/MemoryAllocator.cpp **** 
GAS LISTING /tmp/ccQtcBro.s 			page 7


 223              		.loc 1 96 33 is_stmt 0
 224 00f0 2330B500 		sd	a1,0(a0)
  98:src/MemoryAllocator.cpp ****         }
 225              		.loc 1 98 13 is_stmt 1
 226              	.LVL15:
 227              	.L11:
 228              	.LBE4:
 229              	.LBE10:
 230              	.LBE12:
 102:src/MemoryAllocator.cpp ****     }
 103:src/MemoryAllocator.cpp **** 
 104:src/MemoryAllocator.cpp ****     return nullptr;
 105:src/MemoryAllocator.cpp **** }
 231              		.loc 1 105 1 is_stmt 0
 232 00f4 03348100 		ld	s0,8(sp)
 233              		.cfi_remember_state
 234              		.cfi_restore 8
 235              		.cfi_def_cfa 2, 16
 236 00f8 13010101 		addi	sp,sp,16
 237              		.cfi_def_cfa_offset 0
 238 00fc 67800000 		jr	ra
 239              	.LVL16:
 240              	.L23:
 241              		.cfi_restore_state
 242              	.LBB13:
 243              	.LBB11:
 244              	.LBB9:
 245              	.LBB8:
  63:src/MemoryAllocator.cpp ****                     temp->prev->next = temp->next;
 246              		.loc 1 63 17 is_stmt 1
  63:src/MemoryAllocator.cpp ****                     temp->prev->next = temp->next;
 247              		.loc 1 63 26 is_stmt 0
 248 0100 83378500 		ld	a5,8(a0)
  63:src/MemoryAllocator.cpp ****                     temp->prev->next = temp->next;
 249              		.loc 1 63 17
 250 0104 63800702 		beqz	a5,.L15
  64:src/MemoryAllocator.cpp ****                 else
 251              		.loc 1 64 21 is_stmt 1
  64:src/MemoryAllocator.cpp ****                 else
 252              		.loc 1 64 46 is_stmt 0
 253 0108 03370500 		ld	a4,0(a0)
 254              	.LVL17:
  64:src/MemoryAllocator.cpp ****                 else
 255              		.loc 1 64 38
 256 010c 23B0E700 		sd	a4,0(a5)
 257              	.L16:
  71:src/MemoryAllocator.cpp ****                     temp->next->prev = temp->prev;
 258              		.loc 1 71 17 is_stmt 1
  71:src/MemoryAllocator.cpp ****                     temp->next->prev = temp->prev;
 259              		.loc 1 71 26 is_stmt 0
 260 0110 83370500 		ld	a5,0(a0)
  71:src/MemoryAllocator.cpp ****                     temp->next->prev = temp->prev;
 261              		.loc 1 71 17
 262 0114 E38E07FC 		beqz	a5,.L17
  72:src/MemoryAllocator.cpp ****             }
 263              		.loc 1 72 21 is_stmt 1
  72:src/MemoryAllocator.cpp ****             }
GAS LISTING /tmp/ccQtcBro.s 			page 8


 264              		.loc 1 72 46 is_stmt 0
 265 0118 03378500 		ld	a4,8(a0)
  72:src/MemoryAllocator.cpp ****             }
 266              		.loc 1 72 38
 267 011c 23B4E700 		sd	a4,8(a5)
 268 0120 6FF01FFD 		j	.L17
 269              	.LVL18:
 270              	.L15:
  67:src/MemoryAllocator.cpp **** 
 271              		.loc 1 67 21 is_stmt 1
  67:src/MemoryAllocator.cpp **** 
 272              		.loc 1 67 39 is_stmt 0
 273 0124 83370500 		ld	a5,0(a0)
  67:src/MemoryAllocator.cpp **** 
 274              		.loc 1 67 31
 275 0128 2330F700 		sd	a5,0(a4)
 276 012c 6FF05FFE 		j	.L16
 277              	.LVL19:
 278              	.L18:
 279              	.LBB7:
  87:src/MemoryAllocator.cpp **** 
 280              		.loc 1 87 21 is_stmt 1
  87:src/MemoryAllocator.cpp **** 
 281              		.loc 1 87 31 is_stmt 0
 282 0130 2330D700 		sd	a3,0(a4)
 283 0134 6FF01FFB 		j	.L19
 284              	.LBE7:
 285              	.LBE8:
 286              	.LBE9:
 287              	.LBE11:
 288              	.LBE13:
 289              		.cfi_endproc
 290              	.LFE14:
 292              		.align	2
 293              		.globl	_ZN15MemoryAllocator22mem_alloc_for_managersEmm
 295              	_ZN15MemoryAllocator22mem_alloc_for_managersEmm:
 296              	.LFB15:
 106:src/MemoryAllocator.cpp **** void* MemoryAllocator::mem_alloc_for_managers(size_t N, size_t sizeOfElem){
 297              		.loc 1 106 75 is_stmt 1
 298              		.cfi_startproc
 299              	.LVL20:
 300 0138 130101FF 		addi	sp,sp,-16
 301              		.cfi_def_cfa_offset 16
 302 013c 23348100 		sd	s0,8(sp)
 303              		.cfi_offset 8, -8
 304 0140 13040101 		addi	s0,sp,16
 305              		.cfi_def_cfa 8, 0
 306 0144 93060500 		mv	a3,a0
 107:src/MemoryAllocator.cpp ****     size_t numOfBlocks = (N * sizeOfElem + MEM_BLOCK_SIZE - 1) / MEM_BLOCK_SIZE;
 307              		.loc 1 107 5
 308              		.loc 1 107 29 is_stmt 0
 309 0148 3386C502 		mul	a2,a1,a2
 310              	.LVL21:
 311              		.loc 1 107 59
 312 014c 1306F603 		addi	a2,a2,63
 313              		.loc 1 107 12
 314 0150 13576600 		srli	a4,a2,6
GAS LISTING /tmp/ccQtcBro.s 			page 9


 315              	.LVL22:
 108:src/MemoryAllocator.cpp ****     FreeMem* temp = fmem_head;
 316              		.loc 1 108 5 is_stmt 1
 317              		.loc 1 108 14 is_stmt 0
 318 0154 03350500 		ld	a0,0(a0)
 319              	.LVL23:
 320              	.L33:
 109:src/MemoryAllocator.cpp **** 
 110:src/MemoryAllocator.cpp ****     while(temp)
 321              		.loc 1 110 5 is_stmt 1
 322              		.loc 1 110 11
 323 0158 63060504 		beqz	a0,.L24
 324              	.LBB14:
 111:src/MemoryAllocator.cpp ****     {
 112:src/MemoryAllocator.cpp ****         if(temp->size >= numOfBlocks)
 325              		.loc 1 112 9
 326              	.LBB15:
 327              		.loc 1 112 18 is_stmt 0
 328 015c 83370501 		ld	a5,16(a0)
 329              		.loc 1 112 9
 330 0160 63F6E700 		bgeu	a5,a4,.L35
 331              	.LBE15:
 113:src/MemoryAllocator.cpp ****         {
 114:src/MemoryAllocator.cpp ****             char* addr = (char*)temp;
 115:src/MemoryAllocator.cpp **** 
 116:src/MemoryAllocator.cpp ****             if(temp->size == numOfBlocks){
 117:src/MemoryAllocator.cpp ****                 // ceo blok se koristi - ukloni ga iz liste
 118:src/MemoryAllocator.cpp ****                 if(temp->prev)
 119:src/MemoryAllocator.cpp ****                     temp->prev->next = temp->next;
 120:src/MemoryAllocator.cpp ****                 else
 121:src/MemoryAllocator.cpp ****                 {
 122:src/MemoryAllocator.cpp ****                     fmem_head = temp->next;
 123:src/MemoryAllocator.cpp ****                 }
 124:src/MemoryAllocator.cpp **** 
 125:src/MemoryAllocator.cpp **** 
 126:src/MemoryAllocator.cpp ****                 if(temp->next)
 127:src/MemoryAllocator.cpp ****                     temp->next->prev = temp->prev;
 128:src/MemoryAllocator.cpp ****             }
 129:src/MemoryAllocator.cpp ****             else
 130:src/MemoryAllocator.cpp ****             {
 131:src/MemoryAllocator.cpp **** 
 132:src/MemoryAllocator.cpp ****                 FreeMem* newnode = (FreeMem*)((char*)temp + numOfBlocks * MEM_BLOCK_SIZE);
 133:src/MemoryAllocator.cpp **** 
 134:src/MemoryAllocator.cpp ****                 newnode->size = temp->size - numOfBlocks;
 135:src/MemoryAllocator.cpp ****                 newnode->next = temp->next;
 136:src/MemoryAllocator.cpp ****                 newnode->prev = temp->prev;
 137:src/MemoryAllocator.cpp **** 
 138:src/MemoryAllocator.cpp ****                 if(newnode->prev)
 139:src/MemoryAllocator.cpp ****                     newnode->prev->next = newnode;
 140:src/MemoryAllocator.cpp ****                 else
 141:src/MemoryAllocator.cpp ****                 {
 142:src/MemoryAllocator.cpp ****                     fmem_head = newnode;
 143:src/MemoryAllocator.cpp ****                 }
 144:src/MemoryAllocator.cpp **** 
 145:src/MemoryAllocator.cpp **** 
 146:src/MemoryAllocator.cpp ****                 if(newnode->next)
 147:src/MemoryAllocator.cpp ****                     newnode->next->prev = newnode;
GAS LISTING /tmp/ccQtcBro.s 			page 10


 148:src/MemoryAllocator.cpp ****             }
 149:src/MemoryAllocator.cpp **** 
 150:src/MemoryAllocator.cpp **** 
 151:src/MemoryAllocator.cpp ****             return addr;
 152:src/MemoryAllocator.cpp ****         }
 153:src/MemoryAllocator.cpp **** 
 154:src/MemoryAllocator.cpp ****         temp = temp->next;
 332              		.loc 1 154 9 is_stmt 1
 333              		.loc 1 154 14 is_stmt 0
 334 0164 03350500 		ld	a0,0(a0)
 335              	.LVL24:
 336              	.LBE14:
 110:src/MemoryAllocator.cpp ****     {
 337              		.loc 1 110 5
 338 0168 6FF01FFF 		j	.L33
 339              	.L35:
 340              	.LBB24:
 341              	.LBB22:
 342              	.LBB16:
 114:src/MemoryAllocator.cpp **** 
 343              		.loc 1 114 13 is_stmt 1
 344              	.LVL25:
 116:src/MemoryAllocator.cpp ****                 // ceo blok se koristi - ukloni ga iz liste
 345              		.loc 1 116 13
 346              	.LBB17:
 347 016c 6382E704 		beq	a5,a4,.L36
 348              	.LBB18:
 132:src/MemoryAllocator.cpp **** 
 349              		.loc 1 132 17
 132:src/MemoryAllocator.cpp **** 
 350              		.loc 1 132 73 is_stmt 0
 351 0170 137606FC 		andi	a2,a2,-64
 132:src/MemoryAllocator.cpp **** 
 352              		.loc 1 132 26
 353 0174 3306C500 		add	a2,a0,a2
 354              	.LVL26:
 134:src/MemoryAllocator.cpp ****                 newnode->next = temp->next;
 355              		.loc 1 134 17 is_stmt 1
 134:src/MemoryAllocator.cpp ****                 newnode->next = temp->next;
 356              		.loc 1 134 44 is_stmt 0
 357 0178 B387E740 		sub	a5,a5,a4
 134:src/MemoryAllocator.cpp ****                 newnode->next = temp->next;
 358              		.loc 1 134 31
 359 017c 2338F600 		sd	a5,16(a2)
 135:src/MemoryAllocator.cpp ****                 newnode->prev = temp->prev;
 360              		.loc 1 135 17 is_stmt 1
 135:src/MemoryAllocator.cpp ****                 newnode->prev = temp->prev;
 361              		.loc 1 135 39 is_stmt 0
 362 0180 83370500 		ld	a5,0(a0)
 135:src/MemoryAllocator.cpp ****                 newnode->prev = temp->prev;
 363              		.loc 1 135 31
 364 0184 2330F600 		sd	a5,0(a2)
 136:src/MemoryAllocator.cpp **** 
 365              		.loc 1 136 17 is_stmt 1
 136:src/MemoryAllocator.cpp **** 
 366              		.loc 1 136 39 is_stmt 0
 367 0188 83378500 		ld	a5,8(a0)
GAS LISTING /tmp/ccQtcBro.s 			page 11


 136:src/MemoryAllocator.cpp **** 
 368              		.loc 1 136 31
 369 018c 2334F600 		sd	a5,8(a2)
 138:src/MemoryAllocator.cpp ****                     newnode->prev->next = newnode;
 370              		.loc 1 138 17 is_stmt 1
 371 0190 63880704 		beqz	a5,.L31
 139:src/MemoryAllocator.cpp ****                 else
 372              		.loc 1 139 21
 139:src/MemoryAllocator.cpp ****                 else
 373              		.loc 1 139 41 is_stmt 0
 374 0194 23B0C700 		sd	a2,0(a5)
 375              	.L32:
 146:src/MemoryAllocator.cpp ****                     newnode->next->prev = newnode;
 376              		.loc 1 146 17 is_stmt 1
 146:src/MemoryAllocator.cpp ****                     newnode->next->prev = newnode;
 377              		.loc 1 146 29 is_stmt 0
 378 0198 83370600 		ld	a5,0(a2)
 146:src/MemoryAllocator.cpp ****                     newnode->next->prev = newnode;
 379              		.loc 1 146 17
 380 019c 63840700 		beqz	a5,.L24
 147:src/MemoryAllocator.cpp ****             }
 381              		.loc 1 147 21 is_stmt 1
 147:src/MemoryAllocator.cpp ****             }
 382              		.loc 1 147 41 is_stmt 0
 383 01a0 23B4C700 		sd	a2,8(a5)
 384              	.LBE18:
 385              	.LBE17:
 151:src/MemoryAllocator.cpp ****         }
 386              		.loc 1 151 13 is_stmt 1
 387              	.LVL27:
 388              	.L24:
 389              	.LBE16:
 390              	.LBE22:
 391              	.LBE24:
 155:src/MemoryAllocator.cpp ****     }
 156:src/MemoryAllocator.cpp **** 
 157:src/MemoryAllocator.cpp ****     return nullptr;
 158:src/MemoryAllocator.cpp **** }
 392              		.loc 1 158 1 is_stmt 0
 393 01a4 03348100 		ld	s0,8(sp)
 394              		.cfi_remember_state
 395              		.cfi_restore 8
 396              		.cfi_def_cfa 2, 16
 397 01a8 13010101 		addi	sp,sp,16
 398              		.cfi_def_cfa_offset 0
 399 01ac 67800000 		jr	ra
 400              	.LVL28:
 401              	.L36:
 402              		.cfi_restore_state
 403              	.LBB25:
 404              	.LBB23:
 405              	.LBB21:
 406              	.LBB20:
 118:src/MemoryAllocator.cpp ****                     temp->prev->next = temp->next;
 407              		.loc 1 118 17 is_stmt 1
 118:src/MemoryAllocator.cpp ****                     temp->prev->next = temp->next;
 408              		.loc 1 118 26 is_stmt 0
GAS LISTING /tmp/ccQtcBro.s 			page 12


 409 01b0 83378500 		ld	a5,8(a0)
 118:src/MemoryAllocator.cpp ****                     temp->prev->next = temp->next;
 410              		.loc 1 118 17
 411 01b4 63800702 		beqz	a5,.L28
 119:src/MemoryAllocator.cpp ****                 else
 412              		.loc 1 119 21 is_stmt 1
 119:src/MemoryAllocator.cpp ****                 else
 413              		.loc 1 119 46 is_stmt 0
 414 01b8 03370500 		ld	a4,0(a0)
 415              	.LVL29:
 119:src/MemoryAllocator.cpp ****                 else
 416              		.loc 1 119 38
 417 01bc 23B0E700 		sd	a4,0(a5)
 418              	.L29:
 126:src/MemoryAllocator.cpp ****                     temp->next->prev = temp->prev;
 419              		.loc 1 126 17 is_stmt 1
 126:src/MemoryAllocator.cpp ****                     temp->next->prev = temp->prev;
 420              		.loc 1 126 26 is_stmt 0
 421 01c0 83370500 		ld	a5,0(a0)
 126:src/MemoryAllocator.cpp ****                     temp->next->prev = temp->prev;
 422              		.loc 1 126 17
 423 01c4 E38007FE 		beqz	a5,.L24
 127:src/MemoryAllocator.cpp ****             }
 424              		.loc 1 127 21 is_stmt 1
 127:src/MemoryAllocator.cpp ****             }
 425              		.loc 1 127 46 is_stmt 0
 426 01c8 03378500 		ld	a4,8(a0)
 127:src/MemoryAllocator.cpp ****             }
 427              		.loc 1 127 38
 428 01cc 23B4E700 		sd	a4,8(a5)
 429 01d0 6FF05FFD 		j	.L24
 430              	.LVL30:
 431              	.L28:
 122:src/MemoryAllocator.cpp ****                 }
 432              		.loc 1 122 21 is_stmt 1
 122:src/MemoryAllocator.cpp ****                 }
 433              		.loc 1 122 39 is_stmt 0
 434 01d4 83370500 		ld	a5,0(a0)
 122:src/MemoryAllocator.cpp ****                 }
 435              		.loc 1 122 31
 436 01d8 23B0F600 		sd	a5,0(a3)
 437 01dc 6FF05FFE 		j	.L29
 438              	.LVL31:
 439              	.L31:
 440              	.LBB19:
 142:src/MemoryAllocator.cpp ****                 }
 441              		.loc 1 142 21 is_stmt 1
 142:src/MemoryAllocator.cpp ****                 }
 442              		.loc 1 142 31 is_stmt 0
 443 01e0 23B0C600 		sd	a2,0(a3)
 444 01e4 6FF05FFB 		j	.L32
 445              	.LBE19:
 446              	.LBE20:
 447              	.LBE21:
 448              	.LBE23:
 449              	.LBE25:
 450              		.cfi_endproc
GAS LISTING /tmp/ccQtcBro.s 			page 13


 451              	.LFE15:
 453              		.align	2
 454              		.globl	_ZN15MemoryAllocatorC2Ev
 456              	_ZN15MemoryAllocatorC2Ev:
 457              	.LFB10:
  24:src/MemoryAllocator.cpp ****     fmem_head = (FreeMem*)(align((uint64)HEAP_START_ADDR) + (uint64)DEFAULT_STACK_SIZE);
 458              		.loc 1 24 1 is_stmt 1
 459              		.cfi_startproc
 460              	.LVL32:
 461 01e8 130101FD 		addi	sp,sp,-48
 462              		.cfi_def_cfa_offset 48
 463 01ec 23341102 		sd	ra,40(sp)
 464 01f0 23308102 		sd	s0,32(sp)
 465 01f4 233C9100 		sd	s1,24(sp)
 466 01f8 23382101 		sd	s2,16(sp)
 467 01fc 23343101 		sd	s3,8(sp)
 468 0200 23304101 		sd	s4,0(sp)
 469              		.cfi_offset 1, -8
 470              		.cfi_offset 8, -16
 471              		.cfi_offset 9, -24
 472              		.cfi_offset 18, -32
 473              		.cfi_offset 19, -40
 474              		.cfi_offset 20, -48
 475 0204 13040103 		addi	s0,sp,48
 476              		.cfi_def_cfa 8, 0
 477 0208 93040500 		mv	s1,a0
 478              	.LBB26:
  24:src/MemoryAllocator.cpp ****     fmem_head = (FreeMem*)(align((uint64)HEAP_START_ADDR) + (uint64)DEFAULT_STACK_SIZE);
 479              		.loc 1 24 34 is_stmt 0
 480 020c 130A8500 		addi	s4,a0,8
 481 0210 13050A00 		mv	a0,s4
 482              	.LVL33:
 483 0214 97000000 		call	_ZN10ThreadPoolC1Ev@plt
 483      E7800000 
 484              	.LVL34:
 485 021c 93898401 		addi	s3,s1,24
 486 0220 13850900 		mv	a0,s3
 487 0224 97000000 		call	_ZN13SemaphorePoolC1Ev@plt
 487      E7800000 
 488              	.LVL35:
 489              	.LBB27:
  25:src/MemoryAllocator.cpp ****     fmem_head->next = nullptr;
 490              		.loc 1 25 5 is_stmt 1
  25:src/MemoryAllocator.cpp ****     fmem_head->next = nullptr;
 491              		.loc 1 25 33 is_stmt 0
 492 022c 97070000 		la	a5,HEAP_START_ADDR
 492      83B70700 
 493 0234 83B50700 		ld	a1,0(a5)
 494 0238 13850400 		mv	a0,s1
 495 023c 97000000 		call	_ZN15MemoryAllocator5alignEm
 495      E7800000 
 496              	.LVL36:
  25:src/MemoryAllocator.cpp ****     fmem_head->next = nullptr;
 497              		.loc 1 25 59
 498 0244 B7170000 		li	a5,4096
 499 0248 3305F500 		add	a0,a0,a5
  25:src/MemoryAllocator.cpp ****     fmem_head->next = nullptr;
GAS LISTING /tmp/ccQtcBro.s 			page 14


 500              		.loc 1 25 15
 501 024c 23B0A400 		sd	a0,0(s1)
  26:src/MemoryAllocator.cpp ****     fmem_head->prev = nullptr;
 502              		.loc 1 26 5 is_stmt 1
  26:src/MemoryAllocator.cpp ****     fmem_head->prev = nullptr;
 503              		.loc 1 26 21 is_stmt 0
 504 0250 23300500 		sd	zero,0(a0)
  27:src/MemoryAllocator.cpp **** 
 505              		.loc 1 27 5 is_stmt 1
 506 0254 83B70400 		ld	a5,0(s1)
  27:src/MemoryAllocator.cpp **** 
 507              		.loc 1 27 21 is_stmt 0
 508 0258 23B40700 		sd	zero,8(a5)
  29:src/MemoryAllocator.cpp ****                           (((uint64)HEAP_END_ADDR - (uint64)fmem_head) % MEM_BLOCK_SIZE)) / MEM_BLO
 509              		.loc 1 29 5 is_stmt 1
  30:src/MemoryAllocator.cpp ****     fmem_head->size = totalBlocks;
 510              		.loc 1 30 61 is_stmt 0
 511 025c 03B70400 		ld	a4,0(s1)
  30:src/MemoryAllocator.cpp ****     fmem_head->size = totalBlocks;
 512              		.loc 1 30 51
 513 0260 97070000 		la	a5,HEAP_END_ADDR
 513      83B70700 
 514 0268 83B70700 		ld	a5,0(a5)
 515 026c B387E740 		sub	a5,a5,a4
  29:src/MemoryAllocator.cpp ****                           (((uint64)HEAP_END_ADDR - (uint64)fmem_head) % MEM_BLOCK_SIZE)) / MEM_BLO
 516              		.loc 1 29 12
 517 0270 93D76700 		srli	a5,a5,6
 518              	.LVL37:
  31:src/MemoryAllocator.cpp **** 
 519              		.loc 1 31 5 is_stmt 1
  31:src/MemoryAllocator.cpp **** 
 520              		.loc 1 31 21 is_stmt 0
 521 0274 2338F700 		sd	a5,16(a4)
  33:src/MemoryAllocator.cpp ****     void* threadManagerUsedArrayAddress = mem_alloc_for_managers(MAX_THREADS, sizeof(bool));
 522              		.loc 1 33 5 is_stmt 1
  33:src/MemoryAllocator.cpp ****     void* threadManagerUsedArrayAddress = mem_alloc_for_managers(MAX_THREADS, sizeof(bool));
 523              		.loc 1 33 60 is_stmt 0
 524 0278 1306000A 		li	a2,160
 525 027c 9305A000 		li	a1,10
 526 0280 13850400 		mv	a0,s1
 527 0284 97000000 		call	_ZN15MemoryAllocator22mem_alloc_for_managersEmm
 527      E7800000 
 528              	.LVL38:
 529 028c 13090500 		mv	s2,a0
 530              	.LVL39:
  34:src/MemoryAllocator.cpp ****     threadPool.init(threadManagerPoolAddress, threadManagerUsedArrayAddress);
 531              		.loc 1 34 5 is_stmt 1
  34:src/MemoryAllocator.cpp ****     threadPool.init(threadManagerPoolAddress, threadManagerUsedArrayAddress);
 532              		.loc 1 34 65 is_stmt 0
 533 0290 13061000 		li	a2,1
 534 0294 9305A000 		li	a1,10
 535 0298 13850400 		mv	a0,s1
 536              	.LVL40:
 537 029c 97000000 		call	_ZN15MemoryAllocator22mem_alloc_for_managersEmm
 537      E7800000 
 538              	.LVL41:
 539 02a4 13060500 		mv	a2,a0
GAS LISTING /tmp/ccQtcBro.s 			page 15


 540              	.LVL42:
  35:src/MemoryAllocator.cpp **** 
 541              		.loc 1 35 5 is_stmt 1
  35:src/MemoryAllocator.cpp **** 
 542              		.loc 1 35 20 is_stmt 0
 543 02a8 93050900 		mv	a1,s2
 544 02ac 13050A00 		mv	a0,s4
 545              	.LVL43:
 546 02b0 97000000 		call	_ZN10ThreadPool4initEPvS0_@plt
 546      E7800000 
 547              	.LVL44:
  37:src/MemoryAllocator.cpp ****     void* semaphoreManagerUsedArrayAddress = mem_alloc_for_managers(MAX_SEMAPHORES, sizeof(bool));
 548              		.loc 1 37 5 is_stmt 1
  37:src/MemoryAllocator.cpp ****     void* semaphoreManagerUsedArrayAddress = mem_alloc_for_managers(MAX_SEMAPHORES, sizeof(bool));
 549              		.loc 1 37 63 is_stmt 0
 550 02b8 13060002 		li	a2,32
 551 02bc 9305A000 		li	a1,10
 552 02c0 13850400 		mv	a0,s1
 553 02c4 97000000 		call	_ZN15MemoryAllocator22mem_alloc_for_managersEmm
 553      E7800000 
 554              	.LVL45:
 555 02cc 13090500 		mv	s2,a0
 556              	.LVL46:
  38:src/MemoryAllocator.cpp ****     semaphorePool.init(semaphoreManagerPoolAddress, semaphoreManagerUsedArrayAddress);
 557              		.loc 1 38 5 is_stmt 1
  38:src/MemoryAllocator.cpp ****     semaphorePool.init(semaphoreManagerPoolAddress, semaphoreManagerUsedArrayAddress);
 558              		.loc 1 38 68 is_stmt 0
 559 02d0 13061000 		li	a2,1
 560 02d4 9305A000 		li	a1,10
 561 02d8 13850400 		mv	a0,s1
 562              	.LVL47:
 563 02dc 97000000 		call	_ZN15MemoryAllocator22mem_alloc_for_managersEmm
 563      E7800000 
 564              	.LVL48:
 565 02e4 13060500 		mv	a2,a0
 566              	.LVL49:
  39:src/MemoryAllocator.cpp **** }
 567              		.loc 1 39 5 is_stmt 1
  39:src/MemoryAllocator.cpp **** }
 568              		.loc 1 39 23 is_stmt 0
 569 02e8 93050900 		mv	a1,s2
 570 02ec 13850900 		mv	a0,s3
 571              	.LVL50:
 572 02f0 97000000 		call	_ZN13SemaphorePool4initEPvS0_@plt
 572      E7800000 
 573              	.LVL51:
 574              	.LBE27:
 575              	.LBE26:
  40:src/MemoryAllocator.cpp **** 
 576              		.loc 1 40 1
 577 02f8 83308102 		ld	ra,40(sp)
 578              		.cfi_restore 1
 579 02fc 03340102 		ld	s0,32(sp)
 580              		.cfi_restore 8
 581              		.cfi_def_cfa 2, 48
 582 0300 83348101 		ld	s1,24(sp)
 583              		.cfi_restore 9
GAS LISTING /tmp/ccQtcBro.s 			page 16


 584              	.LVL52:
 585 0304 03390101 		ld	s2,16(sp)
 586              		.cfi_restore 18
 587              	.LVL53:
 588 0308 83398100 		ld	s3,8(sp)
 589              		.cfi_restore 19
 590              	.LVL54:
 591 030c 033A0100 		ld	s4,0(sp)
 592              		.cfi_restore 20
 593              	.LVL55:
 594 0310 13010103 		addi	sp,sp,48
 595              		.cfi_def_cfa_offset 0
 596 0314 67800000 		jr	ra
 597              		.cfi_endproc
 598              	.LFE10:
 600              		.globl	_ZN15MemoryAllocatorC1Ev
 601              		.set	_ZN15MemoryAllocatorC1Ev,_ZN15MemoryAllocatorC2Ev
 602              		.align	2
 603              		.globl	_ZN15MemoryAllocator8InstanceEv
 605              	_ZN15MemoryAllocator8InstanceEv:
 606              	.LFB7:
  12:src/MemoryAllocator.cpp ****     static MemoryAllocator instance;
 607              		.loc 1 12 46 is_stmt 1
 608              		.cfi_startproc
  13:src/MemoryAllocator.cpp ****     return &instance;
 609              		.loc 1 13 5
  13:src/MemoryAllocator.cpp ****     return &instance;
 610              		.loc 1 13 28 is_stmt 0
 611 0318 97070000 		lbu	a5,.LANCHOR0
 611      83C70700 
 612 0320 63880700 		beqz	a5,.L45
  14:src/MemoryAllocator.cpp **** }
 613              		.loc 1 14 5 is_stmt 1
  15:src/MemoryAllocator.cpp **** 
 614              		.loc 1 15 1 is_stmt 0
 615 0324 17050000 		lla	a0,.LANCHOR0+8
 615      13050500 
 616 032c 67800000 		ret
 617              	.L45:
  12:src/MemoryAllocator.cpp ****     static MemoryAllocator instance;
 618              		.loc 1 12 46 discriminator 1
 619 0330 130101FF 		addi	sp,sp,-16
 620              		.cfi_def_cfa_offset 16
 621 0334 23341100 		sd	ra,8(sp)
 622 0338 23308100 		sd	s0,0(sp)
 623              		.cfi_offset 1, -8
 624              		.cfi_offset 8, -16
 625 033c 13040101 		addi	s0,sp,16
 626              		.cfi_def_cfa 8, 0
  13:src/MemoryAllocator.cpp ****     return &instance;
 627              		.loc 1 13 28 discriminator 1
 628 0340 17050000 		lla	a0,.LANCHOR0+8
 628      13050500 
 629 0348 97000000 		call	_ZN15MemoryAllocatorC1Ev
 629      E7800000 
 630              	.LVL56:
 631 0350 93071000 		li	a5,1
GAS LISTING /tmp/ccQtcBro.s 			page 17


 632 0354 17070000 		sb	a5,.LANCHOR0,a4
 632      2300F700 
  14:src/MemoryAllocator.cpp **** }
 633              		.loc 1 14 5 is_stmt 1 discriminator 1
  15:src/MemoryAllocator.cpp **** 
 634              		.loc 1 15 1 is_stmt 0 discriminator 1
 635 035c 17050000 		lla	a0,.LANCHOR0+8
 635      13050500 
 636 0364 83308100 		ld	ra,8(sp)
 637              		.cfi_restore 1
 638 0368 03340100 		ld	s0,0(sp)
 639              		.cfi_restore 8
 640              		.cfi_def_cfa 2, 16
 641 036c 13010101 		addi	sp,sp,16
 642              		.cfi_def_cfa_offset 0
 643 0370 67800000 		jr	ra
 644              		.cfi_endproc
 645              	.LFE7:
 647              		.align	2
 648              		.globl	_ZN15MemoryAllocator9tryToJoinEP7FreeMem
 650              	_ZN15MemoryAllocator9tryToJoinEP7FreeMem:
 651              	.LFB16:
 159:src/MemoryAllocator.cpp **** 
 160:src/MemoryAllocator.cpp **** void MemoryAllocator::tryToJoin(FreeMem *node) {
 652              		.loc 1 160 48 is_stmt 1
 653              		.cfi_startproc
 654              	.LVL57:
 655 0374 130101FF 		addi	sp,sp,-16
 656              		.cfi_def_cfa_offset 16
 657 0378 23348100 		sd	s0,8(sp)
 658              		.cfi_offset 8, -8
 659 037c 13040101 		addi	s0,sp,16
 660              		.cfi_def_cfa 8, 0
 161:src/MemoryAllocator.cpp ****     if(!node) return;
 661              		.loc 1 161 5
 662 0380 638E0500 		beqz	a1,.L46
 162:src/MemoryAllocator.cpp ****     FreeMem* nextnode = node->next;
 663              		.loc 1 162 5
 664              		.loc 1 162 14 is_stmt 0
 665 0384 83B70500 		ld	a5,0(a1)
 666              	.LVL58:
 163:src/MemoryAllocator.cpp ****     if(nextnode && (char*)nextnode == ((char*)node + node->size * MEM_BLOCK_SIZE)){
 667              		.loc 1 163 5 is_stmt 1
 668 0388 638A0700 		beqz	a5,.L46
 669              		.loc 1 163 60 is_stmt 0 discriminator 1
 670 038c 83B60501 		ld	a3,16(a1)
 671              		.loc 1 163 65 discriminator 1
 672 0390 13976600 		slli	a4,a3,6
 673              		.loc 1 163 52 discriminator 1
 674 0394 3387E500 		add	a4,a1,a4
 675              		.loc 1 163 17 discriminator 1
 676 0398 6308F700 		beq	a4,a5,.L49
 677              	.LVL59:
 678              	.L46:
 164:src/MemoryAllocator.cpp ****         node->size += nextnode->size;
 165:src/MemoryAllocator.cpp ****         node->next = nextnode->next;
 166:src/MemoryAllocator.cpp ****         if(node->next)node->next->prev = node;
GAS LISTING /tmp/ccQtcBro.s 			page 18


 167:src/MemoryAllocator.cpp ****     }
 168:src/MemoryAllocator.cpp **** }
 679              		.loc 1 168 1
 680 039c 03348100 		ld	s0,8(sp)
 681              		.cfi_remember_state
 682              		.cfi_restore 8
 683              		.cfi_def_cfa 2, 16
 684 03a0 13010101 		addi	sp,sp,16
 685              		.cfi_def_cfa_offset 0
 686 03a4 67800000 		jr	ra
 687              	.LVL60:
 688              	.L49:
 689              		.cfi_restore_state
 164:src/MemoryAllocator.cpp ****         node->size += nextnode->size;
 690              		.loc 1 164 9 is_stmt 1
 164:src/MemoryAllocator.cpp ****         node->size += nextnode->size;
 691              		.loc 1 164 33 is_stmt 0
 692 03a8 03B70701 		ld	a4,16(a5)
 164:src/MemoryAllocator.cpp ****         node->size += nextnode->size;
 693              		.loc 1 164 20
 694 03ac B386E600 		add	a3,a3,a4
 695 03b0 23B8D500 		sd	a3,16(a1)
 165:src/MemoryAllocator.cpp ****         if(node->next)node->next->prev = node;
 696              		.loc 1 165 9 is_stmt 1
 165:src/MemoryAllocator.cpp ****         if(node->next)node->next->prev = node;
 697              		.loc 1 165 32 is_stmt 0
 698 03b4 83B70700 		ld	a5,0(a5)
 699              	.LVL61:
 165:src/MemoryAllocator.cpp ****         if(node->next)node->next->prev = node;
 700              		.loc 1 165 20
 701 03b8 23B0F500 		sd	a5,0(a1)
 702              	.LVL62:
 166:src/MemoryAllocator.cpp ****     }
 703              		.loc 1 166 9 is_stmt 1
 704 03bc E38007FE 		beqz	a5,.L46
 166:src/MemoryAllocator.cpp ****     }
 705              		.loc 1 166 23 discriminator 1
 166:src/MemoryAllocator.cpp ****     }
 706              		.loc 1 166 40 is_stmt 0 discriminator 1
 707 03c0 23B4B700 		sd	a1,8(a5)
 708 03c4 6FF09FFD 		j	.L46
 709              		.cfi_endproc
 710              	.LFE16:
 712              		.align	2
 713              		.globl	_ZN15MemoryAllocator8mem_freeEPv
 715              	_ZN15MemoryAllocator8mem_freeEPv:
 716              	.LFB17:
 169:src/MemoryAllocator.cpp **** 
 170:src/MemoryAllocator.cpp **** int MemoryAllocator::mem_free(void *ptr) {
 717              		.loc 1 170 42 is_stmt 1
 718              		.cfi_startproc
 719              	.LVL63:
 171:src/MemoryAllocator.cpp ****     if(!ptr) return -1;
 720              		.loc 1 171 5
 721 03c8 6382050E 		beqz	a1,.L59
 170:src/MemoryAllocator.cpp ****     if(!ptr) return -1;
 722              		.loc 1 170 42 is_stmt 0
GAS LISTING /tmp/ccQtcBro.s 			page 19


 723 03cc 130101FE 		addi	sp,sp,-32
 724              		.cfi_def_cfa_offset 32
 725 03d0 233C1100 		sd	ra,24(sp)
 726 03d4 23388100 		sd	s0,16(sp)
 727 03d8 23349100 		sd	s1,8(sp)
 728 03dc 23302101 		sd	s2,0(sp)
 729              		.cfi_offset 1, -8
 730              		.cfi_offset 8, -16
 731              		.cfi_offset 9, -24
 732              		.cfi_offset 18, -32
 733 03e0 13040102 		addi	s0,sp,32
 734              		.cfi_def_cfa 8, 0
 735 03e4 13090500 		mv	s2,a0
 172:src/MemoryAllocator.cpp **** 
 173:src/MemoryAllocator.cpp ****     Header* header = (Header*)ptr;
 736              		.loc 1 173 5 is_stmt 1
 737              	.LVL64:
 174:src/MemoryAllocator.cpp **** 
 175:src/MemoryAllocator.cpp ****     //outside of the heap error
 176:src/MemoryAllocator.cpp ****     if((uint64)header < (uint64)HEAP_START_ADDR || (uint64)header > (uint64)HEAP_END_ADDR) return -
 738              		.loc 1 176 5
 739              		.loc 1 176 23 is_stmt 0
 740 03e8 97070000 		la	a5,HEAP_START_ADDR
 740      83B70700 
 741 03f0 83B70700 		ld	a5,0(a5)
 742              		.loc 1 176 5
 743 03f4 63E0F50C 		bltu	a1,a5,.L60
 744              		.loc 1 176 67 discriminator 2
 745 03f8 97070000 		la	a5,HEAP_END_ADDR
 745      83B70700 
 746 0400 83B70700 		ld	a5,0(a5)
 747              		.loc 1 176 49 discriminator 2
 748 0404 63ECB70A 		bgtu	a1,a5,.L61
 177:src/MemoryAllocator.cpp ****     //not aligned to a block error
 178:src/MemoryAllocator.cpp ****     //if(((char*)header - (char*)fmem_head) % MEM_BLOCK_SIZE != 0) return -3;
 179:src/MemoryAllocator.cpp **** 
 180:src/MemoryAllocator.cpp ****     FreeMem* newnode = (FreeMem*)header;
 749              		.loc 1 180 5 is_stmt 1
 750              	.LVL65:
 181:src/MemoryAllocator.cpp ****     newnode->size = header->numOfBlocks;
 751              		.loc 1 181 5
 752              		.loc 1 181 29 is_stmt 0
 753 0408 83B70500 		ld	a5,0(a1)
 754              		.loc 1 181 19
 755 040c 23B8F500 		sd	a5,16(a1)
 182:src/MemoryAllocator.cpp ****     newnode->prev = nullptr;
 756              		.loc 1 182 5 is_stmt 1
 757              		.loc 1 182 19 is_stmt 0
 758 0410 23B40500 		sd	zero,8(a1)
 183:src/MemoryAllocator.cpp ****     newnode->next = nullptr;
 759              		.loc 1 183 5 is_stmt 1
 760              		.loc 1 183 19 is_stmt 0
 761 0414 23B00500 		sd	zero,0(a1)
 184:src/MemoryAllocator.cpp ****     FreeMem* temp = 0;
 762              		.loc 1 184 5 is_stmt 1
 763              	.LVL66:
 185:src/MemoryAllocator.cpp ****     if(!fmem_head || (char*)fmem_head > (char*)newnode)
GAS LISTING /tmp/ccQtcBro.s 			page 20


 764              		.loc 1 185 5
 765              		.loc 1 185 9 is_stmt 0
 766 0418 03370500 		ld	a4,0(a0)
 767              		.loc 1 185 5
 768 041c 63040702 		beqz	a4,.L62
 769              		.loc 1 185 19 discriminator 1
 770 0420 63E6E502 		bgtu	a4,a1,.L63
 186:src/MemoryAllocator.cpp ****     {
 187:src/MemoryAllocator.cpp ****         temp = 0;
 188:src/MemoryAllocator.cpp ****     }
 189:src/MemoryAllocator.cpp ****     else
 190:src/MemoryAllocator.cpp ****     {
 191:src/MemoryAllocator.cpp ****         temp = fmem_head;
 771              		.loc 1 191 14
 772 0424 93070700 		mv	a5,a4
 773              	.LVL67:
 774              	.L54:
 192:src/MemoryAllocator.cpp ****         while(temp->next && (char*)temp->next < (char*)newnode)
 775              		.loc 1 192 9 is_stmt 1
 776              		.loc 1 192 26
 777 0428 93840700 		mv	s1,a5
 778              		.loc 1 192 21 is_stmt 0
 779 042c 83B70700 		ld	a5,0(a5)
 780              	.LVL68:
 781              		.loc 1 192 26
 782 0430 63840700 		beqz	a5,.L53
 783              		.loc 1 192 26 discriminator 1
 784 0434 E3EAB7FE 		bltu	a5,a1,.L54
 785              	.L53:
 193:src/MemoryAllocator.cpp ****         {
 194:src/MemoryAllocator.cpp ****             temp = temp->next;
 195:src/MemoryAllocator.cpp ****         }
 196:src/MemoryAllocator.cpp ****     }
 197:src/MemoryAllocator.cpp ****     if(temp)
 786              		.loc 1 197 5 is_stmt 1
 787 0438 638C0400 		beqz	s1,.L52
 198:src/MemoryAllocator.cpp ****     {
 199:src/MemoryAllocator.cpp ****         newnode->next = temp->next;
 788              		.loc 1 199 9
 789              		.loc 1 199 23 is_stmt 0
 790 043c 23B0F500 		sd	a5,0(a1)
 791 0440 6F004001 		j	.L55
 792              	.LVL69:
 793              	.L62:
 187:src/MemoryAllocator.cpp ****     }
 794              		.loc 1 187 14
 795 0444 93040700 		mv	s1,a4
 796 0448 6F008000 		j	.L52
 797              	.L63:
 798 044c 93040000 		li	s1,0
 799              	.LVL70:
 800              	.L52:
 200:src/MemoryAllocator.cpp ****     }
 201:src/MemoryAllocator.cpp ****     else {
 202:src/MemoryAllocator.cpp ****         newnode->next = fmem_head;
 801              		.loc 1 202 9 is_stmt 1
 802              		.loc 1 202 23 is_stmt 0
GAS LISTING /tmp/ccQtcBro.s 			page 21


 803 0450 23B0E500 		sd	a4,0(a1)
 804              	.L55:
 203:src/MemoryAllocator.cpp ****     }
 204:src/MemoryAllocator.cpp ****     if(newnode->next)
 805              		.loc 1 204 5 is_stmt 1
 806              		.loc 1 204 17 is_stmt 0
 807 0454 83B70500 		ld	a5,0(a1)
 808              		.loc 1 204 5
 809 0458 63840700 		beqz	a5,.L56
 205:src/MemoryAllocator.cpp ****     {
 206:src/MemoryAllocator.cpp ****         newnode->next->prev = newnode;
 810              		.loc 1 206 9 is_stmt 1
 811              		.loc 1 206 29 is_stmt 0
 812 045c 23B4B700 		sd	a1,8(a5)
 813              	.L56:
 207:src/MemoryAllocator.cpp ****     }
 208:src/MemoryAllocator.cpp ****     if(temp){
 814              		.loc 1 208 5 is_stmt 1
 815 0460 63820404 		beqz	s1,.L57
 209:src/MemoryAllocator.cpp ****         temp->next = newnode;
 816              		.loc 1 209 9
 817              		.loc 1 209 20 is_stmt 0
 818 0464 23B0B400 		sd	a1,0(s1)
 210:src/MemoryAllocator.cpp ****         newnode->prev = temp;
 819              		.loc 1 210 9 is_stmt 1
 820              		.loc 1 210 23 is_stmt 0
 821 0468 23B49500 		sd	s1,8(a1)
 822              	.L58:
 211:src/MemoryAllocator.cpp ****     }
 212:src/MemoryAllocator.cpp ****     else
 213:src/MemoryAllocator.cpp ****     {
 214:src/MemoryAllocator.cpp ****         fmem_head = newnode;
 215:src/MemoryAllocator.cpp ****     }
 216:src/MemoryAllocator.cpp ****     tryToJoin(newnode);
 823              		.loc 1 216 5 is_stmt 1
 824              		.loc 1 216 14 is_stmt 0
 825 046c 13050900 		mv	a0,s2
 826              	.LVL71:
 827 0470 97000000 		call	_ZN15MemoryAllocator9tryToJoinEP7FreeMem
 827      E7800000 
 828              	.LVL72:
 217:src/MemoryAllocator.cpp ****     tryToJoin(temp);
 829              		.loc 1 217 5 is_stmt 1
 830              		.loc 1 217 14 is_stmt 0
 831 0478 93850400 		mv	a1,s1
 832 047c 13050900 		mv	a0,s2
 833 0480 97000000 		call	_ZN15MemoryAllocator9tryToJoinEP7FreeMem
 833      E7800000 
 834              	.LVL73:
 218:src/MemoryAllocator.cpp ****     return 0;
 835              		.loc 1 218 5 is_stmt 1
 836              		.loc 1 218 12 is_stmt 0
 837 0488 13050000 		li	a0,0
 838              	.LVL74:
 839              	.L51:
 219:src/MemoryAllocator.cpp **** }
 840              		.loc 1 219 1
GAS LISTING /tmp/ccQtcBro.s 			page 22


 841 048c 83308101 		ld	ra,24(sp)
 842              		.cfi_remember_state
 843              		.cfi_restore 1
 844 0490 03340101 		ld	s0,16(sp)
 845              		.cfi_restore 8
 846              		.cfi_def_cfa 2, 32
 847 0494 83348100 		ld	s1,8(sp)
 848              		.cfi_restore 9
 849 0498 03390100 		ld	s2,0(sp)
 850              		.cfi_restore 18
 851              	.LVL75:
 852 049c 13010102 		addi	sp,sp,32
 853              		.cfi_def_cfa_offset 0
 854 04a0 67800000 		jr	ra
 855              	.LVL76:
 856              	.L57:
 857              		.cfi_restore_state
 214:src/MemoryAllocator.cpp ****     }
 858              		.loc 1 214 9 is_stmt 1
 214:src/MemoryAllocator.cpp ****     }
 859              		.loc 1 214 19 is_stmt 0
 860 04a4 2330B900 		sd	a1,0(s2)
 861 04a8 6FF05FFC 		j	.L58
 862              	.LVL77:
 863              	.L59:
 864              		.cfi_def_cfa_register 2
 865              		.cfi_restore 1
 866              		.cfi_restore 8
 867              		.cfi_restore 9
 868              		.cfi_restore 18
 171:src/MemoryAllocator.cpp **** 
 869              		.loc 1 171 22
 870 04ac 1305F0FF 		li	a0,-1
 871              	.LVL78:
 872              		.loc 1 219 1
 873 04b0 67800000 		ret
 874              	.LVL79:
 875              	.L60:
 876              		.cfi_def_cfa_register 8
 877              		.cfi_offset 1, -8
 878              		.cfi_offset 8, -16
 879              		.cfi_offset 9, -24
 880              		.cfi_offset 18, -32
 176:src/MemoryAllocator.cpp ****     //not aligned to a block error
 881              		.loc 1 176 100
 882 04b4 1305E0FF 		li	a0,-2
 883              	.LVL80:
 884 04b8 6FF05FFD 		j	.L51
 885              	.LVL81:
 886              	.L61:
 887 04bc 1305E0FF 		li	a0,-2
 888              	.LVL82:
 889 04c0 6FF0DFFC 		j	.L51
 890              		.cfi_endproc
 891              	.LFE17:
 893              		.align	2
 894              		.globl	_ZN15MemoryAllocator15mem_free_kernelEPvmm
GAS LISTING /tmp/ccQtcBro.s 			page 23


 896              	_ZN15MemoryAllocator15mem_free_kernelEPvmm:
 897              	.LFB18:
 220:src/MemoryAllocator.cpp **** 
 221:src/MemoryAllocator.cpp **** int MemoryAllocator::mem_free_kernel(void* ptr, size_t N, size_t sizeOfElem){
 898              		.loc 1 221 77 is_stmt 1
 899              		.cfi_startproc
 900              	.LVL83:
 222:src/MemoryAllocator.cpp ****     if(!ptr) return -1;
 901              		.loc 1 222 5
 902 04c4 638E050E 		beqz	a1,.L77
 221:src/MemoryAllocator.cpp ****     if(!ptr) return -1;
 903              		.loc 1 221 77 is_stmt 0
 904 04c8 130101FE 		addi	sp,sp,-32
 905              		.cfi_def_cfa_offset 32
 906 04cc 233C1100 		sd	ra,24(sp)
 907 04d0 23388100 		sd	s0,16(sp)
 908 04d4 23349100 		sd	s1,8(sp)
 909 04d8 23302101 		sd	s2,0(sp)
 910              		.cfi_offset 1, -8
 911              		.cfi_offset 8, -16
 912              		.cfi_offset 9, -24
 913              		.cfi_offset 18, -32
 914 04dc 13040102 		addi	s0,sp,32
 915              		.cfi_def_cfa 8, 0
 916 04e0 13090500 		mv	s2,a0
 223:src/MemoryAllocator.cpp **** 
 224:src/MemoryAllocator.cpp **** 
 225:src/MemoryAllocator.cpp ****     //outside of the heap error
 226:src/MemoryAllocator.cpp ****     if((uint64)ptr < (uint64)HEAP_START_ADDR || (uint64)ptr > (uint64)HEAP_END_ADDR) return -2;
 917              		.loc 1 226 5 is_stmt 1
 918              		.loc 1 226 20 is_stmt 0
 919 04e4 97070000 		la	a5,HEAP_START_ADDR
 919      83B70700 
 920 04ec 83B70700 		ld	a5,0(a5)
 921              		.loc 1 226 5
 922 04f0 63ECF50C 		bltu	a1,a5,.L78
 923              		.loc 1 226 61 discriminator 2
 924 04f4 97070000 		la	a5,HEAP_END_ADDR
 924      83B70700 
 925 04fc 83B70700 		ld	a5,0(a5)
 926              		.loc 1 226 46 discriminator 2
 927 0500 63E8B70C 		bgtu	a1,a5,.L79
 227:src/MemoryAllocator.cpp ****     //not aligned to a block error
 228:src/MemoryAllocator.cpp ****     if(((char*)ptr - (char*)fmem_head) % MEM_BLOCK_SIZE != 0) return -3;
 928              		.loc 1 228 5 is_stmt 1
 929              		.loc 1 228 29 is_stmt 0
 930 0504 83370500 		ld	a5,0(a0)
 931              		.loc 1 228 20
 932 0508 B387F540 		sub	a5,a1,a5
 933              		.loc 1 228 40
 934 050c 93F7F703 		andi	a5,a5,63
 935              		.loc 1 228 5
 936 0510 6394070C 		bnez	a5,.L80
 229:src/MemoryAllocator.cpp ****     size_t numOfBlocks = (N * sizeOfElem + MEM_BLOCK_SIZE - 1) / MEM_BLOCK_SIZE;
 937              		.loc 1 229 5 is_stmt 1
 938              		.loc 1 229 29 is_stmt 0
 939 0514 3306D602 		mul	a2,a2,a3
GAS LISTING /tmp/ccQtcBro.s 			page 24


 940              	.LVL84:
 941              		.loc 1 229 59
 942 0518 1306F603 		addi	a2,a2,63
 943              		.loc 1 229 12
 944 051c 13566600 		srli	a2,a2,6
 945              	.LVL85:
 230:src/MemoryAllocator.cpp **** 
 231:src/MemoryAllocator.cpp ****     FreeMem* newnode = (FreeMem*)ptr;
 946              		.loc 1 231 5 is_stmt 1
 232:src/MemoryAllocator.cpp ****     newnode->size = numOfBlocks;
 947              		.loc 1 232 5
 948              		.loc 1 232 19 is_stmt 0
 949 0520 23B8C500 		sd	a2,16(a1)
 233:src/MemoryAllocator.cpp ****     newnode->prev = nullptr;
 950              		.loc 1 233 5 is_stmt 1
 951              		.loc 1 233 19 is_stmt 0
 952 0524 23B40500 		sd	zero,8(a1)
 234:src/MemoryAllocator.cpp ****     newnode->next = nullptr;
 953              		.loc 1 234 5 is_stmt 1
 954              		.loc 1 234 19 is_stmt 0
 955 0528 23B00500 		sd	zero,0(a1)
 235:src/MemoryAllocator.cpp ****     FreeMem* temp = 0;
 956              		.loc 1 235 5 is_stmt 1
 957              	.LVL86:
 236:src/MemoryAllocator.cpp ****     if(!fmem_head || (char*)fmem_head > (char*)newnode)
 958              		.loc 1 236 5
 959              		.loc 1 236 9 is_stmt 0
 960 052c 03370500 		ld	a4,0(a0)
 961              		.loc 1 236 5
 962 0530 63040702 		beqz	a4,.L81
 963              		.loc 1 236 19 discriminator 1
 964 0534 63E6E502 		bgtu	a4,a1,.L82
 237:src/MemoryAllocator.cpp ****     {
 238:src/MemoryAllocator.cpp ****         temp = 0;
 239:src/MemoryAllocator.cpp ****     }
 240:src/MemoryAllocator.cpp ****     else
 241:src/MemoryAllocator.cpp ****     {
 242:src/MemoryAllocator.cpp ****         temp = fmem_head;
 965              		.loc 1 242 14
 966 0538 93070700 		mv	a5,a4
 967              	.LVL87:
 968              	.L72:
 243:src/MemoryAllocator.cpp ****         while(temp->next && (char*)temp->next < (char*)newnode)
 969              		.loc 1 243 9 is_stmt 1
 970              		.loc 1 243 26
 971 053c 93840700 		mv	s1,a5
 972              		.loc 1 243 21 is_stmt 0
 973 0540 83B70700 		ld	a5,0(a5)
 974              	.LVL88:
 975              		.loc 1 243 26
 976 0544 63840700 		beqz	a5,.L71
 977              		.loc 1 243 26 discriminator 1
 978 0548 E3EAB7FE 		bltu	a5,a1,.L72
 979              	.L71:
 244:src/MemoryAllocator.cpp ****         {
 245:src/MemoryAllocator.cpp ****             temp = temp->next;
 246:src/MemoryAllocator.cpp ****         }
GAS LISTING /tmp/ccQtcBro.s 			page 25


 247:src/MemoryAllocator.cpp ****     }
 248:src/MemoryAllocator.cpp ****     if(temp)
 980              		.loc 1 248 5 is_stmt 1
 981 054c 638C0400 		beqz	s1,.L70
 249:src/MemoryAllocator.cpp ****     {
 250:src/MemoryAllocator.cpp ****         newnode->next = temp->next;
 982              		.loc 1 250 9
 983              		.loc 1 250 23 is_stmt 0
 984 0550 23B0F500 		sd	a5,0(a1)
 985 0554 6F004001 		j	.L73
 986              	.LVL89:
 987              	.L81:
 238:src/MemoryAllocator.cpp ****     }
 988              		.loc 1 238 14
 989 0558 93040700 		mv	s1,a4
 990 055c 6F008000 		j	.L70
 991              	.L82:
 992 0560 93040000 		li	s1,0
 993              	.LVL90:
 994              	.L70:
 251:src/MemoryAllocator.cpp ****     }
 252:src/MemoryAllocator.cpp ****     else {
 253:src/MemoryAllocator.cpp ****         newnode->next = fmem_head;
 995              		.loc 1 253 9 is_stmt 1
 996              		.loc 1 253 23 is_stmt 0
 997 0564 23B0E500 		sd	a4,0(a1)
 998              	.L73:
 254:src/MemoryAllocator.cpp ****     }
 255:src/MemoryAllocator.cpp ****     if(newnode->next)
 999              		.loc 1 255 5 is_stmt 1
 1000              		.loc 1 255 17 is_stmt 0
 1001 0568 83B70500 		ld	a5,0(a1)
 1002              		.loc 1 255 5
 1003 056c 63840700 		beqz	a5,.L74
 256:src/MemoryAllocator.cpp ****     {
 257:src/MemoryAllocator.cpp ****         newnode->next->prev = newnode;
 1004              		.loc 1 257 9 is_stmt 1
 1005              		.loc 1 257 29 is_stmt 0
 1006 0570 23B4B700 		sd	a1,8(a5)
 1007              	.L74:
 258:src/MemoryAllocator.cpp ****     }
 259:src/MemoryAllocator.cpp ****     if(temp){
 1008              		.loc 1 259 5 is_stmt 1
 1009 0574 63820404 		beqz	s1,.L75
 260:src/MemoryAllocator.cpp ****         temp->next = newnode;
 1010              		.loc 1 260 9
 1011              		.loc 1 260 20 is_stmt 0
 1012 0578 23B0B400 		sd	a1,0(s1)
 261:src/MemoryAllocator.cpp ****         newnode->prev = temp;
 1013              		.loc 1 261 9 is_stmt 1
 1014              		.loc 1 261 23 is_stmt 0
 1015 057c 23B49500 		sd	s1,8(a1)
 1016              	.L76:
 262:src/MemoryAllocator.cpp ****     }
 263:src/MemoryAllocator.cpp ****     else
 264:src/MemoryAllocator.cpp ****     {
 265:src/MemoryAllocator.cpp ****         fmem_head = newnode;
GAS LISTING /tmp/ccQtcBro.s 			page 26


 266:src/MemoryAllocator.cpp ****     }
 267:src/MemoryAllocator.cpp ****     tryToJoin(newnode);
 1017              		.loc 1 267 5 is_stmt 1
 1018              		.loc 1 267 14 is_stmt 0
 1019 0580 13050900 		mv	a0,s2
 1020              	.LVL91:
 1021 0584 97000000 		call	_ZN15MemoryAllocator9tryToJoinEP7FreeMem
 1021      E7800000 
 1022              	.LVL92:
 268:src/MemoryAllocator.cpp ****     tryToJoin(temp);
 1023              		.loc 1 268 5 is_stmt 1
 1024              		.loc 1 268 14 is_stmt 0
 1025 058c 93850400 		mv	a1,s1
 1026 0590 13050900 		mv	a0,s2
 1027 0594 97000000 		call	_ZN15MemoryAllocator9tryToJoinEP7FreeMem
 1027      E7800000 
 1028              	.LVL93:
 269:src/MemoryAllocator.cpp ****     return 0;
 1029              		.loc 1 269 5 is_stmt 1
 1030              		.loc 1 269 12 is_stmt 0
 1031 059c 13050000 		li	a0,0
 1032              	.LVL94:
 1033              	.L69:
 270:src/MemoryAllocator.cpp **** }
 1034              		.loc 1 270 1
 1035 05a0 83308101 		ld	ra,24(sp)
 1036              		.cfi_remember_state
 1037              		.cfi_restore 1
 1038 05a4 03340101 		ld	s0,16(sp)
 1039              		.cfi_restore 8
 1040              		.cfi_def_cfa 2, 32
 1041 05a8 83348100 		ld	s1,8(sp)
 1042              		.cfi_restore 9
 1043 05ac 03390100 		ld	s2,0(sp)
 1044              		.cfi_restore 18
 1045              	.LVL95:
 1046 05b0 13010102 		addi	sp,sp,32
 1047              		.cfi_def_cfa_offset 0
 1048 05b4 67800000 		jr	ra
 1049              	.LVL96:
 1050              	.L75:
 1051              		.cfi_restore_state
 265:src/MemoryAllocator.cpp ****     }
 1052              		.loc 1 265 9 is_stmt 1
 265:src/MemoryAllocator.cpp ****     }
 1053              		.loc 1 265 19 is_stmt 0
 1054 05b8 2330B900 		sd	a1,0(s2)
 1055 05bc 6FF05FFC 		j	.L76
 1056              	.LVL97:
 1057              	.L77:
 1058              		.cfi_def_cfa_register 2
 1059              		.cfi_restore 1
 1060              		.cfi_restore 8
 1061              		.cfi_restore 9
 1062              		.cfi_restore 18
 222:src/MemoryAllocator.cpp **** 
 1063              		.loc 1 222 22
GAS LISTING /tmp/ccQtcBro.s 			page 27


 1064 05c0 1305F0FF 		li	a0,-1
 1065              	.LVL98:
 1066              		.loc 1 270 1
 1067 05c4 67800000 		ret
 1068              	.LVL99:
 1069              	.L78:
 1070              		.cfi_def_cfa_register 8
 1071              		.cfi_offset 1, -8
 1072              		.cfi_offset 8, -16
 1073              		.cfi_offset 9, -24
 1074              		.cfi_offset 18, -32
 226:src/MemoryAllocator.cpp ****     //not aligned to a block error
 1075              		.loc 1 226 94
 1076 05c8 1305E0FF 		li	a0,-2
 1077              	.LVL100:
 1078 05cc 6FF05FFD 		j	.L69
 1079              	.LVL101:
 1080              	.L79:
 1081 05d0 1305E0FF 		li	a0,-2
 1082              	.LVL102:
 1083 05d4 6FF0DFFC 		j	.L69
 1084              	.LVL103:
 1085              	.L80:
 228:src/MemoryAllocator.cpp ****     size_t numOfBlocks = (N * sizeOfElem + MEM_BLOCK_SIZE - 1) / MEM_BLOCK_SIZE;
 1086              		.loc 1 228 71
 1087 05d8 1305D0FF 		li	a0,-3
 1088              	.LVL104:
 1089 05dc 6FF05FFC 		j	.L69
 1090              		.cfi_endproc
 1091              	.LFE18:
 1093              		.align	2
 1094              		.globl	_ZN15MemoryAllocator21free_memory_remainingEv
 1096              	_ZN15MemoryAllocator21free_memory_remainingEv:
 1097              	.LFB19:
 271:src/MemoryAllocator.cpp **** 
 272:src/MemoryAllocator.cpp **** size_t MemoryAllocator::free_memory_remaining() {
 1098              		.loc 1 272 49 is_stmt 1
 1099              		.cfi_startproc
 1100              	.LVL105:
 1101 05e0 130101FF 		addi	sp,sp,-16
 1102              		.cfi_def_cfa_offset 16
 1103 05e4 23348100 		sd	s0,8(sp)
 1104              		.cfi_offset 8, -8
 1105 05e8 13040101 		addi	s0,sp,16
 1106              		.cfi_def_cfa 8, 0
 273:src/MemoryAllocator.cpp ****     return fmem_head->size * MEM_BLOCK_SIZE;
 1107              		.loc 1 273 5
 1108              		.loc 1 273 12 is_stmt 0
 1109 05ec 83370500 		ld	a5,0(a0)
 1110              		.loc 1 273 23
 1111 05f0 03B50701 		ld	a0,16(a5)
 1112              	.LVL106:
 274:src/MemoryAllocator.cpp **** }
 1113              		.loc 1 274 1
 1114 05f4 13156500 		slli	a0,a0,6
 1115 05f8 03348100 		ld	s0,8(sp)
 1116              		.cfi_restore 8
GAS LISTING /tmp/ccQtcBro.s 			page 28


 1117              		.cfi_def_cfa 2, 16
 1118 05fc 13010101 		addi	sp,sp,16
 1119              		.cfi_def_cfa_offset 0
 1120 0600 67800000 		jr	ra
 1121              		.cfi_endproc
 1122              	.LFE19:
 1124              		.align	2
 1125              		.globl	_ZN15MemoryAllocator21get_largest_mem_blockEv
 1127              	_ZN15MemoryAllocator21get_largest_mem_blockEv:
 1128              	.LFB20:
 275:src/MemoryAllocator.cpp **** size_t MemoryAllocator::get_largest_mem_block() {
 1129              		.loc 1 275 49 is_stmt 1
 1130              		.cfi_startproc
 1131              	.LVL107:
 1132 0604 130101FF 		addi	sp,sp,-16
 1133              		.cfi_def_cfa_offset 16
 1134 0608 23348100 		sd	s0,8(sp)
 1135              		.cfi_offset 8, -8
 1136 060c 13040101 		addi	s0,sp,16
 1137              		.cfi_def_cfa 8, 0
 276:src/MemoryAllocator.cpp ****     if(fmem_head == nullptr) return 0;
 1138              		.loc 1 276 5
 1139              		.loc 1 276 8 is_stmt 0
 1140 0610 83370500 		ld	a5,0(a0)
 1141              		.loc 1 276 5
 1142 0614 638A0702 		beqz	a5,.L94
 277:src/MemoryAllocator.cpp ****     FreeMem* temp = fmem_head;
 1143              		.loc 1 277 5 is_stmt 1
 1144              	.LVL108:
 278:src/MemoryAllocator.cpp ****     size_t maxBlocks = temp->size;
 1145              		.loc 1 278 5
 1146              		.loc 1 278 12 is_stmt 0
 1147 0618 03B50701 		ld	a0,16(a5)
 1148              	.LVL109:
 1149 061c 6F008000 		j	.L93
 1150              	.LVL110:
 1151              	.L92:
 279:src/MemoryAllocator.cpp ****     while(temp)
 280:src/MemoryAllocator.cpp ****     {
 281:src/MemoryAllocator.cpp ****         if(temp->size > maxBlocks){
 282:src/MemoryAllocator.cpp ****             maxBlocks = temp->size;
 283:src/MemoryAllocator.cpp ****         }
 284:src/MemoryAllocator.cpp ****         temp = temp->next;
 1152              		.loc 1 284 9 is_stmt 1
 1153              		.loc 1 284 14 is_stmt 0
 1154 0620 83B70700 		ld	a5,0(a5)
 1155              	.LVL111:
 1156              	.L93:
 279:src/MemoryAllocator.cpp ****     while(temp)
 1157              		.loc 1 279 5 is_stmt 1
 279:src/MemoryAllocator.cpp ****     while(temp)
 1158              		.loc 1 279 11
 1159 0624 638A0700 		beqz	a5,.L91
 281:src/MemoryAllocator.cpp ****             maxBlocks = temp->size;
 1160              		.loc 1 281 9
 281:src/MemoryAllocator.cpp ****             maxBlocks = temp->size;
 1161              		.loc 1 281 18 is_stmt 0
GAS LISTING /tmp/ccQtcBro.s 			page 29


 1162 0628 03B70701 		ld	a4,16(a5)
 281:src/MemoryAllocator.cpp ****             maxBlocks = temp->size;
 1163              		.loc 1 281 9
 1164 062c E37AE5FE 		bleu	a4,a0,.L92
 282:src/MemoryAllocator.cpp ****         }
 1165              		.loc 1 282 23
 1166 0630 13050700 		mv	a0,a4
 1167              	.LVL112:
 1168 0634 6FF0DFFE 		j	.L92
 1169              	.LVL113:
 1170              	.L91:
 285:src/MemoryAllocator.cpp ****     }
 286:src/MemoryAllocator.cpp ****     return maxBlocks * MEM_BLOCK_SIZE;
 1171              		.loc 1 286 5 is_stmt 1
 1172              		.loc 1 286 24 is_stmt 0
 1173 0638 13156500 		slli	a0,a0,6
 1174              	.LVL114:
 1175              	.L89:
 287:src/MemoryAllocator.cpp **** 
 288:src/MemoryAllocator.cpp **** }
 1176              		.loc 1 288 1
 1177 063c 03348100 		ld	s0,8(sp)
 1178              		.cfi_remember_state
 1179              		.cfi_restore 8
 1180              		.cfi_def_cfa 2, 16
 1181 0640 13010101 		addi	sp,sp,16
 1182              		.cfi_def_cfa_offset 0
 1183 0644 67800000 		jr	ra
 1184              	.LVL115:
 1185              	.L94:
 1186              		.cfi_restore_state
 276:src/MemoryAllocator.cpp ****     FreeMem* temp = fmem_head;
 1187              		.loc 1 276 37
 1188 0648 13050000 		li	a0,0
 1189              	.LVL116:
 1190 064c 6FF01FFF 		j	.L89
 1191              		.cfi_endproc
 1192              	.LFE20:
 1194              		.bss
 1195              		.align	3
 1196              		.set	.LANCHOR0,. + 0
 1199              	_ZGVZN15MemoryAllocator8InstanceEvE8instance:
 1200 0000 00000000 		.zero	8
 1200      00000000 
 1203              	_ZZN15MemoryAllocator8InstanceEvE8instance:
 1204 0008 00000000 		.zero	40
 1204      00000000 
 1204      00000000 
 1204      00000000 
 1204      00000000 
 1205              		.text
 1206              	.Letext0:
 1207              		.file 2 "src/../h/../lib/hw.h"
 1208              		.file 3 "src/../h/memory_structs.h"
 1209              		.file 4 "src/../h/ThreadPool.hpp"
 1210              		.file 5 "src/../h/SemaphorePool.hpp"
 1211              		.file 6 "src/../h/MemoryAllocator.hpp"
GAS LISTING /tmp/ccQtcBro.s 			page 30


GAS LISTING /tmp/ccQtcBro.s 			page 31

