GAS LISTING /tmp/ccPVViy6.s 			page 1


   1              		.file	"RiscV.cpp"
   2              		.option pic
   3              		.option norelax
   4              		.text
   5              	.Ltext0:
   6              		.align	2
   7              		.globl	_ZN5RiscV23initialSstatusForThreadEv
   9              	_ZN5RiscV23initialSstatusForThreadEv:
  10              	.LFB0:
  11              		.file 1 "src/RiscV.cpp"
   1:src/RiscV.cpp **** #include "../h/RiscV.hpp"
   2:src/RiscV.cpp **** 
   3:src/RiscV.cpp **** 
   4:src/RiscV.cpp **** uint64 RiscV::last_sepc = 0;
   5:src/RiscV.cpp **** uint64 RiscV::last_sstatus = 0;
   6:src/RiscV.cpp **** 
   7:src/RiscV.cpp **** // --- Initial SSTATUS za novu nit ---
   8:src/RiscV.cpp **** uint64 RiscV::initialSstatusForThread() {
  12              		.loc 1 8 41
  13              		.cfi_startproc
  14 0000 130101FF 		addi	sp,sp,-16
  15              		.cfi_def_cfa_offset 16
  16 0004 23348100 		sd	s0,8(sp)
  17              		.cfi_offset 8, -8
  18 0008 13040101 		addi	s0,sp,16
  19              		.cfi_def_cfa 8, 0
   9:src/RiscV.cpp ****     uint64 sstatus = 0;
  20              		.loc 1 9 5
  21              	.LVL0:
  10:src/RiscV.cpp **** 
  11:src/RiscV.cpp ****     // SPP = 0 → naredni sret instrukcija ide u user mode
  12:src/RiscV.cpp ****     sstatus &= ~(1UL << 8);
  22              		.loc 1 12 5
  13:src/RiscV.cpp **** 
  14:src/RiscV.cpp ****     // SPIE = 1 → prekidi dozvoljeni kada se vrati u user mode
  15:src/RiscV.cpp ****     sstatus |= (1UL << 5);
  23              		.loc 1 15 5
  16:src/RiscV.cpp **** 
  17:src/RiscV.cpp ****     // SIE = 0 → trenutno maskirani svi prekidi u kernel modu
  18:src/RiscV.cpp ****     sstatus &= ~(1UL << 1);
  24              		.loc 1 18 5
  19:src/RiscV.cpp **** 
  20:src/RiscV.cpp ****     return sstatus;
  25              		.loc 1 20 5
  21:src/RiscV.cpp **** }
  26              		.loc 1 21 1 is_stmt 0
  27 000c 13050002 		li	a0,32
  28 0010 03348100 		ld	s0,8(sp)
  29              		.cfi_restore 8
  30              		.cfi_def_cfa 2, 16
  31 0014 13010101 		addi	sp,sp,16
  32              		.cfi_def_cfa_offset 0
  33 0018 67800000 		jr	ra
  34              		.cfi_endproc
  35              	.LFE0:
  37              		.align	2
  38              		.globl	_ZN5RiscV6ms_sipEm
GAS LISTING /tmp/ccPVViy6.s 			page 2


  40              	_ZN5RiscV6ms_sipEm:
  41              	.LFB1:
  22:src/RiscV.cpp **** 
  23:src/RiscV.cpp **** // --- SIP manipulacija ---
  24:src/RiscV.cpp **** void RiscV::ms_sip(uint64 mask) {
  42              		.loc 1 24 33 is_stmt 1
  43              		.cfi_startproc
  44              	.LVL1:
  45 001c 130101FF 		addi	sp,sp,-16
  46              		.cfi_def_cfa_offset 16
  47 0020 23348100 		sd	s0,8(sp)
  48              		.cfi_offset 8, -8
  49 0024 13040101 		addi	s0,sp,16
  50              		.cfi_def_cfa 8, 0
  25:src/RiscV.cpp ****     __asm__ volatile("csrs sip, %[mask]" :: [mask] "r"(mask));
  51              		.loc 1 25 5
  52              		.loc 1 25 62 is_stmt 0
  53              	#APP
  54              	# 25 "src/RiscV.cpp" 1
  26              	}
  55              		csrs sip, a0
  56              	# 0 "" 2
  57              		.loc 1 26 1
  58              	#NO_APP
  59 002c 03348100 		ld	s0,8(sp)
  60              		.cfi_restore 8
  61              		.cfi_def_cfa 2, 16
  62 0030 13010101 		addi	sp,sp,16
  63              		.cfi_def_cfa_offset 0
  64 0034 67800000 		jr	ra
  65              		.cfi_endproc
  66              	.LFE1:
  68              		.align	2
  69              		.globl	_ZN5RiscV6mc_sipEm
  71              	_ZN5RiscV6mc_sipEm:
  72              	.LFB2:
  27:src/RiscV.cpp **** 
  28:src/RiscV.cpp **** void RiscV::mc_sip(uint64 mask) {
  73              		.loc 1 28 33 is_stmt 1
  74              		.cfi_startproc
  75              	.LVL2:
  76 0038 130101FF 		addi	sp,sp,-16
  77              		.cfi_def_cfa_offset 16
  78 003c 23348100 		sd	s0,8(sp)
  79              		.cfi_offset 8, -8
  80 0040 13040101 		addi	s0,sp,16
  81              		.cfi_def_cfa 8, 0
  29:src/RiscV.cpp ****     __asm__ volatile("csrc sip, %[mask]" :: [mask] "r"(mask));
  82              		.loc 1 29 5
  83              		.loc 1 29 62 is_stmt 0
  84              	#APP
  85              	# 29 "src/RiscV.cpp" 1
  30              	}
  86              		csrc sip, a0
  87              	# 0 "" 2
  88              		.loc 1 30 1
  89              	#NO_APP
GAS LISTING /tmp/ccPVViy6.s 			page 3


  90 0048 03348100 		ld	s0,8(sp)
  91              		.cfi_restore 8
  92              		.cfi_def_cfa 2, 16
  93 004c 13010101 		addi	sp,sp,16
  94              		.cfi_def_cfa_offset 0
  95 0050 67800000 		jr	ra
  96              		.cfi_endproc
  97              	.LFE2:
  99              		.align	2
 100              		.globl	_ZN5RiscV5r_sipEv
 102              	_ZN5RiscV5r_sipEv:
 103              	.LFB3:
  31:src/RiscV.cpp **** 
  32:src/RiscV.cpp **** uint64 RiscV::r_sip() {
 104              		.loc 1 32 23 is_stmt 1
 105              		.cfi_startproc
 106 0054 130101FF 		addi	sp,sp,-16
 107              		.cfi_def_cfa_offset 16
 108 0058 23348100 		sd	s0,8(sp)
 109              		.cfi_offset 8, -8
 110 005c 13040101 		addi	s0,sp,16
 111              		.cfi_def_cfa 8, 0
  33:src/RiscV.cpp ****     uint64 val;
 112              		.loc 1 33 5
  34:src/RiscV.cpp ****     __asm__ volatile("csrr %[val], sip" : [val] "=r"(val));
 113              		.loc 1 34 5
 114              		.loc 1 34 59 is_stmt 0
 115              	#APP
 116              	# 34 "src/RiscV.cpp" 1
  35              	    return val;
 117              		csrr a0, sip
 118              	# 0 "" 2
 119              	.LVL3:
 120              		.loc 1 35 5 is_stmt 1
  36:src/RiscV.cpp **** }
 121              		.loc 1 36 1 is_stmt 0
 122              	#NO_APP
 123 0064 03348100 		ld	s0,8(sp)
 124              		.cfi_restore 8
 125              		.cfi_def_cfa 2, 16
 126 0068 13010101 		addi	sp,sp,16
 127              		.cfi_def_cfa_offset 0
 128 006c 67800000 		jr	ra
 129              		.cfi_endproc
 130              	.LFE3:
 132              		.align	2
 133              		.globl	_ZN5RiscV7r_stvecEv
 135              	_ZN5RiscV7r_stvecEv:
 136              	.LFB4:
  37:src/RiscV.cpp **** 
  38:src/RiscV.cpp **** // --- STVEC manipulacija ---
  39:src/RiscV.cpp **** uint64 RiscV::r_stvec() {
 137              		.loc 1 39 25 is_stmt 1
 138              		.cfi_startproc
 139 0070 130101FF 		addi	sp,sp,-16
 140              		.cfi_def_cfa_offset 16
 141 0074 23348100 		sd	s0,8(sp)
GAS LISTING /tmp/ccPVViy6.s 			page 4


 142              		.cfi_offset 8, -8
 143 0078 13040101 		addi	s0,sp,16
 144              		.cfi_def_cfa 8, 0
  40:src/RiscV.cpp ****     uint64 val;
 145              		.loc 1 40 5
  41:src/RiscV.cpp ****     __asm__ volatile("csrr %[val], stvec" : [val] "=r"(val));
 146              		.loc 1 41 5
 147              		.loc 1 41 61 is_stmt 0
 148              	#APP
 149              	# 41 "src/RiscV.cpp" 1
  42              	    return val;
 150              		csrr a0, stvec
 151              	# 0 "" 2
 152              	.LVL4:
 153              		.loc 1 42 5 is_stmt 1
  43:src/RiscV.cpp **** }
 154              		.loc 1 43 1 is_stmt 0
 155              	#NO_APP
 156 0080 03348100 		ld	s0,8(sp)
 157              		.cfi_restore 8
 158              		.cfi_def_cfa 2, 16
 159 0084 13010101 		addi	sp,sp,16
 160              		.cfi_def_cfa_offset 0
 161 0088 67800000 		jr	ra
 162              		.cfi_endproc
 163              	.LFE4:
 165              		.align	2
 166              		.globl	_ZN5RiscV7w_stvecEm
 168              	_ZN5RiscV7w_stvecEm:
 169              	.LFB5:
  44:src/RiscV.cpp **** 
  45:src/RiscV.cpp **** void RiscV::w_stvec(uint64 val) {
 170              		.loc 1 45 33 is_stmt 1
 171              		.cfi_startproc
 172              	.LVL5:
 173 008c 130101FF 		addi	sp,sp,-16
 174              		.cfi_def_cfa_offset 16
 175 0090 23348100 		sd	s0,8(sp)
 176              		.cfi_offset 8, -8
 177 0094 13040101 		addi	s0,sp,16
 178              		.cfi_def_cfa 8, 0
  46:src/RiscV.cpp ****     __asm__ volatile("csrw stvec, %[val]" :: [val] "r"(val));
 179              		.loc 1 46 5
 180              		.loc 1 46 61 is_stmt 0
 181              	#APP
 182              	# 46 "src/RiscV.cpp" 1
  47              	}
 183              		csrw stvec, a0
 184              	# 0 "" 2
 185              		.loc 1 47 1
 186              	#NO_APP
 187 009c 03348100 		ld	s0,8(sp)
 188              		.cfi_restore 8
 189              		.cfi_def_cfa 2, 16
 190 00a0 13010101 		addi	sp,sp,16
 191              		.cfi_def_cfa_offset 0
 192 00a4 67800000 		jr	ra
GAS LISTING /tmp/ccPVViy6.s 			page 5


 193              		.cfi_endproc
 194              	.LFE5:
 196              		.align	2
 197              		.globl	_ZN5RiscV6r_sepcEv
 199              	_ZN5RiscV6r_sepcEv:
 200              	.LFB6:
  48:src/RiscV.cpp **** 
  49:src/RiscV.cpp **** // --- SEPC manipulacija ---
  50:src/RiscV.cpp **** 
  51:src/RiscV.cpp **** 
  52:src/RiscV.cpp ****  uint64 RiscV::r_sepc() {
 201              		.loc 1 52 25 is_stmt 1
 202              		.cfi_startproc
 203 00a8 130101FF 		addi	sp,sp,-16
 204              		.cfi_def_cfa_offset 16
 205 00ac 23348100 		sd	s0,8(sp)
 206              		.cfi_offset 8, -8
 207 00b0 13040101 		addi	s0,sp,16
 208              		.cfi_def_cfa 8, 0
  53:src/RiscV.cpp ****     uint64 val;
 209              		.loc 1 53 5
  54:src/RiscV.cpp ****     __asm__ volatile("csrr %0, sepc" : "=r"(val));
 210              		.loc 1 54 5
 211              		.loc 1 54 50 is_stmt 0
 212              	#APP
 213              	# 54 "src/RiscV.cpp" 1
  55              	    last_sepc = val;
 214              		csrr a0, sepc
 215              	# 0 "" 2
 216              	.LVL6:
 217              		.loc 1 55 5 is_stmt 1
 218              		.loc 1 55 15 is_stmt 0
 219              	#NO_APP
 220 00b8 97070000 		sd	a0,.LANCHOR0,a5
 220      23B0A700 
  56:src/RiscV.cpp ****     return val;
 221              		.loc 1 56 5 is_stmt 1
  57:src/RiscV.cpp **** }
 222              		.loc 1 57 1 is_stmt 0
 223 00c0 03348100 		ld	s0,8(sp)
 224              		.cfi_restore 8
 225              		.cfi_def_cfa 2, 16
 226 00c4 13010101 		addi	sp,sp,16
 227              		.cfi_def_cfa_offset 0
 228 00c8 67800000 		jr	ra
 229              		.cfi_endproc
 230              	.LFE6:
 232              		.align	2
 233              		.globl	_ZN5RiscV9r_sstatusEv
 235              	_ZN5RiscV9r_sstatusEv:
 236              	.LFB7:
  58:src/RiscV.cpp **** 
  59:src/RiscV.cpp ****  uint64 RiscV::r_sstatus() {
 237              		.loc 1 59 28 is_stmt 1
 238              		.cfi_startproc
 239 00cc 130101FF 		addi	sp,sp,-16
 240              		.cfi_def_cfa_offset 16
GAS LISTING /tmp/ccPVViy6.s 			page 6


 241 00d0 23348100 		sd	s0,8(sp)
 242              		.cfi_offset 8, -8
 243 00d4 13040101 		addi	s0,sp,16
 244              		.cfi_def_cfa 8, 0
  60:src/RiscV.cpp ****     uint64 val;
 245              		.loc 1 60 5
  61:src/RiscV.cpp ****     __asm__ volatile("csrr %0, sstatus" : "=r"(val));
 246              		.loc 1 61 5
 247              		.loc 1 61 53 is_stmt 0
 248              	#APP
 249              	# 61 "src/RiscV.cpp" 1
  62              	    last_sstatus = val;
 250              		csrr a0, sstatus
 251              	# 0 "" 2
 252              	.LVL7:
 253              		.loc 1 62 5 is_stmt 1
 254              		.loc 1 62 18 is_stmt 0
 255              	#NO_APP
 256 00dc 97070000 		sd	a0,.LANCHOR0+8,a5
 256      23B0A700 
  63:src/RiscV.cpp ****     return val;
 257              		.loc 1 63 5 is_stmt 1
  64:src/RiscV.cpp **** }
 258              		.loc 1 64 1 is_stmt 0
 259 00e4 03348100 		ld	s0,8(sp)
 260              		.cfi_restore 8
 261              		.cfi_def_cfa 2, 16
 262 00e8 13010101 		addi	sp,sp,16
 263              		.cfi_def_cfa_offset 0
 264 00ec 67800000 		jr	ra
 265              		.cfi_endproc
 266              	.LFE7:
 268              		.align	2
 269              		.globl	_ZN5RiscV10ms_sstatusEm
 271              	_ZN5RiscV10ms_sstatusEm:
 272              	.LFB8:
  65:src/RiscV.cpp **** // --- SSTATUS manipulacija ---
  66:src/RiscV.cpp **** void RiscV::ms_sstatus(uint64 mask) {
 273              		.loc 1 66 37 is_stmt 1
 274              		.cfi_startproc
 275              	.LVL8:
 276 00f0 130101FF 		addi	sp,sp,-16
 277              		.cfi_def_cfa_offset 16
 278 00f4 23348100 		sd	s0,8(sp)
 279              		.cfi_offset 8, -8
 280 00f8 13040101 		addi	s0,sp,16
 281              		.cfi_def_cfa 8, 0
  67:src/RiscV.cpp ****     __asm__ volatile("csrs sstatus, %[mask]" :: [mask] "r"(mask));
 282              		.loc 1 67 5
 283              		.loc 1 67 66 is_stmt 0
 284              	#APP
 285              	# 67 "src/RiscV.cpp" 1
  68              	}
 286              		csrs sstatus, a0
 287              	# 0 "" 2
 288              		.loc 1 68 1
 289              	#NO_APP
GAS LISTING /tmp/ccPVViy6.s 			page 7


 290 0100 03348100 		ld	s0,8(sp)
 291              		.cfi_restore 8
 292              		.cfi_def_cfa 2, 16
 293 0104 13010101 		addi	sp,sp,16
 294              		.cfi_def_cfa_offset 0
 295 0108 67800000 		jr	ra
 296              		.cfi_endproc
 297              	.LFE8:
 299              		.align	2
 300              		.globl	_ZN5RiscV10mc_sstatusEm
 302              	_ZN5RiscV10mc_sstatusEm:
 303              	.LFB9:
  69:src/RiscV.cpp **** 
  70:src/RiscV.cpp **** void RiscV::mc_sstatus(uint64 mask) {
 304              		.loc 1 70 37 is_stmt 1
 305              		.cfi_startproc
 306              	.LVL9:
 307 010c 130101FF 		addi	sp,sp,-16
 308              		.cfi_def_cfa_offset 16
 309 0110 23348100 		sd	s0,8(sp)
 310              		.cfi_offset 8, -8
 311 0114 13040101 		addi	s0,sp,16
 312              		.cfi_def_cfa 8, 0
  71:src/RiscV.cpp ****     __asm__ volatile("csrc sstatus, %[mask]" :: [mask] "r"(mask));
 313              		.loc 1 71 5
 314              		.loc 1 71 66 is_stmt 0
 315              	#APP
 316              	# 71 "src/RiscV.cpp" 1
  72              	}
 317              		csrc sstatus, a0
 318              	# 0 "" 2
 319              		.loc 1 72 1
 320              	#NO_APP
 321 011c 03348100 		ld	s0,8(sp)
 322              		.cfi_restore 8
 323              		.cfi_def_cfa 2, 16
 324 0120 13010101 		addi	sp,sp,16
 325              		.cfi_def_cfa_offset 0
 326 0124 67800000 		jr	ra
 327              		.cfi_endproc
 328              	.LFE9:
 330              		.align	2
 331              		.globl	_ZN5RiscV9w_sstatusEm
 333              	_ZN5RiscV9w_sstatusEm:
 334              	.LFB10:
  73:src/RiscV.cpp **** 
  74:src/RiscV.cpp **** 
  75:src/RiscV.cpp **** 
  76:src/RiscV.cpp **** void RiscV::w_sstatus(uint64 val) {
 335              		.loc 1 76 35 is_stmt 1
 336              		.cfi_startproc
 337              	.LVL10:
 338 0128 130101FF 		addi	sp,sp,-16
 339              		.cfi_def_cfa_offset 16
 340 012c 23348100 		sd	s0,8(sp)
 341              		.cfi_offset 8, -8
 342 0130 13040101 		addi	s0,sp,16
GAS LISTING /tmp/ccPVViy6.s 			page 8


 343              		.cfi_def_cfa 8, 0
  77:src/RiscV.cpp ****     __asm__ volatile("csrw sstatus, %[val]" :: [val] "r"(val));
 344              		.loc 1 77 5
 345              		.loc 1 77 63 is_stmt 0
 346              	#APP
 347              	# 77 "src/RiscV.cpp" 1
  78              	}
 348              		csrw sstatus, a0
 349              	# 0 "" 2
 350              		.loc 1 78 1
 351              	#NO_APP
 352 0138 03348100 		ld	s0,8(sp)
 353              		.cfi_restore 8
 354              		.cfi_def_cfa 2, 16
 355 013c 13010101 		addi	sp,sp,16
 356              		.cfi_def_cfa_offset 0
 357 0140 67800000 		jr	ra
 358              		.cfi_endproc
 359              	.LFE10:
 361              		.align	2
 362              		.globl	_ZN5RiscV4r_raEv
 364              	_ZN5RiscV4r_raEv:
 365              	.LFB11:
  79:src/RiscV.cpp **** 
  80:src/RiscV.cpp **** 
  81:src/RiscV.cpp **** uint64 RiscV::r_ra() {
 366              		.loc 1 81 22 is_stmt 1
 367              		.cfi_startproc
 368 0144 130101FF 		addi	sp,sp,-16
 369              		.cfi_def_cfa_offset 16
 370 0148 23348100 		sd	s0,8(sp)
 371              		.cfi_offset 8, -8
 372 014c 13040101 		addi	s0,sp,16
 373              		.cfi_def_cfa 8, 0
  82:src/RiscV.cpp ****     uint64 val;
 374              		.loc 1 82 5
  83:src/RiscV.cpp ****     __asm__ volatile("mv %[val], ra" : [val] "=r"(val));
 375              		.loc 1 83 5
 376              		.loc 1 83 56 is_stmt 0
 377              	#APP
 378              	# 83 "src/RiscV.cpp" 1
  84              	    return val;
 379              		mv a0, ra
 380              	# 0 "" 2
 381              	.LVL11:
 382              		.loc 1 84 5 is_stmt 1
  85:src/RiscV.cpp **** }
 383              		.loc 1 85 1 is_stmt 0
 384              	#NO_APP
 385 0154 03348100 		ld	s0,8(sp)
 386              		.cfi_restore 8
 387              		.cfi_def_cfa 2, 16
 388 0158 13010101 		addi	sp,sp,16
 389              		.cfi_def_cfa_offset 0
 390 015c 67800000 		jr	ra
 391              		.cfi_endproc
 392              	.LFE11:
GAS LISTING /tmp/ccPVViy6.s 			page 9


 394              		.align	2
 395              		.globl	_ZN5RiscV4w_raEm
 397              	_ZN5RiscV4w_raEm:
 398              	.LFB12:
  86:src/RiscV.cpp **** 
  87:src/RiscV.cpp **** void RiscV::w_ra(uint64 val) {
 399              		.loc 1 87 30 is_stmt 1
 400              		.cfi_startproc
 401              	.LVL12:
 402 0160 130101FF 		addi	sp,sp,-16
 403              		.cfi_def_cfa_offset 16
 404 0164 23348100 		sd	s0,8(sp)
 405              		.cfi_offset 8, -8
 406 0168 13040101 		addi	s0,sp,16
 407              		.cfi_def_cfa 8, 0
  88:src/RiscV.cpp ****     __asm__ volatile("mv ra, %[val]" :: [val] "r"(val));
 408              		.loc 1 88 5
 409              		.loc 1 88 56 is_stmt 0
 410              	#APP
 411              	# 88 "src/RiscV.cpp" 1
  89              	}
 412              		mv ra, a0
 413              	# 0 "" 2
 414              		.loc 1 89 1
 415              	#NO_APP
 416 0170 03348100 		ld	s0,8(sp)
 417              		.cfi_restore 8
 418              		.cfi_def_cfa 2, 16
 419 0174 13010101 		addi	sp,sp,16
 420              		.cfi_def_cfa_offset 0
 421 0178 67800000 		jr	ra
 422              		.cfi_endproc
 423              	.LFE12:
 425              		.align	2
 426              		.globl	_ZN5RiscV6w_sepcEm
 428              	_ZN5RiscV6w_sepcEm:
 429              	.LFB13:
  90:src/RiscV.cpp **** 
  91:src/RiscV.cpp **** void RiscV::w_sepc(uint64 val) {
 430              		.loc 1 91 32 is_stmt 1
 431              		.cfi_startproc
 432              	.LVL13:
 433 017c 130101FF 		addi	sp,sp,-16
 434              		.cfi_def_cfa_offset 16
 435 0180 23348100 		sd	s0,8(sp)
 436              		.cfi_offset 8, -8
 437 0184 13040101 		addi	s0,sp,16
 438              		.cfi_def_cfa 8, 0
  92:src/RiscV.cpp ****     __asm__ volatile("csrw sepc, %0" :: "r"(val));
 439              		.loc 1 92 5
 440              		.loc 1 92 50 is_stmt 0
 441              	#APP
 442              	# 92 "src/RiscV.cpp" 1
  93              	}
 443              		csrw sepc, a0
 444              	# 0 "" 2
 445              		.loc 1 93 1
GAS LISTING /tmp/ccPVViy6.s 			page 10


 446              	#NO_APP
 447 018c 03348100 		ld	s0,8(sp)
 448              		.cfi_restore 8
 449              		.cfi_def_cfa 2, 16
 450 0190 13010101 		addi	sp,sp,16
 451              		.cfi_def_cfa_offset 0
 452 0194 67800000 		jr	ra
 453              		.cfi_endproc
 454              	.LFE13:
 456              		.align	2
 457              		.globl	_ZN5RiscV16switchToUserModeEv
 459              	_ZN5RiscV16switchToUserModeEv:
 460              	.LFB14:
  94:src/RiscV.cpp **** 
  95:src/RiscV.cpp **** 
  96:src/RiscV.cpp **** void RiscV::switchToUserMode(){
 461              		.loc 1 96 31 is_stmt 1
 462              		.cfi_startproc
 463 0198 130101FF 		addi	sp,sp,-16
 464              		.cfi_def_cfa_offset 16
 465 019c 23348100 		sd	s0,8(sp)
 466              		.cfi_offset 8, -8
 467 01a0 13040101 		addi	s0,sp,16
 468              		.cfi_def_cfa 8, 0
  97:src/RiscV.cpp ****     __asm__ volatile("csrc sstatus, %0" ::"r"(SSTATUS_SPP)); // prebaci u U-mode
 469              		.loc 1 97 5
 470              		.loc 1 97 60 is_stmt 0
 471 01a4 93070010 		li	a5,256
 472              	#APP
 473              	# 97 "src/RiscV.cpp" 1
  98              	    __asm__  volatile("csrw sepc, ra");
 474              		csrc sstatus, a5
 475              	# 0 "" 2
 476              		.loc 1 98 5 is_stmt 1
 477              		.loc 1 98 39 is_stmt 0
 478              	# 98 "src/RiscV.cpp" 1
  99              	    __asm__  volatile("sret");
 479              		csrw sepc, ra
 480              	# 0 "" 2
 481              		.loc 1 99 5 is_stmt 1
 482              		.loc 1 99 30 is_stmt 0
 483              	# 99 "src/RiscV.cpp" 1
 100              	}
 484              		sret
 485              	# 0 "" 2
 486              		.loc 1 100 1
 487              	#NO_APP
 488 01b4 03348100 		ld	s0,8(sp)
 489              		.cfi_restore 8
 490              		.cfi_def_cfa 2, 16
 491 01b8 13010101 		addi	sp,sp,16
 492              		.cfi_def_cfa_offset 0
 493 01bc 67800000 		jr	ra
 494              		.cfi_endproc
 495              	.LFE14:
 497              		.align	2
 498              		.globl	_ZN5RiscV11w_last_sepcEv
GAS LISTING /tmp/ccPVViy6.s 			page 11


 500              	_ZN5RiscV11w_last_sepcEv:
 501              	.LFB15:
 101:src/RiscV.cpp **** 
 102:src/RiscV.cpp **** void RiscV::w_last_sepc() {
 502              		.loc 1 102 27 is_stmt 1
 503              		.cfi_startproc
 504 01c0 130101FF 		addi	sp,sp,-16
 505              		.cfi_def_cfa_offset 16
 506 01c4 23348100 		sd	s0,8(sp)
 507              		.cfi_offset 8, -8
 508 01c8 13040101 		addi	s0,sp,16
 509              		.cfi_def_cfa 8, 0
 103:src/RiscV.cpp ****     __asm__ volatile("csrw sepc, %0" :: "r"(last_sepc));
 510              		.loc 1 103 5
 511              		.loc 1 103 56 is_stmt 0
 512 01cc 97070000 		ld	a5,.LANCHOR0
 512      83B70700 
 513              	#APP
 514              	# 103 "src/RiscV.cpp" 1
 104              	}
 515              		csrw sepc, a5
 516              	# 0 "" 2
 517              		.loc 1 104 1
 518              	#NO_APP
 519 01d8 03348100 		ld	s0,8(sp)
 520              		.cfi_restore 8
 521              		.cfi_def_cfa 2, 16
 522 01dc 13010101 		addi	sp,sp,16
 523              		.cfi_def_cfa_offset 0
 524 01e0 67800000 		jr	ra
 525              		.cfi_endproc
 526              	.LFE15:
 528              		.align	2
 529              		.globl	_ZN5RiscV14w_last_sstatusEv
 531              	_ZN5RiscV14w_last_sstatusEv:
 532              	.LFB16:
 105:src/RiscV.cpp **** 
 106:src/RiscV.cpp **** void RiscV::w_last_sstatus() {
 533              		.loc 1 106 30 is_stmt 1
 534              		.cfi_startproc
 535 01e4 130101FF 		addi	sp,sp,-16
 536              		.cfi_def_cfa_offset 16
 537 01e8 23348100 		sd	s0,8(sp)
 538              		.cfi_offset 8, -8
 539 01ec 13040101 		addi	s0,sp,16
 540              		.cfi_def_cfa 8, 0
 107:src/RiscV.cpp ****     __asm__ volatile("csrw sstatus, %0" :: "r"(last_sstatus));
 541              		.loc 1 107 5
 542              		.loc 1 107 62 is_stmt 0
 543 01f0 97070000 		ld	a5,.LANCHOR0+8
 543      83B70700 
 544              	#APP
 545              	# 107 "src/RiscV.cpp" 1
 108              	}
 546              		csrw sstatus, a5
 547              	# 0 "" 2
 548              		.loc 1 108 1
GAS LISTING /tmp/ccPVViy6.s 			page 12


 549              	#NO_APP
 550 01fc 03348100 		ld	s0,8(sp)
 551              		.cfi_restore 8
 552              		.cfi_def_cfa 2, 16
 553 0200 13010101 		addi	sp,sp,16
 554              		.cfi_def_cfa_offset 0
 555 0204 67800000 		jr	ra
 556              		.cfi_endproc
 557              	.LFE16:
 559              		.align	2
 560              		.globl	_ZN5RiscV8r_scauseEv
 562              	_ZN5RiscV8r_scauseEv:
 563              	.LFB17:
 109:src/RiscV.cpp **** uint64 RiscV::r_scause() {
 564              		.loc 1 109 26 is_stmt 1
 565              		.cfi_startproc
 566 0208 130101FF 		addi	sp,sp,-16
 567              		.cfi_def_cfa_offset 16
 568 020c 23348100 		sd	s0,8(sp)
 569              		.cfi_offset 8, -8
 570 0210 13040101 		addi	s0,sp,16
 571              		.cfi_def_cfa 8, 0
 110:src/RiscV.cpp ****     uint64 val;
 572              		.loc 1 110 5
 111:src/RiscV.cpp ****     __asm__ volatile("csrr %0, scause" : "=r"(val));
 573              		.loc 1 111 5
 574              		.loc 1 111 52 is_stmt 0
 575              	#APP
 576              	# 111 "src/RiscV.cpp" 1
 112              	
 577              		csrr a0, scause
 578              	# 0 "" 2
 579              	.LVL14:
 113:src/RiscV.cpp ****     return val;
 580              		.loc 1 113 5 is_stmt 1
 114:src/RiscV.cpp **** }...
 581              		.loc 1 114 1 is_stmt 0
 582              	#NO_APP
 583 0218 03348100 		ld	s0,8(sp)
 584              		.cfi_restore 8
 585              		.cfi_def_cfa 2, 16
 586 021c 13010101 		addi	sp,sp,16
 587              		.cfi_def_cfa_offset 0
 588 0220 67800000 		jr	ra
 589              		.cfi_endproc
 590              	.LFE17:
 592              		.globl	_ZN5RiscV12last_sstatusE
 593              		.globl	_ZN5RiscV9last_sepcE
 594              		.bss
 595              		.align	3
 596              		.set	.LANCHOR0,. + 0
 599              	_ZN5RiscV9last_sepcE:
 600 0000 00000000 		.zero	8
 600      00000000 
 603              	_ZN5RiscV12last_sstatusE:
 604 0008 00000000 		.zero	8
 604      00000000 
GAS LISTING /tmp/ccPVViy6.s 			page 13


 605              		.text
 606              	.Letext0:
 607              		.file 2 "src/../h/../lib/hw.h"
 608              		.file 3 "src/../h/RiscV.hpp"
GAS LISTING /tmp/ccPVViy6.s 			page 14


DEFINED SYMBOLS
                            *ABS*:0000000000000000 RiscV.cpp
     /tmp/ccPVViy6.s:9      .text:0000000000000000 _ZN5RiscV23initialSstatusForThreadEv
     /tmp/ccPVViy6.s:13     .text:0000000000000000 .L0 
     /tmp/ccPVViy6.s:14     .text:0000000000000000 .L0 
     /tmp/ccPVViy6.s:15     .text:0000000000000004 .L0 
     /tmp/ccPVViy6.s:17     .text:0000000000000008 .L0 
     /tmp/ccPVViy6.s:19     .text:000000000000000c .L0 
     /tmp/ccPVViy6.s:22     .text:000000000000000c .L0 
     /tmp/ccPVViy6.s:23     .text:000000000000000c .L0 
     /tmp/ccPVViy6.s:24     .text:000000000000000c .L0 
     /tmp/ccPVViy6.s:25     .text:000000000000000c .L0 
     /tmp/ccPVViy6.s:26     .text:000000000000000c .L0 
     /tmp/ccPVViy6.s:27     .text:000000000000000c .L0 
     /tmp/ccPVViy6.s:29     .text:0000000000000014 .L0 
     /tmp/ccPVViy6.s:30     .text:0000000000000014 .L0 
     /tmp/ccPVViy6.s:32     .text:0000000000000018 .L0 
     /tmp/ccPVViy6.s:34     .text:000000000000001c .L0 
     /tmp/ccPVViy6.s:40     .text:000000000000001c _ZN5RiscV6ms_sipEm
     /tmp/ccPVViy6.s:43     .text:000000000000001c .L0 
     /tmp/ccPVViy6.s:45     .text:000000000000001c .L0 
     /tmp/ccPVViy6.s:46     .text:0000000000000020 .L0 
     /tmp/ccPVViy6.s:48     .text:0000000000000024 .L0 
     /tmp/ccPVViy6.s:50     .text:0000000000000028 .L0 
     /tmp/ccPVViy6.s:52     .text:0000000000000028 .L0 
       src/RiscV.cpp:25     .text:0000000000000028 .L0 
     /tmp/ccPVViy6.s:59     .text:000000000000002c .L0 
     /tmp/ccPVViy6.s:60     .text:0000000000000030 .L0 
     /tmp/ccPVViy6.s:61     .text:0000000000000030 .L0 
     /tmp/ccPVViy6.s:63     .text:0000000000000034 .L0 
     /tmp/ccPVViy6.s:65     .text:0000000000000038 .L0 
     /tmp/ccPVViy6.s:71     .text:0000000000000038 _ZN5RiscV6mc_sipEm
     /tmp/ccPVViy6.s:74     .text:0000000000000038 .L0 
     /tmp/ccPVViy6.s:76     .text:0000000000000038 .L0 
     /tmp/ccPVViy6.s:77     .text:000000000000003c .L0 
     /tmp/ccPVViy6.s:79     .text:0000000000000040 .L0 
     /tmp/ccPVViy6.s:81     .text:0000000000000044 .L0 
     /tmp/ccPVViy6.s:83     .text:0000000000000044 .L0 
       src/RiscV.cpp:29     .text:0000000000000044 .L0 
     /tmp/ccPVViy6.s:90     .text:0000000000000048 .L0 
     /tmp/ccPVViy6.s:91     .text:000000000000004c .L0 
     /tmp/ccPVViy6.s:92     .text:000000000000004c .L0 
     /tmp/ccPVViy6.s:94     .text:0000000000000050 .L0 
     /tmp/ccPVViy6.s:96     .text:0000000000000054 .L0 
     /tmp/ccPVViy6.s:102    .text:0000000000000054 _ZN5RiscV5r_sipEv
     /tmp/ccPVViy6.s:105    .text:0000000000000054 .L0 
     /tmp/ccPVViy6.s:106    .text:0000000000000054 .L0 
     /tmp/ccPVViy6.s:107    .text:0000000000000058 .L0 
     /tmp/ccPVViy6.s:109    .text:000000000000005c .L0 
     /tmp/ccPVViy6.s:111    .text:0000000000000060 .L0 
     /tmp/ccPVViy6.s:113    .text:0000000000000060 .L0 
     /tmp/ccPVViy6.s:114    .text:0000000000000060 .L0 
       src/RiscV.cpp:34     .text:0000000000000060 .L0 
     /tmp/ccPVViy6.s:121    .text:0000000000000064 .L0 
     /tmp/ccPVViy6.s:123    .text:0000000000000064 .L0 
     /tmp/ccPVViy6.s:124    .text:0000000000000068 .L0 
     /tmp/ccPVViy6.s:125    .text:0000000000000068 .L0 
GAS LISTING /tmp/ccPVViy6.s 			page 15


     /tmp/ccPVViy6.s:127    .text:000000000000006c .L0 
     /tmp/ccPVViy6.s:129    .text:0000000000000070 .L0 
     /tmp/ccPVViy6.s:135    .text:0000000000000070 _ZN5RiscV7r_stvecEv
     /tmp/ccPVViy6.s:138    .text:0000000000000070 .L0 
     /tmp/ccPVViy6.s:139    .text:0000000000000070 .L0 
     /tmp/ccPVViy6.s:140    .text:0000000000000074 .L0 
     /tmp/ccPVViy6.s:142    .text:0000000000000078 .L0 
     /tmp/ccPVViy6.s:144    .text:000000000000007c .L0 
     /tmp/ccPVViy6.s:146    .text:000000000000007c .L0 
     /tmp/ccPVViy6.s:147    .text:000000000000007c .L0 
       src/RiscV.cpp:41     .text:000000000000007c .L0 
     /tmp/ccPVViy6.s:154    .text:0000000000000080 .L0 
     /tmp/ccPVViy6.s:156    .text:0000000000000080 .L0 
     /tmp/ccPVViy6.s:157    .text:0000000000000084 .L0 
     /tmp/ccPVViy6.s:158    .text:0000000000000084 .L0 
     /tmp/ccPVViy6.s:160    .text:0000000000000088 .L0 
     /tmp/ccPVViy6.s:162    .text:000000000000008c .L0 
     /tmp/ccPVViy6.s:168    .text:000000000000008c _ZN5RiscV7w_stvecEm
     /tmp/ccPVViy6.s:171    .text:000000000000008c .L0 
     /tmp/ccPVViy6.s:173    .text:000000000000008c .L0 
     /tmp/ccPVViy6.s:174    .text:0000000000000090 .L0 
     /tmp/ccPVViy6.s:176    .text:0000000000000094 .L0 
     /tmp/ccPVViy6.s:178    .text:0000000000000098 .L0 
     /tmp/ccPVViy6.s:180    .text:0000000000000098 .L0 
       src/RiscV.cpp:46     .text:0000000000000098 .L0 
     /tmp/ccPVViy6.s:187    .text:000000000000009c .L0 
     /tmp/ccPVViy6.s:188    .text:00000000000000a0 .L0 
     /tmp/ccPVViy6.s:189    .text:00000000000000a0 .L0 
     /tmp/ccPVViy6.s:191    .text:00000000000000a4 .L0 
     /tmp/ccPVViy6.s:193    .text:00000000000000a8 .L0 
     /tmp/ccPVViy6.s:199    .text:00000000000000a8 _ZN5RiscV6r_sepcEv
     /tmp/ccPVViy6.s:202    .text:00000000000000a8 .L0 
     /tmp/ccPVViy6.s:203    .text:00000000000000a8 .L0 
     /tmp/ccPVViy6.s:204    .text:00000000000000ac .L0 
     /tmp/ccPVViy6.s:206    .text:00000000000000b0 .L0 
     /tmp/ccPVViy6.s:208    .text:00000000000000b4 .L0 
     /tmp/ccPVViy6.s:210    .text:00000000000000b4 .L0 
     /tmp/ccPVViy6.s:211    .text:00000000000000b4 .L0 
       src/RiscV.cpp:54     .text:00000000000000b4 .L0 
     /tmp/ccPVViy6.s:218    .text:00000000000000b8 .L0 
     /tmp/ccPVViy6.s:220    .text:00000000000000b8 .L0 
     /tmp/ccPVViy6.s:222    .text:00000000000000c0 .L0 
     /tmp/ccPVViy6.s:223    .text:00000000000000c0 .L0 
     /tmp/ccPVViy6.s:224    .text:00000000000000c4 .L0 
     /tmp/ccPVViy6.s:225    .text:00000000000000c4 .L0 
     /tmp/ccPVViy6.s:227    .text:00000000000000c8 .L0 
     /tmp/ccPVViy6.s:229    .text:00000000000000cc .L0 
     /tmp/ccPVViy6.s:235    .text:00000000000000cc _ZN5RiscV9r_sstatusEv
     /tmp/ccPVViy6.s:238    .text:00000000000000cc .L0 
     /tmp/ccPVViy6.s:239    .text:00000000000000cc .L0 
     /tmp/ccPVViy6.s:240    .text:00000000000000d0 .L0 
     /tmp/ccPVViy6.s:242    .text:00000000000000d4 .L0 
     /tmp/ccPVViy6.s:244    .text:00000000000000d8 .L0 
     /tmp/ccPVViy6.s:246    .text:00000000000000d8 .L0 
     /tmp/ccPVViy6.s:247    .text:00000000000000d8 .L0 
       src/RiscV.cpp:61     .text:00000000000000d8 .L0 
     /tmp/ccPVViy6.s:254    .text:00000000000000dc .L0 
GAS LISTING /tmp/ccPVViy6.s 			page 16


     /tmp/ccPVViy6.s:256    .text:00000000000000dc .L0 
     /tmp/ccPVViy6.s:258    .text:00000000000000e4 .L0 
     /tmp/ccPVViy6.s:259    .text:00000000000000e4 .L0 
     /tmp/ccPVViy6.s:260    .text:00000000000000e8 .L0 
     /tmp/ccPVViy6.s:261    .text:00000000000000e8 .L0 
     /tmp/ccPVViy6.s:263    .text:00000000000000ec .L0 
     /tmp/ccPVViy6.s:265    .text:00000000000000f0 .L0 
     /tmp/ccPVViy6.s:271    .text:00000000000000f0 _ZN5RiscV10ms_sstatusEm
     /tmp/ccPVViy6.s:274    .text:00000000000000f0 .L0 
     /tmp/ccPVViy6.s:276    .text:00000000000000f0 .L0 
     /tmp/ccPVViy6.s:277    .text:00000000000000f4 .L0 
     /tmp/ccPVViy6.s:279    .text:00000000000000f8 .L0 
     /tmp/ccPVViy6.s:281    .text:00000000000000fc .L0 
     /tmp/ccPVViy6.s:283    .text:00000000000000fc .L0 
       src/RiscV.cpp:67     .text:00000000000000fc .L0 
     /tmp/ccPVViy6.s:290    .text:0000000000000100 .L0 
     /tmp/ccPVViy6.s:291    .text:0000000000000104 .L0 
     /tmp/ccPVViy6.s:292    .text:0000000000000104 .L0 
     /tmp/ccPVViy6.s:294    .text:0000000000000108 .L0 
     /tmp/ccPVViy6.s:296    .text:000000000000010c .L0 
     /tmp/ccPVViy6.s:302    .text:000000000000010c _ZN5RiscV10mc_sstatusEm
     /tmp/ccPVViy6.s:305    .text:000000000000010c .L0 
     /tmp/ccPVViy6.s:307    .text:000000000000010c .L0 
     /tmp/ccPVViy6.s:308    .text:0000000000000110 .L0 
     /tmp/ccPVViy6.s:310    .text:0000000000000114 .L0 
     /tmp/ccPVViy6.s:312    .text:0000000000000118 .L0 
     /tmp/ccPVViy6.s:314    .text:0000000000000118 .L0 
       src/RiscV.cpp:71     .text:0000000000000118 .L0 
     /tmp/ccPVViy6.s:321    .text:000000000000011c .L0 
     /tmp/ccPVViy6.s:322    .text:0000000000000120 .L0 
     /tmp/ccPVViy6.s:323    .text:0000000000000120 .L0 
     /tmp/ccPVViy6.s:325    .text:0000000000000124 .L0 
     /tmp/ccPVViy6.s:327    .text:0000000000000128 .L0 
     /tmp/ccPVViy6.s:333    .text:0000000000000128 _ZN5RiscV9w_sstatusEm
     /tmp/ccPVViy6.s:336    .text:0000000000000128 .L0 
     /tmp/ccPVViy6.s:338    .text:0000000000000128 .L0 
     /tmp/ccPVViy6.s:339    .text:000000000000012c .L0 
     /tmp/ccPVViy6.s:341    .text:0000000000000130 .L0 
     /tmp/ccPVViy6.s:343    .text:0000000000000134 .L0 
     /tmp/ccPVViy6.s:345    .text:0000000000000134 .L0 
       src/RiscV.cpp:77     .text:0000000000000134 .L0 
     /tmp/ccPVViy6.s:352    .text:0000000000000138 .L0 
     /tmp/ccPVViy6.s:353    .text:000000000000013c .L0 
     /tmp/ccPVViy6.s:354    .text:000000000000013c .L0 
     /tmp/ccPVViy6.s:356    .text:0000000000000140 .L0 
     /tmp/ccPVViy6.s:358    .text:0000000000000144 .L0 
     /tmp/ccPVViy6.s:364    .text:0000000000000144 _ZN5RiscV4r_raEv
     /tmp/ccPVViy6.s:367    .text:0000000000000144 .L0 
     /tmp/ccPVViy6.s:368    .text:0000000000000144 .L0 
     /tmp/ccPVViy6.s:369    .text:0000000000000148 .L0 
     /tmp/ccPVViy6.s:371    .text:000000000000014c .L0 
     /tmp/ccPVViy6.s:373    .text:0000000000000150 .L0 
     /tmp/ccPVViy6.s:375    .text:0000000000000150 .L0 
     /tmp/ccPVViy6.s:376    .text:0000000000000150 .L0 
       src/RiscV.cpp:83     .text:0000000000000150 .L0 
     /tmp/ccPVViy6.s:383    .text:0000000000000154 .L0 
     /tmp/ccPVViy6.s:385    .text:0000000000000154 .L0 
GAS LISTING /tmp/ccPVViy6.s 			page 17


     /tmp/ccPVViy6.s:386    .text:0000000000000158 .L0 
     /tmp/ccPVViy6.s:387    .text:0000000000000158 .L0 
     /tmp/ccPVViy6.s:389    .text:000000000000015c .L0 
     /tmp/ccPVViy6.s:391    .text:0000000000000160 .L0 
     /tmp/ccPVViy6.s:397    .text:0000000000000160 _ZN5RiscV4w_raEm
     /tmp/ccPVViy6.s:400    .text:0000000000000160 .L0 
     /tmp/ccPVViy6.s:402    .text:0000000000000160 .L0 
     /tmp/ccPVViy6.s:403    .text:0000000000000164 .L0 
     /tmp/ccPVViy6.s:405    .text:0000000000000168 .L0 
     /tmp/ccPVViy6.s:407    .text:000000000000016c .L0 
     /tmp/ccPVViy6.s:409    .text:000000000000016c .L0 
       src/RiscV.cpp:88     .text:000000000000016c .L0 
     /tmp/ccPVViy6.s:416    .text:0000000000000170 .L0 
     /tmp/ccPVViy6.s:417    .text:0000000000000174 .L0 
     /tmp/ccPVViy6.s:418    .text:0000000000000174 .L0 
     /tmp/ccPVViy6.s:420    .text:0000000000000178 .L0 
     /tmp/ccPVViy6.s:422    .text:000000000000017c .L0 
     /tmp/ccPVViy6.s:428    .text:000000000000017c _ZN5RiscV6w_sepcEm
     /tmp/ccPVViy6.s:431    .text:000000000000017c .L0 
     /tmp/ccPVViy6.s:433    .text:000000000000017c .L0 
     /tmp/ccPVViy6.s:434    .text:0000000000000180 .L0 
     /tmp/ccPVViy6.s:436    .text:0000000000000184 .L0 
     /tmp/ccPVViy6.s:438    .text:0000000000000188 .L0 
     /tmp/ccPVViy6.s:440    .text:0000000000000188 .L0 
       src/RiscV.cpp:92     .text:0000000000000188 .L0 
     /tmp/ccPVViy6.s:447    .text:000000000000018c .L0 
     /tmp/ccPVViy6.s:448    .text:0000000000000190 .L0 
     /tmp/ccPVViy6.s:449    .text:0000000000000190 .L0 
     /tmp/ccPVViy6.s:451    .text:0000000000000194 .L0 
     /tmp/ccPVViy6.s:453    .text:0000000000000198 .L0 
     /tmp/ccPVViy6.s:459    .text:0000000000000198 _ZN5RiscV16switchToUserModeEv
     /tmp/ccPVViy6.s:462    .text:0000000000000198 .L0 
     /tmp/ccPVViy6.s:463    .text:0000000000000198 .L0 
     /tmp/ccPVViy6.s:464    .text:000000000000019c .L0 
     /tmp/ccPVViy6.s:466    .text:00000000000001a0 .L0 
     /tmp/ccPVViy6.s:468    .text:00000000000001a4 .L0 
     /tmp/ccPVViy6.s:470    .text:00000000000001a4 .L0 
     /tmp/ccPVViy6.s:471    .text:00000000000001a4 .L0 
     /tmp/ccPVViy6.s:477    .text:00000000000001ac .L0 
       src/RiscV.cpp:98     .text:00000000000001ac .L0 
     /tmp/ccPVViy6.s:482    .text:00000000000001b0 .L0 
       src/RiscV.cpp:99     .text:00000000000001b0 .L0 
     /tmp/ccPVViy6.s:488    .text:00000000000001b4 .L0 
     /tmp/ccPVViy6.s:489    .text:00000000000001b8 .L0 
     /tmp/ccPVViy6.s:490    .text:00000000000001b8 .L0 
     /tmp/ccPVViy6.s:492    .text:00000000000001bc .L0 
     /tmp/ccPVViy6.s:494    .text:00000000000001c0 .L0 
     /tmp/ccPVViy6.s:500    .text:00000000000001c0 _ZN5RiscV11w_last_sepcEv
     /tmp/ccPVViy6.s:503    .text:00000000000001c0 .L0 
     /tmp/ccPVViy6.s:504    .text:00000000000001c0 .L0 
     /tmp/ccPVViy6.s:505    .text:00000000000001c4 .L0 
     /tmp/ccPVViy6.s:507    .text:00000000000001c8 .L0 
     /tmp/ccPVViy6.s:509    .text:00000000000001cc .L0 
     /tmp/ccPVViy6.s:511    .text:00000000000001cc .L0 
     /tmp/ccPVViy6.s:512    .text:00000000000001cc .L0 
     /tmp/ccPVViy6.s:519    .text:00000000000001d8 .L0 
     /tmp/ccPVViy6.s:520    .text:00000000000001dc .L0 
GAS LISTING /tmp/ccPVViy6.s 			page 18


     /tmp/ccPVViy6.s:521    .text:00000000000001dc .L0 
     /tmp/ccPVViy6.s:523    .text:00000000000001e0 .L0 
     /tmp/ccPVViy6.s:525    .text:00000000000001e4 .L0 
     /tmp/ccPVViy6.s:531    .text:00000000000001e4 _ZN5RiscV14w_last_sstatusEv
     /tmp/ccPVViy6.s:534    .text:00000000000001e4 .L0 
     /tmp/ccPVViy6.s:535    .text:00000000000001e4 .L0 
     /tmp/ccPVViy6.s:536    .text:00000000000001e8 .L0 
     /tmp/ccPVViy6.s:538    .text:00000000000001ec .L0 
     /tmp/ccPVViy6.s:540    .text:00000000000001f0 .L0 
     /tmp/ccPVViy6.s:542    .text:00000000000001f0 .L0 
     /tmp/ccPVViy6.s:543    .text:00000000000001f0 .L0 
     /tmp/ccPVViy6.s:550    .text:00000000000001fc .L0 
     /tmp/ccPVViy6.s:551    .text:0000000000000200 .L0 
     /tmp/ccPVViy6.s:552    .text:0000000000000200 .L0 
     /tmp/ccPVViy6.s:554    .text:0000000000000204 .L0 
     /tmp/ccPVViy6.s:556    .text:0000000000000208 .L0 
     /tmp/ccPVViy6.s:562    .text:0000000000000208 _ZN5RiscV8r_scauseEv
     /tmp/ccPVViy6.s:565    .text:0000000000000208 .L0 
     /tmp/ccPVViy6.s:566    .text:0000000000000208 .L0 
     /tmp/ccPVViy6.s:567    .text:000000000000020c .L0 
     /tmp/ccPVViy6.s:569    .text:0000000000000210 .L0 
     /tmp/ccPVViy6.s:571    .text:0000000000000214 .L0 
     /tmp/ccPVViy6.s:573    .text:0000000000000214 .L0 
     /tmp/ccPVViy6.s:574    .text:0000000000000214 .L0 
       src/RiscV.cpp:111    .text:0000000000000214 .L0 
     /tmp/ccPVViy6.s:581    .text:0000000000000218 .L0 
     /tmp/ccPVViy6.s:583    .text:0000000000000218 .L0 
     /tmp/ccPVViy6.s:584    .text:000000000000021c .L0 
     /tmp/ccPVViy6.s:585    .text:000000000000021c .L0 
     /tmp/ccPVViy6.s:587    .text:0000000000000220 .L0 
     /tmp/ccPVViy6.s:589    .text:0000000000000224 .L0 
     /tmp/ccPVViy6.s:603    .bss:0000000000000008 _ZN5RiscV12last_sstatusE
     /tmp/ccPVViy6.s:599    .bss:0000000000000000 _ZN5RiscV9last_sepcE
     /tmp/ccPVViy6.s:596    .bss:0000000000000000 .LANCHOR0
     /tmp/ccPVViy6.s:609    .text:0000000000000224 .L0 
     /tmp/ccPVViy6.s:220    .text:00000000000000b8 .L0 
     /tmp/ccPVViy6.s:256    .text:00000000000000dc .L0 
     /tmp/ccPVViy6.s:512    .text:00000000000001cc .L0 
     /tmp/ccPVViy6.s:543    .text:00000000000001f0 .L0 
     /tmp/ccPVViy6.s:1275   .debug_abbrev:0000000000000000 .Ldebug_abbrev0
     /tmp/ccPVViy6.s:1774   .debug_str:00000000000001d0 .LASF63
     /tmp/ccPVViy6.s:1768   .debug_str:00000000000001ab .LASF64
     /tmp/ccPVViy6.s:1812   .debug_str:0000000000000391 .LASF65
     /tmp/ccPVViy6.s:5      .text:0000000000000000 .Ltext0
     /tmp/ccPVViy6.s:606    .text:0000000000000224 .Letext0
     /tmp/ccPVViy6.s:1712   .debug_line:0000000000000000 .Ldebug_line0
     /tmp/ccPVViy6.s:1790   .debug_str:00000000000002db .LASF0
     /tmp/ccPVViy6.s:1758   .debug_str:0000000000000152 .LASF1
     /tmp/ccPVViy6.s:1748   .debug_str:0000000000000105 .LASF2
     /tmp/ccPVViy6.s:1724   .debug_str:0000000000000039 .LASF4
     /tmp/ccPVViy6.s:1754   .debug_str:0000000000000138 .LASF3
     /tmp/ccPVViy6.s:1716   .debug_str:0000000000000013 .LASF5
     /tmp/ccPVViy6.s:1714   .debug_str:0000000000000000 .LASF6
     /tmp/ccPVViy6.s:1742   .debug_str:00000000000000cd .LASF7
     /tmp/ccPVViy6.s:1838   .debug_str:0000000000000489 .LASF8
     /tmp/ccPVViy6.s:1804   .debug_str:0000000000000340 .LASF9
     /tmp/ccPVViy6.s:1722   .debug_str:000000000000002b .LASF10
GAS LISTING /tmp/ccPVViy6.s 			page 19


     /tmp/ccPVViy6.s:1848   .debug_str:00000000000004c6 .LASF11
     /tmp/ccPVViy6.s:1746   .debug_str:00000000000000f6 .LASF12
     /tmp/ccPVViy6.s:1836   .debug_str:0000000000000479 .LASF13
     /tmp/ccPVViy6.s:1800   .debug_str:0000000000000324 .LASF14
     /tmp/ccPVViy6.s:1762   .debug_str:0000000000000179 .LASF15
     /tmp/ccPVViy6.s:1734   .debug_str:0000000000000086 .LASF16
     /tmp/ccPVViy6.s:1808   .debug_str:0000000000000368 .LASF17
     /tmp/ccPVViy6.s:1842   .debug_str:00000000000004a8 .LASF66
     /tmp/ccPVViy6.s:1766   .debug_str:000000000000019d .LASF67
     /tmp/ccPVViy6.s:1802   .debug_str:0000000000000334 .LASF18
     /tmp/ccPVViy6.s:1770   .debug_str:00000000000001b9 .LASF19
     /tmp/ccPVViy6.s:1822   .debug_str:00000000000003ee .LASF20
     /tmp/ccPVViy6.s:1772   .debug_str:00000000000001c6 .LASF21
     /tmp/ccPVViy6.s:1752   .debug_str:000000000000012b .LASF22
     /tmp/ccPVViy6.s:1806   .debug_str:0000000000000350 .LASF27
     /tmp/ccPVViy6.s:1824   .debug_str:00000000000003fa .LASF29
     /tmp/ccPVViy6.s:1844   .debug_str:00000000000004ae .LASF23
     /tmp/ccPVViy6.s:1788   .debug_str:00000000000002c8 .LASF25
     /tmp/ccPVViy6.s:1718   .debug_str:000000000000001a .LASF24
     /tmp/ccPVViy6.s:1726   .debug_str:0000000000000040 .LASF26
     /tmp/ccPVViy6.s:1834   .debug_str:0000000000000473 .LASF28
     /tmp/ccPVViy6.s:1814   .debug_str:00000000000003af .LASF30
     /tmp/ccPVViy6.s:1792   .debug_str:00000000000002e8 .LASF31
     /tmp/ccPVViy6.s:1796   .debug_str:00000000000002f7 .LASF32
     /tmp/ccPVViy6.s:1756   .debug_str:000000000000014a .LASF33
     /tmp/ccPVViy6.s:1760   .debug_str:0000000000000165 .LASF34
     /tmp/ccPVViy6.s:1776   .debug_str:0000000000000294 .LASF35
     /tmp/ccPVViy6.s:1736   .debug_str:000000000000009c .LASF36
     /tmp/ccPVViy6.s:1784   .debug_str:00000000000002b4 .LASF37
     /tmp/ccPVViy6.s:1846   .debug_str:00000000000004b5 .LASF38
     /tmp/ccPVViy6.s:1794   .debug_str:00000000000002f0 .LASF39
     /tmp/ccPVViy6.s:1818   .debug_str:00000000000003c6 .LASF40
     /tmp/ccPVViy6.s:1738   .debug_str:00000000000000ad .LASF41
     /tmp/ccPVViy6.s:1810   .debug_str:000000000000037e .LASF42
     /tmp/ccPVViy6.s:1828   .debug_str:000000000000043d .LASF43
     /tmp/ccPVViy6.s:1764   .debug_str:0000000000000185 .LASF44
     /tmp/ccPVViy6.s:1730   .debug_str:000000000000005f .LASF45
     /tmp/ccPVViy6.s:1750   .debug_str:0000000000000113 .LASF46
     /tmp/ccPVViy6.s:1782   .debug_str:00000000000002aa .LASF47
     /tmp/ccPVViy6.s:1744   .debug_str:00000000000000e0 .LASF48
     /tmp/ccPVViy6.s:1720   .debug_str:0000000000000021 .LASF49
     /tmp/ccPVViy6.s:1830   .debug_str:0000000000000448 .LASF50
     /tmp/ccPVViy6.s:1840   .debug_str:0000000000000497 .LASF53
     /tmp/ccPVViy6.s:1826   .debug_str:000000000000041f .LASF55
     /tmp/ccPVViy6.s:1778   .debug_str:0000000000000299 .LASF51
     /tmp/ccPVViy6.s:1820   .debug_str:00000000000003d9 .LASF52
     /tmp/ccPVViy6.s:1786   .debug_str:00000000000002b9 .LASF54
     /tmp/ccPVViy6.s:1732   .debug_str:000000000000006a .LASF56
     /tmp/ccPVViy6.s:1728   .debug_str:0000000000000053 .LASF57
     /tmp/ccPVViy6.s:1798   .debug_str:000000000000030b .LASF58
     /tmp/ccPVViy6.s:1832   .debug_str:000000000000045e .LASF59
     /tmp/ccPVViy6.s:1740   .debug_str:00000000000000b4 .LASF60
     /tmp/ccPVViy6.s:563    .text:0000000000000208 .LFB17
     /tmp/ccPVViy6.s:590    .text:0000000000000224 .LFE17
     /tmp/ccPVViy6.s:532    .text:00000000000001e4 .LFB16
     /tmp/ccPVViy6.s:557    .text:0000000000000208 .LFE16
     /tmp/ccPVViy6.s:501    .text:00000000000001c0 .LFB15
GAS LISTING /tmp/ccPVViy6.s 			page 20


     /tmp/ccPVViy6.s:526    .text:00000000000001e4 .LFE15
     /tmp/ccPVViy6.s:460    .text:0000000000000198 .LFB14
     /tmp/ccPVViy6.s:495    .text:00000000000001c0 .LFE14
     /tmp/ccPVViy6.s:429    .text:000000000000017c .LFB13
     /tmp/ccPVViy6.s:454    .text:0000000000000198 .LFE13
     /tmp/ccPVViy6.s:398    .text:0000000000000160 .LFB12
     /tmp/ccPVViy6.s:423    .text:000000000000017c .LFE12
     /tmp/ccPVViy6.s:365    .text:0000000000000144 .LFB11
     /tmp/ccPVViy6.s:392    .text:0000000000000160 .LFE11
     /tmp/ccPVViy6.s:334    .text:0000000000000128 .LFB10
     /tmp/ccPVViy6.s:359    .text:0000000000000144 .LFE10
     /tmp/ccPVViy6.s:303    .text:000000000000010c .LFB9
     /tmp/ccPVViy6.s:328    .text:0000000000000128 .LFE9
     /tmp/ccPVViy6.s:1816   .debug_str:00000000000003c1 .LASF61
     /tmp/ccPVViy6.s:272    .text:00000000000000f0 .LFB8
     /tmp/ccPVViy6.s:297    .text:000000000000010c .LFE8
     /tmp/ccPVViy6.s:236    .text:00000000000000cc .LFB7
     /tmp/ccPVViy6.s:266    .text:00000000000000f0 .LFE7
     /tmp/ccPVViy6.s:200    .text:00000000000000a8 .LFB6
     /tmp/ccPVViy6.s:230    .text:00000000000000cc .LFE6
     /tmp/ccPVViy6.s:169    .text:000000000000008c .LFB5
     /tmp/ccPVViy6.s:194    .text:00000000000000a8 .LFE5
     /tmp/ccPVViy6.s:136    .text:0000000000000070 .LFB4
     /tmp/ccPVViy6.s:163    .text:000000000000008c .LFE4
     /tmp/ccPVViy6.s:103    .text:0000000000000054 .LFB3
     /tmp/ccPVViy6.s:130    .text:0000000000000070 .LFE3
     /tmp/ccPVViy6.s:72     .text:0000000000000038 .LFB2
     /tmp/ccPVViy6.s:97     .text:0000000000000054 .LFE2
     /tmp/ccPVViy6.s:41     .text:000000000000001c .LFB1
     /tmp/ccPVViy6.s:66     .text:0000000000000038 .LFE1
     /tmp/ccPVViy6.s:10     .text:0000000000000000 .LFB0
     /tmp/ccPVViy6.s:35     .text:000000000000001c .LFE0
     /tmp/ccPVViy6.s:1780   .debug_str:00000000000002a2 .LASF62
     /tmp/ccPVViy6.s:610    .debug_info:0000000000000000 .Ldebug_info0

NO UNDEFINED SYMBOLS
