GAS LISTING /tmp/ccXEvDVn.s 			page 1


   1              		.file	"Scheduler.cpp"
   2              		.option pic
   3              		.option norelax
   4              		.text
   5              	.Ltext0:
   6              		.align	2
   7              		.globl	_ZN9SchedulerC2Ev
   9              	_ZN9SchedulerC2Ev:
  10              	.LFB2:
  11              		.file 1 "src/Scheduler.cpp"
   1:src/Scheduler.cpp **** #include "../h/Scheduler.hpp"
   2:src/Scheduler.cpp **** 
   3:src/Scheduler.cpp **** Scheduler scheduler;
   4:src/Scheduler.cpp **** 
   5:src/Scheduler.cpp **** Scheduler::Scheduler() {
  12              		.loc 1 5 1
  13              		.cfi_startproc
  14              	.LVL0:
  15 0000 130101FF 		addi	sp,sp,-16
  16              		.cfi_def_cfa_offset 16
  17 0004 23348100 		sd	s0,8(sp)
  18              		.cfi_offset 8, -8
  19 0008 13040101 		addi	s0,sp,16
  20              		.cfi_def_cfa 8, 0
  21              	.LBB2:
   6:src/Scheduler.cpp ****     head = nullptr;
  22              		.loc 1 6 5
  23              		.loc 1 6 10 is_stmt 0
  24 000c 23300500 		sd	zero,0(a0)
   7:src/Scheduler.cpp ****     tail = nullptr;
  25              		.loc 1 7 5 is_stmt 1
  26              		.loc 1 7 10 is_stmt 0
  27 0010 23340500 		sd	zero,8(a0)
  28              	.LBE2:
   8:src/Scheduler.cpp **** }
  29              		.loc 1 8 1
  30 0014 03348100 		ld	s0,8(sp)
  31              		.cfi_restore 8
  32              		.cfi_def_cfa 2, 16
  33 0018 13010101 		addi	sp,sp,16
  34              		.cfi_def_cfa_offset 0
  35 001c 67800000 		jr	ra
  36              		.cfi_endproc
  37              	.LFE2:
  39              		.globl	_ZN9SchedulerC1Ev
  40              		.set	_ZN9SchedulerC1Ev,_ZN9SchedulerC2Ev
  41              		.align	2
  43              	_Z41__static_initialization_and_destruction_0ii:
  44              	.LFB6:
   9:src/Scheduler.cpp **** 
  10:src/Scheduler.cpp **** void Scheduler::put(Thread* t){
  11:src/Scheduler.cpp ****     t->next = nullptr;
  12:src/Scheduler.cpp ****     if(!head){
  13:src/Scheduler.cpp ****         head = t;
  14:src/Scheduler.cpp ****     }
  15:src/Scheduler.cpp ****     else
  16:src/Scheduler.cpp ****     {
GAS LISTING /tmp/ccXEvDVn.s 			page 2


  17:src/Scheduler.cpp ****         tail->next = t;
  18:src/Scheduler.cpp ****     }
  19:src/Scheduler.cpp ****     tail = t;
  20:src/Scheduler.cpp **** }
  21:src/Scheduler.cpp **** 
  22:src/Scheduler.cpp **** Thread* Scheduler::get(){
  23:src/Scheduler.cpp ****     if(head == nullptr) return nullptr;
  24:src/Scheduler.cpp ****     Thread* thread = head;
  25:src/Scheduler.cpp ****     if(thread->getContext()->startedOnce)
  26:src/Scheduler.cpp ****     {
  27:src/Scheduler.cpp ****         thread->getContext()->wasActive = 1;
  28:src/Scheduler.cpp ****     }
  29:src/Scheduler.cpp ****     if(thread->getContext()->startedOnce == 0)
  30:src/Scheduler.cpp ****     {
  31:src/Scheduler.cpp ****         thread->getContext()->startedOnce = 1;
  32:src/Scheduler.cpp ****     }
  33:src/Scheduler.cpp ****     head = head->next;
  34:src/Scheduler.cpp ****     thread->next = nullptr;
  35:src/Scheduler.cpp ****     if(!head) tail = nullptr;
  36:src/Scheduler.cpp ****     return thread;
  37:src/Scheduler.cpp **** }...
  45              		.loc 1 37 1 is_stmt 1
  46              		.cfi_startproc
  47              	.LVL1:
  48 0020 93071000 		li	a5,1
  49 0024 6304F500 		beq	a0,a5,.L9
  50              	.L6:
  51 0028 67800000 		ret
  52              	.L9:
  53              		.loc 1 37 1 is_stmt 0 discriminator 1
  54 002c B7070100 		li	a5,65536
  55 0030 9387F7FF 		addi	a5,a5,-1
  56 0034 E39AF5FE 		bne	a1,a5,.L6
  57              		.loc 1 37 1
  58 0038 130101FF 		addi	sp,sp,-16
  59              		.cfi_def_cfa_offset 16
  60 003c 23341100 		sd	ra,8(sp)
  61 0040 23308100 		sd	s0,0(sp)
  62              		.cfi_offset 1, -8
  63              		.cfi_offset 8, -16
  64 0044 13040101 		addi	s0,sp,16
  65              		.cfi_def_cfa 8, 0
   3:src/Scheduler.cpp **** 
  66              		.loc 1 3 11
  67 0048 17050000 		lla	a0,.LANCHOR0
  67      13050500 
  68              	.LVL2:
  69 0050 97000000 		call	_ZN9SchedulerC1Ev
  69      E7800000 
  70              	.LVL3:
  71              		.loc 1 37 1
  72 0058 83308100 		ld	ra,8(sp)
  73              		.cfi_restore 1
  74 005c 03340100 		ld	s0,0(sp)
  75              		.cfi_restore 8
  76              		.cfi_def_cfa 2, 16
  77 0060 13010101 		addi	sp,sp,16
GAS LISTING /tmp/ccXEvDVn.s 			page 3


  78              		.cfi_def_cfa_offset 0
  79 0064 67800000 		jr	ra
  80              		.cfi_endproc
  81              	.LFE6:
  83              		.align	2
  84              		.globl	_ZN9Scheduler3putEP6Thread
  86              	_ZN9Scheduler3putEP6Thread:
  87              	.LFB4:
  10:src/Scheduler.cpp **** void Scheduler::put(Thread* t){
  88              		.loc 1 10 31 is_stmt 1
  89              		.cfi_startproc
  90              	.LVL4:
  91 0068 130101FF 		addi	sp,sp,-16
  92              		.cfi_def_cfa_offset 16
  93 006c 23348100 		sd	s0,8(sp)
  94              		.cfi_offset 8, -8
  95 0070 13040101 		addi	s0,sp,16
  96              		.cfi_def_cfa 8, 0
  11:src/Scheduler.cpp ****     t->next = nullptr;
  97              		.loc 1 11 5
  11:src/Scheduler.cpp ****     t->next = nullptr;
  98              		.loc 1 11 13 is_stmt 0
  99 0074 23B80500 		sd	zero,16(a1)
  12:src/Scheduler.cpp ****     if(!head){
 100              		.loc 1 12 5 is_stmt 1
  12:src/Scheduler.cpp ****     if(!head){
 101              		.loc 1 12 9 is_stmt 0
 102 0078 83370500 		ld	a5,0(a0)
  12:src/Scheduler.cpp ****     if(!head){
 103              		.loc 1 12 5
 104 007c 638E0700 		beqz	a5,.L14
  17:src/Scheduler.cpp ****         tail->next = t;
 105              		.loc 1 17 9 is_stmt 1
 106 0080 83378500 		ld	a5,8(a0)
  17:src/Scheduler.cpp ****         tail->next = t;
 107              		.loc 1 17 20 is_stmt 0
 108 0084 23B8B700 		sd	a1,16(a5)
 109              	.L12:
  19:src/Scheduler.cpp ****     tail = t;
 110              		.loc 1 19 5 is_stmt 1
  19:src/Scheduler.cpp ****     tail = t;
 111              		.loc 1 19 10 is_stmt 0
 112 0088 2334B500 		sd	a1,8(a0)
  20:src/Scheduler.cpp **** }
 113              		.loc 1 20 1
 114 008c 03348100 		ld	s0,8(sp)
 115              		.cfi_remember_state
 116              		.cfi_restore 8
 117              		.cfi_def_cfa 2, 16
 118 0090 13010101 		addi	sp,sp,16
 119              		.cfi_def_cfa_offset 0
 120 0094 67800000 		jr	ra
 121              	.L14:
 122              		.cfi_restore_state
  13:src/Scheduler.cpp ****         head = t;
 123              		.loc 1 13 9 is_stmt 1
  13:src/Scheduler.cpp ****         head = t;
GAS LISTING /tmp/ccXEvDVn.s 			page 4


 124              		.loc 1 13 14 is_stmt 0
 125 0098 2330B500 		sd	a1,0(a0)
 126 009c 6FF0DFFE 		j	.L12
 127              		.cfi_endproc
 128              	.LFE4:
 130              		.align	2
 131              		.globl	_ZN9Scheduler3getEv
 133              	_ZN9Scheduler3getEv:
 134              	.LFB5:
  22:src/Scheduler.cpp **** Thread* Scheduler::get(){
 135              		.loc 1 22 25 is_stmt 1
 136              		.cfi_startproc
 137              	.LVL5:
 138 00a0 130101FE 		addi	sp,sp,-32
 139              		.cfi_def_cfa_offset 32
 140 00a4 233C1100 		sd	ra,24(sp)
 141 00a8 23388100 		sd	s0,16(sp)
 142 00ac 23349100 		sd	s1,8(sp)
 143 00b0 23302101 		sd	s2,0(sp)
 144              		.cfi_offset 1, -8
 145              		.cfi_offset 8, -16
 146              		.cfi_offset 9, -24
 147              		.cfi_offset 18, -32
 148 00b4 13040102 		addi	s0,sp,32
 149              		.cfi_def_cfa 8, 0
  23:src/Scheduler.cpp ****     if(head == nullptr) return nullptr;
 150              		.loc 1 23 5
  23:src/Scheduler.cpp ****     if(head == nullptr) return nullptr;
 151              		.loc 1 23 8 is_stmt 0
 152 00b8 03390500 		ld	s2,0(a0)
  23:src/Scheduler.cpp ****     if(head == nullptr) return nullptr;
 153              		.loc 1 23 5
 154 00bc 63040904 		beqz	s2,.L15
 155 00c0 93040500 		mv	s1,a0
  24:src/Scheduler.cpp ****     Thread* thread = head;
 156              		.loc 1 24 5 is_stmt 1
 157              	.LVL6:
  25:src/Scheduler.cpp ****     if(thread->getContext()->startedOnce)
 158              		.loc 1 25 5
  25:src/Scheduler.cpp ****     if(thread->getContext()->startedOnce)
 159              		.loc 1 25 26 is_stmt 0
 160 00c4 13050900 		mv	a0,s2
 161              	.LVL7:
 162 00c8 97000000 		call	_ZN6Thread10getContextEv@plt
 162      E7800000 
 163              	.LVL8:
  25:src/Scheduler.cpp ****     if(thread->getContext()->startedOnce)
 164              		.loc 1 25 30
 165 00d0 83378503 		ld	a5,56(a0)
  25:src/Scheduler.cpp ****     if(thread->getContext()->startedOnce)
 166              		.loc 1 25 5
 167 00d4 63960704 		bnez	a5,.L20
 168              	.L17:
  29:src/Scheduler.cpp ****     if(thread->getContext()->startedOnce == 0)
 169              		.loc 1 29 5 is_stmt 1
  29:src/Scheduler.cpp ****     if(thread->getContext()->startedOnce == 0)
 170              		.loc 1 29 26 is_stmt 0
GAS LISTING /tmp/ccXEvDVn.s 			page 5


 171 00d8 13050900 		mv	a0,s2
 172 00dc 97000000 		call	_ZN6Thread10getContextEv@plt
 172      E7800000 
 173              	.LVL9:
  29:src/Scheduler.cpp ****     if(thread->getContext()->startedOnce == 0)
 174              		.loc 1 29 30
 175 00e4 83378503 		ld	a5,56(a0)
  29:src/Scheduler.cpp ****     if(thread->getContext()->startedOnce == 0)
 176              		.loc 1 29 5
 177 00e8 63880704 		beqz	a5,.L21
 178              	.L18:
  33:src/Scheduler.cpp ****     head = head->next;
 179              		.loc 1 33 5 is_stmt 1
  33:src/Scheduler.cpp ****     head = head->next;
 180              		.loc 1 33 12 is_stmt 0
 181 00ec 83B70400 		ld	a5,0(s1)
  33:src/Scheduler.cpp ****     head = head->next;
 182              		.loc 1 33 18
 183 00f0 83B70701 		ld	a5,16(a5)
  33:src/Scheduler.cpp ****     head = head->next;
 184              		.loc 1 33 10
 185 00f4 23B0F400 		sd	a5,0(s1)
  34:src/Scheduler.cpp ****     thread->next = nullptr;
 186              		.loc 1 34 5 is_stmt 1
  34:src/Scheduler.cpp ****     thread->next = nullptr;
 187              		.loc 1 34 18 is_stmt 0
 188 00f8 23380900 		sd	zero,16(s2)
  35:src/Scheduler.cpp ****     if(!head) tail = nullptr;
 189              		.loc 1 35 5 is_stmt 1
  35:src/Scheduler.cpp ****     if(!head) tail = nullptr;
 190              		.loc 1 35 9 is_stmt 0
 191 00fc 83B70400 		ld	a5,0(s1)
  35:src/Scheduler.cpp ****     if(!head) tail = nullptr;
 192              		.loc 1 35 5
 193 0100 63880704 		beqz	a5,.L22
 194              	.LVL10:
 195              	.L15:
 196              		.loc 1 37 1
 197 0104 13050900 		mv	a0,s2
 198 0108 83308101 		ld	ra,24(sp)
 199              		.cfi_remember_state
 200              		.cfi_restore 1
 201 010c 03340101 		ld	s0,16(sp)
 202              		.cfi_restore 8
 203              		.cfi_def_cfa 2, 32
 204 0110 83348100 		ld	s1,8(sp)
 205              		.cfi_restore 9
 206 0114 03390100 		ld	s2,0(sp)
 207              		.cfi_restore 18
 208 0118 13010102 		addi	sp,sp,32
 209              		.cfi_def_cfa_offset 0
 210 011c 67800000 		jr	ra
 211              	.LVL11:
 212              	.L20:
 213              		.cfi_restore_state
  27:src/Scheduler.cpp ****         thread->getContext()->wasActive = 1;
 214              		.loc 1 27 9 is_stmt 1
GAS LISTING /tmp/ccXEvDVn.s 			page 6


  27:src/Scheduler.cpp ****         thread->getContext()->wasActive = 1;
 215              		.loc 1 27 27 is_stmt 0
 216 0120 13050900 		mv	a0,s2
 217 0124 97000000 		call	_ZN6Thread10getContextEv@plt
 217      E7800000 
 218              	.LVL12:
  27:src/Scheduler.cpp ****         thread->getContext()->wasActive = 1;
 219              		.loc 1 27 41
 220 012c 93071000 		li	a5,1
 221 0130 2330F504 		sd	a5,64(a0)
 222 0134 6FF05FFA 		j	.L17
 223              	.L21:
  31:src/Scheduler.cpp ****         thread->getContext()->startedOnce = 1;
 224              		.loc 1 31 9 is_stmt 1
  31:src/Scheduler.cpp ****         thread->getContext()->startedOnce = 1;
 225              		.loc 1 31 27 is_stmt 0
 226 0138 13050900 		mv	a0,s2
 227 013c 97000000 		call	_ZN6Thread10getContextEv@plt
 227      E7800000 
 228              	.LVL13:
  31:src/Scheduler.cpp ****         thread->getContext()->startedOnce = 1;
 229              		.loc 1 31 43
 230 0144 93071000 		li	a5,1
 231 0148 233CF502 		sd	a5,56(a0)
 232 014c 6FF01FFA 		j	.L18
 233              	.L22:
  35:src/Scheduler.cpp ****     if(!head) tail = nullptr;
 234              		.loc 1 35 15 is_stmt 1 discriminator 1
  35:src/Scheduler.cpp ****     if(!head) tail = nullptr;
 235              		.loc 1 35 20 is_stmt 0 discriminator 1
 236 0150 23B40400 		sd	zero,8(s1)
 237 0154 6FF01FFB 		j	.L15
 238              		.cfi_endproc
 239              	.LFE5:
 241              		.align	2
 243              	_GLOBAL__sub_I_scheduler:
 244              	.LFB7:
 245              		.loc 1 37 1 is_stmt 1
 246              		.cfi_startproc
 247 0158 130101FF 		addi	sp,sp,-16
 248              		.cfi_def_cfa_offset 16
 249 015c 23341100 		sd	ra,8(sp)
 250 0160 23308100 		sd	s0,0(sp)
 251              		.cfi_offset 1, -8
 252              		.cfi_offset 8, -16
 253 0164 13040101 		addi	s0,sp,16
 254              		.cfi_def_cfa 8, 0
 255              		.loc 1 37 1 is_stmt 0
 256 0168 B7050100 		li	a1,65536
 257 016c 9385F5FF 		addi	a1,a1,-1
 258 0170 13051000 		li	a0,1
 259 0174 97000000 		call	_Z41__static_initialization_and_destruction_0ii
 259      E7800000 
 260              	.LVL14:
 261 017c 83308100 		ld	ra,8(sp)
 262              		.cfi_restore 1
 263 0180 03340100 		ld	s0,0(sp)
GAS LISTING /tmp/ccXEvDVn.s 			page 7


 264              		.cfi_restore 8
 265              		.cfi_def_cfa 2, 16
 266 0184 13010101 		addi	sp,sp,16
 267              		.cfi_def_cfa_offset 0
 268 0188 67800000 		jr	ra
 269              		.cfi_endproc
 270              	.LFE7:
 272              		.section	.init_array,"aw"
 273              		.align	3
 274 0000 00000000 		.dword	_GLOBAL__sub_I_scheduler
 274      00000000 
 275              		.globl	scheduler
 276              		.bss
 277              		.align	3
 278              		.set	.LANCHOR0,. + 0
 281              	scheduler:
 282 0000 00000000 		.zero	16
 282      00000000 
 282      00000000 
 282      00000000 
 283              		.text
 284              	.Letext0:
 285              		.file 2 "src/../h/../lib/hw.h"
 286              		.file 3 "src/../h/Scheduler.hpp"
 287              		.file 4 "src/../h/Thread.hpp"
GAS LISTING /tmp/ccXEvDVn.s 			page 8

