GAS LISTING /tmp/cc5z7tli.s 			page 1


   1              		.file	"Semaphore.cpp"
   2              		.option pic
   3              		.option norelax
   4              		.text
   5              	.Ltext0:
   6              		.align	2
   7              		.globl	_ZN9SemaphoreD2Ev
   9              	_ZN9SemaphoreD2Ev:
  10              	.LFB11:
  11              		.file 1 "src/Semaphore.cpp"
   1:src/Semaphore.cpp **** #include "../h/Semaphore.hpp"
   2:src/Semaphore.cpp **** #include "../h/syscall_cpp.hpp"
   3:src/Semaphore.cpp **** #include "../h/Scheduler.hpp"
   4:src/Semaphore.cpp **** 
   5:src/Semaphore.cpp **** int Semaphore::cnt = 1;
   6:src/Semaphore.cpp **** 
   7:src/Semaphore.cpp **** Semaphore::Semaphore(unsigned init){
   8:src/Semaphore.cpp ****     val = init;
   9:src/Semaphore.cpp ****     myHandle = cnt++;
  10:src/Semaphore.cpp **** }
  11:src/Semaphore.cpp **** Semaphore::~Semaphore() {}
  12              		.loc 1 11 1
  13              		.cfi_startproc
  14              	.LVL0:
  15 0000 130101FF 		addi	sp,sp,-16
  16              		.cfi_def_cfa_offset 16
  17 0004 23341100 		sd	ra,8(sp)
  18 0008 23308100 		sd	s0,0(sp)
  19              		.cfi_offset 1, -8
  20              		.cfi_offset 8, -16
  21 000c 13040101 		addi	s0,sp,16
  22              		.cfi_def_cfa 8, 0
  23              	.LBB2:
  24              		.loc 1 11 23 is_stmt 0
  25 0010 97070000 		lla	a5,_ZTV9Semaphore+16
  25      93870700 
  26 0018 2330F500 		sd	a5,0(a0)
  27 001c 13050501 		addi	a0,a0,16
  28              	.LVL1:
  29 0020 97000000 		call	_ZN4ListI6ThreadED1Ev@plt
  29      E7800000 
  30              	.LVL2:
  31              	.LBE2:
  32              		.loc 1 11 26
  33 0028 83308100 		ld	ra,8(sp)
  34              		.cfi_restore 1
  35 002c 03340100 		ld	s0,0(sp)
  36              		.cfi_restore 8
  37              		.cfi_def_cfa 2, 16
  38 0030 13010101 		addi	sp,sp,16
  39              		.cfi_def_cfa_offset 0
  40 0034 67800000 		jr	ra
  41              		.cfi_endproc
  42              	.LFE11:
  44              		.globl	_ZN9SemaphoreD1Ev
  45              		.set	_ZN9SemaphoreD1Ev,_ZN9SemaphoreD2Ev
  46              		.align	2
GAS LISTING /tmp/cc5z7tli.s 			page 2


  47              		.globl	_ZN9SemaphoreC2Ej
  49              	_ZN9SemaphoreC2Ej:
  50              	.LFB8:
   7:src/Semaphore.cpp ****     val = init;
  51              		.loc 1 7 1 is_stmt 1
  52              		.cfi_startproc
  53              	.LVL3:
  54 0038 130101FE 		addi	sp,sp,-32
  55              		.cfi_def_cfa_offset 32
  56 003c 233C1100 		sd	ra,24(sp)
  57 0040 23388100 		sd	s0,16(sp)
  58 0044 23349100 		sd	s1,8(sp)
  59 0048 23302101 		sd	s2,0(sp)
  60              		.cfi_offset 1, -8
  61              		.cfi_offset 8, -16
  62              		.cfi_offset 9, -24
  63              		.cfi_offset 18, -32
  64 004c 13040102 		addi	s0,sp,32
  65              		.cfi_def_cfa 8, 0
  66 0050 93040500 		mv	s1,a0
  67 0054 13890500 		mv	s2,a1
  68              	.LBB3:
   7:src/Semaphore.cpp ****     val = init;
  69              		.loc 1 7 35 is_stmt 0
  70 0058 97070000 		lla	a5,_ZTV9Semaphore+16
  70      93870700 
  71 0060 2330F500 		sd	a5,0(a0)
  72 0064 13050501 		addi	a0,a0,16
  73              	.LVL4:
  74 0068 97000000 		call	_ZN4ListI6ThreadEC1Ev@plt
  74      E7800000 
  75              	.LVL5:
   8:src/Semaphore.cpp ****     myHandle = cnt++;
  76              		.loc 1 8 5 is_stmt 1
   8:src/Semaphore.cpp ****     myHandle = cnt++;
  77              		.loc 1 8 9 is_stmt 0
  78 0070 23A62401 		sw	s2,12(s1)
   9:src/Semaphore.cpp **** }
  79              		.loc 1 9 5 is_stmt 1
   9:src/Semaphore.cpp **** }
  80              		.loc 1 9 19 is_stmt 0
  81 0074 17070000 		lla	a4,.LANCHOR0
  81      13070700 
  82 007c 83270700 		lw	a5,0(a4)
  83 0080 9B861700 		addiw	a3,a5,1
  84 0084 2320D700 		sw	a3,0(a4)
   9:src/Semaphore.cpp **** }
  85              		.loc 1 9 14
  86 0088 23A4F400 		sw	a5,8(s1)
  87              	.LBE3:
  10:src/Semaphore.cpp **** Semaphore::~Semaphore() {}
  88              		.loc 1 10 1
  89 008c 83308101 		ld	ra,24(sp)
  90              		.cfi_restore 1
  91 0090 03340101 		ld	s0,16(sp)
  92              		.cfi_restore 8
  93              		.cfi_def_cfa 2, 32
GAS LISTING /tmp/cc5z7tli.s 			page 3


  94 0094 83348100 		ld	s1,8(sp)
  95              		.cfi_restore 9
  96              	.LVL6:
  97 0098 03390100 		ld	s2,0(sp)
  98              		.cfi_restore 18
  99 009c 13010102 		addi	sp,sp,32
 100              		.cfi_def_cfa_offset 0
 101 00a0 67800000 		jr	ra
 102              		.cfi_endproc
 103              	.LFE8:
 105              		.globl	_ZN9SemaphoreC1Ej
 106              		.set	_ZN9SemaphoreC1Ej,_ZN9SemaphoreC2Ej
 107              		.align	2
 108              		.globl	_ZN9SemaphorenwEm
 110              	_ZN9SemaphorenwEm:
 111              	.LFB16:
  12:src/Semaphore.cpp **** 
  13:src/Semaphore.cpp **** int  Semaphore::wait(){
  14:src/Semaphore.cpp ****     sem_wait(this->myHandle);
  15:src/Semaphore.cpp ****     return 0;
  16:src/Semaphore.cpp **** }
  17:src/Semaphore.cpp **** int Semaphore::signal(){
  18:src/Semaphore.cpp ****     sem_signal(this->myHandle);
  19:src/Semaphore.cpp ****     return 0;
  20:src/Semaphore.cpp **** }
  21:src/Semaphore.cpp **** 
  22:src/Semaphore.cpp **** void* Semaphore::operator new(size_t size) {
 112              		.loc 1 22 44 is_stmt 1
 113              		.cfi_startproc
 114              	.LVL7:
 115 00a4 130101FF 		addi	sp,sp,-16
 116              		.cfi_def_cfa_offset 16
 117 00a8 23341100 		sd	ra,8(sp)
 118 00ac 23308100 		sd	s0,0(sp)
 119              		.cfi_offset 1, -8
 120              		.cfi_offset 8, -16
 121 00b0 13040101 		addi	s0,sp,16
 122              		.cfi_def_cfa 8, 0
  23:src/Semaphore.cpp ****     return MemoryAllocator::Instance()->getSemaphorePool().allocate();
 123              		.loc 1 23 5
 124              		.loc 1 23 58 is_stmt 0
 125 00b4 97000000 		call	_ZN15MemoryAllocator8InstanceEv@plt
 125      E7800000 
 126              	.LVL8:
 127 00bc 97000000 		call	_ZN15MemoryAllocator16getSemaphorePoolEv@plt
 127      E7800000 
 128              	.LVL9:
 129              		.loc 1 23 68
 130 00c4 97000000 		call	_ZN13SemaphorePool8allocateEv@plt
 130      E7800000 
 131              	.LVL10:
  24:src/Semaphore.cpp **** }
 132              		.loc 1 24 1
 133 00cc 83308100 		ld	ra,8(sp)
 134              		.cfi_restore 1
 135 00d0 03340100 		ld	s0,0(sp)
 136              		.cfi_restore 8
GAS LISTING /tmp/cc5z7tli.s 			page 4


 137              		.cfi_def_cfa 2, 16
 138 00d4 13010101 		addi	sp,sp,16
 139              		.cfi_def_cfa_offset 0
 140 00d8 67800000 		jr	ra
 141              		.cfi_endproc
 142              	.LFE16:
 144              		.align	2
 145              		.globl	_ZN9SemaphoredlEPv
 147              	_ZN9SemaphoredlEPv:
 148              	.LFB17:
  25:src/Semaphore.cpp **** 
  26:src/Semaphore.cpp **** void Semaphore::operator delete(void *obj) noexcept {
 149              		.loc 1 26 53 is_stmt 1
 150              		.cfi_startproc
 151              		.cfi_personality 0x9b,DW.ref.__gxx_personality_v0
 152              		.cfi_lsda 0x1b,.LLSDA17
 153              	.LVL11:
 154 00dc 130101FE 		addi	sp,sp,-32
 155              		.cfi_def_cfa_offset 32
 156 00e0 233C1100 		sd	ra,24(sp)
 157 00e4 23388100 		sd	s0,16(sp)
 158 00e8 23349100 		sd	s1,8(sp)
 159              		.cfi_offset 1, -8
 160              		.cfi_offset 8, -16
 161              		.cfi_offset 9, -24
 162 00ec 13040102 		addi	s0,sp,32
 163              		.cfi_def_cfa 8, 0
 164 00f0 93040500 		mv	s1,a0
  27:src/Semaphore.cpp ****     MemoryAllocator::Instance()->getSemaphorePool().deallocate((Semaphore*)obj);
 165              		.loc 1 27 5
 166              		.loc 1 27 51 is_stmt 0
 167 00f4 97000000 		call	_ZN15MemoryAllocator8InstanceEv@plt
 167      E7800000 
 168              	.LVL12:
 169 00fc 97000000 		call	_ZN15MemoryAllocator16getSemaphorePoolEv@plt
 169      E7800000 
 170              	.LVL13:
 171              		.loc 1 27 63
 172 0104 93850400 		mv	a1,s1
 173 0108 97000000 		call	_ZN13SemaphorePool10deallocateEP9Semaphore@plt
 173      E7800000 
 174              	.LVL14:
  28:src/Semaphore.cpp **** }
 175              		.loc 1 28 1
 176 0110 83308101 		ld	ra,24(sp)
 177              		.cfi_restore 1
 178 0114 03340101 		ld	s0,16(sp)
 179              		.cfi_restore 8
 180              		.cfi_def_cfa 2, 32
 181 0118 83348100 		ld	s1,8(sp)
 182              		.cfi_restore 9
 183              	.LVL15:
 184 011c 13010102 		addi	sp,sp,32
 185              		.cfi_def_cfa_offset 0
 186 0120 67800000 		jr	ra
 187              		.cfi_endproc
 188              	.LFE17:
GAS LISTING /tmp/cc5z7tli.s 			page 5


 189              		.globl	__gxx_personality_v0
 190              		.section	.gcc_except_table,"a",@progbits
 191              	.LLSDA17:
 192 0000 FF       		.byte	0xff
 193 0001 FF       		.byte	0xff
 194 0002 03       		.byte	0x3
 195 0003 00       		.byte	0
 196              		.text
 198              		.align	2
 199              		.globl	_ZN9SemaphoreD0Ev
 201              	_ZN9SemaphoreD0Ev:
 202              	.LFB13:
  11:src/Semaphore.cpp **** 
 203              		.loc 1 11 1 is_stmt 1
 204              		.cfi_startproc
 205              	.LVL16:
 206 0124 130101FE 		addi	sp,sp,-32
 207              		.cfi_def_cfa_offset 32
 208 0128 233C1100 		sd	ra,24(sp)
 209 012c 23388100 		sd	s0,16(sp)
 210 0130 23349100 		sd	s1,8(sp)
 211              		.cfi_offset 1, -8
 212              		.cfi_offset 8, -16
 213              		.cfi_offset 9, -24
 214 0134 13040102 		addi	s0,sp,32
 215              		.cfi_def_cfa 8, 0
 216 0138 93040500 		mv	s1,a0
  11:src/Semaphore.cpp **** 
 217              		.loc 1 11 26 is_stmt 0
 218 013c 97000000 		call	_ZN9SemaphoreD1Ev
 218      E7800000 
 219              	.LVL17:
 220 0144 13850400 		mv	a0,s1
 221 0148 97000000 		call	_ZN9SemaphoredlEPv
 221      E7800000 
 222              	.LVL18:
 223 0150 83308101 		ld	ra,24(sp)
 224              		.cfi_restore 1
 225 0154 03340101 		ld	s0,16(sp)
 226              		.cfi_restore 8
 227              		.cfi_def_cfa 2, 32
 228 0158 83348100 		ld	s1,8(sp)
 229              		.cfi_restore 9
 230              	.LVL19:
 231 015c 13010102 		addi	sp,sp,32
 232              		.cfi_def_cfa_offset 0
 233 0160 67800000 		jr	ra
 234              		.cfi_endproc
 235              	.LFE13:
 237              		.align	2
 238              		.globl	_ZN9Semaphore8sem_openEPjj
 240              	_ZN9Semaphore8sem_openEPjj:
 241              	.LFB18:
  29:src/Semaphore.cpp **** int Semaphore::sem_open(sem_t *handle, unsigned init) {
 242              		.loc 1 29 55 is_stmt 1
 243              		.cfi_startproc
 244              		.cfi_personality 0x9b,DW.ref.__gxx_personality_v0
GAS LISTING /tmp/cc5z7tli.s 			page 6


 245              		.cfi_lsda 0x1b,.LLSDA18
 246              	.LVL20:
 247 0164 130101FD 		addi	sp,sp,-48
 248              		.cfi_def_cfa_offset 48
 249 0168 23341102 		sd	ra,40(sp)
 250 016c 23308102 		sd	s0,32(sp)
 251 0170 233C9100 		sd	s1,24(sp)
 252 0174 23382101 		sd	s2,16(sp)
 253 0178 23343101 		sd	s3,8(sp)
 254              		.cfi_offset 1, -8
 255              		.cfi_offset 8, -16
 256              		.cfi_offset 9, -24
 257              		.cfi_offset 18, -32
 258              		.cfi_offset 19, -40
 259 017c 13040103 		addi	s0,sp,48
 260              		.cfi_def_cfa 8, 0
 261 0180 93090500 		mv	s3,a0
 262 0184 13890500 		mv	s2,a1
  30:src/Semaphore.cpp ****     Semaphore* semaphore = new Semaphore(init);
 263              		.loc 1 30 5
 264              		.loc 1 30 46 is_stmt 0
 265 0188 13050002 		li	a0,32
 266              	.LVL21:
 267              	.LEHB0:
 268 018c 97000000 		call	_ZN9SemaphorenwEm
 268      E7800000 
 269              	.LVL22:
 270              	.LEHE0:
 271 0194 93040500 		mv	s1,a0
 272 0198 93050900 		mv	a1,s2
 273              	.LEHB1:
 274 019c 97000000 		call	_ZN9SemaphoreC1Ej
 274      E7800000 
 275              	.LVL23:
 276              	.LEHE1:
  31:src/Semaphore.cpp ****     if(!semaphore) return -1;
 277              		.loc 1 31 5 is_stmt 1 discriminator 2
 278 01a4 63860402 		beqz	s1,.L14
  32:src/Semaphore.cpp ****     *handle = semaphore->myHandle;
 279              		.loc 1 32 5
 280              		.loc 1 32 26 is_stmt 0
 281 01a8 83A78400 		lw	a5,8(s1)
 282              		.loc 1 32 13
 283 01ac 23A0F900 		sw	a5,0(s3)
  33:src/Semaphore.cpp ****     return 0;
 284              		.loc 1 33 5 is_stmt 1
 285              		.loc 1 33 12 is_stmt 0
 286 01b0 13050000 		li	a0,0
 287              	.L16:
  34:src/Semaphore.cpp **** }
 288              		.loc 1 34 1
 289 01b4 83308102 		ld	ra,40(sp)
 290              		.cfi_remember_state
 291              		.cfi_restore 1
 292 01b8 03340102 		ld	s0,32(sp)
 293              		.cfi_restore 8
 294              		.cfi_def_cfa 2, 48
GAS LISTING /tmp/cc5z7tli.s 			page 7


 295 01bc 83348101 		ld	s1,24(sp)
 296              		.cfi_restore 9
 297              	.LVL24:
 298 01c0 03390101 		ld	s2,16(sp)
 299              		.cfi_restore 18
 300 01c4 83398100 		ld	s3,8(sp)
 301              		.cfi_restore 19
 302              	.LVL25:
 303 01c8 13010103 		addi	sp,sp,48
 304              		.cfi_def_cfa_offset 0
 305 01cc 67800000 		jr	ra
 306              	.LVL26:
 307              	.L14:
 308              		.cfi_restore_state
  31:src/Semaphore.cpp ****     *handle = semaphore->myHandle;
 309              		.loc 1 31 28
 310 01d0 1305F0FF 		li	a0,-1
 311 01d4 6FF01FFE 		j	.L16
 312              	.LVL27:
 313              	.L15:
 314 01d8 13090500 		mv	s2,a0
  30:src/Semaphore.cpp ****     if(!semaphore) return -1;
 315              		.loc 1 30 46
 316 01dc 13850400 		mv	a0,s1
 317 01e0 97000000 		call	_ZN9SemaphoredlEPv
 317      E7800000 
 318              	.LVL28:
 319 01e8 13050900 		mv	a0,s2
 320              	.LEHB2:
 321 01ec 97000000 		call	_Unwind_Resume@plt
 321      E7800000 
 322              	.LVL29:
 323              	.LEHE2:
 324              		.cfi_endproc
 325              	.LFE18:
 326              		.section	.gcc_except_table
 327              	.LLSDA18:
 328 0004 FF       		.byte	0xff
 329 0005 FF       		.byte	0xff
 330 0006 03       		.byte	0x3
 331 0007 27       		.byte	0x27
 332 0008 00000000 		.4byte	.LEHB0-.LFB18
 333 000c 00000000 		.4byte	.LEHE0-.LEHB0
 334 0010 00000000 		.4byte	0
 335 0014 00       		.byte	0
 336 0015 00000000 		.4byte	.LEHB1-.LFB18
 337 0019 00000000 		.4byte	.LEHE1-.LEHB1
 338 001d 00000000 		.4byte	.L15-.LFB18
 339 0021 00       		.byte	0
 340 0022 00000000 		.4byte	.LEHB2-.LFB18
 341 0026 00000000 		.4byte	.LEHE2-.LEHB2
 342 002a 00000000 		.4byte	0
 343 002e 00       		.byte	0
 344              		.text
 346              		.align	2
 347              		.globl	_ZN9Semaphore9sem_closeEj
 349              	_ZN9Semaphore9sem_closeEj:
GAS LISTING /tmp/cc5z7tli.s 			page 8


 350              	.LFB19:
  35:src/Semaphore.cpp **** 
  36:src/Semaphore.cpp **** int Semaphore::sem_close(sem_t id){
 351              		.loc 1 36 35 is_stmt 1
 352              		.cfi_startproc
 353              	.LVL30:
 354 01f4 130101FE 		addi	sp,sp,-32
 355              		.cfi_def_cfa_offset 32
 356 01f8 233C1100 		sd	ra,24(sp)
 357 01fc 23388100 		sd	s0,16(sp)
 358 0200 23349100 		sd	s1,8(sp)
 359 0204 23302101 		sd	s2,0(sp)
 360              		.cfi_offset 1, -8
 361              		.cfi_offset 8, -16
 362              		.cfi_offset 9, -24
 363              		.cfi_offset 18, -32
 364 0208 13040102 		addi	s0,sp,32
 365              		.cfi_def_cfa 8, 0
 366 020c 93040500 		mv	s1,a0
  37:src/Semaphore.cpp ****     Semaphore* semaphore = MemoryAllocator::Instance()->getSemaphorePool().getSemaphoreById(id);
 367              		.loc 1 37 5
 368              		.loc 1 37 74 is_stmt 0
 369 0210 97000000 		call	_ZN15MemoryAllocator8InstanceEv@plt
 369      E7800000 
 370              	.LVL31:
 371 0218 97000000 		call	_ZN15MemoryAllocator16getSemaphorePoolEv@plt
 371      E7800000 
 372              	.LVL32:
 373              		.loc 1 37 92
 374 0220 93850400 		mv	a1,s1
 375 0224 97000000 		call	_ZN13SemaphorePool16getSemaphoreByIdEj@plt
 375      E7800000 
 376              	.LVL33:
 377 022c 13090500 		mv	s2,a0
 378              	.LVL34:
  38:src/Semaphore.cpp ****     if(semaphore == nullptr) return -1;
 379              		.loc 1 38 5 is_stmt 1
 380 0230 63080506 		beqz	a0,.L22
 381              	.LVL35:
 382              	.L21:
  39:src/Semaphore.cpp **** 
  40:src/Semaphore.cpp ****     //take out all threads that were waiting on this semaphore and put them in Scheduler as ready
  41:src/Semaphore.cpp ****     while(!semaphore->waiting.empty()){
 383              		.loc 1 41 5
 384              		.loc 1 41 11
 385              		.loc 1 41 36 is_stmt 0
 386 0234 93040901 		addi	s1,s2,16
 387 0238 13850400 		mv	a0,s1
 388 023c 97000000 		call	_ZN4ListI6ThreadE5emptyEv@plt
 388      E7800000 
 389              	.LVL36:
 390              		.loc 1 41 11
 391 0244 63180502 		bnez	a0,.L20
 392              	.LBB4:
  42:src/Semaphore.cpp ****         Thread* thread = semaphore->waiting.remove_beginning();
 393              		.loc 1 42 9 is_stmt 1
 394              		.loc 1 42 61 is_stmt 0
GAS LISTING /tmp/cc5z7tli.s 			page 9


 395 0248 13850400 		mv	a0,s1
 396 024c 97000000 		call	_ZN4ListI6ThreadE16remove_beginningEv@plt
 396      E7800000 
 397              	.LVL37:
 398 0254 93050500 		mv	a1,a0
 399              	.LVL38:
  43:src/Semaphore.cpp ****         thread->semWaitStatus = -2;
 400              		.loc 1 43 9 is_stmt 1
 401              		.loc 1 43 31 is_stmt 0
 402 0258 9307E0FF 		li	a5,-2
 403 025c 2328F500 		sw	a5,16(a0)
  44:src/Semaphore.cpp ****         scheduler.put(thread);
 404              		.loc 1 44 9 is_stmt 1
 405              		.loc 1 44 22 is_stmt 0
 406 0260 17050000 		la	a0,scheduler
 406      03350500 
 407              	.LVL39:
 408 0268 97000000 		call	_ZN9Scheduler3putEP6Thread@plt
 408      E7800000 
 409              	.LVL40:
 410              	.LBE4:
  41:src/Semaphore.cpp ****         Thread* thread = semaphore->waiting.remove_beginning();
 411              		.loc 1 41 5
 412 0270 6FF05FFC 		j	.L21
 413              	.L20:
  45:src/Semaphore.cpp **** 
  46:src/Semaphore.cpp ****     }
  47:src/Semaphore.cpp ****     delete semaphore;
 414              		.loc 1 47 5 is_stmt 1 discriminator 1
 415              		.loc 1 47 12 is_stmt 0 discriminator 1
 416 0274 83370900 		ld	a5,0(s2)
 417 0278 83B78700 		ld	a5,8(a5)
 418 027c 13050900 		mv	a0,s2
 419 0280 E7800700 		jalr	a5
 420              	.LVL41:
  48:src/Semaphore.cpp ****     return 0;
 421              		.loc 1 48 5 is_stmt 1 discriminator 1
 422              		.loc 1 48 12 is_stmt 0 discriminator 1
 423 0284 13050000 		li	a0,0
 424              	.L19:
  49:src/Semaphore.cpp **** }
 425              		.loc 1 49 1
 426 0288 83308101 		ld	ra,24(sp)
 427              		.cfi_remember_state
 428              		.cfi_restore 1
 429 028c 03340101 		ld	s0,16(sp)
 430              		.cfi_restore 8
 431              		.cfi_def_cfa 2, 32
 432 0290 83348100 		ld	s1,8(sp)
 433              		.cfi_restore 9
 434 0294 03390100 		ld	s2,0(sp)
 435              		.cfi_restore 18
 436              	.LVL42:
 437 0298 13010102 		addi	sp,sp,32
 438              		.cfi_def_cfa_offset 0
 439 029c 67800000 		jr	ra
 440              	.LVL43:
GAS LISTING /tmp/cc5z7tli.s 			page 10


 441              	.L22:
 442              		.cfi_restore_state
  38:src/Semaphore.cpp **** 
 443              		.loc 1 38 38
 444 02a0 1305F0FF 		li	a0,-1
 445              	.LVL44:
 446 02a4 6FF05FFE 		j	.L19
 447              		.cfi_endproc
 448              	.LFE19:
 450              		.align	2
 451              		.globl	_ZN9Semaphore8sem_waitEj
 453              	_ZN9Semaphore8sem_waitEj:
 454              	.LFB20:
  50:src/Semaphore.cpp **** 
  51:src/Semaphore.cpp **** int Semaphore::sem_wait(sem_t id) {
 455              		.loc 1 51 35 is_stmt 1
 456              		.cfi_startproc
 457              	.LVL45:
 458 02a8 130101FE 		addi	sp,sp,-32
 459              		.cfi_def_cfa_offset 32
 460 02ac 233C1100 		sd	ra,24(sp)
 461 02b0 23388100 		sd	s0,16(sp)
 462 02b4 23349100 		sd	s1,8(sp)
 463 02b8 23302101 		sd	s2,0(sp)
 464              		.cfi_offset 1, -8
 465              		.cfi_offset 8, -16
 466              		.cfi_offset 9, -24
 467              		.cfi_offset 18, -32
 468 02bc 13040102 		addi	s0,sp,32
 469              		.cfi_def_cfa 8, 0
 470 02c0 93040500 		mv	s1,a0
  52:src/Semaphore.cpp ****     Semaphore* semaphore = MemoryAllocator::Instance()->getSemaphorePool().getSemaphoreById(id);
 471              		.loc 1 52 5
 472              		.loc 1 52 74 is_stmt 0
 473 02c4 97000000 		call	_ZN15MemoryAllocator8InstanceEv@plt
 473      E7800000 
 474              	.LVL46:
 475 02cc 97000000 		call	_ZN15MemoryAllocator16getSemaphorePoolEv@plt
 475      E7800000 
 476              	.LVL47:
 477              		.loc 1 52 92
 478 02d4 93850400 		mv	a1,s1
 479 02d8 97000000 		call	_ZN13SemaphorePool16getSemaphoreByIdEj@plt
 479      E7800000 
 480              	.LVL48:
  53:src/Semaphore.cpp ****     if(semaphore == nullptr) return -1;
 481              		.loc 1 53 5 is_stmt 1
 482 02e0 630C050E 		beqz	a0,.L27
  54:src/Semaphore.cpp ****     Thread::running->semWaitStatus = 0;
 483              		.loc 1 54 5
 484              		.loc 1 54 22 is_stmt 0
 485 02e4 97070000 		la	a5,_ZN6Thread7runningE
 485      83B70700 
 486 02ec 83B50700 		ld	a1,0(a5)
 487              		.loc 1 54 36
 488 02f0 23A80500 		sw	zero,16(a1)
  55:src/Semaphore.cpp ****     semaphore->val--;
GAS LISTING /tmp/cc5z7tli.s 			page 11


 489              		.loc 1 55 5 is_stmt 1
 490              		.loc 1 55 16 is_stmt 0
 491 02f4 8327C500 		lw	a5,12(a0)
 492              		.loc 1 55 19
 493 02f8 9B87F7FF 		addiw	a5,a5,-1
 494 02fc 2326F500 		sw	a5,12(a0)
  56:src/Semaphore.cpp ****     if(semaphore->val < 0){
 495              		.loc 1 56 5 is_stmt 1
 496              	.LBB5:
 497 0300 13970702 		slli	a4,a5,32
 498 0304 63400702 		bltz	a4,.L31
 499              	.LBE5:
  57:src/Semaphore.cpp ****         semaphore->waiting.add_end(Thread::running);
  58:src/Semaphore.cpp **** 
  59:src/Semaphore.cpp ****         Thread::running = scheduler.get();
  60:src/Semaphore.cpp ****         if(Thread::running == nullptr) return -1;
  61:src/Semaphore.cpp ****         if(Thread::running->getContext()->wasActive == 1){
  62:src/Semaphore.cpp ****             restore_context_kernel_mode(Thread::running->getContext());
  63:src/Semaphore.cpp ****         }
  64:src/Semaphore.cpp ****         else
  65:src/Semaphore.cpp ****         {
  66:src/Semaphore.cpp ****             Thread::running->getContext()->wasActive = 1;
  67:src/Semaphore.cpp ****             ThreadContext* tc = Thread::running->getContext();
  68:src/Semaphore.cpp ****             ThreadWrapperArgs* wa = Thread::running->getWrapperArgs();
  69:src/Semaphore.cpp ****             //start_thread_for_the_first_time_dispatch(&Thread::running->context);
  70:src/Semaphore.cpp ****             thread_wrapper(tc, wa);
  71:src/Semaphore.cpp ****         }
  72:src/Semaphore.cpp ****     }
  73:src/Semaphore.cpp ****     return 0;
 500              		.loc 1 73 12 is_stmt 0
 501 0308 13050000 		li	a0,0
 502              	.LVL49:
 503              	.L25:
  74:src/Semaphore.cpp **** }
 504              		.loc 1 74 1
 505 030c 83308101 		ld	ra,24(sp)
 506              		.cfi_remember_state
 507              		.cfi_restore 1
 508 0310 03340101 		ld	s0,16(sp)
 509              		.cfi_restore 8
 510              		.cfi_def_cfa 2, 32
 511 0314 83348100 		ld	s1,8(sp)
 512              		.cfi_restore 9
 513 0318 03390100 		ld	s2,0(sp)
 514              		.cfi_restore 18
 515 031c 13010102 		addi	sp,sp,32
 516              		.cfi_def_cfa_offset 0
 517 0320 67800000 		jr	ra
 518              	.LVL50:
 519              	.L31:
 520              		.cfi_restore_state
 521              	.LBB14:
 522              	.LBB6:
  57:src/Semaphore.cpp ****         semaphore->waiting.add_end(Thread::running);
 523              		.loc 1 57 9 is_stmt 1
  57:src/Semaphore.cpp ****         semaphore->waiting.add_end(Thread::running);
 524              		.loc 1 57 35 is_stmt 0
GAS LISTING /tmp/cc5z7tli.s 			page 12


 525 0324 13050501 		addi	a0,a0,16
 526              	.LVL51:
 527 0328 97000000 		call	_ZN4ListI6ThreadE7add_endEPS0_@plt
 527      E7800000 
 528              	.LVL52:
  59:src/Semaphore.cpp ****         if(Thread::running == nullptr) return -1;
 529              		.loc 1 59 9 is_stmt 1
  59:src/Semaphore.cpp ****         if(Thread::running == nullptr) return -1;
 530              		.loc 1 59 40 is_stmt 0
 531 0330 17050000 		la	a0,scheduler
 531      03350500 
 532 0338 97000000 		call	_ZN9Scheduler3getEv@plt
 532      E7800000 
 533              	.LVL53:
  59:src/Semaphore.cpp ****         if(Thread::running == nullptr) return -1;
 534              		.loc 1 59 25
 535 0340 97070000 		la	a5,_ZN6Thread7runningE
 535      83B70700 
 536 0348 23B0A700 		sd	a0,0(a5)
  60:src/Semaphore.cpp ****         if(Thread::running->getContext()->wasActive == 1){
 537              		.loc 1 60 9 is_stmt 1
 538 034c 630A0508 		beqz	a0,.L29
  61:src/Semaphore.cpp ****             restore_context_kernel_mode(Thread::running->getContext());
 539              		.loc 1 61 9
 540              	.LBB7:
  61:src/Semaphore.cpp ****             restore_context_kernel_mode(Thread::running->getContext());
 541              		.loc 1 61 39 is_stmt 0
 542 0350 97000000 		call	_ZN6Thread10getContextEv@plt
 542      E7800000 
 543              	.LVL54:
  61:src/Semaphore.cpp ****             restore_context_kernel_mode(Thread::running->getContext());
 544              		.loc 1 61 43
 545 0358 03378503 		ld	a4,56(a0)
  61:src/Semaphore.cpp ****             restore_context_kernel_mode(Thread::running->getContext());
 546              		.loc 1 61 9
 547 035c 93071000 		li	a5,1
 548 0360 630AF704 		beq	a4,a5,.L32
 549              	.LBB8:
  66:src/Semaphore.cpp ****             ThreadContext* tc = Thread::running->getContext();
 550              		.loc 1 66 13 is_stmt 1
  66:src/Semaphore.cpp ****             ThreadContext* tc = Thread::running->getContext();
 551              		.loc 1 66 40 is_stmt 0
 552 0364 17090000 		la	s2,_ZN6Thread7runningE
 552      03390900 
 553 036c 03350900 		ld	a0,0(s2)
 554 0370 97000000 		call	_ZN6Thread10getContextEv@plt
 554      E7800000 
 555              	.LVL55:
  66:src/Semaphore.cpp ****             ThreadContext* tc = Thread::running->getContext();
 556              		.loc 1 66 54
 557 0378 93071000 		li	a5,1
 558 037c 233CF502 		sd	a5,56(a0)
  67:src/Semaphore.cpp ****             ThreadWrapperArgs* wa = Thread::running->getWrapperArgs();
 559              		.loc 1 67 13 is_stmt 1
  67:src/Semaphore.cpp ****             ThreadWrapperArgs* wa = Thread::running->getWrapperArgs();
 560              		.loc 1 67 60 is_stmt 0
 561 0380 03350900 		ld	a0,0(s2)
GAS LISTING /tmp/cc5z7tli.s 			page 13


 562 0384 97000000 		call	_ZN6Thread10getContextEv@plt
 562      E7800000 
 563              	.LVL56:
 564 038c 93040500 		mv	s1,a0
 565              	.LVL57:
  68:src/Semaphore.cpp ****             //start_thread_for_the_first_time_dispatch(&Thread::running->context);
 566              		.loc 1 68 13 is_stmt 1
  68:src/Semaphore.cpp ****             //start_thread_for_the_first_time_dispatch(&Thread::running->context);
 567              		.loc 1 68 68 is_stmt 0
 568 0390 03350900 		ld	a0,0(s2)
 569 0394 97000000 		call	_ZN6Thread14getWrapperArgsEv@plt
 569      E7800000 
 570              	.LVL58:
 571 039c 93050500 		mv	a1,a0
 572              	.LVL59:
  70:src/Semaphore.cpp ****         }
 573              		.loc 1 70 13 is_stmt 1
  70:src/Semaphore.cpp ****         }
 574              		.loc 1 70 27 is_stmt 0
 575 03a0 13850400 		mv	a0,s1
 576              	.LVL60:
 577 03a4 97000000 		call	thread_wrapper@plt
 577      E7800000 
 578              	.LVL61:
 579              	.LBE8:
 580              	.LBE7:
 581              	.LBE6:
 582              	.LBE14:
  73:src/Semaphore.cpp **** }
 583              		.loc 1 73 12
 584 03ac 13050000 		li	a0,0
 585 03b0 6FF0DFF5 		j	.L25
 586              	.LVL62:
 587              	.L32:
 588              	.LBB15:
 589              	.LBB11:
 590              	.LBB9:
  62:src/Semaphore.cpp ****         }
 591              		.loc 1 62 13 is_stmt 1
  62:src/Semaphore.cpp ****         }
 592              		.loc 1 62 40 is_stmt 0
 593 03b4 97070000 		la	a5,_ZN6Thread7runningE
 593      83B70700 
 594 03bc 03B50700 		ld	a0,0(a5)
 595 03c0 97000000 		call	_ZN6Thread10getContextEv@plt
 595      E7800000 
 596              	.LVL63:
 597 03c8 97000000 		call	restore_context_kernel_mode@plt
 597      E7800000 
 598              	.LVL64:
 599              	.LBE9:
 600              	.LBE11:
 601              	.LBE15:
  73:src/Semaphore.cpp **** }
 602              		.loc 1 73 12
 603 03d0 13050000 		li	a0,0
 604              	.LBB16:
GAS LISTING /tmp/cc5z7tli.s 			page 14


 605              	.LBB12:
 606              	.LBB10:
 607 03d4 6FF09FF3 		j	.L25
 608              	.LVL65:
 609              	.L27:
 610              	.LBE10:
 611              	.LBE12:
 612              	.LBE16:
  53:src/Semaphore.cpp ****     Thread::running->semWaitStatus = 0;
 613              		.loc 1 53 38
 614 03d8 1305F0FF 		li	a0,-1
 615              	.LVL66:
 616 03dc 6FF01FF3 		j	.L25
 617              	.L29:
 618              	.LBB17:
 619              	.LBB13:
  60:src/Semaphore.cpp ****         if(Thread::running->getContext()->wasActive == 1){
 620              		.loc 1 60 48
 621 03e0 1305F0FF 		li	a0,-1
 622 03e4 6FF09FF2 		j	.L25
 623              	.LBE13:
 624              	.LBE17:
 625              		.cfi_endproc
 626              	.LFE20:
 628              		.align	2
 629              		.globl	_ZN9Semaphore4waitEv
 631              	_ZN9Semaphore4waitEv:
 632              	.LFB14:
  13:src/Semaphore.cpp ****     sem_wait(this->myHandle);
 633              		.loc 1 13 23 is_stmt 1
 634              		.cfi_startproc
 635              	.LVL67:
 636 03e8 130101FF 		addi	sp,sp,-16
 637              		.cfi_def_cfa_offset 16
 638 03ec 23341100 		sd	ra,8(sp)
 639 03f0 23308100 		sd	s0,0(sp)
 640              		.cfi_offset 1, -8
 641              		.cfi_offset 8, -16
 642 03f4 13040101 		addi	s0,sp,16
 643              		.cfi_def_cfa 8, 0
  14:src/Semaphore.cpp ****     return 0;
 644              		.loc 1 14 5
  14:src/Semaphore.cpp ****     return 0;
 645              		.loc 1 14 13 is_stmt 0
 646 03f8 03258500 		lw	a0,8(a0)
 647              	.LVL68:
 648 03fc 97000000 		call	_ZN9Semaphore8sem_waitEj
 648      E7800000 
 649              	.LVL69:
  15:src/Semaphore.cpp **** }
 650              		.loc 1 15 5 is_stmt 1
  16:src/Semaphore.cpp **** int Semaphore::signal(){
 651              		.loc 1 16 1 is_stmt 0
 652 0404 13050000 		li	a0,0
 653 0408 83308100 		ld	ra,8(sp)
 654              		.cfi_restore 1
 655 040c 03340100 		ld	s0,0(sp)
GAS LISTING /tmp/cc5z7tli.s 			page 15


 656              		.cfi_restore 8
 657              		.cfi_def_cfa 2, 16
 658 0410 13010101 		addi	sp,sp,16
 659              		.cfi_def_cfa_offset 0
 660 0414 67800000 		jr	ra
 661              		.cfi_endproc
 662              	.LFE14:
 664              		.align	2
 665              		.globl	_ZN9Semaphore10sem_signalEj
 667              	_ZN9Semaphore10sem_signalEj:
 668              	.LFB21:
  75:src/Semaphore.cpp **** 
  76:src/Semaphore.cpp **** int Semaphore::sem_signal(sem_t id) {
 669              		.loc 1 76 37 is_stmt 1
 670              		.cfi_startproc
 671              	.LVL70:
 672 0418 130101FE 		addi	sp,sp,-32
 673              		.cfi_def_cfa_offset 32
 674 041c 233C1100 		sd	ra,24(sp)
 675 0420 23388100 		sd	s0,16(sp)
 676 0424 23349100 		sd	s1,8(sp)
 677              		.cfi_offset 1, -8
 678              		.cfi_offset 8, -16
 679              		.cfi_offset 9, -24
 680 0428 13040102 		addi	s0,sp,32
 681              		.cfi_def_cfa 8, 0
 682 042c 93040500 		mv	s1,a0
  77:src/Semaphore.cpp ****     Semaphore* semaphore = MemoryAllocator::Instance()->getSemaphorePool().getSemaphoreById(id);
 683              		.loc 1 77 5
 684              		.loc 1 77 74 is_stmt 0
 685 0430 97000000 		call	_ZN15MemoryAllocator8InstanceEv@plt
 685      E7800000 
 686              	.LVL71:
 687 0438 97000000 		call	_ZN15MemoryAllocator16getSemaphorePoolEv@plt
 687      E7800000 
 688              	.LVL72:
 689              		.loc 1 77 92
 690 0440 93850400 		mv	a1,s1
 691 0444 97000000 		call	_ZN13SemaphorePool16getSemaphoreByIdEj@plt
 691      E7800000 
 692              	.LVL73:
  78:src/Semaphore.cpp ****     if(semaphore == nullptr) return -1;
 693              		.loc 1 78 5 is_stmt 1
 694 044c 630E0506 		beqz	a0,.L37
  79:src/Semaphore.cpp ****     semaphore->val++;
 695              		.loc 1 79 5
 696              		.loc 1 79 16 is_stmt 0
 697 0450 8327C500 		lw	a5,12(a0)
 698              		.loc 1 79 19
 699 0454 9B871700 		addiw	a5,a5,1
 700 0458 2326F500 		sw	a5,12(a0)
  80:src/Semaphore.cpp ****     if(semaphore->val >= 0 && !semaphore->waiting.empty()){
 701              		.loc 1 80 5 is_stmt 1
 702              	.LBB18:
 703              		.loc 1 80 28 is_stmt 0
 704 045c 13970702 		slli	a4,a5,32
 705 0460 635E0700 		bgez	a4,.L41
GAS LISTING /tmp/cc5z7tli.s 			page 16


 706              	.LBE18:
  81:src/Semaphore.cpp ****         //Unblock one thread and put it in Scheduler as ready
  82:src/Semaphore.cpp ****         Thread* thread = semaphore->waiting.remove_beginning();
  83:src/Semaphore.cpp ****         scheduler.put(thread);
  84:src/Semaphore.cpp ****         thread->semWaitStatus = 0;
  85:src/Semaphore.cpp ****     }
  86:src/Semaphore.cpp ****     return 0;
 707              		.loc 1 86 12
 708 0464 13050000 		li	a0,0
 709              	.LVL74:
 710              	.L36:
  87:src/Semaphore.cpp **** }
 711              		.loc 1 87 1
 712 0468 83308101 		ld	ra,24(sp)
 713              		.cfi_remember_state
 714              		.cfi_restore 1
 715 046c 03340101 		ld	s0,16(sp)
 716              		.cfi_restore 8
 717              		.cfi_def_cfa 2, 32
 718 0470 83348100 		ld	s1,8(sp)
 719              		.cfi_restore 9
 720 0474 13010102 		addi	sp,sp,32
 721              		.cfi_def_cfa_offset 0
 722 0478 67800000 		jr	ra
 723              	.LVL75:
 724              	.L41:
 725              		.cfi_restore_state
 726              	.LBB20:
  80:src/Semaphore.cpp ****     if(semaphore->val >= 0 && !semaphore->waiting.empty()){
 727              		.loc 1 80 56 discriminator 1
 728 047c 93040501 		addi	s1,a0,16
 729 0480 13850400 		mv	a0,s1
 730              	.LVL76:
 731 0484 97000000 		call	_ZN4ListI6ThreadE5emptyEv@plt
 731      E7800000 
 732              	.LVL77:
  80:src/Semaphore.cpp ****     if(semaphore->val >= 0 && !semaphore->waiting.empty()){
 733              		.loc 1 80 28 discriminator 1
 734 048c 63060500 		beqz	a0,.L42
 735              	.LBE20:
  86:src/Semaphore.cpp **** }
 736              		.loc 1 86 12
 737 0490 13050000 		li	a0,0
 738 0494 6FF05FFD 		j	.L36
 739              	.L42:
 740              	.LBB21:
 741              	.LBB19:
  82:src/Semaphore.cpp ****         scheduler.put(thread);
 742              		.loc 1 82 9 is_stmt 1
  82:src/Semaphore.cpp ****         scheduler.put(thread);
 743              		.loc 1 82 61 is_stmt 0
 744 0498 13850400 		mv	a0,s1
 745 049c 97000000 		call	_ZN4ListI6ThreadE16remove_beginningEv@plt
 745      E7800000 
 746              	.LVL78:
 747 04a4 93040500 		mv	s1,a0
 748              	.LVL79:
GAS LISTING /tmp/cc5z7tli.s 			page 17


  83:src/Semaphore.cpp ****         thread->semWaitStatus = 0;
 749              		.loc 1 83 9 is_stmt 1
  83:src/Semaphore.cpp ****         thread->semWaitStatus = 0;
 750              		.loc 1 83 22 is_stmt 0
 751 04a8 93050500 		mv	a1,a0
 752 04ac 17050000 		la	a0,scheduler
 752      03350500 
 753 04b4 97000000 		call	_ZN9Scheduler3putEP6Thread@plt
 753      E7800000 
 754              	.LVL80:
  84:src/Semaphore.cpp ****     }
 755              		.loc 1 84 9 is_stmt 1
  84:src/Semaphore.cpp ****     }
 756              		.loc 1 84 31 is_stmt 0
 757 04bc 23A80400 		sw	zero,16(s1)
 758              	.LBE19:
 759              	.LBE21:
  86:src/Semaphore.cpp **** }
 760              		.loc 1 86 12
 761 04c0 13050000 		li	a0,0
 762              	.LBB22:
 763 04c4 6FF05FFA 		j	.L36
 764              	.LVL81:
 765              	.L37:
 766              	.LBE22:
  78:src/Semaphore.cpp ****     semaphore->val++;
 767              		.loc 1 78 38
 768 04c8 1305F0FF 		li	a0,-1
 769              	.LVL82:
 770 04cc 6FF0DFF9 		j	.L36
 771              		.cfi_endproc
 772              	.LFE21:
 774              		.align	2
 775              		.globl	_ZN9Semaphore6signalEv
 777              	_ZN9Semaphore6signalEv:
 778              	.LFB15:
  17:src/Semaphore.cpp ****     sem_signal(this->myHandle);
 779              		.loc 1 17 24 is_stmt 1
 780              		.cfi_startproc
 781              	.LVL83:
 782 04d0 130101FF 		addi	sp,sp,-16
 783              		.cfi_def_cfa_offset 16
 784 04d4 23341100 		sd	ra,8(sp)
 785 04d8 23308100 		sd	s0,0(sp)
 786              		.cfi_offset 1, -8
 787              		.cfi_offset 8, -16
 788 04dc 13040101 		addi	s0,sp,16
 789              		.cfi_def_cfa 8, 0
  18:src/Semaphore.cpp ****     return 0;
 790              		.loc 1 18 5
  18:src/Semaphore.cpp ****     return 0;
 791              		.loc 1 18 15 is_stmt 0
 792 04e0 03258500 		lw	a0,8(a0)
 793              	.LVL84:
 794 04e4 97000000 		call	_ZN9Semaphore10sem_signalEj
 794      E7800000 
 795              	.LVL85:
GAS LISTING /tmp/cc5z7tli.s 			page 18


  19:src/Semaphore.cpp **** }
 796              		.loc 1 19 5 is_stmt 1
  20:src/Semaphore.cpp **** 
 797              		.loc 1 20 1 is_stmt 0
 798 04ec 13050000 		li	a0,0
 799 04f0 83308100 		ld	ra,8(sp)
 800              		.cfi_restore 1
 801 04f4 03340100 		ld	s0,0(sp)
 802              		.cfi_restore 8
 803              		.cfi_def_cfa 2, 16
 804 04f8 13010101 		addi	sp,sp,16
 805              		.cfi_def_cfa_offset 0
 806 04fc 67800000 		jr	ra
 807              		.cfi_endproc
 808              	.LFE15:
 810              		.weak	_ZTV9Semaphore
 811              		.section	.data.rel.ro.local._ZTV9Semaphore,"awG",@progbits,_ZTV9Semaphore,comdat
 812              		.align	3
 815              	_ZTV9Semaphore:
 816 0000 00000000 		.dword	0
 816      00000000 
 817 0008 00000000 		.dword	0
 817      00000000 
 818 0010 00000000 		.dword	_ZN9SemaphoreD1Ev
 818      00000000 
 819 0018 00000000 		.dword	_ZN9SemaphoreD0Ev
 819      00000000 
 820              		.globl	_ZN9Semaphore3cntE
 821              		.data
 822              		.align	2
 823              		.set	.LANCHOR0,. + 0
 826              	_ZN9Semaphore3cntE:
 827 0000 01000000 		.word	1
 828              		.text
 829              	.Letext0:
 830              		.file 2 "src/../h/../lib/hw.h"
 831              		.file 3 "src/../h/List.hpp"
 832              		.file 4 "src/../h/Thread.hpp"
 833              		.file 5 "src/../h/memory_structs.h"
 834              		.file 6 "src/../h/ThreadPool.hpp"
 835              		.file 7 "src/../h/SemaphorePool.hpp"
 836              		.file 8 "src/../h/Semaphore.hpp"
 837              		.file 9 "src/../h/syscall_cpp.hpp"
 838              		.file 10 "src/../h/Scheduler.hpp"
 4111              		.align	3
 4114              	DW.ref.__gxx_personality_v0:
 4115 0000 00000000 		.dword	__gxx_personality_v0
 4115      00000000 
 4116              		.ident	"GCC: (Ubuntu 9.4.0-1ubuntu1~20.04) 9.4.0"
 4117              		.section	.note.GNU-stack,"",@progbits
GAS LISTING /tmp/cc5z7tli.s 			page 19


DEFINED SYMBOLS
                            *ABS*:0000000000000000 Semaphore.cpp
     /tmp/cc5z7tli.s:9      .text:0000000000000000 _ZN9SemaphoreD2Ev
     /tmp/cc5z7tli.s:13     .text:0000000000000000 .L0 
     /tmp/cc5z7tli.s:15     .text:0000000000000000 .L0 
     /tmp/cc5z7tli.s:16     .text:0000000000000004 .L0 
     /tmp/cc5z7tli.s:19     .text:000000000000000c .L0 
     /tmp/cc5z7tli.s:20     .text:000000000000000c .L0 
     /tmp/cc5z7tli.s:22     .text:0000000000000010 .L0 
     /tmp/cc5z7tli.s:815    .data.rel.ro.local._ZTV9Semaphore:0000000000000000 _ZTV9Semaphore
     /tmp/cc5z7tli.s:25     .text:0000000000000010 .L0 
     /tmp/cc5z7tli.s:33     .text:0000000000000028 .L0 
     /tmp/cc5z7tli.s:34     .text:000000000000002c .L0 
     /tmp/cc5z7tli.s:36     .text:0000000000000030 .L0 
     /tmp/cc5z7tli.s:37     .text:0000000000000030 .L0 
     /tmp/cc5z7tli.s:39     .text:0000000000000034 .L0 
     /tmp/cc5z7tli.s:41     .text:0000000000000038 .L0 
     /tmp/cc5z7tli.s:9      .text:0000000000000000 _ZN9SemaphoreD1Ev
     /tmp/cc5z7tli.s:49     .text:0000000000000038 _ZN9SemaphoreC2Ej
     /tmp/cc5z7tli.s:52     .text:0000000000000038 .L0 
     /tmp/cc5z7tli.s:54     .text:0000000000000038 .L0 
     /tmp/cc5z7tli.s:55     .text:000000000000003c .L0 
     /tmp/cc5z7tli.s:60     .text:000000000000004c .L0 
     /tmp/cc5z7tli.s:61     .text:000000000000004c .L0 
     /tmp/cc5z7tli.s:62     .text:000000000000004c .L0 
     /tmp/cc5z7tli.s:63     .text:000000000000004c .L0 
     /tmp/cc5z7tli.s:65     .text:0000000000000050 .L0 
     /tmp/cc5z7tli.s:70     .text:0000000000000058 .L0 
     /tmp/cc5z7tli.s:77     .text:0000000000000070 .L0 
     /tmp/cc5z7tli.s:78     .text:0000000000000070 .L0 
     /tmp/cc5z7tli.s:80     .text:0000000000000074 .L0 
     /tmp/cc5z7tli.s:81     .text:0000000000000074 .L0 
     /tmp/cc5z7tli.s:86     .text:0000000000000088 .L0 
     /tmp/cc5z7tli.s:89     .text:000000000000008c .L0 
     /tmp/cc5z7tli.s:90     .text:0000000000000090 .L0 
     /tmp/cc5z7tli.s:92     .text:0000000000000094 .L0 
     /tmp/cc5z7tli.s:93     .text:0000000000000094 .L0 
     /tmp/cc5z7tli.s:95     .text:0000000000000098 .L0 
     /tmp/cc5z7tli.s:98     .text:000000000000009c .L0 
     /tmp/cc5z7tli.s:100    .text:00000000000000a0 .L0 
     /tmp/cc5z7tli.s:102    .text:00000000000000a4 .L0 
     /tmp/cc5z7tli.s:49     .text:0000000000000038 _ZN9SemaphoreC1Ej
     /tmp/cc5z7tli.s:110    .text:00000000000000a4 _ZN9SemaphorenwEm
     /tmp/cc5z7tli.s:113    .text:00000000000000a4 .L0 
     /tmp/cc5z7tli.s:115    .text:00000000000000a4 .L0 
     /tmp/cc5z7tli.s:116    .text:00000000000000a8 .L0 
     /tmp/cc5z7tli.s:119    .text:00000000000000b0 .L0 
     /tmp/cc5z7tli.s:120    .text:00000000000000b0 .L0 
     /tmp/cc5z7tli.s:122    .text:00000000000000b4 .L0 
     /tmp/cc5z7tli.s:124    .text:00000000000000b4 .L0 
     /tmp/cc5z7tli.s:125    .text:00000000000000b4 .L0 
     /tmp/cc5z7tli.s:130    .text:00000000000000c4 .L0 
     /tmp/cc5z7tli.s:133    .text:00000000000000cc .L0 
     /tmp/cc5z7tli.s:134    .text:00000000000000d0 .L0 
     /tmp/cc5z7tli.s:136    .text:00000000000000d4 .L0 
     /tmp/cc5z7tli.s:137    .text:00000000000000d4 .L0 
     /tmp/cc5z7tli.s:139    .text:00000000000000d8 .L0 
GAS LISTING /tmp/cc5z7tli.s 			page 20


     /tmp/cc5z7tli.s:141    .text:00000000000000dc .L0 
     /tmp/cc5z7tli.s:147    .text:00000000000000dc _ZN9SemaphoredlEPv
     /tmp/cc5z7tli.s:150    .text:00000000000000dc .L0 
     /tmp/cc5z7tli.s:4114   .data.rel.local.DW.ref.__gxx_personality_v0:0000000000000000 DW.ref.__gxx_personality_v0
     /tmp/cc5z7tli.s:154    .text:00000000000000dc .L0 
     /tmp/cc5z7tli.s:155    .text:00000000000000e0 .L0 
     /tmp/cc5z7tli.s:159    .text:00000000000000ec .L0 
     /tmp/cc5z7tli.s:160    .text:00000000000000ec .L0 
     /tmp/cc5z7tli.s:161    .text:00000000000000ec .L0 
     /tmp/cc5z7tli.s:163    .text:00000000000000f0 .L0 
     /tmp/cc5z7tli.s:166    .text:00000000000000f4 .L0 
     /tmp/cc5z7tli.s:167    .text:00000000000000f4 .L0 
     /tmp/cc5z7tli.s:172    .text:0000000000000104 .L0 
     /tmp/cc5z7tli.s:176    .text:0000000000000110 .L0 
     /tmp/cc5z7tli.s:177    .text:0000000000000114 .L0 
     /tmp/cc5z7tli.s:179    .text:0000000000000118 .L0 
     /tmp/cc5z7tli.s:180    .text:0000000000000118 .L0 
     /tmp/cc5z7tli.s:182    .text:000000000000011c .L0 
     /tmp/cc5z7tli.s:185    .text:0000000000000120 .L0 
     /tmp/cc5z7tli.s:187    .text:0000000000000124 .L0 
     /tmp/cc5z7tli.s:201    .text:0000000000000124 _ZN9SemaphoreD0Ev
     /tmp/cc5z7tli.s:204    .text:0000000000000124 .L0 
     /tmp/cc5z7tli.s:206    .text:0000000000000124 .L0 
     /tmp/cc5z7tli.s:207    .text:0000000000000128 .L0 
     /tmp/cc5z7tli.s:211    .text:0000000000000134 .L0 
     /tmp/cc5z7tli.s:212    .text:0000000000000134 .L0 
     /tmp/cc5z7tli.s:213    .text:0000000000000134 .L0 
     /tmp/cc5z7tli.s:215    .text:0000000000000138 .L0 
     /tmp/cc5z7tli.s:218    .text:000000000000013c .L0 
     /tmp/cc5z7tli.s:224    .text:0000000000000154 .L0 
     /tmp/cc5z7tli.s:226    .text:0000000000000158 .L0 
     /tmp/cc5z7tli.s:227    .text:0000000000000158 .L0 
     /tmp/cc5z7tli.s:229    .text:000000000000015c .L0 
     /tmp/cc5z7tli.s:232    .text:0000000000000160 .L0 
     /tmp/cc5z7tli.s:234    .text:0000000000000164 .L0 
     /tmp/cc5z7tli.s:240    .text:0000000000000164 _ZN9Semaphore8sem_openEPjj
     /tmp/cc5z7tli.s:243    .text:0000000000000164 .L0 
     /tmp/cc5z7tli.s:247    .text:0000000000000164 .L0 
     /tmp/cc5z7tli.s:248    .text:0000000000000168 .L0 
     /tmp/cc5z7tli.s:254    .text:000000000000017c .L0 
     /tmp/cc5z7tli.s:255    .text:000000000000017c .L0 
     /tmp/cc5z7tli.s:256    .text:000000000000017c .L0 
     /tmp/cc5z7tli.s:257    .text:000000000000017c .L0 
     /tmp/cc5z7tli.s:258    .text:000000000000017c .L0 
     /tmp/cc5z7tli.s:260    .text:0000000000000180 .L0 
     /tmp/cc5z7tli.s:264    .text:0000000000000188 .L0 
     /tmp/cc5z7tli.s:265    .text:0000000000000188 .L0 
     /tmp/cc5z7tli.s:278    .text:00000000000001a4 .L0 
     /tmp/cc5z7tli.s:280    .text:00000000000001a8 .L0 
     /tmp/cc5z7tli.s:281    .text:00000000000001a8 .L0 
     /tmp/cc5z7tli.s:283    .text:00000000000001ac .L0 
     /tmp/cc5z7tli.s:285    .text:00000000000001b0 .L0 
     /tmp/cc5z7tli.s:286    .text:00000000000001b0 .L0 
     /tmp/cc5z7tli.s:289    .text:00000000000001b4 .L0 
     /tmp/cc5z7tli.s:290    .text:00000000000001b8 .L0 
     /tmp/cc5z7tli.s:291    .text:00000000000001b8 .L0 
     /tmp/cc5z7tli.s:293    .text:00000000000001bc .L0 
GAS LISTING /tmp/cc5z7tli.s 			page 21


     /tmp/cc5z7tli.s:294    .text:00000000000001bc .L0 
     /tmp/cc5z7tli.s:296    .text:00000000000001c0 .L0 
     /tmp/cc5z7tli.s:299    .text:00000000000001c4 .L0 
     /tmp/cc5z7tli.s:301    .text:00000000000001c8 .L0 
     /tmp/cc5z7tli.s:304    .text:00000000000001cc .L0 
     /tmp/cc5z7tli.s:308    .text:00000000000001d0 .L0 
     /tmp/cc5z7tli.s:310    .text:00000000000001d0 .L0 
     /tmp/cc5z7tli.s:316    .text:00000000000001dc .L0 
     /tmp/cc5z7tli.s:324    .text:00000000000001f4 .L0 
     /tmp/cc5z7tli.s:349    .text:00000000000001f4 _ZN9Semaphore9sem_closeEj
     /tmp/cc5z7tli.s:352    .text:00000000000001f4 .L0 
     /tmp/cc5z7tli.s:354    .text:00000000000001f4 .L0 
     /tmp/cc5z7tli.s:355    .text:00000000000001f8 .L0 
     /tmp/cc5z7tli.s:360    .text:0000000000000208 .L0 
     /tmp/cc5z7tli.s:361    .text:0000000000000208 .L0 
     /tmp/cc5z7tli.s:362    .text:0000000000000208 .L0 
     /tmp/cc5z7tli.s:363    .text:0000000000000208 .L0 
     /tmp/cc5z7tli.s:365    .text:000000000000020c .L0 
     /tmp/cc5z7tli.s:368    .text:0000000000000210 .L0 
     /tmp/cc5z7tli.s:369    .text:0000000000000210 .L0 
     /tmp/cc5z7tli.s:374    .text:0000000000000220 .L0 
     /tmp/cc5z7tli.s:380    .text:0000000000000230 .L0 
     /tmp/cc5z7tli.s:384    .text:0000000000000234 .L0 
     /tmp/cc5z7tli.s:385    .text:0000000000000234 .L0 
     /tmp/cc5z7tli.s:386    .text:0000000000000234 .L0 
     /tmp/cc5z7tli.s:391    .text:0000000000000244 .L0 
     /tmp/cc5z7tli.s:394    .text:0000000000000248 .L0 
     /tmp/cc5z7tli.s:395    .text:0000000000000248 .L0 
     /tmp/cc5z7tli.s:401    .text:0000000000000258 .L0 
     /tmp/cc5z7tli.s:402    .text:0000000000000258 .L0 
     /tmp/cc5z7tli.s:405    .text:0000000000000260 .L0 
     /tmp/cc5z7tli.s:406    .text:0000000000000260 .L0 
     /tmp/cc5z7tli.s:412    .text:0000000000000270 .L0 
     /tmp/cc5z7tli.s:415    .text:0000000000000274 .L0 
     /tmp/cc5z7tli.s:416    .text:0000000000000274 .L0 
     /tmp/cc5z7tli.s:422    .text:0000000000000284 .L0 
     /tmp/cc5z7tli.s:423    .text:0000000000000284 .L0 
     /tmp/cc5z7tli.s:426    .text:0000000000000288 .L0 
     /tmp/cc5z7tli.s:427    .text:000000000000028c .L0 
     /tmp/cc5z7tli.s:428    .text:000000000000028c .L0 
     /tmp/cc5z7tli.s:430    .text:0000000000000290 .L0 
     /tmp/cc5z7tli.s:431    .text:0000000000000290 .L0 
     /tmp/cc5z7tli.s:433    .text:0000000000000294 .L0 
     /tmp/cc5z7tli.s:435    .text:0000000000000298 .L0 
     /tmp/cc5z7tli.s:438    .text:000000000000029c .L0 
     /tmp/cc5z7tli.s:442    .text:00000000000002a0 .L0 
     /tmp/cc5z7tli.s:444    .text:00000000000002a0 .L0 
     /tmp/cc5z7tli.s:447    .text:00000000000002a8 .L0 
     /tmp/cc5z7tli.s:453    .text:00000000000002a8 _ZN9Semaphore8sem_waitEj
     /tmp/cc5z7tli.s:456    .text:00000000000002a8 .L0 
     /tmp/cc5z7tli.s:458    .text:00000000000002a8 .L0 
     /tmp/cc5z7tli.s:459    .text:00000000000002ac .L0 
     /tmp/cc5z7tli.s:464    .text:00000000000002bc .L0 
     /tmp/cc5z7tli.s:465    .text:00000000000002bc .L0 
     /tmp/cc5z7tli.s:466    .text:00000000000002bc .L0 
     /tmp/cc5z7tli.s:467    .text:00000000000002bc .L0 
     /tmp/cc5z7tli.s:469    .text:00000000000002c0 .L0 
GAS LISTING /tmp/cc5z7tli.s 			page 22


     /tmp/cc5z7tli.s:472    .text:00000000000002c4 .L0 
     /tmp/cc5z7tli.s:473    .text:00000000000002c4 .L0 
     /tmp/cc5z7tli.s:478    .text:00000000000002d4 .L0 
     /tmp/cc5z7tli.s:482    .text:00000000000002e0 .L0 
     /tmp/cc5z7tli.s:484    .text:00000000000002e4 .L0 
     /tmp/cc5z7tli.s:485    .text:00000000000002e4 .L0 
     /tmp/cc5z7tli.s:488    .text:00000000000002f0 .L0 
     /tmp/cc5z7tli.s:490    .text:00000000000002f4 .L0 
     /tmp/cc5z7tli.s:491    .text:00000000000002f4 .L0 
     /tmp/cc5z7tli.s:493    .text:00000000000002f8 .L0 
     /tmp/cc5z7tli.s:497    .text:0000000000000300 .L0 
     /tmp/cc5z7tli.s:501    .text:0000000000000308 .L0 
     /tmp/cc5z7tli.s:505    .text:000000000000030c .L0 
     /tmp/cc5z7tli.s:506    .text:0000000000000310 .L0 
     /tmp/cc5z7tli.s:507    .text:0000000000000310 .L0 
     /tmp/cc5z7tli.s:509    .text:0000000000000314 .L0 
     /tmp/cc5z7tli.s:510    .text:0000000000000314 .L0 
     /tmp/cc5z7tli.s:512    .text:0000000000000318 .L0 
     /tmp/cc5z7tli.s:514    .text:000000000000031c .L0 
     /tmp/cc5z7tli.s:516    .text:0000000000000320 .L0 
     /tmp/cc5z7tli.s:520    .text:0000000000000324 .L0 
     /tmp/cc5z7tli.s:524    .text:0000000000000324 .L0 
     /tmp/cc5z7tli.s:525    .text:0000000000000324 .L0 
     /tmp/cc5z7tli.s:530    .text:0000000000000330 .L0 
     /tmp/cc5z7tli.s:531    .text:0000000000000330 .L0 
     /tmp/cc5z7tli.s:535    .text:0000000000000340 .L0 
     /tmp/cc5z7tli.s:538    .text:000000000000034c .L0 
     /tmp/cc5z7tli.s:541    .text:0000000000000350 .L0 
     /tmp/cc5z7tli.s:542    .text:0000000000000350 .L0 
     /tmp/cc5z7tli.s:545    .text:0000000000000358 .L0 
     /tmp/cc5z7tli.s:547    .text:000000000000035c .L0 
     /tmp/cc5z7tli.s:551    .text:0000000000000364 .L0 
     /tmp/cc5z7tli.s:552    .text:0000000000000364 .L0 
     /tmp/cc5z7tli.s:557    .text:0000000000000378 .L0 
     /tmp/cc5z7tli.s:560    .text:0000000000000380 .L0 
     /tmp/cc5z7tli.s:561    .text:0000000000000380 .L0 
     /tmp/cc5z7tli.s:567    .text:0000000000000390 .L0 
     /tmp/cc5z7tli.s:568    .text:0000000000000390 .L0 
     /tmp/cc5z7tli.s:574    .text:00000000000003a0 .L0 
     /tmp/cc5z7tli.s:575    .text:00000000000003a0 .L0 
     /tmp/cc5z7tli.s:584    .text:00000000000003ac .L0 
     /tmp/cc5z7tli.s:592    .text:00000000000003b4 .L0 
     /tmp/cc5z7tli.s:593    .text:00000000000003b4 .L0 
     /tmp/cc5z7tli.s:603    .text:00000000000003d0 .L0 
     /tmp/cc5z7tli.s:614    .text:00000000000003d8 .L0 
     /tmp/cc5z7tli.s:621    .text:00000000000003e0 .L0 
     /tmp/cc5z7tli.s:625    .text:00000000000003e8 .L0 
     /tmp/cc5z7tli.s:631    .text:00000000000003e8 _ZN9Semaphore4waitEv
     /tmp/cc5z7tli.s:634    .text:00000000000003e8 .L0 
     /tmp/cc5z7tli.s:636    .text:00000000000003e8 .L0 
     /tmp/cc5z7tli.s:637    .text:00000000000003ec .L0 
     /tmp/cc5z7tli.s:640    .text:00000000000003f4 .L0 
     /tmp/cc5z7tli.s:641    .text:00000000000003f4 .L0 
     /tmp/cc5z7tli.s:643    .text:00000000000003f8 .L0 
     /tmp/cc5z7tli.s:645    .text:00000000000003f8 .L0 
     /tmp/cc5z7tli.s:646    .text:00000000000003f8 .L0 
     /tmp/cc5z7tli.s:651    .text:0000000000000404 .L0 
GAS LISTING /tmp/cc5z7tli.s 			page 23


     /tmp/cc5z7tli.s:652    .text:0000000000000404 .L0 
     /tmp/cc5z7tli.s:654    .text:000000000000040c .L0 
     /tmp/cc5z7tli.s:656    .text:0000000000000410 .L0 
     /tmp/cc5z7tli.s:657    .text:0000000000000410 .L0 
     /tmp/cc5z7tli.s:659    .text:0000000000000414 .L0 
     /tmp/cc5z7tli.s:661    .text:0000000000000418 .L0 
     /tmp/cc5z7tli.s:667    .text:0000000000000418 _ZN9Semaphore10sem_signalEj
     /tmp/cc5z7tli.s:670    .text:0000000000000418 .L0 
     /tmp/cc5z7tli.s:672    .text:0000000000000418 .L0 
     /tmp/cc5z7tli.s:673    .text:000000000000041c .L0 
     /tmp/cc5z7tli.s:677    .text:0000000000000428 .L0 
     /tmp/cc5z7tli.s:678    .text:0000000000000428 .L0 
     /tmp/cc5z7tli.s:679    .text:0000000000000428 .L0 
     /tmp/cc5z7tli.s:681    .text:000000000000042c .L0 
     /tmp/cc5z7tli.s:684    .text:0000000000000430 .L0 
     /tmp/cc5z7tli.s:685    .text:0000000000000430 .L0 
     /tmp/cc5z7tli.s:690    .text:0000000000000440 .L0 
     /tmp/cc5z7tli.s:694    .text:000000000000044c .L0 
     /tmp/cc5z7tli.s:696    .text:0000000000000450 .L0 
     /tmp/cc5z7tli.s:697    .text:0000000000000450 .L0 
     /tmp/cc5z7tli.s:699    .text:0000000000000454 .L0 
     /tmp/cc5z7tli.s:703    .text:000000000000045c .L0 
     /tmp/cc5z7tli.s:704    .text:000000000000045c .L0 
     /tmp/cc5z7tli.s:708    .text:0000000000000464 .L0 
     /tmp/cc5z7tli.s:712    .text:0000000000000468 .L0 
     /tmp/cc5z7tli.s:713    .text:000000000000046c .L0 
     /tmp/cc5z7tli.s:714    .text:000000000000046c .L0 
     /tmp/cc5z7tli.s:716    .text:0000000000000470 .L0 
     /tmp/cc5z7tli.s:717    .text:0000000000000470 .L0 
     /tmp/cc5z7tli.s:719    .text:0000000000000474 .L0 
     /tmp/cc5z7tli.s:721    .text:0000000000000478 .L0 
     /tmp/cc5z7tli.s:725    .text:000000000000047c .L0 
     /tmp/cc5z7tli.s:728    .text:000000000000047c .L0 
     /tmp/cc5z7tli.s:734    .text:000000000000048c .L0 
     /tmp/cc5z7tli.s:737    .text:0000000000000490 .L0 
     /tmp/cc5z7tli.s:743    .text:0000000000000498 .L0 
     /tmp/cc5z7tli.s:744    .text:0000000000000498 .L0 
     /tmp/cc5z7tli.s:750    .text:00000000000004a8 .L0 
     /tmp/cc5z7tli.s:751    .text:00000000000004a8 .L0 
     /tmp/cc5z7tli.s:756    .text:00000000000004bc .L0 
     /tmp/cc5z7tli.s:757    .text:00000000000004bc .L0 
     /tmp/cc5z7tli.s:761    .text:00000000000004c0 .L0 
     /tmp/cc5z7tli.s:768    .text:00000000000004c8 .L0 
     /tmp/cc5z7tli.s:771    .text:00000000000004d0 .L0 
     /tmp/cc5z7tli.s:777    .text:00000000000004d0 _ZN9Semaphore6signalEv
     /tmp/cc5z7tli.s:780    .text:00000000000004d0 .L0 
     /tmp/cc5z7tli.s:782    .text:00000000000004d0 .L0 
     /tmp/cc5z7tli.s:783    .text:00000000000004d4 .L0 
     /tmp/cc5z7tli.s:786    .text:00000000000004dc .L0 
     /tmp/cc5z7tli.s:787    .text:00000000000004dc .L0 
     /tmp/cc5z7tli.s:789    .text:00000000000004e0 .L0 
     /tmp/cc5z7tli.s:791    .text:00000000000004e0 .L0 
     /tmp/cc5z7tli.s:792    .text:00000000000004e0 .L0 
     /tmp/cc5z7tli.s:797    .text:00000000000004ec .L0 
     /tmp/cc5z7tli.s:798    .text:00000000000004ec .L0 
     /tmp/cc5z7tli.s:800    .text:00000000000004f4 .L0 
     /tmp/cc5z7tli.s:802    .text:00000000000004f8 .L0 
GAS LISTING /tmp/cc5z7tli.s 			page 24


     /tmp/cc5z7tli.s:803    .text:00000000000004f8 .L0 
     /tmp/cc5z7tli.s:805    .text:00000000000004fc .L0 
     /tmp/cc5z7tli.s:807    .text:0000000000000500 .L0 
     /tmp/cc5z7tli.s:826    .data:0000000000000000 _ZN9Semaphore3cntE
     /tmp/cc5z7tli.s:823    .data:0000000000000000 .LANCHOR0
     /tmp/cc5z7tli.s:839    .text:0000000000000500 .L0 
     /tmp/cc5z7tli.s:25     .text:0000000000000010 .L0 
     /tmp/cc5z7tli.s:70     .text:0000000000000058 .L0 
     /tmp/cc5z7tli.s:81     .text:0000000000000074 .L0 
     /tmp/cc5z7tli.s:406    .text:0000000000000260 .L0 
     /tmp/cc5z7tli.s:485    .text:00000000000002e4 .L0 
     /tmp/cc5z7tli.s:531    .text:0000000000000330 .L0 
     /tmp/cc5z7tli.s:535    .text:0000000000000340 .L0 
     /tmp/cc5z7tli.s:552    .text:0000000000000364 .L0 
     /tmp/cc5z7tli.s:593    .text:00000000000003b4 .L0 
     /tmp/cc5z7tli.s:752    .text:00000000000004ac .L0 
     /tmp/cc5z7tli.s:307    .text:00000000000001d0 .L14
     /tmp/cc5z7tli.s:287    .text:00000000000001b4 .L16
     /tmp/cc5z7tli.s:441    .text:00000000000002a0 .L22
     /tmp/cc5z7tli.s:413    .text:0000000000000274 .L20
     /tmp/cc5z7tli.s:382    .text:0000000000000234 .L21
     /tmp/cc5z7tli.s:424    .text:0000000000000288 .L19
     /tmp/cc5z7tli.s:609    .text:00000000000003d8 .L27
     /tmp/cc5z7tli.s:519    .text:0000000000000324 .L31
     /tmp/cc5z7tli.s:617    .text:00000000000003e0 .L29
     /tmp/cc5z7tli.s:587    .text:00000000000003b4 .L32
     /tmp/cc5z7tli.s:503    .text:000000000000030c .L25
     /tmp/cc5z7tli.s:765    .text:00000000000004c8 .L37
     /tmp/cc5z7tli.s:724    .text:000000000000047c .L41
     /tmp/cc5z7tli.s:739    .text:0000000000000498 .L42
     /tmp/cc5z7tli.s:710    .text:0000000000000468 .L36
     /tmp/cc5z7tli.s:267    .text:000000000000018c .LEHB0
     /tmp/cc5z7tli.s:241    .text:0000000000000164 .LFB18
     /tmp/cc5z7tli.s:270    .text:0000000000000194 .LEHE0
     /tmp/cc5z7tli.s:273    .text:000000000000019c .LEHB1
     /tmp/cc5z7tli.s:276    .text:00000000000001a4 .LEHE1
     /tmp/cc5z7tli.s:313    .text:00000000000001d8 .L15
     /tmp/cc5z7tli.s:320    .text:00000000000001ec .LEHB2
     /tmp/cc5z7tli.s:323    .text:00000000000001f4 .LEHE2
     /tmp/cc5z7tli.s:2519   .debug_abbrev:0000000000000000 .Ldebug_abbrev0
     /tmp/cc5z7tli.s:4042   .debug_str:00000000000007d8 .LASF132
     /tmp/cc5z7tli.s:3854   .debug_str:000000000000018d .LASF133
     /tmp/cc5z7tli.s:3878   .debug_str:0000000000000271 .LASF134
     /tmp/cc5z7tli.s:5      .text:0000000000000000 .Ltext0
     /tmp/cc5z7tli.s:829    .text:0000000000000500 .Letext0
     /tmp/cc5z7tli.s:3806   .debug_line:0000000000000000 .Ldebug_line0
     /tmp/cc5z7tli.s:3894   .debug_str:0000000000000305 .LASF0
     /tmp/cc5z7tli.s:3924   .debug_str:0000000000000411 .LASF1
     /tmp/cc5z7tli.s:3996   .debug_str:0000000000000660 .LASF2
     /tmp/cc5z7tli.s:4000   .debug_str:0000000000000684 .LASF4
     /tmp/cc5z7tli.s:3904   .debug_str:000000000000034c .LASF3
     /tmp/cc5z7tli.s:3812   .debug_str:000000000000001a .LASF5
     /tmp/cc5z7tli.s:4066   .debug_str:0000000000000997 .LASF6
     /tmp/cc5z7tli.s:4082   .debug_str:00000000000009f0 .LASF7
     /tmp/cc5z7tli.s:3970   .debug_str:0000000000000591 .LASF8
     /tmp/cc5z7tli.s:3916   .debug_str:00000000000003cb .LASF9
     /tmp/cc5z7tli.s:3846   .debug_str:000000000000015d .LASF10
GAS LISTING /tmp/cc5z7tli.s 			page 25


     /tmp/cc5z7tli.s:3876   .debug_str:0000000000000261 .LASF11
     /tmp/cc5z7tli.s:3884   .debug_str:00000000000002b4 .LASF12
     /tmp/cc5z7tli.s:3836   .debug_str:0000000000000104 .LASF13
     /tmp/cc5z7tli.s:3868   .debug_str:0000000000000215 .LASF14
     /tmp/cc5z7tli.s:3848   .debug_str:000000000000016b .LASF15
     /tmp/cc5z7tli.s:3834   .debug_str:00000000000000f4 .LASF16
     /tmp/cc5z7tli.s:4026   .debug_str:0000000000000778 .LASF17
     /tmp/cc5z7tli.s:3860   .debug_str:00000000000001b7 .LASF18
     /tmp/cc5z7tli.s:4020   .debug_str:0000000000000744 .LASF19
     /tmp/cc5z7tli.s:3880   .debug_str:000000000000028f .LASF51
     /tmp/cc5z7tli.s:3948   .debug_str:00000000000004cf .LASF20
     /tmp/cc5z7tli.s:3998   .debug_str:000000000000066e .LASF22
     /tmp/cc5z7tli.s:4090   .debug_str:0000000000000a47 .LASF21
     /tmp/cc5z7tli.s:3964   .debug_str:0000000000000542 .LASF23
     /tmp/cc5z7tli.s:4074   .debug_str:00000000000009c1 .LASF24
     /tmp/cc5z7tli.s:3866   .debug_str:00000000000001f6 .LASF25
     /tmp/cc5z7tli.s:4050   .debug_str:00000000000008c8 .LASF26
     /tmp/cc5z7tli.s:3830   .debug_str:00000000000000b8 .LASF28
     /tmp/cc5z7tli.s:3852   .debug_str:0000000000000187 .LASF27
     /tmp/cc5z7tli.s:4018   .debug_str:000000000000072a .LASF29
     /tmp/cc5z7tli.s:4024   .debug_str:0000000000000773 .LASF30
     /tmp/cc5z7tli.s:3952   .debug_str:00000000000004ef .LASF31
     /tmp/cc5z7tli.s:3888   .debug_str:00000000000002cd .LASF135
     /tmp/cc5z7tli.s:4022   .debug_str:000000000000075a .LASF32
     /tmp/cc5z7tli.s:3906   .debug_str:000000000000035e .LASF34
     /tmp/cc5z7tli.s:3980   .debug_str:00000000000005c8 .LASF33
     /tmp/cc5z7tli.s:4052   .debug_str:00000000000008d9 .LASF35
     /tmp/cc5z7tli.s:3930   .debug_str:000000000000043f .LASF36
     /tmp/cc5z7tli.s:3974   .debug_str:00000000000005ad .LASF136
     /tmp/cc5z7tli.s:4040   .debug_str:00000000000007d0 .LASF40
     /tmp/cc5z7tli.s:3838   .debug_str:0000000000000113 .LASF37
     /tmp/cc5z7tli.s:3826   .debug_str:0000000000000098 .LASF38
     /tmp/cc5z7tli.s:3922   .debug_str:000000000000040c .LASF39
     /tmp/cc5z7tli.s:3954   .debug_str:00000000000004f4 .LASF41
     /tmp/cc5z7tli.s:3946   .debug_str:00000000000004c5 .LASF42
     /tmp/cc5z7tli.s:3850   .debug_str:000000000000017b .LASF43
     /tmp/cc5z7tli.s:4072   .debug_str:00000000000009b9 .LASF44
     /tmp/cc5z7tli.s:3896   .debug_str:0000000000000312 .LASF45
     /tmp/cc5z7tli.s:3820   .debug_str:0000000000000063 .LASF46
     /tmp/cc5z7tli.s:4046   .debug_str:00000000000008a1 .LASF47
     /tmp/cc5z7tli.s:3844   .debug_str:000000000000014b .LASF48
     /tmp/cc5z7tli.s:3908   .debug_str:0000000000000369 .LASF49
     /tmp/cc5z7tli.s:3972   .debug_str:00000000000005a4 .LASF50
     /tmp/cc5z7tli.s:3934   .debug_str:0000000000000468 .LASF52
     /tmp/cc5z7tli.s:4068   .debug_str:00000000000009a0 .LASF53
     /tmp/cc5z7tli.s:3976   .debug_str:00000000000005be .LASF54
     /tmp/cc5z7tli.s:3950   .debug_str:00000000000004d4 .LASF55
     /tmp/cc5z7tli.s:4010   .debug_str:00000000000006ea .LASF56
     /tmp/cc5z7tli.s:3932   .debug_str:0000000000000444 .LASF57
     /tmp/cc5z7tli.s:4104   .debug_str:0000000000000ab2 .LASF58
     /tmp/cc5z7tli.s:3862   .debug_str:00000000000001cd .LASF59
     /tmp/cc5z7tli.s:3936   .debug_str:0000000000000473 .LASF60
     /tmp/cc5z7tli.s:4008   .debug_str:00000000000006c5 .LASF61
     /tmp/cc5z7tli.s:4070   .debug_str:00000000000009b4 .LASF62
     /tmp/cc5z7tli.s:3978   .debug_str:00000000000005c3 .LASF63
     /tmp/cc5z7tli.s:3962   .debug_str:0000000000000534 .LASF64
     /tmp/cc5z7tli.s:4014   .debug_str:0000000000000709 .LASF65
GAS LISTING /tmp/cc5z7tli.s 			page 26


     /tmp/cc5z7tli.s:3840   .debug_str:0000000000000118 .LASF66
     /tmp/cc5z7tli.s:3918   .debug_str:00000000000003de .LASF67
     /tmp/cc5z7tli.s:4058   .debug_str:0000000000000924 .LASF68
     /tmp/cc5z7tli.s:3892   .debug_str:00000000000002da .LASF69
     /tmp/cc5z7tli.s:3940   .debug_str:0000000000000490 .LASF70
     /tmp/cc5z7tli.s:4038   .debug_str:00000000000007bb .LASF137
     /tmp/cc5z7tli.s:4092   .debug_str:0000000000000a4d .LASF138
     /tmp/cc5z7tli.s:4034   .debug_str:0000000000000799 .LASF71
     /tmp/cc5z7tli.s:3982   .debug_str:00000000000005e5 .LASF139
     /tmp/cc5z7tli.s:4006   .debug_str:00000000000006b3 .LASF140
     /tmp/cc5z7tli.s:4044   .debug_str:000000000000089c .LASF72
     /tmp/cc5z7tli.s:3842   .debug_str:0000000000000136 .LASF73
     /tmp/cc5z7tli.s:4028   .debug_str:0000000000000784 .LASF74
     /tmp/cc5z7tli.s:3814   .debug_str:0000000000000021 .LASF75
     /tmp/cc5z7tli.s:3990   .debug_str:0000000000000631 .LASF76
     /tmp/cc5z7tli.s:3828   .debug_str:000000000000009d .LASF77
     /tmp/cc5z7tli.s:3984   .debug_str:00000000000005f0 .LASF78
     /tmp/cc5z7tli.s:4100   .debug_str:0000000000000a88 .LASF79
     /tmp/cc5z7tli.s:3928   .debug_str:0000000000000436 .LASF80
     /tmp/cc5z7tli.s:3914   .debug_str:00000000000003b2 .LASF81
     /tmp/cc5z7tli.s:3886   .debug_str:00000000000002c2 .LASF82
     /tmp/cc5z7tli.s:3992   .debug_str:000000000000063a .LASF83
     /tmp/cc5z7tli.s:4096   .debug_str:0000000000000a68 .LASF84
     /tmp/cc5z7tli.s:4076   .debug_str:00000000000009c9 .LASF85
     /tmp/cc5z7tli.s:3808   .debug_str:0000000000000000 .LASF109
     /tmp/cc5z7tli.s:4062   .debug_str:0000000000000968 .LASF110
     /tmp/cc5z7tli.s:3900   .debug_str:0000000000000339 .LASF86
     /tmp/cc5z7tli.s:4004   .debug_str:00000000000006ab .LASF87
     /tmp/cc5z7tli.s:3858   .debug_str:00000000000001ae .LASF88
     /tmp/cc5z7tli.s:3864   .debug_str:00000000000001e8 .LASF89
     /tmp/cc5z7tli.s:3956   .debug_str:0000000000000502 .LASF90
     /tmp/cc5z7tli.s:3938   .debug_str:000000000000047e .LASF141
     /tmp/cc5z7tli.s:4032   .debug_str:0000000000000794 .LASF91
     /tmp/cc5z7tli.s:3966   .debug_str:0000000000000558 .LASF92
     /tmp/cc5z7tli.s:3986   .debug_str:00000000000005fa .LASF142
     /tmp/cc5z7tli.s:4002   .debug_str:000000000000068b .LASF143
     /tmp/cc5z7tli.s:3942   .debug_str:000000000000049a .LASF93
     /tmp/cc5z7tli.s:3816   .debug_str:0000000000000038 .LASF94
     /tmp/cc5z7tli.s:4030   .debug_str:000000000000078b .LASF95
     /tmp/cc5z7tli.s:3944   .debug_str:00000000000004a4 .LASF96
     /tmp/cc5z7tli.s:3912   .debug_str:000000000000039b .LASF97
     /tmp/cc5z7tli.s:4084   .debug_str:00000000000009f6 .LASF98
     /tmp/cc5z7tli.s:4102   .debug_str:0000000000000aa2 .LASF99
     /tmp/cc5z7tli.s:4056   .debug_str:00000000000008f9 .LASF100
     /tmp/cc5z7tli.s:4106   .debug_str:0000000000000abb .LASF101
     /tmp/cc5z7tli.s:3870   .debug_str:0000000000000224 .LASF102
     /tmp/cc5z7tli.s:3832   .debug_str:00000000000000de .LASF103
     /tmp/cc5z7tli.s:3988   .debug_str:0000000000000603 .LASF104
     /tmp/cc5z7tli.s:4078   .debug_str:00000000000009db .LASF105
     /tmp/cc5z7tli.s:4060   .debug_str:0000000000000942 .LASF106
     /tmp/cc5z7tli.s:4054   .debug_str:00000000000008e8 .LASF107
     /tmp/cc5z7tli.s:3968   .debug_str:0000000000000568 .LASF108
     /tmp/cc5z7tli.s:3824   .debug_str:000000000000007f .LASF111
     /tmp/cc5z7tli.s:4016   .debug_str:0000000000000720 .LASF112
     /tmp/cc5z7tli.s:3890   .debug_str:00000000000002d4 .LASF113
     /tmp/cc5z7tli.s:4048   .debug_str:00000000000008ab .LASF114
     /tmp/cc5z7tli.s:3902   .debug_str:0000000000000342 .LASF115
GAS LISTING /tmp/cc5z7tli.s 			page 27


     /tmp/cc5z7tli.s:3910   .debug_str:0000000000000372 .LASF116
     /tmp/cc5z7tli.s:4094   .debug_str:0000000000000a5d .LASF117
     /tmp/cc5z7tli.s:4012   .debug_str:00000000000006fb .LASF118
     /tmp/cc5z7tli.s:3874   .debug_str:0000000000000257 .LASF119
     /tmp/cc5z7tli.s:4086   .debug_str:0000000000000a26 .LASF120
     /tmp/cc5z7tli.s:3898   .debug_str:000000000000031e .LASF144
     /tmp/cc5z7tli.s:3960   .debug_str:0000000000000520 .LASF145
     /tmp/cc5z7tli.s:3818   .debug_str:0000000000000059 .LASF121
     /tmp/cc5z7tli.s:4098   .debug_str:0000000000000a75 .LASF146
     /tmp/cc5z7tli.s:4036   .debug_str:00000000000007ab .LASF147
     /tmp/cc5z7tli.s:668    .text:0000000000000418 .LFB21
     /tmp/cc5z7tli.s:772    .text:00000000000004d0 .LFE21
     /tmp/cc5z7tli.s:3477   .debug_loc:0000000000000000 .LLST17
     /tmp/cc5z7tli.s:3994   .debug_str:0000000000000656 .LASF122
     /tmp/cc5z7tli.s:3491   .debug_loc:0000000000000039 .LLST18
     /tmp/cc5z7tli.s:741    .text:0000000000000498 .LBB19
     /tmp/cc5z7tli.s:758    .text:00000000000004c0 .LBE19
     /tmp/cc5z7tli.s:3920   .debug_str:0000000000000405 .LASF123
     /tmp/cc5z7tli.s:3512   .debug_loc:0000000000000097 .LLST19
     /tmp/cc5z7tli.s:746    .text:00000000000004a4 .LVL78
     /tmp/cc5z7tli.s:754    .text:00000000000004bc .LVL80
     /tmp/cc5z7tli.s:686    .text:0000000000000438 .LVL71
     /tmp/cc5z7tli.s:688    .text:0000000000000440 .LVL72
     /tmp/cc5z7tli.s:692    .text:000000000000044c .LVL73
     /tmp/cc5z7tli.s:732    .text:000000000000048c .LVL77
     /tmp/cc5z7tli.s:454    .text:00000000000002a8 .LFB20
     /tmp/cc5z7tli.s:626    .text:00000000000003e8 .LFE20
     /tmp/cc5z7tli.s:3519   .debug_loc:00000000000000ba .LLST12
     /tmp/cc5z7tli.s:3533   .debug_loc:00000000000000f3 .LLST13
     /tmp/cc5z7tli.s:549    .text:0000000000000364 .LBB8
     /tmp/cc5z7tli.s:579    .text:00000000000003ac .LBE8
     /tmp/cc5z7tli.s:3554   .debug_loc:0000000000000151 .LLST14
     /tmp/cc5z7tli.s:3561   .debug_loc:0000000000000174 .LLST15
     /tmp/cc5z7tli.s:555    .text:0000000000000378 .LVL55
     /tmp/cc5z7tli.s:563    .text:000000000000038c .LVL56
     /tmp/cc5z7tli.s:570    .text:000000000000039c .LVL58
     /tmp/cc5z7tli.s:578    .text:00000000000003ac .LVL61
     /tmp/cc5z7tli.s:474    .text:00000000000002cc .LVL46
     /tmp/cc5z7tli.s:476    .text:00000000000002d4 .LVL47
     /tmp/cc5z7tli.s:480    .text:00000000000002e0 .LVL48
     /tmp/cc5z7tli.s:528    .text:0000000000000330 .LVL52
     /tmp/cc5z7tli.s:533    .text:0000000000000340 .LVL53
     /tmp/cc5z7tli.s:543    .text:0000000000000358 .LVL54
     /tmp/cc5z7tli.s:596    .text:00000000000003c8 .LVL63
     /tmp/cc5z7tli.s:598    .text:00000000000003d0 .LVL64
     /tmp/cc5z7tli.s:350    .text:00000000000001f4 .LFB19
     /tmp/cc5z7tli.s:448    .text:00000000000002a8 .LFE19
     /tmp/cc5z7tli.s:3572   .debug_loc:00000000000001aa .LLST9
     /tmp/cc5z7tli.s:3586   .debug_loc:00000000000001e3 .LLST10
     /tmp/cc5z7tli.s:392    .text:0000000000000248 .LBB4
     /tmp/cc5z7tli.s:410    .text:0000000000000270 .LBE4
     /tmp/cc5z7tli.s:3605   .debug_loc:000000000000023f .LLST11
     /tmp/cc5z7tli.s:397    .text:0000000000000254 .LVL37
     /tmp/cc5z7tli.s:409    .text:0000000000000270 .LVL40
     /tmp/cc5z7tli.s:370    .text:0000000000000218 .LVL31
     /tmp/cc5z7tli.s:372    .text:0000000000000220 .LVL32
     /tmp/cc5z7tli.s:376    .text:000000000000022c .LVL33
GAS LISTING /tmp/cc5z7tli.s 			page 28


     /tmp/cc5z7tli.s:389    .text:0000000000000244 .LVL36
     /tmp/cc5z7tli.s:420    .text:0000000000000284 .LVL41
     /tmp/cc5z7tli.s:325    .text:00000000000001f4 .LFE18
     /tmp/cc5z7tli.s:4080   .debug_str:00000000000009e9 .LASF124
     /tmp/cc5z7tli.s:3616   .debug_loc:0000000000000275 .LLST6
     /tmp/cc5z7tli.s:3638   .debug_loc:00000000000002d4 .LLST7
     /tmp/cc5z7tli.s:3652   .debug_loc:000000000000030d .LLST8
     /tmp/cc5z7tli.s:269    .text:0000000000000194 .LVL22
     /tmp/cc5z7tli.s:275    .text:00000000000001a4 .LVL23
     /tmp/cc5z7tli.s:318    .text:00000000000001e8 .LVL28
     /tmp/cc5z7tli.s:322    .text:00000000000001f4 .LVL29
     /tmp/cc5z7tli.s:148    .text:00000000000000dc .LFB17
     /tmp/cc5z7tli.s:188    .text:0000000000000124 .LFE17
     /tmp/cc5z7tli.s:3663   .debug_loc:0000000000000343 .LLST4
     /tmp/cc5z7tli.s:168    .text:00000000000000fc .LVL12
     /tmp/cc5z7tli.s:170    .text:0000000000000104 .LVL13
     /tmp/cc5z7tli.s:174    .text:0000000000000110 .LVL14
     /tmp/cc5z7tli.s:111    .text:00000000000000a4 .LFB16
     /tmp/cc5z7tli.s:142    .text:00000000000000dc .LFE16
     /tmp/cc5z7tli.s:3681   .debug_loc:000000000000038f .LLST3
     /tmp/cc5z7tli.s:126    .text:00000000000000bc .LVL8
     /tmp/cc5z7tli.s:128    .text:00000000000000c4 .LVL9
     /tmp/cc5z7tli.s:131    .text:00000000000000cc .LVL10
     /tmp/cc5z7tli.s:778    .text:00000000000004d0 .LFB15
     /tmp/cc5z7tli.s:808    .text:0000000000000500 .LFE15
     /tmp/cc5z7tli.s:3872   .debug_str:0000000000000252 .LASF125
     /tmp/cc5z7tli.s:3695   .debug_loc:00000000000003c8 .LLST20
     /tmp/cc5z7tli.s:795    .text:00000000000004ec .LVL85
     /tmp/cc5z7tli.s:632    .text:00000000000003e8 .LFB14
     /tmp/cc5z7tli.s:662    .text:0000000000000418 .LFE14
     /tmp/cc5z7tli.s:3709   .debug_loc:0000000000000401 .LLST16
     /tmp/cc5z7tli.s:649    .text:0000000000000404 .LVL69
     /tmp/cc5z7tli.s:3810   .debug_str:0000000000000010 .LASF126
     /tmp/cc5z7tli.s:3926   .debug_str:0000000000000424 .LASF127
     /tmp/cc5z7tli.s:202    .text:0000000000000124 .LFB13
     /tmp/cc5z7tli.s:235    .text:0000000000000164 .LFE13
     /tmp/cc5z7tli.s:3723   .debug_loc:000000000000043a .LLST5
     /tmp/cc5z7tli.s:219    .text:0000000000000144 .LVL17
     /tmp/cc5z7tli.s:222    .text:0000000000000150 .LVL18
     /tmp/cc5z7tli.s:3822   .debug_str:000000000000006d .LASF128
     /tmp/cc5z7tli.s:10     .text:0000000000000000 .LFB11
     /tmp/cc5z7tli.s:42     .text:0000000000000038 .LFE11
     /tmp/cc5z7tli.s:3741   .debug_loc:0000000000000486 .LLST0
     /tmp/cc5z7tli.s:30     .text:0000000000000028 .LVL2
     /tmp/cc5z7tli.s:3958   .debug_str:000000000000050e .LASF129
     /tmp/cc5z7tli.s:50     .text:0000000000000038 .LFB8
     /tmp/cc5z7tli.s:103    .text:00000000000000a4 .LFE8
     /tmp/cc5z7tli.s:3761   .debug_loc:00000000000004d4 .LLST1
     /tmp/cc5z7tli.s:3779   .debug_loc:0000000000000520 .LLST2
     /tmp/cc5z7tli.s:75     .text:0000000000000070 .LVL5
     /tmp/cc5z7tli.s:3856   .debug_str:000000000000019f .LASF130
     /tmp/cc5z7tli.s:4064   .debug_str:000000000000097b .LASF131
     /tmp/cc5z7tli.s:4088   .debug_str:0000000000000a38 .LASF148
     /tmp/cc5z7tli.s:3882   .debug_str:000000000000029c .LASF149
     /tmp/cc5z7tli.s:671    .text:0000000000000418 .LVL70
     /tmp/cc5z7tli.s:709    .text:0000000000000468 .LVL74
     /tmp/cc5z7tli.s:723    .text:000000000000047c .LVL75
GAS LISTING /tmp/cc5z7tli.s 			page 29


     /tmp/cc5z7tli.s:730    .text:0000000000000484 .LVL76
     /tmp/cc5z7tli.s:748    .text:00000000000004a8 .LVL79
     /tmp/cc5z7tli.s:764    .text:00000000000004c8 .LVL81
     /tmp/cc5z7tli.s:769    .text:00000000000004cc .LVL82
     /tmp/cc5z7tli.s:457    .text:00000000000002a8 .LVL45
     /tmp/cc5z7tli.s:502    .text:000000000000030c .LVL49
     /tmp/cc5z7tli.s:518    .text:0000000000000324 .LVL50
     /tmp/cc5z7tli.s:526    .text:0000000000000328 .LVL51
     /tmp/cc5z7tli.s:608    .text:00000000000003d8 .LVL65
     /tmp/cc5z7tli.s:615    .text:00000000000003dc .LVL66
     /tmp/cc5z7tli.s:565    .text:0000000000000390 .LVL57
     /tmp/cc5z7tli.s:586    .text:00000000000003b4 .LVL62
     /tmp/cc5z7tli.s:572    .text:00000000000003a0 .LVL59
     /tmp/cc5z7tli.s:576    .text:00000000000003a4 .LVL60
     /tmp/cc5z7tli.s:353    .text:00000000000001f4 .LVL30
     /tmp/cc5z7tli.s:378    .text:0000000000000230 .LVL34
     /tmp/cc5z7tli.s:381    .text:0000000000000234 .LVL35
     /tmp/cc5z7tli.s:436    .text:0000000000000298 .LVL42
     /tmp/cc5z7tli.s:440    .text:00000000000002a0 .LVL43
     /tmp/cc5z7tli.s:445    .text:00000000000002a4 .LVL44
     /tmp/cc5z7tli.s:399    .text:0000000000000258 .LVL38
     /tmp/cc5z7tli.s:407    .text:0000000000000268 .LVL39
     /tmp/cc5z7tli.s:246    .text:0000000000000164 .LVL20
     /tmp/cc5z7tli.s:266    .text:000000000000018c .LVL21
     /tmp/cc5z7tli.s:302    .text:00000000000001c8 .LVL25
     /tmp/cc5z7tli.s:306    .text:00000000000001d0 .LVL26
     /tmp/cc5z7tli.s:297    .text:00000000000001c0 .LVL24
     /tmp/cc5z7tli.s:312    .text:00000000000001d8 .LVL27
     /tmp/cc5z7tli.s:153    .text:00000000000000dc .LVL11
     /tmp/cc5z7tli.s:183    .text:000000000000011c .LVL15
     /tmp/cc5z7tli.s:114    .text:00000000000000a4 .LVL7
     /tmp/cc5z7tli.s:781    .text:00000000000004d0 .LVL83
     /tmp/cc5z7tli.s:793    .text:00000000000004e4 .LVL84
     /tmp/cc5z7tli.s:635    .text:00000000000003e8 .LVL67
     /tmp/cc5z7tli.s:647    .text:00000000000003fc .LVL68
     /tmp/cc5z7tli.s:205    .text:0000000000000124 .LVL16
     /tmp/cc5z7tli.s:230    .text:000000000000015c .LVL19
     /tmp/cc5z7tli.s:14     .text:0000000000000000 .LVL0
     /tmp/cc5z7tli.s:28     .text:0000000000000020 .LVL1
     /tmp/cc5z7tli.s:53     .text:0000000000000038 .LVL3
     /tmp/cc5z7tli.s:73     .text:0000000000000068 .LVL4
     /tmp/cc5z7tli.s:96     .text:0000000000000098 .LVL6
     /tmp/cc5z7tli.s:840    .debug_info:0000000000000000 .Ldebug_info0
     /tmp/cc5z7tli.s:191    .gcc_except_table:0000000000000000 .LLSDA17
     /tmp/cc5z7tli.s:327    .gcc_except_table:0000000000000004 .LLSDA18

UNDEFINED SYMBOLS
_ZN4ListI6ThreadED1Ev
_ZN4ListI6ThreadEC1Ev
_ZN15MemoryAllocator8InstanceEv
_ZN15MemoryAllocator16getSemaphorePoolEv
_ZN13SemaphorePool8allocateEv
_ZN13SemaphorePool10deallocateEP9Semaphore
__gxx_personality_v0
_Unwind_Resume
_ZN13SemaphorePool16getSemaphoreByIdEj
_ZN4ListI6ThreadE5emptyEv
GAS LISTING /tmp/cc5z7tli.s 			page 30


_ZN4ListI6ThreadE16remove_beginningEv
scheduler
_ZN9Scheduler3putEP6Thread
_ZN6Thread7runningE
_ZN4ListI6ThreadE7add_endEPS0_
_ZN9Scheduler3getEv
_ZN6Thread10getContextEv
_ZN6Thread14getWrapperArgsEv
thread_wrapper
restore_context_kernel_mode
