GAS LISTING /tmp/cc5z7tli.s 			page 1


   1              		.file	"Semaphore.cpp"
   2              		.option pic
   3              		.option norelax
   4              		.text
   5              	.Ltext0:
   6              		.align	2
   7              		.globl	_ZN9SemaphoreD2Ev
   9              	_ZN9SemaphoreD2Ev:
  10              	.LFB11:
  11              		.file 1 "src/Semaphore.cpp"
   1:src/Semaphore.cpp **** #include "../h/Semaphore.hpp"
   2:src/Semaphore.cpp **** #include "../h/syscall_cpp.hpp"
   3:src/Semaphore.cpp **** #include "../h/Scheduler.hpp"
   4:src/Semaphore.cpp **** 
   5:src/Semaphore.cpp **** int Semaphore::cnt = 1;
   6:src/Semaphore.cpp **** 
   7:src/Semaphore.cpp **** Semaphore::Semaphore(unsigned init){
   8:src/Semaphore.cpp ****     val = init;
   9:src/Semaphore.cpp ****     myHandle = cnt++;
  10:src/Semaphore.cpp **** }
  11:src/Semaphore.cpp **** Semaphore::~Semaphore() {}
  12              		.loc 1 11 1
  13              		.cfi_startproc
  14              	.LVL0:
  15 0000 130101FF 		addi	sp,sp,-16
  16              		.cfi_def_cfa_offset 16
  17 0004 23341100 		sd	ra,8(sp)
  18 0008 23308100 		sd	s0,0(sp)
  19              		.cfi_offset 1, -8
  20              		.cfi_offset 8, -16
  21 000c 13040101 		addi	s0,sp,16
  22              		.cfi_def_cfa 8, 0
  23              	.LBB2:
  24              		.loc 1 11 23 is_stmt 0
  25 0010 97070000 		lla	a5,_ZTV9Semaphore+16
  25      93870700 
  26 0018 2330F500 		sd	a5,0(a0)
  27 001c 13050501 		addi	a0,a0,16
  28              	.LVL1:
  29 0020 97000000 		call	_ZN4ListI6ThreadED1Ev@plt
  29      E7800000 
  30              	.LVL2:
  31              	.LBE2:
  32              		.loc 1 11 26
  33 0028 83308100 		ld	ra,8(sp)
  34              		.cfi_restore 1
  35 002c 03340100 		ld	s0,0(sp)
  36              		.cfi_restore 8
  37              		.cfi_def_cfa 2, 16
  38 0030 13010101 		addi	sp,sp,16
  39              		.cfi_def_cfa_offset 0
  40 0034 67800000 		jr	ra
  41              		.cfi_endproc
  42              	.LFE11:
  44              		.globl	_ZN9SemaphoreD1Ev
  45              		.set	_ZN9SemaphoreD1Ev,_ZN9SemaphoreD2Ev
  46              		.align	2
GAS LISTING /tmp/cc5z7tli.s 			page 2


  47              		.globl	_ZN9SemaphoreC2Ej
  49              	_ZN9SemaphoreC2Ej:
  50              	.LFB8:
   7:src/Semaphore.cpp ****     val = init;
  51              		.loc 1 7 1 is_stmt 1
  52              		.cfi_startproc
  53              	.LVL3:
  54 0038 130101FE 		addi	sp,sp,-32
  55              		.cfi_def_cfa_offset 32
  56 003c 233C1100 		sd	ra,24(sp)
  57 0040 23388100 		sd	s0,16(sp)
  58 0044 23349100 		sd	s1,8(sp)
  59 0048 23302101 		sd	s2,0(sp)
  60              		.cfi_offset 1, -8
  61              		.cfi_offset 8, -16
  62              		.cfi_offset 9, -24
  63              		.cfi_offset 18, -32
  64 004c 13040102 		addi	s0,sp,32
  65              		.cfi_def_cfa 8, 0
  66 0050 93040500 		mv	s1,a0
  67 0054 13890500 		mv	s2,a1
  68              	.LBB3:
   7:src/Semaphore.cpp ****     val = init;
  69              		.loc 1 7 35 is_stmt 0
  70 0058 97070000 		lla	a5,_ZTV9Semaphore+16
  70      93870700 
  71 0060 2330F500 		sd	a5,0(a0)
  72 0064 13050501 		addi	a0,a0,16
  73              	.LVL4:
  74 0068 97000000 		call	_ZN4ListI6ThreadEC1Ev@plt
  74      E7800000 
  75              	.LVL5:
   8:src/Semaphore.cpp ****     myHandle = cnt++;
  76              		.loc 1 8 5 is_stmt 1
   8:src/Semaphore.cpp ****     myHandle = cnt++;
  77              		.loc 1 8 9 is_stmt 0
  78 0070 23A62401 		sw	s2,12(s1)
   9:src/Semaphore.cpp **** }
  79              		.loc 1 9 5 is_stmt 1
   9:src/Semaphore.cpp **** }
  80              		.loc 1 9 19 is_stmt 0
  81 0074 17070000 		lla	a4,.LANCHOR0
  81      13070700 
  82 007c 83270700 		lw	a5,0(a4)
  83 0080 9B861700 		addiw	a3,a5,1
  84 0084 2320D700 		sw	a3,0(a4)
   9:src/Semaphore.cpp **** }
  85              		.loc 1 9 14
  86 0088 23A4F400 		sw	a5,8(s1)
  87              	.LBE3:
  10:src/Semaphore.cpp **** Semaphore::~Semaphore() {}
  88              		.loc 1 10 1
  89 008c 83308101 		ld	ra,24(sp)
  90              		.cfi_restore 1
  91 0090 03340101 		ld	s0,16(sp)
  92              		.cfi_restore 8
  93              		.cfi_def_cfa 2, 32
GAS LISTING /tmp/cc5z7tli.s 			page 3


  94 0094 83348100 		ld	s1,8(sp)
  95              		.cfi_restore 9
  96              	.LVL6:
  97 0098 03390100 		ld	s2,0(sp)
  98              		.cfi_restore 18
  99 009c 13010102 		addi	sp,sp,32
 100              		.cfi_def_cfa_offset 0
 101 00a0 67800000 		jr	ra
 102              		.cfi_endproc
 103              	.LFE8:
 105              		.globl	_ZN9SemaphoreC1Ej
 106              		.set	_ZN9SemaphoreC1Ej,_ZN9SemaphoreC2Ej
 107              		.align	2
 108              		.globl	_ZN9SemaphorenwEm
 110              	_ZN9SemaphorenwEm:
 111              	.LFB16:
  12:src/Semaphore.cpp **** 
  13:src/Semaphore.cpp **** int  Semaphore::wait(){
  14:src/Semaphore.cpp ****     sem_wait(this->myHandle);
  15:src/Semaphore.cpp ****     return 0;
  16:src/Semaphore.cpp **** }
  17:src/Semaphore.cpp **** int Semaphore::signal(){
  18:src/Semaphore.cpp ****     sem_signal(this->myHandle);
  19:src/Semaphore.cpp ****     return 0;
  20:src/Semaphore.cpp **** }
  21:src/Semaphore.cpp **** 
  22:src/Semaphore.cpp **** void* Semaphore::operator new(size_t size) {
 112              		.loc 1 22 44 is_stmt 1
 113              		.cfi_startproc
 114              	.LVL7:
 115 00a4 130101FF 		addi	sp,sp,-16
 116              		.cfi_def_cfa_offset 16
 117 00a8 23341100 		sd	ra,8(sp)
 118 00ac 23308100 		sd	s0,0(sp)
 119              		.cfi_offset 1, -8
 120              		.cfi_offset 8, -16
 121 00b0 13040101 		addi	s0,sp,16
 122              		.cfi_def_cfa 8, 0
  23:src/Semaphore.cpp ****     return MemoryAllocator::Instance()->getSemaphorePool().allocate();
 123              		.loc 1 23 5
 124              		.loc 1 23 58 is_stmt 0
 125 00b4 97000000 		call	_ZN15MemoryAllocator8InstanceEv@plt
 125      E7800000 
 126              	.LVL8:
 127 00bc 97000000 		call	_ZN15MemoryAllocator16getSemaphorePoolEv@plt
 127      E7800000 
 128              	.LVL9:
 129              		.loc 1 23 68
 130 00c4 97000000 		call	_ZN13SemaphorePool8allocateEv@plt
 130      E7800000 
 131              	.LVL10:
  24:src/Semaphore.cpp **** }
 132              		.loc 1 24 1
 133 00cc 83308100 		ld	ra,8(sp)
 134              		.cfi_restore 1
 135 00d0 03340100 		ld	s0,0(sp)
 136              		.cfi_restore 8
GAS LISTING /tmp/cc5z7tli.s 			page 4


 137              		.cfi_def_cfa 2, 16
 138 00d4 13010101 		addi	sp,sp,16
 139              		.cfi_def_cfa_offset 0
 140 00d8 67800000 		jr	ra
 141              		.cfi_endproc
 142              	.LFE16:
 144              		.align	2
 145              		.globl	_ZN9SemaphoredlEPv
 147              	_ZN9SemaphoredlEPv:
 148              	.LFB17:
  25:src/Semaphore.cpp **** 
  26:src/Semaphore.cpp **** void Semaphore::operator delete(void *obj) noexcept {
 149              		.loc 1 26 53 is_stmt 1
 150              		.cfi_startproc
 151              		.cfi_personality 0x9b,DW.ref.__gxx_personality_v0
 152              		.cfi_lsda 0x1b,.LLSDA17
 153              	.LVL11:
 154 00dc 130101FE 		addi	sp,sp,-32
 155              		.cfi_def_cfa_offset 32
 156 00e0 233C1100 		sd	ra,24(sp)
 157 00e4 23388100 		sd	s0,16(sp)
 158 00e8 23349100 		sd	s1,8(sp)
 159              		.cfi_offset 1, -8
 160              		.cfi_offset 8, -16
 161              		.cfi_offset 9, -24
 162 00ec 13040102 		addi	s0,sp,32
 163              		.cfi_def_cfa 8, 0
 164 00f0 93040500 		mv	s1,a0
  27:src/Semaphore.cpp ****     MemoryAllocator::Instance()->getSemaphorePool().deallocate((Semaphore*)obj);
 165              		.loc 1 27 5
 166              		.loc 1 27 51 is_stmt 0
 167 00f4 97000000 		call	_ZN15MemoryAllocator8InstanceEv@plt
 167      E7800000 
 168              	.LVL12:
 169 00fc 97000000 		call	_ZN15MemoryAllocator16getSemaphorePoolEv@plt
 169      E7800000 
 170              	.LVL13:
 171              		.loc 1 27 63
 172 0104 93850400 		mv	a1,s1
 173 0108 97000000 		call	_ZN13SemaphorePool10deallocateEP9Semaphore@plt
 173      E7800000 
 174              	.LVL14:
  28:src/Semaphore.cpp **** }
 175              		.loc 1 28 1
 176 0110 83308101 		ld	ra,24(sp)
 177              		.cfi_restore 1
 178 0114 03340101 		ld	s0,16(sp)
 179              		.cfi_restore 8
 180              		.cfi_def_cfa 2, 32
 181 0118 83348100 		ld	s1,8(sp)
 182              		.cfi_restore 9
 183              	.LVL15:
 184 011c 13010102 		addi	sp,sp,32
 185              		.cfi_def_cfa_offset 0
 186 0120 67800000 		jr	ra
 187              		.cfi_endproc
 188              	.LFE17:
GAS LISTING /tmp/cc5z7tli.s 			page 5


 189              		.globl	__gxx_personality_v0
 190              		.section	.gcc_except_table,"a",@progbits
 191              	.LLSDA17:
 192 0000 FF       		.byte	0xff
 193 0001 FF       		.byte	0xff
 194 0002 03       		.byte	0x3
 195 0003 00       		.byte	0
 196              		.text
 198              		.align	2
 199              		.globl	_ZN9SemaphoreD0Ev
 201              	_ZN9SemaphoreD0Ev:
 202              	.LFB13:
  11:src/Semaphore.cpp **** 
 203              		.loc 1 11 1 is_stmt 1
 204              		.cfi_startproc
 205              	.LVL16:
 206 0124 130101FE 		addi	sp,sp,-32
 207              		.cfi_def_cfa_offset 32
 208 0128 233C1100 		sd	ra,24(sp)
 209 012c 23388100 		sd	s0,16(sp)
 210 0130 23349100 		sd	s1,8(sp)
 211              		.cfi_offset 1, -8
 212              		.cfi_offset 8, -16
 213              		.cfi_offset 9, -24
 214 0134 13040102 		addi	s0,sp,32
 215              		.cfi_def_cfa 8, 0
 216 0138 93040500 		mv	s1,a0
  11:src/Semaphore.cpp **** 
 217              		.loc 1 11 26 is_stmt 0
 218 013c 97000000 		call	_ZN9SemaphoreD1Ev
 218      E7800000 
 219              	.LVL17:
 220 0144 13850400 		mv	a0,s1
 221 0148 97000000 		call	_ZN9SemaphoredlEPv
 221      E7800000 
 222              	.LVL18:
 223 0150 83308101 		ld	ra,24(sp)
 224              		.cfi_restore 1
 225 0154 03340101 		ld	s0,16(sp)
 226              		.cfi_restore 8
 227              		.cfi_def_cfa 2, 32
 228 0158 83348100 		ld	s1,8(sp)
 229              		.cfi_restore 9
 230              	.LVL19:
 231 015c 13010102 		addi	sp,sp,32
 232              		.cfi_def_cfa_offset 0
 233 0160 67800000 		jr	ra
 234              		.cfi_endproc
 235              	.LFE13:
 237              		.align	2
 238              		.globl	_ZN9Semaphore8sem_openEPjj
 240              	_ZN9Semaphore8sem_openEPjj:
 241              	.LFB18:
  29:src/Semaphore.cpp **** int Semaphore::sem_open(sem_t *handle, unsigned init) {
 242              		.loc 1 29 55 is_stmt 1
 243              		.cfi_startproc
 244              		.cfi_personality 0x9b,DW.ref.__gxx_personality_v0
GAS LISTING /tmp/cc5z7tli.s 			page 6


 245              		.cfi_lsda 0x1b,.LLSDA18
 246              	.LVL20:
 247 0164 130101FD 		addi	sp,sp,-48
 248              		.cfi_def_cfa_offset 48
 249 0168 23341102 		sd	ra,40(sp)
 250 016c 23308102 		sd	s0,32(sp)
 251 0170 233C9100 		sd	s1,24(sp)
 252 0174 23382101 		sd	s2,16(sp)
 253 0178 23343101 		sd	s3,8(sp)
 254              		.cfi_offset 1, -8
 255              		.cfi_offset 8, -16
 256              		.cfi_offset 9, -24
 257              		.cfi_offset 18, -32
 258              		.cfi_offset 19, -40
 259 017c 13040103 		addi	s0,sp,48
 260              		.cfi_def_cfa 8, 0
 261 0180 93090500 		mv	s3,a0
 262 0184 13890500 		mv	s2,a1
  30:src/Semaphore.cpp ****     Semaphore* semaphore = new Semaphore(init);
 263              		.loc 1 30 5
 264              		.loc 1 30 46 is_stmt 0
 265 0188 13050002 		li	a0,32
 266              	.LVL21:
 267              	.LEHB0:
 268 018c 97000000 		call	_ZN9SemaphorenwEm
 268      E7800000 
 269              	.LVL22:
 270              	.LEHE0:
 271 0194 93040500 		mv	s1,a0
 272 0198 93050900 		mv	a1,s2
 273              	.LEHB1:
 274 019c 97000000 		call	_ZN9SemaphoreC1Ej
 274      E7800000 
 275              	.LVL23:
 276              	.LEHE1:
  31:src/Semaphore.cpp ****     if(!semaphore) return -1;
 277              		.loc 1 31 5 is_stmt 1 discriminator 2
 278 01a4 63860402 		beqz	s1,.L14
  32:src/Semaphore.cpp ****     *handle = semaphore->myHandle;
 279              		.loc 1 32 5
 280              		.loc 1 32 26 is_stmt 0
 281 01a8 83A78400 		lw	a5,8(s1)
 282              		.loc 1 32 13
 283 01ac 23A0F900 		sw	a5,0(s3)
  33:src/Semaphore.cpp ****     return 0;
 284              		.loc 1 33 5 is_stmt 1
 285              		.loc 1 33 12 is_stmt 0
 286 01b0 13050000 		li	a0,0
 287              	.L16:
  34:src/Semaphore.cpp **** }
 288              		.loc 1 34 1
 289 01b4 83308102 		ld	ra,40(sp)
 290              		.cfi_remember_state
 291              		.cfi_restore 1
 292 01b8 03340102 		ld	s0,32(sp)
 293              		.cfi_restore 8
 294              		.cfi_def_cfa 2, 48
GAS LISTING /tmp/cc5z7tli.s 			page 7


 295 01bc 83348101 		ld	s1,24(sp)
 296              		.cfi_restore 9
 297              	.LVL24:
 298 01c0 03390101 		ld	s2,16(sp)
 299              		.cfi_restore 18
 300 01c4 83398100 		ld	s3,8(sp)
 301              		.cfi_restore 19
 302              	.LVL25:
 303 01c8 13010103 		addi	sp,sp,48
 304              		.cfi_def_cfa_offset 0
 305 01cc 67800000 		jr	ra
 306              	.LVL26:
 307              	.L14:
 308              		.cfi_restore_state
  31:src/Semaphore.cpp ****     *handle = semaphore->myHandle;
 309              		.loc 1 31 28
 310 01d0 1305F0FF 		li	a0,-1
 311 01d4 6FF01FFE 		j	.L16
 312              	.LVL27:
 313              	.L15:
 314 01d8 13090500 		mv	s2,a0
  30:src/Semaphore.cpp ****     if(!semaphore) return -1;
 315              		.loc 1 30 46
 316 01dc 13850400 		mv	a0,s1
 317 01e0 97000000 		call	_ZN9SemaphoredlEPv
 317      E7800000 
 318              	.LVL28:
 319 01e8 13050900 		mv	a0,s2
 320              	.LEHB2:
 321 01ec 97000000 		call	_Unwind_Resume@plt
 321      E7800000 
 322              	.LVL29:
 323              	.LEHE2:
 324              		.cfi_endproc
 325              	.LFE18:
 326              		.section	.gcc_except_table
 327              	.LLSDA18:
 328 0004 FF       		.byte	0xff
 329 0005 FF       		.byte	0xff
 330 0006 03       		.byte	0x3
 331 0007 27       		.byte	0x27
 332 0008 00000000 		.4byte	.LEHB0-.LFB18
 333 000c 00000000 		.4byte	.LEHE0-.LEHB0
 334 0010 00000000 		.4byte	0
 335 0014 00       		.byte	0
 336 0015 00000000 		.4byte	.LEHB1-.LFB18
 337 0019 00000000 		.4byte	.LEHE1-.LEHB1
 338 001d 00000000 		.4byte	.L15-.LFB18
 339 0021 00       		.byte	0
 340 0022 00000000 		.4byte	.LEHB2-.LFB18
 341 0026 00000000 		.4byte	.LEHE2-.LEHB2
 342 002a 00000000 		.4byte	0
 343 002e 00       		.byte	0
 344              		.text
 346              		.align	2
 347              		.globl	_ZN9Semaphore9sem_closeEj
 349              	_ZN9Semaphore9sem_closeEj:
GAS LISTING /tmp/cc5z7tli.s 			page 8


 350              	.LFB19:
  35:src/Semaphore.cpp **** 
  36:src/Semaphore.cpp **** int Semaphore::sem_close(sem_t id){
 351              		.loc 1 36 35 is_stmt 1
 352              		.cfi_startproc
 353              	.LVL30:
 354 01f4 130101FE 		addi	sp,sp,-32
 355              		.cfi_def_cfa_offset 32
 356 01f8 233C1100 		sd	ra,24(sp)
 357 01fc 23388100 		sd	s0,16(sp)
 358 0200 23349100 		sd	s1,8(sp)
 359 0204 23302101 		sd	s2,0(sp)
 360              		.cfi_offset 1, -8
 361              		.cfi_offset 8, -16
 362              		.cfi_offset 9, -24
 363              		.cfi_offset 18, -32
 364 0208 13040102 		addi	s0,sp,32
 365              		.cfi_def_cfa 8, 0
 366 020c 93040500 		mv	s1,a0
  37:src/Semaphore.cpp ****     Semaphore* semaphore = MemoryAllocator::Instance()->getSemaphorePool().getSemaphoreById(id);
 367              		.loc 1 37 5
 368              		.loc 1 37 74 is_stmt 0
 369 0210 97000000 		call	_ZN15MemoryAllocator8InstanceEv@plt
 369      E7800000 
 370              	.LVL31:
 371 0218 97000000 		call	_ZN15MemoryAllocator16getSemaphorePoolEv@plt
 371      E7800000 
 372              	.LVL32:
 373              		.loc 1 37 92
 374 0220 93850400 		mv	a1,s1
 375 0224 97000000 		call	_ZN13SemaphorePool16getSemaphoreByIdEj@plt
 375      E7800000 
 376              	.LVL33:
 377 022c 13090500 		mv	s2,a0
 378              	.LVL34:
  38:src/Semaphore.cpp ****     if(semaphore == nullptr) return -1;
 379              		.loc 1 38 5 is_stmt 1
 380 0230 63080506 		beqz	a0,.L22
 381              	.LVL35:
 382              	.L21:
  39:src/Semaphore.cpp **** 
  40:src/Semaphore.cpp ****     //take out all threads that were waiting on this semaphore and put them in Scheduler as ready
  41:src/Semaphore.cpp ****     while(!semaphore->waiting.empty()){
 383              		.loc 1 41 5
 384              		.loc 1 41 11
 385              		.loc 1 41 36 is_stmt 0
 386 0234 93040901 		addi	s1,s2,16
 387 0238 13850400 		mv	a0,s1
 388 023c 97000000 		call	_ZN4ListI6ThreadE5emptyEv@plt
 388      E7800000 
 389              	.LVL36:
 390              		.loc 1 41 11
 391 0244 63180502 		bnez	a0,.L20
 392              	.LBB4:
  42:src/Semaphore.cpp ****         Thread* thread = semaphore->waiting.remove_beginning();
 393              		.loc 1 42 9 is_stmt 1
 394              		.loc 1 42 61 is_stmt 0
GAS LISTING /tmp/cc5z7tli.s 			page 9


 395 0248 13850400 		mv	a0,s1
 396 024c 97000000 		call	_ZN4ListI6ThreadE16remove_beginningEv@plt
 396      E7800000 
 397              	.LVL37:
 398 0254 93050500 		mv	a1,a0
 399              	.LVL38:
  43:src/Semaphore.cpp ****         thread->semWaitStatus = -2;
 400              		.loc 1 43 9 is_stmt 1
 401              		.loc 1 43 31 is_stmt 0
 402 0258 9307E0FF 		li	a5,-2
 403 025c 2328F500 		sw	a5,16(a0)
  44:src/Semaphore.cpp ****         scheduler.put(thread);
 404              		.loc 1 44 9 is_stmt 1
 405              		.loc 1 44 22 is_stmt 0
 406 0260 17050000 		la	a0,scheduler
 406      03350500 
 407              	.LVL39:
 408 0268 97000000 		call	_ZN9Scheduler3putEP6Thread@plt
 408      E7800000 
 409              	.LVL40:
 410              	.LBE4:
  41:src/Semaphore.cpp ****         Thread* thread = semaphore->waiting.remove_beginning();
 411              		.loc 1 41 5
 412 0270 6FF05FFC 		j	.L21
 413              	.L20:
  45:src/Semaphore.cpp **** 
  46:src/Semaphore.cpp ****     }
  47:src/Semaphore.cpp ****     delete semaphore;
 414              		.loc 1 47 5 is_stmt 1 discriminator 1
 415              		.loc 1 47 12 is_stmt 0 discriminator 1
 416 0274 83370900 		ld	a5,0(s2)
 417 0278 83B78700 		ld	a5,8(a5)
 418 027c 13050900 		mv	a0,s2
 419 0280 E7800700 		jalr	a5
 420              	.LVL41:
  48:src/Semaphore.cpp ****     return 0;
 421              		.loc 1 48 5 is_stmt 1 discriminator 1
 422              		.loc 1 48 12 is_stmt 0 discriminator 1
 423 0284 13050000 		li	a0,0
 424              	.L19:
  49:src/Semaphore.cpp **** }
 425              		.loc 1 49 1
 426 0288 83308101 		ld	ra,24(sp)
 427              		.cfi_remember_state
 428              		.cfi_restore 1
 429 028c 03340101 		ld	s0,16(sp)
 430              		.cfi_restore 8
 431              		.cfi_def_cfa 2, 32
 432 0290 83348100 		ld	s1,8(sp)
 433              		.cfi_restore 9
 434 0294 03390100 		ld	s2,0(sp)
 435              		.cfi_restore 18
 436              	.LVL42:
 437 0298 13010102 		addi	sp,sp,32
 438              		.cfi_def_cfa_offset 0
 439 029c 67800000 		jr	ra
 440              	.LVL43:
GAS LISTING /tmp/cc5z7tli.s 			page 10


 441              	.L22:
 442              		.cfi_restore_state
  38:src/Semaphore.cpp **** 
 443              		.loc 1 38 38
 444 02a0 1305F0FF 		li	a0,-1
 445              	.LVL44:
 446 02a4 6FF05FFE 		j	.L19
 447              		.cfi_endproc
 448              	.LFE19:
 450              		.align	2
 451              		.globl	_ZN9Semaphore8sem_waitEj
 453              	_ZN9Semaphore8sem_waitEj:
 454              	.LFB20:
  50:src/Semaphore.cpp **** 
  51:src/Semaphore.cpp **** int Semaphore::sem_wait(sem_t id) {
 455              		.loc 1 51 35 is_stmt 1
 456              		.cfi_startproc
 457              	.LVL45:
 458 02a8 130101FE 		addi	sp,sp,-32
 459              		.cfi_def_cfa_offset 32
 460 02ac 233C1100 		sd	ra,24(sp)
 461 02b0 23388100 		sd	s0,16(sp)
 462 02b4 23349100 		sd	s1,8(sp)
 463 02b8 23302101 		sd	s2,0(sp)
 464              		.cfi_offset 1, -8
 465              		.cfi_offset 8, -16
 466              		.cfi_offset 9, -24
 467              		.cfi_offset 18, -32
 468 02bc 13040102 		addi	s0,sp,32
 469              		.cfi_def_cfa 8, 0
 470 02c0 93040500 		mv	s1,a0
  52:src/Semaphore.cpp ****     Semaphore* semaphore = MemoryAllocator::Instance()->getSemaphorePool().getSemaphoreById(id);
 471              		.loc 1 52 5
 472              		.loc 1 52 74 is_stmt 0
 473 02c4 97000000 		call	_ZN15MemoryAllocator8InstanceEv@plt
 473      E7800000 
 474              	.LVL46:
 475 02cc 97000000 		call	_ZN15MemoryAllocator16getSemaphorePoolEv@plt
 475      E7800000 
 476              	.LVL47:
 477              		.loc 1 52 92
 478 02d4 93850400 		mv	a1,s1
 479 02d8 97000000 		call	_ZN13SemaphorePool16getSemaphoreByIdEj@plt
 479      E7800000 
 480              	.LVL48:
  53:src/Semaphore.cpp ****     if(semaphore == nullptr) return -1;
 481              		.loc 1 53 5 is_stmt 1
 482 02e0 630C050E 		beqz	a0,.L27
  54:src/Semaphore.cpp ****     Thread::running->semWaitStatus = 0;
 483              		.loc 1 54 5
 484              		.loc 1 54 22 is_stmt 0
 485 02e4 97070000 		la	a5,_ZN6Thread7runningE
 485      83B70700 
 486 02ec 83B50700 		ld	a1,0(a5)
 487              		.loc 1 54 36
 488 02f0 23A80500 		sw	zero,16(a1)
  55:src/Semaphore.cpp ****     semaphore->val--;
GAS LISTING /tmp/cc5z7tli.s 			page 11


 489              		.loc 1 55 5 is_stmt 1
 490              		.loc 1 55 16 is_stmt 0
 491 02f4 8327C500 		lw	a5,12(a0)
 492              		.loc 1 55 19
 493 02f8 9B87F7FF 		addiw	a5,a5,-1
 494 02fc 2326F500 		sw	a5,12(a0)
  56:src/Semaphore.cpp ****     if(semaphore->val < 0){
 495              		.loc 1 56 5 is_stmt 1
 496              	.LBB5:
 497 0300 13970702 		slli	a4,a5,32
 498 0304 63400702 		bltz	a4,.L31
 499              	.LBE5:
  57:src/Semaphore.cpp ****         semaphore->waiting.add_end(Thread::running);
  58:src/Semaphore.cpp **** 
  59:src/Semaphore.cpp ****         Thread::running = scheduler.get();
  60:src/Semaphore.cpp ****         if(Thread::running == nullptr) return -1;
  61:src/Semaphore.cpp ****         if(Thread::running->getContext()->wasActive == 1){
  62:src/Semaphore.cpp ****             restore_context_kernel_mode(Thread::running->getContext());
  63:src/Semaphore.cpp ****         }
  64:src/Semaphore.cpp ****         else
  65:src/Semaphore.cpp ****         {
  66:src/Semaphore.cpp ****             Thread::running->getContext()->wasActive = 1;
  67:src/Semaphore.cpp ****             ThreadContext* tc = Thread::running->getContext();
  68:src/Semaphore.cpp ****             ThreadWrapperArgs* wa = Thread::running->getWrapperArgs();
  69:src/Semaphore.cpp ****             //start_thread_for_the_first_time_dispatch(&Thread::running->context);
  70:src/Semaphore.cpp ****             thread_wrapper(tc, wa);
  71:src/Semaphore.cpp ****         }
  72:src/Semaphore.cpp ****     }
  73:src/Semaphore.cpp ****     return 0;
 500              		.loc 1 73 12 is_stmt 0
 501 0308 13050000 		li	a0,0
 502              	.LVL49:
 503              	.L25:
  74:src/Semaphore.cpp **** }
 504              		.loc 1 74 1
 505 030c 83308101 		ld	ra,24(sp)
 506              		.cfi_remember_state
 507              		.cfi_restore 1
 508 0310 03340101 		ld	s0,16(sp)
 509              		.cfi_restore 8
 510              		.cfi_def_cfa 2, 32
 511 0314 83348100 		ld	s1,8(sp)
 512              		.cfi_restore 9
 513 0318 03390100 		ld	s2,0(sp)
 514              		.cfi_restore 18
 515 031c 13010102 		addi	sp,sp,32
 516              		.cfi_def_cfa_offset 0
 517 0320 67800000 		jr	ra
 518              	.LVL50:
 519              	.L31:
 520              		.cfi_restore_state
 521              	.LBB14:
 522              	.LBB6:
  57:src/Semaphore.cpp ****         semaphore->waiting.add_end(Thread::running);
 523              		.loc 1 57 9 is_stmt 1
  57:src/Semaphore.cpp ****         semaphore->waiting.add_end(Thread::running);
 524              		.loc 1 57 35 is_stmt 0
GAS LISTING /tmp/cc5z7tli.s 			page 12


 525 0324 13050501 		addi	a0,a0,16
 526              	.LVL51:
 527 0328 97000000 		call	_ZN4ListI6ThreadE7add_endEPS0_@plt
 527      E7800000 
 528              	.LVL52:
  59:src/Semaphore.cpp ****         if(Thread::running == nullptr) return -1;
 529              		.loc 1 59 9 is_stmt 1
  59:src/Semaphore.cpp ****         if(Thread::running == nullptr) return -1;
 530              		.loc 1 59 40 is_stmt 0
 531 0330 17050000 		la	a0,scheduler
 531      03350500 
 532 0338 97000000 		call	_ZN9Scheduler3getEv@plt
 532      E7800000 
 533              	.LVL53:
  59:src/Semaphore.cpp ****         if(Thread::running == nullptr) return -1;
 534              		.loc 1 59 25
 535 0340 97070000 		la	a5,_ZN6Thread7runningE
 535      83B70700 
 536 0348 23B0A700 		sd	a0,0(a5)
  60:src/Semaphore.cpp ****         if(Thread::running->getContext()->wasActive == 1){
 537              		.loc 1 60 9 is_stmt 1
 538 034c 630A0508 		beqz	a0,.L29
  61:src/Semaphore.cpp ****             restore_context_kernel_mode(Thread::running->getContext());
 539              		.loc 1 61 9
 540              	.LBB7:
  61:src/Semaphore.cpp ****             restore_context_kernel_mode(Thread::running->getContext());
 541              		.loc 1 61 39 is_stmt 0
 542 0350 97000000 		call	_ZN6Thread10getContextEv@plt
 542      E7800000 
 543              	.LVL54:
  61:src/Semaphore.cpp ****             restore_context_kernel_mode(Thread::running->getContext());
 544              		.loc 1 61 43
 545 0358 03378503 		ld	a4,56(a0)
  61:src/Semaphore.cpp ****             restore_context_kernel_mode(Thread::running->getContext());
 546              		.loc 1 61 9
 547 035c 93071000 		li	a5,1
 548 0360 630AF704 		beq	a4,a5,.L32
 549              	.LBB8:
  66:src/Semaphore.cpp ****             ThreadContext* tc = Thread::running->getContext();
 550              		.loc 1 66 13 is_stmt 1
  66:src/Semaphore.cpp ****             ThreadContext* tc = Thread::running->getContext();
 551              		.loc 1 66 40 is_stmt 0
 552 0364 17090000 		la	s2,_ZN6Thread7runningE
 552      03390900 
 553 036c 03350900 		ld	a0,0(s2)
 554 0370 97000000 		call	_ZN6Thread10getContextEv@plt
 554      E7800000 
 555              	.LVL55:
  66:src/Semaphore.cpp ****             ThreadContext* tc = Thread::running->getContext();
 556              		.loc 1 66 54
 557 0378 93071000 		li	a5,1
 558 037c 233CF502 		sd	a5,56(a0)
  67:src/Semaphore.cpp ****             ThreadWrapperArgs* wa = Thread::running->getWrapperArgs();
 559              		.loc 1 67 13 is_stmt 1
  67:src/Semaphore.cpp ****             ThreadWrapperArgs* wa = Thread::running->getWrapperArgs();
 560              		.loc 1 67 60 is_stmt 0
 561 0380 03350900 		ld	a0,0(s2)
GAS LISTING /tmp/cc5z7tli.s 			page 13


 562 0384 97000000 		call	_ZN6Thread10getContextEv@plt
 562      E7800000 
 563              	.LVL56:
 564 038c 93040500 		mv	s1,a0
 565              	.LVL57:
  68:src/Semaphore.cpp ****             //start_thread_for_the_first_time_dispatch(&Thread::running->context);
 566              		.loc 1 68 13 is_stmt 1
  68:src/Semaphore.cpp ****             //start_thread_for_the_first_time_dispatch(&Thread::running->context);
 567              		.loc 1 68 68 is_stmt 0
 568 0390 03350900 		ld	a0,0(s2)
 569 0394 97000000 		call	_ZN6Thread14getWrapperArgsEv@plt
 569      E7800000 
 570              	.LVL58:
 571 039c 93050500 		mv	a1,a0
 572              	.LVL59:
  70:src/Semaphore.cpp ****         }
 573              		.loc 1 70 13 is_stmt 1
  70:src/Semaphore.cpp ****         }
 574              		.loc 1 70 27 is_stmt 0
 575 03a0 13850400 		mv	a0,s1
 576              	.LVL60:
 577 03a4 97000000 		call	thread_wrapper@plt
 577      E7800000 
 578              	.LVL61:
 579              	.LBE8:
 580              	.LBE7:
 581              	.LBE6:
 582              	.LBE14:
  73:src/Semaphore.cpp **** }
 583              		.loc 1 73 12
 584 03ac 13050000 		li	a0,0
 585 03b0 6FF0DFF5 		j	.L25
 586              	.LVL62:
 587              	.L32:
 588              	.LBB15:
 589              	.LBB11:
 590              	.LBB9:
  62:src/Semaphore.cpp ****         }
 591              		.loc 1 62 13 is_stmt 1
  62:src/Semaphore.cpp ****         }
 592              		.loc 1 62 40 is_stmt 0
 593 03b4 97070000 		la	a5,_ZN6Thread7runningE
 593      83B70700 
 594 03bc 03B50700 		ld	a0,0(a5)
 595 03c0 97000000 		call	_ZN6Thread10getContextEv@plt
 595      E7800000 
 596              	.LVL63:
 597 03c8 97000000 		call	restore_context_kernel_mode@plt
 597      E7800000 
 598              	.LVL64:
 599              	.LBE9:
 600              	.LBE11:
 601              	.LBE15:
  73:src/Semaphore.cpp **** }
 602              		.loc 1 73 12
 603 03d0 13050000 		li	a0,0
 604              	.LBB16:
GAS LISTING /tmp/cc5z7tli.s 			page 14


 605              	.LBB12:
 606              	.LBB10:
 607 03d4 6FF09FF3 		j	.L25
 608              	.LVL65:
 609              	.L27:
 610              	.LBE10:
 611              	.LBE12:
 612              	.LBE16:
  53:src/Semaphore.cpp ****     Thread::running->semWaitStatus = 0;
 613              		.loc 1 53 38
 614 03d8 1305F0FF 		li	a0,-1
 615              	.LVL66:
 616 03dc 6FF01FF3 		j	.L25
 617              	.L29:
 618              	.LBB17:
 619              	.LBB13:
  60:src/Semaphore.cpp ****         if(Thread::running->getContext()->wasActive == 1){
 620              		.loc 1 60 48
 621 03e0 1305F0FF 		li	a0,-1
 622 03e4 6FF09FF2 		j	.L25
 623              	.LBE13:
 624              	.LBE17:
 625              		.cfi_endproc
 626              	.LFE20:
 628              		.align	2
 629              		.globl	_ZN9Semaphore4waitEv
 631              	_ZN9Semaphore4waitEv:
 632              	.LFB14:
  13:src/Semaphore.cpp ****     sem_wait(this->myHandle);
 633              		.loc 1 13 23 is_stmt 1
 634              		.cfi_startproc
 635              	.LVL67:
 636 03e8 130101FF 		addi	sp,sp,-16
 637              		.cfi_def_cfa_offset 16
 638 03ec 23341100 		sd	ra,8(sp)
 639 03f0 23308100 		sd	s0,0(sp)
 640              		.cfi_offset 1, -8
 641              		.cfi_offset 8, -16
 642 03f4 13040101 		addi	s0,sp,16
 643              		.cfi_def_cfa 8, 0
  14:src/Semaphore.cpp ****     return 0;
 644              		.loc 1 14 5
  14:src/Semaphore.cpp ****     return 0;
 645              		.loc 1 14 13 is_stmt 0
 646 03f8 03258500 		lw	a0,8(a0)
 647              	.LVL68:
 648 03fc 97000000 		call	_ZN9Semaphore8sem_waitEj
 648      E7800000 
 649              	.LVL69:
  15:src/Semaphore.cpp **** }
 650              		.loc 1 15 5 is_stmt 1
  16:src/Semaphore.cpp **** int Semaphore::signal(){
 651              		.loc 1 16 1 is_stmt 0
 652 0404 13050000 		li	a0,0
 653 0408 83308100 		ld	ra,8(sp)
 654              		.cfi_restore 1
 655 040c 03340100 		ld	s0,0(sp)
GAS LISTING /tmp/cc5z7tli.s 			page 15


 656              		.cfi_restore 8
 657              		.cfi_def_cfa 2, 16
 658 0410 13010101 		addi	sp,sp,16
 659              		.cfi_def_cfa_offset 0
 660 0414 67800000 		jr	ra
 661              		.cfi_endproc
 662              	.LFE14:
 664              		.align	2
 665              		.globl	_ZN9Semaphore10sem_signalEj
 667              	_ZN9Semaphore10sem_signalEj:
 668              	.LFB21:
  75:src/Semaphore.cpp **** 
  76:src/Semaphore.cpp **** int Semaphore::sem_signal(sem_t id) {
 669              		.loc 1 76 37 is_stmt 1
 670              		.cfi_startproc
 671              	.LVL70:
 672 0418 130101FE 		addi	sp,sp,-32
 673              		.cfi_def_cfa_offset 32
 674 041c 233C1100 		sd	ra,24(sp)
 675 0420 23388100 		sd	s0,16(sp)
 676 0424 23349100 		sd	s1,8(sp)
 677              		.cfi_offset 1, -8
 678              		.cfi_offset 8, -16
 679              		.cfi_offset 9, -24
 680 0428 13040102 		addi	s0,sp,32
 681              		.cfi_def_cfa 8, 0
 682 042c 93040500 		mv	s1,a0
  77:src/Semaphore.cpp ****     Semaphore* semaphore = MemoryAllocator::Instance()->getSemaphorePool().getSemaphoreById(id);
 683              		.loc 1 77 5
 684              		.loc 1 77 74 is_stmt 0
 685 0430 97000000 		call	_ZN15MemoryAllocator8InstanceEv@plt
 685      E7800000 
 686              	.LVL71:
 687 0438 97000000 		call	_ZN15MemoryAllocator16getSemaphorePoolEv@plt
 687      E7800000 
 688              	.LVL72:
 689              		.loc 1 77 92
 690 0440 93850400 		mv	a1,s1
 691 0444 97000000 		call	_ZN13SemaphorePool16getSemaphoreByIdEj@plt
 691      E7800000 
 692              	.LVL73:
  78:src/Semaphore.cpp ****     if(semaphore == nullptr) return -1;
 693              		.loc 1 78 5 is_stmt 1
 694 044c 630E0506 		beqz	a0,.L37
  79:src/Semaphore.cpp ****     semaphore->val++;
 695              		.loc 1 79 5
 696              		.loc 1 79 16 is_stmt 0
 697 0450 8327C500 		lw	a5,12(a0)
 698              		.loc 1 79 19
 699 0454 9B871700 		addiw	a5,a5,1
 700 0458 2326F500 		sw	a5,12(a0)
  80:src/Semaphore.cpp ****     if(semaphore->val >= 0 && !semaphore->waiting.empty()){
 701              		.loc 1 80 5 is_stmt 1
 702              	.LBB18:
 703              		.loc 1 80 28 is_stmt 0
 704 045c 13970702 		slli	a4,a5,32
 705 0460 635E0700 		bgez	a4,.L41
GAS LISTING /tmp/cc5z7tli.s 			page 16


 706              	.LBE18:
  81:src/Semaphore.cpp ****         //Unblock one thread and put it in Scheduler as ready
  82:src/Semaphore.cpp ****         Thread* thread = semaphore->waiting.remove_beginning();
  83:src/Semaphore.cpp ****         scheduler.put(thread);
  84:src/Semaphore.cpp ****         thread->semWaitStatus = 0;
  85:src/Semaphore.cpp ****     }
  86:src/Semaphore.cpp ****     return 0;
 707              		.loc 1 86 12
 708 0464 13050000 		li	a0,0
 709              	.LVL74:
 710              	.L36:
  87:src/Semaphore.cpp **** }
 711              		.loc 1 87 1
 712 0468 83308101 		ld	ra,24(sp)
 713              		.cfi_remember_state
 714              		.cfi_restore 1
 715 046c 03340101 		ld	s0,16(sp)
 716              		.cfi_restore 8
 717              		.cfi_def_cfa 2, 32
 718 0470 83348100 		ld	s1,8(sp)
 719              		.cfi_restore 9
 720 0474 13010102 		addi	sp,sp,32
 721              		.cfi_def_cfa_offset 0
 722 0478 67800000 		jr	ra
 723              	.LVL75:
 724              	.L41:
 725              		.cfi_restore_state
 726              	.LBB20:
  80:src/Semaphore.cpp ****     if(semaphore->val >= 0 && !semaphore->waiting.empty()){
 727              		.loc 1 80 56 discriminator 1
 728 047c 93040501 		addi	s1,a0,16
 729 0480 13850400 		mv	a0,s1
 730              	.LVL76:
 731 0484 97000000 		call	_ZN4ListI6ThreadE5emptyEv@plt
 731      E7800000 
 732              	.LVL77:
  80:src/Semaphore.cpp ****     if(semaphore->val >= 0 && !semaphore->waiting.empty()){
 733              		.loc 1 80 28 discriminator 1
 734 048c 63060500 		beqz	a0,.L42
 735              	.LBE20:
  86:src/Semaphore.cpp **** }
 736              		.loc 1 86 12
 737 0490 13050000 		li	a0,0
 738 0494 6FF05FFD 		j	.L36
 739              	.L42:
 740              	.LBB21:
 741              	.LBB19:
  82:src/Semaphore.cpp ****         scheduler.put(thread);
 742              		.loc 1 82 9 is_stmt 1
  82:src/Semaphore.cpp ****         scheduler.put(thread);
 743              		.loc 1 82 61 is_stmt 0
 744 0498 13850400 		mv	a0,s1
 745 049c 97000000 		call	_ZN4ListI6ThreadE16remove_beginningEv@plt
 745      E7800000 
 746              	.LVL78:
 747 04a4 93040500 		mv	s1,a0
 748              	.LVL79:
GAS LISTING /tmp/cc5z7tli.s 			page 17


  83:src/Semaphore.cpp ****         thread->semWaitStatus = 0;
 749              		.loc 1 83 9 is_stmt 1
  83:src/Semaphore.cpp ****         thread->semWaitStatus = 0;
 750              		.loc 1 83 22 is_stmt 0
 751 04a8 93050500 		mv	a1,a0
 752 04ac 17050000 		la	a0,scheduler
 752      03350500 
 753 04b4 97000000 		call	_ZN9Scheduler3putEP6Thread@plt
 753      E7800000 
 754              	.LVL80:
  84:src/Semaphore.cpp ****     }
 755              		.loc 1 84 9 is_stmt 1
  84:src/Semaphore.cpp ****     }
 756              		.loc 1 84 31 is_stmt 0
 757 04bc 23A80400 		sw	zero,16(s1)
 758              	.LBE19:
 759              	.LBE21:
  86:src/Semaphore.cpp **** }
 760              		.loc 1 86 12
 761 04c0 13050000 		li	a0,0
 762              	.LBB22:
 763 04c4 6FF05FFA 		j	.L36
 764              	.LVL81:
 765              	.L37:
 766              	.LBE22:
  78:src/Semaphore.cpp ****     semaphore->val++;
 767              		.loc 1 78 38
 768 04c8 1305F0FF 		li	a0,-1
 769              	.LVL82:
 770 04cc 6FF0DFF9 		j	.L36
 771              		.cfi_endproc
 772              	.LFE21:
 774              		.align	2
 775              		.globl	_ZN9Semaphore6signalEv
 777              	_ZN9Semaphore6signalEv:
 778              	.LFB15:
  17:src/Semaphore.cpp ****     sem_signal(this->myHandle);
 779              		.loc 1 17 24 is_stmt 1
 780              		.cfi_startproc
 781              	.LVL83:
 782 04d0 130101FF 		addi	sp,sp,-16
 783              		.cfi_def_cfa_offset 16
 784 04d4 23341100 		sd	ra,8(sp)
 785 04d8 23308100 		sd	s0,0(sp)
 786              		.cfi_offset 1, -8
 787              		.cfi_offset 8, -16
 788 04dc 13040101 		addi	s0,sp,16
 789              		.cfi_def_cfa 8, 0
  18:src/Semaphore.cpp ****     return 0;
 790              		.loc 1 18 5
  18:src/Semaphore.cpp ****     return 0;
 791              		.loc 1 18 15 is_stmt 0
 792 04e0 03258500 		lw	a0,8(a0)
 793              	.LVL84:
 794 04e4 97000000 		call	_ZN9Semaphore10sem_signalEj
 794      E7800000 
 795              	.LVL85:
GAS LISTING /tmp/cc5z7tli.s 			page 18


  19:src/Semaphore.cpp **** }
 796              		.loc 1 19 5 is_stmt 1
  20:src/Semaphore.cpp **** 
 797              		.loc 1 20 1 is_stmt 0
 798 04ec 13050000 		li	a0,0
 799 04f0 83308100 		ld	ra,8(sp)
 800              		.cfi_restore 1
 801 04f4 03340100 		ld	s0,0(sp)
 802              		.cfi_restore 8
 803              		.cfi_def_cfa 2, 16
 804 04f8 13010101 		addi	sp,sp,16
 805              		.cfi_def_cfa_offset 0
 806 04fc 67800000 		jr	ra
 807              		.cfi_endproc
 808              	.LFE15:
 810              		.weak	_ZTV9Semaphore
 811              		.section	.data.rel.ro.local._ZTV9Semaphore,"awG",@progbits,_ZTV9Semaphore,comdat
 812              		.align	3
 815              	_ZTV9Semaphore:
 816 0000 00000000 		.dword	0
 816      00000000 
 817 0008 00000000 		.dword	0
 817      00000000 
 818 0010 00000000 		.dword	_ZN9SemaphoreD1Ev
 818      00000000 
 819 0018 00000000 		.dword	_ZN9SemaphoreD0Ev
 819      00000000 
 820              		.globl	_ZN9Semaphore3cntE
 821              		.data
 822              		.align	2
 823              		.set	.LANCHOR0,. + 0
 826              	_ZN9Semaphore3cntE:
 827 0000 01000000 		.word	1
 828              		.text
 829              	.Letext0:
 830              		.file 2 "src/../h/../lib/hw.h"
 831              		.file 3 "src/../h/List.hpp"
 832              		.file 4 "src/../h/Thread.hpp"
 833              		.file 5 "src/../h/memory_structs.h"
 834              		.file 6 "src/../h/ThreadPool.hpp"
 835              		.file 7 "src/../h/SemaphorePool.hpp"
 836              		.file 8 "src/../h/Semaphore.hpp"
 837              		.file 9 "src/../h/syscall_cpp.hpp"
 838              		.file 10 "src/../h/Scheduler.hpp"
 4111              		.align	3
 4114              	DW.ref.__gxx_personality_v0:
 4115 0000 00000000 		.dword	__gxx_personality_v0
 4115      00000000 
 4116              		.ident	"GCC: (Ubuntu 9.4.0-1ubuntu1~20.04) 9.4.0"
 4117              		.section	.note.GNU-stack,"",@progbits
GAS LISTING /tmp/cc5z7tli.s 			page 19

