GAS LISTING /tmp/ccw2llFv.s 			page 1


   1              		.file	"Semaphore.cpp"
   2              		.option pic
   3              		.option norelax
   4              		.text
   5              	.Ltext0:
   6              		.align	2
   7              		.globl	_ZN9SemaphoreD2Ev
   9              	_ZN9SemaphoreD2Ev:
  10              	.LFB12:
  11              		.file 1 "src/Semaphore.cpp"
   1:src/Semaphore.cpp **** #include "../h/Semaphore.hpp"
   2:src/Semaphore.cpp **** #include "../h/MemoryAllocator.hpp"
   3:src/Semaphore.cpp **** #include "../h/Scheduler.hpp"
   4:src/Semaphore.cpp **** 
   5:src/Semaphore.cpp **** int Semaphore::cnt = 1;
   6:src/Semaphore.cpp **** 
   7:src/Semaphore.cpp **** Semaphore::Semaphore(unsigned init){
   8:src/Semaphore.cpp ****     val = init;
   9:src/Semaphore.cpp ****     myHandle = cnt++;
  10:src/Semaphore.cpp **** }
  11:src/Semaphore.cpp **** Semaphore::~Semaphore() {}
  12              		.loc 1 11 1
  13              		.cfi_startproc
  14              	.LVL0:
  15 0000 130101FF 		addi	sp,sp,-16
  16              		.cfi_def_cfa_offset 16
  17 0004 23341100 		sd	ra,8(sp)
  18 0008 23308100 		sd	s0,0(sp)
  19              		.cfi_offset 1, -8
  20              		.cfi_offset 8, -16
  21 000c 13040101 		addi	s0,sp,16
  22              		.cfi_def_cfa 8, 0
  23              	.LBB2:
  24              		.loc 1 11 23 is_stmt 0
  25 0010 97070000 		lla	a5,_ZTV9Semaphore+16
  25      93870700 
  26 0018 2330F500 		sd	a5,0(a0)
  27 001c 13050501 		addi	a0,a0,16
  28              	.LVL1:
  29 0020 97000000 		call	_ZN4ListI6ThreadED1Ev@plt
  29      E7800000 
  30              	.LVL2:
  31              	.LBE2:
  32              		.loc 1 11 26
  33 0028 83308100 		ld	ra,8(sp)
  34              		.cfi_restore 1
  35 002c 03340100 		ld	s0,0(sp)
  36              		.cfi_restore 8
  37              		.cfi_def_cfa 2, 16
  38 0030 13010101 		addi	sp,sp,16
  39              		.cfi_def_cfa_offset 0
  40 0034 67800000 		jr	ra
  41              		.cfi_endproc
  42              	.LFE12:
  44              		.globl	_ZN9SemaphoreD1Ev
  45              		.set	_ZN9SemaphoreD1Ev,_ZN9SemaphoreD2Ev
  46              		.align	2
GAS LISTING /tmp/ccw2llFv.s 			page 2


  47              		.globl	_ZN9SemaphoreC2Ej
  49              	_ZN9SemaphoreC2Ej:
  50              	.LFB9:
   7:src/Semaphore.cpp ****     val = init;
  51              		.loc 1 7 1 is_stmt 1
  52              		.cfi_startproc
  53              	.LVL3:
  54 0038 130101FE 		addi	sp,sp,-32
  55              		.cfi_def_cfa_offset 32
  56 003c 233C1100 		sd	ra,24(sp)
  57 0040 23388100 		sd	s0,16(sp)
  58 0044 23349100 		sd	s1,8(sp)
  59 0048 23302101 		sd	s2,0(sp)
  60              		.cfi_offset 1, -8
  61              		.cfi_offset 8, -16
  62              		.cfi_offset 9, -24
  63              		.cfi_offset 18, -32
  64 004c 13040102 		addi	s0,sp,32
  65              		.cfi_def_cfa 8, 0
  66 0050 93040500 		mv	s1,a0
  67 0054 13890500 		mv	s2,a1
  68              	.LBB3:
   7:src/Semaphore.cpp ****     val = init;
  69              		.loc 1 7 35 is_stmt 0
  70 0058 97070000 		lla	a5,_ZTV9Semaphore+16
  70      93870700 
  71 0060 2330F500 		sd	a5,0(a0)
  72 0064 13050501 		addi	a0,a0,16
  73              	.LVL4:
  74 0068 97000000 		call	_ZN4ListI6ThreadEC1Ev@plt
  74      E7800000 
  75              	.LVL5:
   8:src/Semaphore.cpp ****     myHandle = cnt++;
  76              		.loc 1 8 5 is_stmt 1
   8:src/Semaphore.cpp ****     myHandle = cnt++;
  77              		.loc 1 8 9 is_stmt 0
  78 0070 23A62401 		sw	s2,12(s1)
   9:src/Semaphore.cpp **** }
  79              		.loc 1 9 5 is_stmt 1
   9:src/Semaphore.cpp **** }
  80              		.loc 1 9 19 is_stmt 0
  81 0074 17070000 		lla	a4,.LANCHOR0
  81      13070700 
  82 007c 83270700 		lw	a5,0(a4)
  83 0080 9B861700 		addiw	a3,a5,1
  84 0084 2320D700 		sw	a3,0(a4)
   9:src/Semaphore.cpp **** }
  85              		.loc 1 9 14
  86 0088 23A4F400 		sw	a5,8(s1)
  87              	.LBE3:
  10:src/Semaphore.cpp **** Semaphore::~Semaphore() {}
  88              		.loc 1 10 1
  89 008c 83308101 		ld	ra,24(sp)
  90              		.cfi_restore 1
  91 0090 03340101 		ld	s0,16(sp)
  92              		.cfi_restore 8
  93              		.cfi_def_cfa 2, 32
GAS LISTING /tmp/ccw2llFv.s 			page 3


  94 0094 83348100 		ld	s1,8(sp)
  95              		.cfi_restore 9
  96              	.LVL6:
  97 0098 03390100 		ld	s2,0(sp)
  98              		.cfi_restore 18
  99 009c 13010102 		addi	sp,sp,32
 100              		.cfi_def_cfa_offset 0
 101 00a0 67800000 		jr	ra
 102              		.cfi_endproc
 103              	.LFE9:
 105              		.globl	_ZN9SemaphoreC1Ej
 106              		.set	_ZN9SemaphoreC1Ej,_ZN9SemaphoreC2Ej
 107              		.align	2
 108              		.globl	_ZN9SemaphorenwEm
 110              	_ZN9SemaphorenwEm:
 111              	.LFB17:
  12:src/Semaphore.cpp **** 
  13:src/Semaphore.cpp **** int  Semaphore::wait(){
  14:src/Semaphore.cpp ****     sem_wait(this->myHandle);
  15:src/Semaphore.cpp ****     return 0;
  16:src/Semaphore.cpp **** }
  17:src/Semaphore.cpp **** int Semaphore::signal(){
  18:src/Semaphore.cpp ****     sem_signal(this->myHandle);
  19:src/Semaphore.cpp ****     return 0;
  20:src/Semaphore.cpp **** }
  21:src/Semaphore.cpp **** 
  22:src/Semaphore.cpp **** void* Semaphore::operator new(size_t size) {
 112              		.loc 1 22 44 is_stmt 1
 113              		.cfi_startproc
 114              	.LVL7:
 115 00a4 130101FF 		addi	sp,sp,-16
 116              		.cfi_def_cfa_offset 16
 117 00a8 23341100 		sd	ra,8(sp)
 118 00ac 23308100 		sd	s0,0(sp)
 119              		.cfi_offset 1, -8
 120              		.cfi_offset 8, -16
 121 00b0 13040101 		addi	s0,sp,16
 122              		.cfi_def_cfa 8, 0
  23:src/Semaphore.cpp ****     return MemoryAllocator::Instance()->getSemaphorePool().allocate();
 123              		.loc 1 23 5
 124              		.loc 1 23 58 is_stmt 0
 125 00b4 97000000 		call	_ZN15MemoryAllocator8InstanceEv@plt
 125      E7800000 
 126              	.LVL8:
 127 00bc 97000000 		call	_ZN15MemoryAllocator16getSemaphorePoolEv@plt
 127      E7800000 
 128              	.LVL9:
 129              		.loc 1 23 68
 130 00c4 97000000 		call	_ZN13SemaphorePool8allocateEv@plt
 130      E7800000 
 131              	.LVL10:
  24:src/Semaphore.cpp **** }
 132              		.loc 1 24 1
 133 00cc 83308100 		ld	ra,8(sp)
 134              		.cfi_restore 1
 135 00d0 03340100 		ld	s0,0(sp)
 136              		.cfi_restore 8
GAS LISTING /tmp/ccw2llFv.s 			page 4


 137              		.cfi_def_cfa 2, 16
 138 00d4 13010101 		addi	sp,sp,16
 139              		.cfi_def_cfa_offset 0
 140 00d8 67800000 		jr	ra
 141              		.cfi_endproc
 142              	.LFE17:
 144              		.align	2
 145              		.globl	_ZN9SemaphoredlEPv
 147              	_ZN9SemaphoredlEPv:
 148              	.LFB18:
  25:src/Semaphore.cpp **** 
  26:src/Semaphore.cpp **** void Semaphore::operator delete(void *obj) noexcept {
 149              		.loc 1 26 53 is_stmt 1
 150              		.cfi_startproc
 151              		.cfi_personality 0x9b,DW.ref.__gxx_personality_v0
 152              		.cfi_lsda 0x1b,.LLSDA18
 153              	.LVL11:
 154 00dc 130101FE 		addi	sp,sp,-32
 155              		.cfi_def_cfa_offset 32
 156 00e0 233C1100 		sd	ra,24(sp)
 157 00e4 23388100 		sd	s0,16(sp)
 158 00e8 23349100 		sd	s1,8(sp)
 159              		.cfi_offset 1, -8
 160              		.cfi_offset 8, -16
 161              		.cfi_offset 9, -24
 162 00ec 13040102 		addi	s0,sp,32
 163              		.cfi_def_cfa 8, 0
 164 00f0 93040500 		mv	s1,a0
  27:src/Semaphore.cpp ****     MemoryAllocator::Instance()->getSemaphorePool().deallocate((Semaphore*)obj);
 165              		.loc 1 27 5
 166              		.loc 1 27 51 is_stmt 0
 167 00f4 97000000 		call	_ZN15MemoryAllocator8InstanceEv@plt
 167      E7800000 
 168              	.LVL12:
 169 00fc 97000000 		call	_ZN15MemoryAllocator16getSemaphorePoolEv@plt
 169      E7800000 
 170              	.LVL13:
 171              		.loc 1 27 63
 172 0104 93850400 		mv	a1,s1
 173 0108 97000000 		call	_ZN13SemaphorePool10deallocateEP9Semaphore@plt
 173      E7800000 
 174              	.LVL14:
  28:src/Semaphore.cpp **** }
 175              		.loc 1 28 1
 176 0110 83308101 		ld	ra,24(sp)
 177              		.cfi_restore 1
 178 0114 03340101 		ld	s0,16(sp)
 179              		.cfi_restore 8
 180              		.cfi_def_cfa 2, 32
 181 0118 83348100 		ld	s1,8(sp)
 182              		.cfi_restore 9
 183              	.LVL15:
 184 011c 13010102 		addi	sp,sp,32
 185              		.cfi_def_cfa_offset 0
 186 0120 67800000 		jr	ra
 187              		.cfi_endproc
 188              	.LFE18:
GAS LISTING /tmp/ccw2llFv.s 			page 5


 189              		.globl	__gxx_personality_v0
 190              		.section	.gcc_except_table,"a",@progbits
 191              	.LLSDA18:
 192 0000 FF       		.byte	0xff
 193 0001 FF       		.byte	0xff
 194 0002 03       		.byte	0x3
 195 0003 00       		.byte	0
 196              		.text
 198              		.align	2
 199              		.globl	_ZN9SemaphoreD0Ev
 201              	_ZN9SemaphoreD0Ev:
 202              	.LFB14:
  11:src/Semaphore.cpp **** 
 203              		.loc 1 11 1 is_stmt 1
 204              		.cfi_startproc
 205              	.LVL16:
 206 0124 130101FE 		addi	sp,sp,-32
 207              		.cfi_def_cfa_offset 32
 208 0128 233C1100 		sd	ra,24(sp)
 209 012c 23388100 		sd	s0,16(sp)
 210 0130 23349100 		sd	s1,8(sp)
 211              		.cfi_offset 1, -8
 212              		.cfi_offset 8, -16
 213              		.cfi_offset 9, -24
 214 0134 13040102 		addi	s0,sp,32
 215              		.cfi_def_cfa 8, 0
 216 0138 93040500 		mv	s1,a0
  11:src/Semaphore.cpp **** 
 217              		.loc 1 11 26 is_stmt 0
 218 013c 97000000 		call	_ZN9SemaphoreD1Ev
 218      E7800000 
 219              	.LVL17:
 220 0144 13850400 		mv	a0,s1
 221 0148 97000000 		call	_ZN9SemaphoredlEPv
 221      E7800000 
 222              	.LVL18:
 223 0150 83308101 		ld	ra,24(sp)
 224              		.cfi_restore 1
 225 0154 03340101 		ld	s0,16(sp)
 226              		.cfi_restore 8
 227              		.cfi_def_cfa 2, 32
 228 0158 83348100 		ld	s1,8(sp)
 229              		.cfi_restore 9
 230              	.LVL19:
 231 015c 13010102 		addi	sp,sp,32
 232              		.cfi_def_cfa_offset 0
 233 0160 67800000 		jr	ra
 234              		.cfi_endproc
 235              	.LFE14:
 237              		.align	2
 238              		.globl	_ZN9Semaphore8sem_openEPjj
 240              	_ZN9Semaphore8sem_openEPjj:
 241              	.LFB19:
  29:src/Semaphore.cpp **** int Semaphore::sem_open(sem_t *handle, unsigned init) {
 242              		.loc 1 29 55 is_stmt 1
 243              		.cfi_startproc
 244              		.cfi_personality 0x9b,DW.ref.__gxx_personality_v0
GAS LISTING /tmp/ccw2llFv.s 			page 6


 245              		.cfi_lsda 0x1b,.LLSDA19
 246              	.LVL20:
 247 0164 130101FD 		addi	sp,sp,-48
 248              		.cfi_def_cfa_offset 48
 249 0168 23341102 		sd	ra,40(sp)
 250 016c 23308102 		sd	s0,32(sp)
 251 0170 233C9100 		sd	s1,24(sp)
 252 0174 23382101 		sd	s2,16(sp)
 253 0178 23343101 		sd	s3,8(sp)
 254              		.cfi_offset 1, -8
 255              		.cfi_offset 8, -16
 256              		.cfi_offset 9, -24
 257              		.cfi_offset 18, -32
 258              		.cfi_offset 19, -40
 259 017c 13040103 		addi	s0,sp,48
 260              		.cfi_def_cfa 8, 0
 261 0180 93090500 		mv	s3,a0
 262 0184 13890500 		mv	s2,a1
  30:src/Semaphore.cpp ****     Semaphore* semaphore = new Semaphore(init);
 263              		.loc 1 30 5
 264              		.loc 1 30 46 is_stmt 0
 265 0188 13050002 		li	a0,32
 266              	.LVL21:
 267              	.LEHB0:
 268 018c 97000000 		call	_ZN9SemaphorenwEm
 268      E7800000 
 269              	.LVL22:
 270              	.LEHE0:
 271 0194 93040500 		mv	s1,a0
 272 0198 93050900 		mv	a1,s2
 273              	.LEHB1:
 274 019c 97000000 		call	_ZN9SemaphoreC1Ej
 274      E7800000 
 275              	.LVL23:
 276              	.LEHE1:
  31:src/Semaphore.cpp ****     if(!semaphore) return -1;
 277              		.loc 1 31 5 is_stmt 1 discriminator 2
 278 01a4 63860402 		beqz	s1,.L14
  32:src/Semaphore.cpp ****     *handle = semaphore->myHandle;
 279              		.loc 1 32 5
 280              		.loc 1 32 26 is_stmt 0
 281 01a8 83A78400 		lw	a5,8(s1)
 282              		.loc 1 32 13
 283 01ac 23A0F900 		sw	a5,0(s3)
  33:src/Semaphore.cpp ****     return 0;
 284              		.loc 1 33 5 is_stmt 1
 285              		.loc 1 33 12 is_stmt 0
 286 01b0 13050000 		li	a0,0
 287              	.L16:
  34:src/Semaphore.cpp **** }
 288              		.loc 1 34 1
 289 01b4 83308102 		ld	ra,40(sp)
 290              		.cfi_remember_state
 291              		.cfi_restore 1
 292 01b8 03340102 		ld	s0,32(sp)
 293              		.cfi_restore 8
 294              		.cfi_def_cfa 2, 48
GAS LISTING /tmp/ccw2llFv.s 			page 7


 295 01bc 83348101 		ld	s1,24(sp)
 296              		.cfi_restore 9
 297              	.LVL24:
 298 01c0 03390101 		ld	s2,16(sp)
 299              		.cfi_restore 18
 300 01c4 83398100 		ld	s3,8(sp)
 301              		.cfi_restore 19
 302              	.LVL25:
 303 01c8 13010103 		addi	sp,sp,48
 304              		.cfi_def_cfa_offset 0
 305 01cc 67800000 		jr	ra
 306              	.LVL26:
 307              	.L14:
 308              		.cfi_restore_state
  31:src/Semaphore.cpp ****     *handle = semaphore->myHandle;
 309              		.loc 1 31 28
 310 01d0 1305F0FF 		li	a0,-1
 311 01d4 6FF01FFE 		j	.L16
 312              	.LVL27:
 313              	.L15:
 314 01d8 13090500 		mv	s2,a0
  30:src/Semaphore.cpp ****     if(!semaphore) return -1;
 315              		.loc 1 30 46
 316 01dc 13850400 		mv	a0,s1
 317 01e0 97000000 		call	_ZN9SemaphoredlEPv
 317      E7800000 
 318              	.LVL28:
 319 01e8 13050900 		mv	a0,s2
 320              	.LEHB2:
 321 01ec 97000000 		call	_Unwind_Resume@plt
 321      E7800000 
 322              	.LVL29:
 323              	.LEHE2:
 324              		.cfi_endproc
 325              	.LFE19:
 326              		.section	.gcc_except_table
 327              	.LLSDA19:
 328 0004 FF       		.byte	0xff
 329 0005 FF       		.byte	0xff
 330 0006 03       		.byte	0x3
 331 0007 27       		.byte	0x27
 332 0008 00000000 		.4byte	.LEHB0-.LFB19
 333 000c 00000000 		.4byte	.LEHE0-.LEHB0
 334 0010 00000000 		.4byte	0
 335 0014 00       		.byte	0
 336 0015 00000000 		.4byte	.LEHB1-.LFB19
 337 0019 00000000 		.4byte	.LEHE1-.LEHB1
 338 001d 00000000 		.4byte	.L15-.LFB19
 339 0021 00       		.byte	0
 340 0022 00000000 		.4byte	.LEHB2-.LFB19
 341 0026 00000000 		.4byte	.LEHE2-.LEHB2
 342 002a 00000000 		.4byte	0
 343 002e 00       		.byte	0
 344              		.text
 346              		.align	2
 347              		.globl	_ZN9Semaphore9sem_closeEj
 349              	_ZN9Semaphore9sem_closeEj:
GAS LISTING /tmp/ccw2llFv.s 			page 8


 350              	.LFB20:
  35:src/Semaphore.cpp **** 
  36:src/Semaphore.cpp **** int Semaphore::sem_close(sem_t id){
 351              		.loc 1 36 35 is_stmt 1
 352              		.cfi_startproc
 353              	.LVL30:
 354 01f4 130101FE 		addi	sp,sp,-32
 355              		.cfi_def_cfa_offset 32
 356 01f8 233C1100 		sd	ra,24(sp)
 357 01fc 23388100 		sd	s0,16(sp)
 358 0200 23349100 		sd	s1,8(sp)
 359 0204 23302101 		sd	s2,0(sp)
 360              		.cfi_offset 1, -8
 361              		.cfi_offset 8, -16
 362              		.cfi_offset 9, -24
 363              		.cfi_offset 18, -32
 364 0208 13040102 		addi	s0,sp,32
 365              		.cfi_def_cfa 8, 0
 366 020c 93040500 		mv	s1,a0
  37:src/Semaphore.cpp ****     Semaphore* semaphore = MemoryAllocator::Instance()->getSemaphorePool().getSemaphoreById(id);
 367              		.loc 1 37 5
 368              		.loc 1 37 74 is_stmt 0
 369 0210 97000000 		call	_ZN15MemoryAllocator8InstanceEv@plt
 369      E7800000 
 370              	.LVL31:
 371 0218 97000000 		call	_ZN15MemoryAllocator16getSemaphorePoolEv@plt
 371      E7800000 
 372              	.LVL32:
 373              		.loc 1 37 92
 374 0220 93850400 		mv	a1,s1
 375 0224 97000000 		call	_ZN13SemaphorePool16getSemaphoreByIdEj@plt
 375      E7800000 
 376              	.LVL33:
 377 022c 13090500 		mv	s2,a0
 378              	.LVL34:
  38:src/Semaphore.cpp ****     if(semaphore == nullptr) return -1;
 379              		.loc 1 38 5 is_stmt 1
 380 0230 63080506 		beqz	a0,.L22
 381              	.LVL35:
 382              	.L21:
  39:src/Semaphore.cpp **** 
  40:src/Semaphore.cpp ****     //take out all threads that were waiting on this semaphore and put them in Scheduler as ready
  41:src/Semaphore.cpp ****     while(!semaphore->waiting.empty()){
 383              		.loc 1 41 5
 384              		.loc 1 41 11
 385              		.loc 1 41 36 is_stmt 0
 386 0234 93040901 		addi	s1,s2,16
 387 0238 13850400 		mv	a0,s1
 388 023c 97000000 		call	_ZN4ListI6ThreadE5emptyEv@plt
 388      E7800000 
 389              	.LVL36:
 390              		.loc 1 41 11
 391 0244 63180502 		bnez	a0,.L20
 392              	.LBB4:
  42:src/Semaphore.cpp ****         Thread* thread = semaphore->waiting.remove_beginning();
 393              		.loc 1 42 9 is_stmt 1
 394              		.loc 1 42 61 is_stmt 0
GAS LISTING /tmp/ccw2llFv.s 			page 9


 395 0248 13850400 		mv	a0,s1
 396 024c 97000000 		call	_ZN4ListI6ThreadE16remove_beginningEv@plt
 396      E7800000 
 397              	.LVL37:
 398 0254 93050500 		mv	a1,a0
 399              	.LVL38:
  43:src/Semaphore.cpp ****         thread->semWaitStatus = -2;
 400              		.loc 1 43 9 is_stmt 1
 401              		.loc 1 43 31 is_stmt 0
 402 0258 9307E0FF 		li	a5,-2
 403 025c 2324F500 		sw	a5,8(a0)
  44:src/Semaphore.cpp ****         scheduler.put(thread);
 404              		.loc 1 44 9 is_stmt 1
 405              		.loc 1 44 22 is_stmt 0
 406 0260 17050000 		la	a0,scheduler
 406      03350500 
 407              	.LVL39:
 408 0268 97000000 		call	_ZN9Scheduler3putEP6Thread@plt
 408      E7800000 
 409              	.LVL40:
 410              	.LBE4:
  41:src/Semaphore.cpp ****         Thread* thread = semaphore->waiting.remove_beginning();
 411              		.loc 1 41 5
 412 0270 6FF05FFC 		j	.L21
 413              	.L20:
  45:src/Semaphore.cpp **** 
  46:src/Semaphore.cpp ****     }
  47:src/Semaphore.cpp ****     delete semaphore;
 414              		.loc 1 47 5 is_stmt 1 discriminator 1
 415              		.loc 1 47 12 is_stmt 0 discriminator 1
 416 0274 83370900 		ld	a5,0(s2)
 417 0278 83B78700 		ld	a5,8(a5)
 418 027c 13050900 		mv	a0,s2
 419 0280 E7800700 		jalr	a5
 420              	.LVL41:
  48:src/Semaphore.cpp ****     return 0;
 421              		.loc 1 48 5 is_stmt 1 discriminator 1
 422              		.loc 1 48 12 is_stmt 0 discriminator 1
 423 0284 13050000 		li	a0,0
 424              	.L19:
  49:src/Semaphore.cpp **** }
 425              		.loc 1 49 1
 426 0288 83308101 		ld	ra,24(sp)
 427              		.cfi_remember_state
 428              		.cfi_restore 1
 429 028c 03340101 		ld	s0,16(sp)
 430              		.cfi_restore 8
 431              		.cfi_def_cfa 2, 32
 432 0290 83348100 		ld	s1,8(sp)
 433              		.cfi_restore 9
 434 0294 03390100 		ld	s2,0(sp)
 435              		.cfi_restore 18
 436              	.LVL42:
 437 0298 13010102 		addi	sp,sp,32
 438              		.cfi_def_cfa_offset 0
 439 029c 67800000 		jr	ra
 440              	.LVL43:
GAS LISTING /tmp/ccw2llFv.s 			page 10


 441              	.L22:
 442              		.cfi_restore_state
  38:src/Semaphore.cpp **** 
 443              		.loc 1 38 38
 444 02a0 1305F0FF 		li	a0,-1
 445              	.LVL44:
 446 02a4 6FF05FFE 		j	.L19
 447              		.cfi_endproc
 448              	.LFE20:
 450              		.align	2
 451              		.globl	_ZN9Semaphore8sem_waitEj
 453              	_ZN9Semaphore8sem_waitEj:
 454              	.LFB21:
  50:src/Semaphore.cpp **** 
  51:src/Semaphore.cpp **** int Semaphore::sem_wait(sem_t id) {
 455              		.loc 1 51 35 is_stmt 1
 456              		.cfi_startproc
 457              	.LVL45:
 458 02a8 130101FE 		addi	sp,sp,-32
 459              		.cfi_def_cfa_offset 32
 460 02ac 233C1100 		sd	ra,24(sp)
 461 02b0 23388100 		sd	s0,16(sp)
 462 02b4 23349100 		sd	s1,8(sp)
 463              		.cfi_offset 1, -8
 464              		.cfi_offset 8, -16
 465              		.cfi_offset 9, -24
 466 02b8 13040102 		addi	s0,sp,32
 467              		.cfi_def_cfa 8, 0
 468 02bc 93040500 		mv	s1,a0
  52:src/Semaphore.cpp ****     Semaphore* semaphore = MemoryAllocator::Instance()->getSemaphorePool().getSemaphoreById(id);
 469              		.loc 1 52 5
 470              		.loc 1 52 74 is_stmt 0
 471 02c0 97000000 		call	_ZN15MemoryAllocator8InstanceEv@plt
 471      E7800000 
 472              	.LVL46:
 473 02c8 97000000 		call	_ZN15MemoryAllocator16getSemaphorePoolEv@plt
 473      E7800000 
 474              	.LVL47:
 475              		.loc 1 52 92
 476 02d0 93850400 		mv	a1,s1
 477 02d4 97000000 		call	_ZN13SemaphorePool16getSemaphoreByIdEj@plt
 477      E7800000 
 478              	.LVL48:
  53:src/Semaphore.cpp ****     if(semaphore == nullptr) return -1;
 479              		.loc 1 53 5 is_stmt 1
 480 02dc 630A0512 		beqz	a0,.L28
  54:src/Semaphore.cpp ****     Thread::running->semWaitStatus = 0;
 481              		.loc 1 54 5
 482              		.loc 1 54 22 is_stmt 0
 483 02e0 97070000 		la	a5,_ZN6Thread7runningE
 483      83B70700 
 484 02e8 83B40700 		ld	s1,0(a5)
 485              		.loc 1 54 36
 486 02ec 23A40400 		sw	zero,8(s1)
  55:src/Semaphore.cpp ****     semaphore->val--;
 487              		.loc 1 55 5 is_stmt 1
 488              		.loc 1 55 16 is_stmt 0
GAS LISTING /tmp/ccw2llFv.s 			page 11


 489 02f0 8327C500 		lw	a5,12(a0)
 490              		.loc 1 55 19
 491 02f4 9B87F7FF 		addiw	a5,a5,-1
 492 02f8 2326F500 		sw	a5,12(a0)
  56:src/Semaphore.cpp ****     if(semaphore->val < 0){
 493              		.loc 1 56 5 is_stmt 1
 494              	.LBB5:
 495 02fc 13970702 		slli	a4,a5,32
 496 0300 634E0700 		bltz	a4,.L32
 497              	.LBE5:
  57:src/Semaphore.cpp ****         Thread* oldRunning = Thread::running;
  58:src/Semaphore.cpp ****         semaphore->waiting.add_end(Thread::running);
  59:src/Semaphore.cpp **** 
  60:src/Semaphore.cpp ****         Thread::running = scheduler.get();
  61:src/Semaphore.cpp ****         if(Thread::running == nullptr) return -1;
  62:src/Semaphore.cpp ****         if(Thread::running->getContext()->isKernelThread){
  63:src/Semaphore.cpp ****             ThreadWrapperArgs* wa = Thread::running->getWrapperArgs();
  64:src/Semaphore.cpp ****             wa->userFunc(wa->userArgs);
  65:src/Semaphore.cpp ****         }
  66:src/Semaphore.cpp ****         if(Thread::running->getContext()->wasActive == 1){
  67:src/Semaphore.cpp ****             RiscV::w_last_sstatus();
  68:src/Semaphore.cpp ****             RiscV::w_last_sepc();
  69:src/Semaphore.cpp ****             restore_context_kernel_mode(Thread::running->getContext());
  70:src/Semaphore.cpp ****         }
  71:src/Semaphore.cpp ****         else
  72:src/Semaphore.cpp ****         {
  73:src/Semaphore.cpp ****             context_switch(oldRunning->getContext(), Thread::running->getContext());
  74:src/Semaphore.cpp ****         }
  75:src/Semaphore.cpp ****     }
  76:src/Semaphore.cpp ****     return 0;
 498              		.loc 1 76 12 is_stmt 0
 499 0304 13050000 		li	a0,0
 500              	.LVL49:
 501              	.L25:
  77:src/Semaphore.cpp **** }
 502              		.loc 1 77 1
 503 0308 83308101 		ld	ra,24(sp)
 504              		.cfi_remember_state
 505              		.cfi_restore 1
 506 030c 03340101 		ld	s0,16(sp)
 507              		.cfi_restore 8
 508              		.cfi_def_cfa 2, 32
 509 0310 83348100 		ld	s1,8(sp)
 510              		.cfi_restore 9
 511 0314 13010102 		addi	sp,sp,32
 512              		.cfi_def_cfa_offset 0
 513 0318 67800000 		jr	ra
 514              	.LVL50:
 515              	.L32:
 516              		.cfi_restore_state
 517              	.LBB13:
 518              	.LBB6:
  57:src/Semaphore.cpp ****         Thread* oldRunning = Thread::running;
 519              		.loc 1 57 9 is_stmt 1
  58:src/Semaphore.cpp **** 
 520              		.loc 1 58 9
  58:src/Semaphore.cpp **** 
GAS LISTING /tmp/ccw2llFv.s 			page 12


 521              		.loc 1 58 35 is_stmt 0
 522 031c 93850400 		mv	a1,s1
 523 0320 13050501 		addi	a0,a0,16
 524              	.LVL51:
 525 0324 97000000 		call	_ZN4ListI6ThreadE7add_endEPS0_@plt
 525      E7800000 
 526              	.LVL52:
  60:src/Semaphore.cpp ****         if(Thread::running == nullptr) return -1;
 527              		.loc 1 60 9 is_stmt 1
  60:src/Semaphore.cpp ****         if(Thread::running == nullptr) return -1;
 528              		.loc 1 60 40 is_stmt 0
 529 032c 17050000 		la	a0,scheduler
 529      03350500 
 530 0334 97000000 		call	_ZN9Scheduler3getEv@plt
 530      E7800000 
 531              	.LVL53:
  60:src/Semaphore.cpp ****         if(Thread::running == nullptr) return -1;
 532              		.loc 1 60 25
 533 033c 97070000 		la	a5,_ZN6Thread7runningE
 533      83B70700 
 534 0344 23B0A700 		sd	a0,0(a5)
  61:src/Semaphore.cpp ****         if(Thread::running->getContext()->isKernelThread){
 535              		.loc 1 61 9 is_stmt 1
 536 0348 6308050C 		beqz	a0,.L30
  62:src/Semaphore.cpp ****             ThreadWrapperArgs* wa = Thread::running->getWrapperArgs();
 537              		.loc 1 62 9
 538              	.LBB7:
  62:src/Semaphore.cpp ****             ThreadWrapperArgs* wa = Thread::running->getWrapperArgs();
 539              		.loc 1 62 39 is_stmt 0
 540 034c 97000000 		call	_ZN6Thread10getContextEv@plt
 540      E7800000 
 541              	.LVL54:
  62:src/Semaphore.cpp ****             ThreadWrapperArgs* wa = Thread::running->getWrapperArgs();
 542              		.loc 1 62 43
 543 0354 83370505 		ld	a5,80(a0)
  62:src/Semaphore.cpp ****             ThreadWrapperArgs* wa = Thread::running->getWrapperArgs();
 544              		.loc 1 62 9
 545 0358 63900706 		bnez	a5,.L33
 546              	.L26:
 547              	.LBE7:
  66:src/Semaphore.cpp ****             RiscV::w_last_sstatus();
 548              		.loc 1 66 9 is_stmt 1
  66:src/Semaphore.cpp ****             RiscV::w_last_sstatus();
 549              		.loc 1 66 39 is_stmt 0
 550 035c 97070000 		la	a5,_ZN6Thread7runningE
 550      83B70700 
 551 0364 03B50700 		ld	a0,0(a5)
 552 0368 97000000 		call	_ZN6Thread10getContextEv@plt
 552      E7800000 
 553              	.LVL55:
  66:src/Semaphore.cpp ****             RiscV::w_last_sstatus();
 554              		.loc 1 66 43
 555 0370 03370504 		ld	a4,64(a0)
  66:src/Semaphore.cpp ****             RiscV::w_last_sstatus();
 556              		.loc 1 66 9
 557 0374 93071000 		li	a5,1
 558 0378 6302F706 		beq	a4,a5,.L34
GAS LISTING /tmp/ccw2llFv.s 			page 13


  73:src/Semaphore.cpp ****         }
 559              		.loc 1 73 13 is_stmt 1
  73:src/Semaphore.cpp ****         }
 560              		.loc 1 73 27 is_stmt 0
 561 037c 13850400 		mv	a0,s1
 562 0380 97000000 		call	_ZN6Thread10getContextEv@plt
 562      E7800000 
 563              	.LVL56:
 564 0388 93040500 		mv	s1,a0
 565              	.LVL57:
 566 038c 97070000 		la	a5,_ZN6Thread7runningE
 566      83B70700 
 567 0394 03B50700 		ld	a0,0(a5)
 568 0398 97000000 		call	_ZN6Thread10getContextEv@plt
 568      E7800000 
 569              	.LVL58:
 570 03a0 93050500 		mv	a1,a0
 571 03a4 13850400 		mv	a0,s1
 572 03a8 97000000 		call	context_switch@plt
 572      E7800000 
 573              	.LVL59:
 574              	.LBE6:
 575              	.LBE13:
  76:src/Semaphore.cpp **** }
 576              		.loc 1 76 12
 577 03b0 13050000 		li	a0,0
 578 03b4 6FF05FF5 		j	.L25
 579              	.LVL60:
 580              	.L33:
 581              	.LBB14:
 582              	.LBB10:
 583              	.LBB9:
 584              	.LBB8:
  63:src/Semaphore.cpp ****             wa->userFunc(wa->userArgs);
 585              		.loc 1 63 13 is_stmt 1
  63:src/Semaphore.cpp ****             wa->userFunc(wa->userArgs);
 586              		.loc 1 63 68 is_stmt 0
 587 03b8 97070000 		la	a5,_ZN6Thread7runningE
 587      83B70700 
 588 03c0 03B50700 		ld	a0,0(a5)
 589 03c4 97000000 		call	_ZN6Thread14getWrapperArgsEv@plt
 589      E7800000 
 590              	.LVL61:
  64:src/Semaphore.cpp ****         }
 591              		.loc 1 64 13 is_stmt 1
  64:src/Semaphore.cpp ****         }
 592              		.loc 1 64 17 is_stmt 0
 593 03cc 83370500 		ld	a5,0(a0)
  64:src/Semaphore.cpp ****         }
 594              		.loc 1 64 25
 595 03d0 03358500 		ld	a0,8(a0)
 596              	.LVL62:
 597 03d4 E7800700 		jalr	a5
 598              	.LVL63:
 599              	.LBE8:
 600 03d8 6FF05FF8 		j	.L26
 601              	.L34:
GAS LISTING /tmp/ccw2llFv.s 			page 14


 602              	.LBE9:
  67:src/Semaphore.cpp ****             RiscV::w_last_sepc();
 603              		.loc 1 67 13 is_stmt 1
  67:src/Semaphore.cpp ****             RiscV::w_last_sepc();
 604              		.loc 1 67 34 is_stmt 0
 605 03dc 97000000 		call	_ZN5RiscV14w_last_sstatusEv@plt
 605      E7800000 
 606              	.LVL64:
  68:src/Semaphore.cpp ****             restore_context_kernel_mode(Thread::running->getContext());
 607              		.loc 1 68 13 is_stmt 1
  68:src/Semaphore.cpp ****             restore_context_kernel_mode(Thread::running->getContext());
 608              		.loc 1 68 31 is_stmt 0
 609 03e4 97000000 		call	_ZN5RiscV11w_last_sepcEv@plt
 609      E7800000 
 610              	.LVL65:
  69:src/Semaphore.cpp ****         }
 611              		.loc 1 69 13 is_stmt 1
  69:src/Semaphore.cpp ****         }
 612              		.loc 1 69 40 is_stmt 0
 613 03ec 97070000 		la	a5,_ZN6Thread7runningE
 613      83B70700 
 614 03f4 03B50700 		ld	a0,0(a5)
 615 03f8 97000000 		call	_ZN6Thread10getContextEv@plt
 615      E7800000 
 616              	.LVL66:
 617 0400 97000000 		call	restore_context_kernel_mode@plt
 617      E7800000 
 618              	.LVL67:
 619              	.LBE10:
 620              	.LBE14:
  76:src/Semaphore.cpp **** }
 621              		.loc 1 76 12
 622 0408 13050000 		li	a0,0
 623              	.LBB15:
 624              	.LBB11:
 625 040c 6FF0DFEF 		j	.L25
 626              	.LVL68:
 627              	.L28:
 628              	.LBE11:
 629              	.LBE15:
  53:src/Semaphore.cpp ****     Thread::running->semWaitStatus = 0;
 630              		.loc 1 53 38
 631 0410 1305F0FF 		li	a0,-1
 632              	.LVL69:
 633 0414 6FF05FEF 		j	.L25
 634              	.LVL70:
 635              	.L30:
 636              	.LBB16:
 637              	.LBB12:
  61:src/Semaphore.cpp ****         if(Thread::running->getContext()->isKernelThread){
 638              		.loc 1 61 48
 639 0418 1305F0FF 		li	a0,-1
 640 041c 6FF0DFEE 		j	.L25
 641              	.LBE12:
 642              	.LBE16:
 643              		.cfi_endproc
 644              	.LFE21:
GAS LISTING /tmp/ccw2llFv.s 			page 15


 646              		.align	2
 647              		.globl	_ZN9Semaphore4waitEv
 649              	_ZN9Semaphore4waitEv:
 650              	.LFB15:
  13:src/Semaphore.cpp ****     sem_wait(this->myHandle);
 651              		.loc 1 13 23 is_stmt 1
 652              		.cfi_startproc
 653              	.LVL71:
 654 0420 130101FF 		addi	sp,sp,-16
 655              		.cfi_def_cfa_offset 16
 656 0424 23341100 		sd	ra,8(sp)
 657 0428 23308100 		sd	s0,0(sp)
 658              		.cfi_offset 1, -8
 659              		.cfi_offset 8, -16
 660 042c 13040101 		addi	s0,sp,16
 661              		.cfi_def_cfa 8, 0
  14:src/Semaphore.cpp ****     return 0;
 662              		.loc 1 14 5
  14:src/Semaphore.cpp ****     return 0;
 663              		.loc 1 14 13 is_stmt 0
 664 0430 03258500 		lw	a0,8(a0)
 665              	.LVL72:
 666 0434 97000000 		call	_ZN9Semaphore8sem_waitEj
 666      E7800000 
 667              	.LVL73:
  15:src/Semaphore.cpp **** }
 668              		.loc 1 15 5 is_stmt 1
  16:src/Semaphore.cpp **** int Semaphore::signal(){
 669              		.loc 1 16 1 is_stmt 0
 670 043c 13050000 		li	a0,0
 671 0440 83308100 		ld	ra,8(sp)
 672              		.cfi_restore 1
 673 0444 03340100 		ld	s0,0(sp)
 674              		.cfi_restore 8
 675              		.cfi_def_cfa 2, 16
 676 0448 13010101 		addi	sp,sp,16
 677              		.cfi_def_cfa_offset 0
 678 044c 67800000 		jr	ra
 679              		.cfi_endproc
 680              	.LFE15:
 682              		.align	2
 683              		.globl	_ZN9Semaphore10sem_signalEj
 685              	_ZN9Semaphore10sem_signalEj:
 686              	.LFB22:
  78:src/Semaphore.cpp **** 
  79:src/Semaphore.cpp **** int Semaphore::sem_signal(sem_t id) {
 687              		.loc 1 79 37 is_stmt 1
 688              		.cfi_startproc
 689              	.LVL74:
 690 0450 130101FE 		addi	sp,sp,-32
 691              		.cfi_def_cfa_offset 32
 692 0454 233C1100 		sd	ra,24(sp)
 693 0458 23388100 		sd	s0,16(sp)
 694 045c 23349100 		sd	s1,8(sp)
 695              		.cfi_offset 1, -8
 696              		.cfi_offset 8, -16
 697              		.cfi_offset 9, -24
GAS LISTING /tmp/ccw2llFv.s 			page 16


 698 0460 13040102 		addi	s0,sp,32
 699              		.cfi_def_cfa 8, 0
 700 0464 93040500 		mv	s1,a0
  80:src/Semaphore.cpp ****     Semaphore* semaphore = MemoryAllocator::Instance()->getSemaphorePool().getSemaphoreById(id);
 701              		.loc 1 80 5
 702              		.loc 1 80 74 is_stmt 0
 703 0468 97000000 		call	_ZN15MemoryAllocator8InstanceEv@plt
 703      E7800000 
 704              	.LVL75:
 705 0470 97000000 		call	_ZN15MemoryAllocator16getSemaphorePoolEv@plt
 705      E7800000 
 706              	.LVL76:
 707              		.loc 1 80 92
 708 0478 93850400 		mv	a1,s1
 709 047c 97000000 		call	_ZN13SemaphorePool16getSemaphoreByIdEj@plt
 709      E7800000 
 710              	.LVL77:
  81:src/Semaphore.cpp ****     if(semaphore == nullptr) return -1;
 711              		.loc 1 81 5 is_stmt 1
 712 0484 63060506 		beqz	a0,.L39
  82:src/Semaphore.cpp ****     semaphore->val++;
 713              		.loc 1 82 5
 714              		.loc 1 82 16 is_stmt 0
 715 0488 8327C500 		lw	a5,12(a0)
 716              		.loc 1 82 19
 717 048c 9B871700 		addiw	a5,a5,1
 718 0490 2326F500 		sw	a5,12(a0)
  83:src/Semaphore.cpp ****     if(!semaphore->waiting.empty()){
 719              		.loc 1 83 5 is_stmt 1
 720              	.LBB17:
 721              		.loc 1 83 33 is_stmt 0
 722 0494 93040501 		addi	s1,a0,16
 723 0498 13850400 		mv	a0,s1
 724              	.LVL78:
 725 049c 97000000 		call	_ZN4ListI6ThreadE5emptyEv@plt
 725      E7800000 
 726              	.LVL79:
 727              		.loc 1 83 5
 728 04a4 630E0500 		beqz	a0,.L42
 729              	.LBE17:
  84:src/Semaphore.cpp ****         //Unblock one thread and put it in Scheduler as ready
  85:src/Semaphore.cpp ****         Thread* thread = semaphore->waiting.remove_beginning();
  86:src/Semaphore.cpp ****         scheduler.put(thread);
  87:src/Semaphore.cpp ****         thread->semWaitStatus = 0;
  88:src/Semaphore.cpp ****     }
  89:src/Semaphore.cpp ****     return 0;
 730              		.loc 1 89 12
 731 04a8 13050000 		li	a0,0
 732              	.LVL80:
 733              	.L38:
  90:src/Semaphore.cpp **** }
 734              		.loc 1 90 1
 735 04ac 83308101 		ld	ra,24(sp)
 736              		.cfi_remember_state
 737              		.cfi_restore 1
 738 04b0 03340101 		ld	s0,16(sp)
 739              		.cfi_restore 8
GAS LISTING /tmp/ccw2llFv.s 			page 17


 740              		.cfi_def_cfa 2, 32
 741 04b4 83348100 		ld	s1,8(sp)
 742              		.cfi_restore 9
 743 04b8 13010102 		addi	sp,sp,32
 744              		.cfi_def_cfa_offset 0
 745 04bc 67800000 		jr	ra
 746              	.LVL81:
 747              	.L42:
 748              		.cfi_restore_state
 749              	.LBB19:
 750              	.LBB18:
  85:src/Semaphore.cpp ****         scheduler.put(thread);
 751              		.loc 1 85 9 is_stmt 1
  85:src/Semaphore.cpp ****         scheduler.put(thread);
 752              		.loc 1 85 61 is_stmt 0
 753 04c0 13850400 		mv	a0,s1
 754 04c4 97000000 		call	_ZN4ListI6ThreadE16remove_beginningEv@plt
 754      E7800000 
 755              	.LVL82:
 756 04cc 93040500 		mv	s1,a0
 757              	.LVL83:
  86:src/Semaphore.cpp ****         thread->semWaitStatus = 0;
 758              		.loc 1 86 9 is_stmt 1
  86:src/Semaphore.cpp ****         thread->semWaitStatus = 0;
 759              		.loc 1 86 22 is_stmt 0
 760 04d0 93050500 		mv	a1,a0
 761 04d4 17050000 		la	a0,scheduler
 761      03350500 
 762 04dc 97000000 		call	_ZN9Scheduler3putEP6Thread@plt
 762      E7800000 
 763              	.LVL84:
  87:src/Semaphore.cpp ****     }
 764              		.loc 1 87 9 is_stmt 1
  87:src/Semaphore.cpp ****     }
 765              		.loc 1 87 31 is_stmt 0
 766 04e4 23A40400 		sw	zero,8(s1)
 767              	.LBE18:
 768              	.LBE19:
  89:src/Semaphore.cpp **** }
 769              		.loc 1 89 12
 770 04e8 13050000 		li	a0,0
 771              	.LBB20:
 772 04ec 6FF01FFC 		j	.L38
 773              	.LVL85:
 774              	.L39:
 775              	.LBE20:
  81:src/Semaphore.cpp ****     semaphore->val++;
 776              		.loc 1 81 38
 777 04f0 1305F0FF 		li	a0,-1
 778              	.LVL86:
 779 04f4 6FF09FFB 		j	.L38
 780              		.cfi_endproc
 781              	.LFE22:
 783              		.align	2
 784              		.globl	_ZN9Semaphore6signalEv
 786              	_ZN9Semaphore6signalEv:
 787              	.LFB16:
GAS LISTING /tmp/ccw2llFv.s 			page 18


  17:src/Semaphore.cpp ****     sem_signal(this->myHandle);
 788              		.loc 1 17 24 is_stmt 1
 789              		.cfi_startproc
 790              	.LVL87:
 791 04f8 130101FF 		addi	sp,sp,-16
 792              		.cfi_def_cfa_offset 16
 793 04fc 23341100 		sd	ra,8(sp)
 794 0500 23308100 		sd	s0,0(sp)
 795              		.cfi_offset 1, -8
 796              		.cfi_offset 8, -16
 797 0504 13040101 		addi	s0,sp,16
 798              		.cfi_def_cfa 8, 0
  18:src/Semaphore.cpp ****     return 0;
 799              		.loc 1 18 5
  18:src/Semaphore.cpp ****     return 0;
 800              		.loc 1 18 15 is_stmt 0
 801 0508 03258500 		lw	a0,8(a0)
 802              	.LVL88:
 803 050c 97000000 		call	_ZN9Semaphore10sem_signalEj
 803      E7800000 
 804              	.LVL89:
  19:src/Semaphore.cpp **** }
 805              		.loc 1 19 5 is_stmt 1
  20:src/Semaphore.cpp **** 
 806              		.loc 1 20 1 is_stmt 0
 807 0514 13050000 		li	a0,0
 808 0518 83308100 		ld	ra,8(sp)
 809              		.cfi_restore 1
 810 051c 03340100 		ld	s0,0(sp)
 811              		.cfi_restore 8
 812              		.cfi_def_cfa 2, 16
 813 0520 13010101 		addi	sp,sp,16
 814              		.cfi_def_cfa_offset 0
 815 0524 67800000 		jr	ra
 816              		.cfi_endproc
 817              	.LFE16:
 819              		.weak	_ZTV9Semaphore
 820              		.section	.data.rel.ro.local._ZTV9Semaphore,"awG",@progbits,_ZTV9Semaphore,comdat
 821              		.align	3
 824              	_ZTV9Semaphore:
 825 0000 00000000 		.dword	0
 825      00000000 
 826 0008 00000000 		.dword	0
 826      00000000 
 827 0010 00000000 		.dword	_ZN9SemaphoreD1Ev
 827      00000000 
 828 0018 00000000 		.dword	_ZN9SemaphoreD0Ev
 828      00000000 
 829              		.globl	_ZN9Semaphore3cntE
 830              		.data
 831              		.align	2
 832              		.set	.LANCHOR0,. + 0
 835              	_ZN9Semaphore3cntE:
 836 0000 01000000 		.word	1
 837              		.text
 838              	.Letext0:
 839              		.file 2 "src/../h/../lib/hw.h"
GAS LISTING /tmp/ccw2llFv.s 			page 19


 840              		.file 3 "src/../h/List.hpp"
 841              		.file 4 "src/../h/Thread.hpp"
 842              		.file 5 "src/../h/memory_structs.h"
 843              		.file 6 "src/../h/RiscV.hpp"
 844              		.file 7 "src/../h/ThreadPool.hpp"
 845              		.file 8 "src/../h/SemaphorePool.hpp"
 846              		.file 9 "src/../h/Semaphore.hpp"
 847              		.file 10 "src/../h/MemoryAllocator.hpp"
 848              		.file 11 "src/../h/Scheduler.hpp"
 4397              		.align	3
 4400              	DW.ref.__gxx_personality_v0:
 4401 0000 00000000 		.dword	__gxx_personality_v0
 4401      00000000 
 4402              		.ident	"GCC: (Ubuntu 9.4.0-1ubuntu1~20.04) 9.4.0"
 4403              		.section	.note.GNU-stack,"",@progbits
GAS LISTING /tmp/ccw2llFv.s 			page 20


DEFINED SYMBOLS
                            *ABS*:0000000000000000 Semaphore.cpp
     /tmp/ccw2llFv.s:9      .text:0000000000000000 _ZN9SemaphoreD2Ev
     /tmp/ccw2llFv.s:13     .text:0000000000000000 .L0 
     /tmp/ccw2llFv.s:15     .text:0000000000000000 .L0 
     /tmp/ccw2llFv.s:16     .text:0000000000000004 .L0 
     /tmp/ccw2llFv.s:19     .text:000000000000000c .L0 
     /tmp/ccw2llFv.s:20     .text:000000000000000c .L0 
     /tmp/ccw2llFv.s:22     .text:0000000000000010 .L0 
     /tmp/ccw2llFv.s:824    .data.rel.ro.local._ZTV9Semaphore:0000000000000000 _ZTV9Semaphore
     /tmp/ccw2llFv.s:25     .text:0000000000000010 .L0 
     /tmp/ccw2llFv.s:33     .text:0000000000000028 .L0 
     /tmp/ccw2llFv.s:34     .text:000000000000002c .L0 
     /tmp/ccw2llFv.s:36     .text:0000000000000030 .L0 
     /tmp/ccw2llFv.s:37     .text:0000000000000030 .L0 
     /tmp/ccw2llFv.s:39     .text:0000000000000034 .L0 
     /tmp/ccw2llFv.s:41     .text:0000000000000038 .L0 
     /tmp/ccw2llFv.s:9      .text:0000000000000000 _ZN9SemaphoreD1Ev
     /tmp/ccw2llFv.s:49     .text:0000000000000038 _ZN9SemaphoreC2Ej
     /tmp/ccw2llFv.s:52     .text:0000000000000038 .L0 
     /tmp/ccw2llFv.s:54     .text:0000000000000038 .L0 
     /tmp/ccw2llFv.s:55     .text:000000000000003c .L0 
     /tmp/ccw2llFv.s:60     .text:000000000000004c .L0 
     /tmp/ccw2llFv.s:61     .text:000000000000004c .L0 
     /tmp/ccw2llFv.s:62     .text:000000000000004c .L0 
     /tmp/ccw2llFv.s:63     .text:000000000000004c .L0 
     /tmp/ccw2llFv.s:65     .text:0000000000000050 .L0 
     /tmp/ccw2llFv.s:70     .text:0000000000000058 .L0 
     /tmp/ccw2llFv.s:77     .text:0000000000000070 .L0 
     /tmp/ccw2llFv.s:78     .text:0000000000000070 .L0 
     /tmp/ccw2llFv.s:80     .text:0000000000000074 .L0 
     /tmp/ccw2llFv.s:81     .text:0000000000000074 .L0 
     /tmp/ccw2llFv.s:86     .text:0000000000000088 .L0 
     /tmp/ccw2llFv.s:89     .text:000000000000008c .L0 
     /tmp/ccw2llFv.s:90     .text:0000000000000090 .L0 
     /tmp/ccw2llFv.s:92     .text:0000000000000094 .L0 
     /tmp/ccw2llFv.s:93     .text:0000000000000094 .L0 
     /tmp/ccw2llFv.s:95     .text:0000000000000098 .L0 
     /tmp/ccw2llFv.s:98     .text:000000000000009c .L0 
     /tmp/ccw2llFv.s:100    .text:00000000000000a0 .L0 
     /tmp/ccw2llFv.s:102    .text:00000000000000a4 .L0 
     /tmp/ccw2llFv.s:49     .text:0000000000000038 _ZN9SemaphoreC1Ej
     /tmp/ccw2llFv.s:110    .text:00000000000000a4 _ZN9SemaphorenwEm
     /tmp/ccw2llFv.s:113    .text:00000000000000a4 .L0 
     /tmp/ccw2llFv.s:115    .text:00000000000000a4 .L0 
     /tmp/ccw2llFv.s:116    .text:00000000000000a8 .L0 
     /tmp/ccw2llFv.s:119    .text:00000000000000b0 .L0 
     /tmp/ccw2llFv.s:120    .text:00000000000000b0 .L0 
     /tmp/ccw2llFv.s:122    .text:00000000000000b4 .L0 
     /tmp/ccw2llFv.s:124    .text:00000000000000b4 .L0 
     /tmp/ccw2llFv.s:125    .text:00000000000000b4 .L0 
     /tmp/ccw2llFv.s:130    .text:00000000000000c4 .L0 
     /tmp/ccw2llFv.s:133    .text:00000000000000cc .L0 
     /tmp/ccw2llFv.s:134    .text:00000000000000d0 .L0 
     /tmp/ccw2llFv.s:136    .text:00000000000000d4 .L0 
     /tmp/ccw2llFv.s:137    .text:00000000000000d4 .L0 
     /tmp/ccw2llFv.s:139    .text:00000000000000d8 .L0 
GAS LISTING /tmp/ccw2llFv.s 			page 21


     /tmp/ccw2llFv.s:141    .text:00000000000000dc .L0 
     /tmp/ccw2llFv.s:147    .text:00000000000000dc _ZN9SemaphoredlEPv
     /tmp/ccw2llFv.s:150    .text:00000000000000dc .L0 
     /tmp/ccw2llFv.s:4400   .data.rel.local.DW.ref.__gxx_personality_v0:0000000000000000 DW.ref.__gxx_personality_v0
     /tmp/ccw2llFv.s:154    .text:00000000000000dc .L0 
     /tmp/ccw2llFv.s:155    .text:00000000000000e0 .L0 
     /tmp/ccw2llFv.s:159    .text:00000000000000ec .L0 
     /tmp/ccw2llFv.s:160    .text:00000000000000ec .L0 
     /tmp/ccw2llFv.s:161    .text:00000000000000ec .L0 
     /tmp/ccw2llFv.s:163    .text:00000000000000f0 .L0 
     /tmp/ccw2llFv.s:166    .text:00000000000000f4 .L0 
     /tmp/ccw2llFv.s:167    .text:00000000000000f4 .L0 
     /tmp/ccw2llFv.s:172    .text:0000000000000104 .L0 
     /tmp/ccw2llFv.s:176    .text:0000000000000110 .L0 
     /tmp/ccw2llFv.s:177    .text:0000000000000114 .L0 
     /tmp/ccw2llFv.s:179    .text:0000000000000118 .L0 
     /tmp/ccw2llFv.s:180    .text:0000000000000118 .L0 
     /tmp/ccw2llFv.s:182    .text:000000000000011c .L0 
     /tmp/ccw2llFv.s:185    .text:0000000000000120 .L0 
     /tmp/ccw2llFv.s:187    .text:0000000000000124 .L0 
     /tmp/ccw2llFv.s:201    .text:0000000000000124 _ZN9SemaphoreD0Ev
     /tmp/ccw2llFv.s:204    .text:0000000000000124 .L0 
     /tmp/ccw2llFv.s:206    .text:0000000000000124 .L0 
     /tmp/ccw2llFv.s:207    .text:0000000000000128 .L0 
     /tmp/ccw2llFv.s:211    .text:0000000000000134 .L0 
     /tmp/ccw2llFv.s:212    .text:0000000000000134 .L0 
     /tmp/ccw2llFv.s:213    .text:0000000000000134 .L0 
     /tmp/ccw2llFv.s:215    .text:0000000000000138 .L0 
     /tmp/ccw2llFv.s:218    .text:000000000000013c .L0 
     /tmp/ccw2llFv.s:224    .text:0000000000000154 .L0 
     /tmp/ccw2llFv.s:226    .text:0000000000000158 .L0 
     /tmp/ccw2llFv.s:227    .text:0000000000000158 .L0 
     /tmp/ccw2llFv.s:229    .text:000000000000015c .L0 
     /tmp/ccw2llFv.s:232    .text:0000000000000160 .L0 
     /tmp/ccw2llFv.s:234    .text:0000000000000164 .L0 
     /tmp/ccw2llFv.s:240    .text:0000000000000164 _ZN9Semaphore8sem_openEPjj
     /tmp/ccw2llFv.s:243    .text:0000000000000164 .L0 
     /tmp/ccw2llFv.s:247    .text:0000000000000164 .L0 
     /tmp/ccw2llFv.s:248    .text:0000000000000168 .L0 
     /tmp/ccw2llFv.s:254    .text:000000000000017c .L0 
     /tmp/ccw2llFv.s:255    .text:000000000000017c .L0 
     /tmp/ccw2llFv.s:256    .text:000000000000017c .L0 
     /tmp/ccw2llFv.s:257    .text:000000000000017c .L0 
     /tmp/ccw2llFv.s:258    .text:000000000000017c .L0 
     /tmp/ccw2llFv.s:260    .text:0000000000000180 .L0 
     /tmp/ccw2llFv.s:264    .text:0000000000000188 .L0 
     /tmp/ccw2llFv.s:265    .text:0000000000000188 .L0 
     /tmp/ccw2llFv.s:278    .text:00000000000001a4 .L0 
     /tmp/ccw2llFv.s:280    .text:00000000000001a8 .L0 
     /tmp/ccw2llFv.s:281    .text:00000000000001a8 .L0 
     /tmp/ccw2llFv.s:283    .text:00000000000001ac .L0 
     /tmp/ccw2llFv.s:285    .text:00000000000001b0 .L0 
     /tmp/ccw2llFv.s:286    .text:00000000000001b0 .L0 
     /tmp/ccw2llFv.s:289    .text:00000000000001b4 .L0 
     /tmp/ccw2llFv.s:290    .text:00000000000001b8 .L0 
     /tmp/ccw2llFv.s:291    .text:00000000000001b8 .L0 
     /tmp/ccw2llFv.s:293    .text:00000000000001bc .L0 
GAS LISTING /tmp/ccw2llFv.s 			page 22


     /tmp/ccw2llFv.s:294    .text:00000000000001bc .L0 
     /tmp/ccw2llFv.s:296    .text:00000000000001c0 .L0 
     /tmp/ccw2llFv.s:299    .text:00000000000001c4 .L0 
     /tmp/ccw2llFv.s:301    .text:00000000000001c8 .L0 
     /tmp/ccw2llFv.s:304    .text:00000000000001cc .L0 
     /tmp/ccw2llFv.s:308    .text:00000000000001d0 .L0 
     /tmp/ccw2llFv.s:310    .text:00000000000001d0 .L0 
     /tmp/ccw2llFv.s:316    .text:00000000000001dc .L0 
     /tmp/ccw2llFv.s:324    .text:00000000000001f4 .L0 
     /tmp/ccw2llFv.s:349    .text:00000000000001f4 _ZN9Semaphore9sem_closeEj
     /tmp/ccw2llFv.s:352    .text:00000000000001f4 .L0 
     /tmp/ccw2llFv.s:354    .text:00000000000001f4 .L0 
     /tmp/ccw2llFv.s:355    .text:00000000000001f8 .L0 
     /tmp/ccw2llFv.s:360    .text:0000000000000208 .L0 
     /tmp/ccw2llFv.s:361    .text:0000000000000208 .L0 
     /tmp/ccw2llFv.s:362    .text:0000000000000208 .L0 
     /tmp/ccw2llFv.s:363    .text:0000000000000208 .L0 
     /tmp/ccw2llFv.s:365    .text:000000000000020c .L0 
     /tmp/ccw2llFv.s:368    .text:0000000000000210 .L0 
     /tmp/ccw2llFv.s:369    .text:0000000000000210 .L0 
     /tmp/ccw2llFv.s:374    .text:0000000000000220 .L0 
     /tmp/ccw2llFv.s:380    .text:0000000000000230 .L0 
     /tmp/ccw2llFv.s:384    .text:0000000000000234 .L0 
     /tmp/ccw2llFv.s:385    .text:0000000000000234 .L0 
     /tmp/ccw2llFv.s:386    .text:0000000000000234 .L0 
     /tmp/ccw2llFv.s:391    .text:0000000000000244 .L0 
     /tmp/ccw2llFv.s:394    .text:0000000000000248 .L0 
     /tmp/ccw2llFv.s:395    .text:0000000000000248 .L0 
     /tmp/ccw2llFv.s:401    .text:0000000000000258 .L0 
     /tmp/ccw2llFv.s:402    .text:0000000000000258 .L0 
     /tmp/ccw2llFv.s:405    .text:0000000000000260 .L0 
     /tmp/ccw2llFv.s:406    .text:0000000000000260 .L0 
     /tmp/ccw2llFv.s:412    .text:0000000000000270 .L0 
     /tmp/ccw2llFv.s:415    .text:0000000000000274 .L0 
     /tmp/ccw2llFv.s:416    .text:0000000000000274 .L0 
     /tmp/ccw2llFv.s:422    .text:0000000000000284 .L0 
     /tmp/ccw2llFv.s:423    .text:0000000000000284 .L0 
     /tmp/ccw2llFv.s:426    .text:0000000000000288 .L0 
     /tmp/ccw2llFv.s:427    .text:000000000000028c .L0 
     /tmp/ccw2llFv.s:428    .text:000000000000028c .L0 
     /tmp/ccw2llFv.s:430    .text:0000000000000290 .L0 
     /tmp/ccw2llFv.s:431    .text:0000000000000290 .L0 
     /tmp/ccw2llFv.s:433    .text:0000000000000294 .L0 
     /tmp/ccw2llFv.s:435    .text:0000000000000298 .L0 
     /tmp/ccw2llFv.s:438    .text:000000000000029c .L0 
     /tmp/ccw2llFv.s:442    .text:00000000000002a0 .L0 
     /tmp/ccw2llFv.s:444    .text:00000000000002a0 .L0 
     /tmp/ccw2llFv.s:447    .text:00000000000002a8 .L0 
     /tmp/ccw2llFv.s:453    .text:00000000000002a8 _ZN9Semaphore8sem_waitEj
     /tmp/ccw2llFv.s:456    .text:00000000000002a8 .L0 
     /tmp/ccw2llFv.s:458    .text:00000000000002a8 .L0 
     /tmp/ccw2llFv.s:459    .text:00000000000002ac .L0 
     /tmp/ccw2llFv.s:463    .text:00000000000002b8 .L0 
     /tmp/ccw2llFv.s:464    .text:00000000000002b8 .L0 
     /tmp/ccw2llFv.s:465    .text:00000000000002b8 .L0 
     /tmp/ccw2llFv.s:467    .text:00000000000002bc .L0 
     /tmp/ccw2llFv.s:470    .text:00000000000002c0 .L0 
GAS LISTING /tmp/ccw2llFv.s 			page 23


     /tmp/ccw2llFv.s:471    .text:00000000000002c0 .L0 
     /tmp/ccw2llFv.s:476    .text:00000000000002d0 .L0 
     /tmp/ccw2llFv.s:480    .text:00000000000002dc .L0 
     /tmp/ccw2llFv.s:482    .text:00000000000002e0 .L0 
     /tmp/ccw2llFv.s:483    .text:00000000000002e0 .L0 
     /tmp/ccw2llFv.s:486    .text:00000000000002ec .L0 
     /tmp/ccw2llFv.s:488    .text:00000000000002f0 .L0 
     /tmp/ccw2llFv.s:489    .text:00000000000002f0 .L0 
     /tmp/ccw2llFv.s:491    .text:00000000000002f4 .L0 
     /tmp/ccw2llFv.s:495    .text:00000000000002fc .L0 
     /tmp/ccw2llFv.s:499    .text:0000000000000304 .L0 
     /tmp/ccw2llFv.s:503    .text:0000000000000308 .L0 
     /tmp/ccw2llFv.s:504    .text:000000000000030c .L0 
     /tmp/ccw2llFv.s:505    .text:000000000000030c .L0 
     /tmp/ccw2llFv.s:507    .text:0000000000000310 .L0 
     /tmp/ccw2llFv.s:508    .text:0000000000000310 .L0 
     /tmp/ccw2llFv.s:510    .text:0000000000000314 .L0 
     /tmp/ccw2llFv.s:512    .text:0000000000000318 .L0 
     /tmp/ccw2llFv.s:516    .text:000000000000031c .L0 
     /tmp/ccw2llFv.s:520    .text:000000000000031c .L0 
     /tmp/ccw2llFv.s:521    .text:000000000000031c .L0 
     /tmp/ccw2llFv.s:522    .text:000000000000031c .L0 
     /tmp/ccw2llFv.s:528    .text:000000000000032c .L0 
     /tmp/ccw2llFv.s:529    .text:000000000000032c .L0 
     /tmp/ccw2llFv.s:533    .text:000000000000033c .L0 
     /tmp/ccw2llFv.s:536    .text:0000000000000348 .L0 
     /tmp/ccw2llFv.s:539    .text:000000000000034c .L0 
     /tmp/ccw2llFv.s:540    .text:000000000000034c .L0 
     /tmp/ccw2llFv.s:543    .text:0000000000000354 .L0 
     /tmp/ccw2llFv.s:545    .text:0000000000000358 .L0 
     /tmp/ccw2llFv.s:549    .text:000000000000035c .L0 
     /tmp/ccw2llFv.s:550    .text:000000000000035c .L0 
     /tmp/ccw2llFv.s:555    .text:0000000000000370 .L0 
     /tmp/ccw2llFv.s:557    .text:0000000000000374 .L0 
     /tmp/ccw2llFv.s:560    .text:000000000000037c .L0 
     /tmp/ccw2llFv.s:561    .text:000000000000037c .L0 
     /tmp/ccw2llFv.s:577    .text:00000000000003b0 .L0 
     /tmp/ccw2llFv.s:586    .text:00000000000003b8 .L0 
     /tmp/ccw2llFv.s:587    .text:00000000000003b8 .L0 
     /tmp/ccw2llFv.s:592    .text:00000000000003cc .L0 
     /tmp/ccw2llFv.s:593    .text:00000000000003cc .L0 
     /tmp/ccw2llFv.s:595    .text:00000000000003d0 .L0 
     /tmp/ccw2llFv.s:604    .text:00000000000003dc .L0 
     /tmp/ccw2llFv.s:605    .text:00000000000003dc .L0 
     /tmp/ccw2llFv.s:608    .text:00000000000003e4 .L0 
     /tmp/ccw2llFv.s:609    .text:00000000000003e4 .L0 
     /tmp/ccw2llFv.s:612    .text:00000000000003ec .L0 
     /tmp/ccw2llFv.s:613    .text:00000000000003ec .L0 
     /tmp/ccw2llFv.s:622    .text:0000000000000408 .L0 
     /tmp/ccw2llFv.s:631    .text:0000000000000410 .L0 
     /tmp/ccw2llFv.s:639    .text:0000000000000418 .L0 
     /tmp/ccw2llFv.s:643    .text:0000000000000420 .L0 
     /tmp/ccw2llFv.s:649    .text:0000000000000420 _ZN9Semaphore4waitEv
     /tmp/ccw2llFv.s:652    .text:0000000000000420 .L0 
     /tmp/ccw2llFv.s:654    .text:0000000000000420 .L0 
     /tmp/ccw2llFv.s:655    .text:0000000000000424 .L0 
     /tmp/ccw2llFv.s:658    .text:000000000000042c .L0 
GAS LISTING /tmp/ccw2llFv.s 			page 24


     /tmp/ccw2llFv.s:659    .text:000000000000042c .L0 
     /tmp/ccw2llFv.s:661    .text:0000000000000430 .L0 
     /tmp/ccw2llFv.s:663    .text:0000000000000430 .L0 
     /tmp/ccw2llFv.s:664    .text:0000000000000430 .L0 
     /tmp/ccw2llFv.s:669    .text:000000000000043c .L0 
     /tmp/ccw2llFv.s:670    .text:000000000000043c .L0 
     /tmp/ccw2llFv.s:672    .text:0000000000000444 .L0 
     /tmp/ccw2llFv.s:674    .text:0000000000000448 .L0 
     /tmp/ccw2llFv.s:675    .text:0000000000000448 .L0 
     /tmp/ccw2llFv.s:677    .text:000000000000044c .L0 
     /tmp/ccw2llFv.s:679    .text:0000000000000450 .L0 
     /tmp/ccw2llFv.s:685    .text:0000000000000450 _ZN9Semaphore10sem_signalEj
     /tmp/ccw2llFv.s:688    .text:0000000000000450 .L0 
     /tmp/ccw2llFv.s:690    .text:0000000000000450 .L0 
     /tmp/ccw2llFv.s:691    .text:0000000000000454 .L0 
     /tmp/ccw2llFv.s:695    .text:0000000000000460 .L0 
     /tmp/ccw2llFv.s:696    .text:0000000000000460 .L0 
     /tmp/ccw2llFv.s:697    .text:0000000000000460 .L0 
     /tmp/ccw2llFv.s:699    .text:0000000000000464 .L0 
     /tmp/ccw2llFv.s:702    .text:0000000000000468 .L0 
     /tmp/ccw2llFv.s:703    .text:0000000000000468 .L0 
     /tmp/ccw2llFv.s:708    .text:0000000000000478 .L0 
     /tmp/ccw2llFv.s:712    .text:0000000000000484 .L0 
     /tmp/ccw2llFv.s:714    .text:0000000000000488 .L0 
     /tmp/ccw2llFv.s:715    .text:0000000000000488 .L0 
     /tmp/ccw2llFv.s:717    .text:000000000000048c .L0 
     /tmp/ccw2llFv.s:721    .text:0000000000000494 .L0 
     /tmp/ccw2llFv.s:722    .text:0000000000000494 .L0 
     /tmp/ccw2llFv.s:728    .text:00000000000004a4 .L0 
     /tmp/ccw2llFv.s:731    .text:00000000000004a8 .L0 
     /tmp/ccw2llFv.s:735    .text:00000000000004ac .L0 
     /tmp/ccw2llFv.s:736    .text:00000000000004b0 .L0 
     /tmp/ccw2llFv.s:737    .text:00000000000004b0 .L0 
     /tmp/ccw2llFv.s:739    .text:00000000000004b4 .L0 
     /tmp/ccw2llFv.s:740    .text:00000000000004b4 .L0 
     /tmp/ccw2llFv.s:742    .text:00000000000004b8 .L0 
     /tmp/ccw2llFv.s:744    .text:00000000000004bc .L0 
     /tmp/ccw2llFv.s:748    .text:00000000000004c0 .L0 
     /tmp/ccw2llFv.s:752    .text:00000000000004c0 .L0 
     /tmp/ccw2llFv.s:753    .text:00000000000004c0 .L0 
     /tmp/ccw2llFv.s:759    .text:00000000000004d0 .L0 
     /tmp/ccw2llFv.s:760    .text:00000000000004d0 .L0 
     /tmp/ccw2llFv.s:765    .text:00000000000004e4 .L0 
     /tmp/ccw2llFv.s:766    .text:00000000000004e4 .L0 
     /tmp/ccw2llFv.s:770    .text:00000000000004e8 .L0 
     /tmp/ccw2llFv.s:777    .text:00000000000004f0 .L0 
     /tmp/ccw2llFv.s:780    .text:00000000000004f8 .L0 
     /tmp/ccw2llFv.s:786    .text:00000000000004f8 _ZN9Semaphore6signalEv
     /tmp/ccw2llFv.s:789    .text:00000000000004f8 .L0 
     /tmp/ccw2llFv.s:791    .text:00000000000004f8 .L0 
     /tmp/ccw2llFv.s:792    .text:00000000000004fc .L0 
     /tmp/ccw2llFv.s:795    .text:0000000000000504 .L0 
     /tmp/ccw2llFv.s:796    .text:0000000000000504 .L0 
     /tmp/ccw2llFv.s:798    .text:0000000000000508 .L0 
     /tmp/ccw2llFv.s:800    .text:0000000000000508 .L0 
     /tmp/ccw2llFv.s:801    .text:0000000000000508 .L0 
     /tmp/ccw2llFv.s:806    .text:0000000000000514 .L0 
GAS LISTING /tmp/ccw2llFv.s 			page 25


     /tmp/ccw2llFv.s:807    .text:0000000000000514 .L0 
     /tmp/ccw2llFv.s:809    .text:000000000000051c .L0 
     /tmp/ccw2llFv.s:811    .text:0000000000000520 .L0 
     /tmp/ccw2llFv.s:812    .text:0000000000000520 .L0 
     /tmp/ccw2llFv.s:814    .text:0000000000000524 .L0 
     /tmp/ccw2llFv.s:816    .text:0000000000000528 .L0 
     /tmp/ccw2llFv.s:835    .data:0000000000000000 _ZN9Semaphore3cntE
     /tmp/ccw2llFv.s:832    .data:0000000000000000 .LANCHOR0
     /tmp/ccw2llFv.s:849    .text:0000000000000528 .L0 
     /tmp/ccw2llFv.s:25     .text:0000000000000010 .L0 
     /tmp/ccw2llFv.s:70     .text:0000000000000058 .L0 
     /tmp/ccw2llFv.s:81     .text:0000000000000074 .L0 
     /tmp/ccw2llFv.s:406    .text:0000000000000260 .L0 
     /tmp/ccw2llFv.s:483    .text:00000000000002e0 .L0 
     /tmp/ccw2llFv.s:529    .text:000000000000032c .L0 
     /tmp/ccw2llFv.s:533    .text:000000000000033c .L0 
     /tmp/ccw2llFv.s:550    .text:000000000000035c .L0 
     /tmp/ccw2llFv.s:566    .text:000000000000038c .L0 
     /tmp/ccw2llFv.s:587    .text:00000000000003b8 .L0 
     /tmp/ccw2llFv.s:613    .text:00000000000003ec .L0 
     /tmp/ccw2llFv.s:761    .text:00000000000004d4 .L0 
     /tmp/ccw2llFv.s:307    .text:00000000000001d0 .L14
     /tmp/ccw2llFv.s:287    .text:00000000000001b4 .L16
     /tmp/ccw2llFv.s:441    .text:00000000000002a0 .L22
     /tmp/ccw2llFv.s:413    .text:0000000000000274 .L20
     /tmp/ccw2llFv.s:382    .text:0000000000000234 .L21
     /tmp/ccw2llFv.s:424    .text:0000000000000288 .L19
     /tmp/ccw2llFv.s:627    .text:0000000000000410 .L28
     /tmp/ccw2llFv.s:515    .text:000000000000031c .L32
     /tmp/ccw2llFv.s:635    .text:0000000000000418 .L30
     /tmp/ccw2llFv.s:580    .text:00000000000003b8 .L33
     /tmp/ccw2llFv.s:601    .text:00000000000003dc .L34
     /tmp/ccw2llFv.s:501    .text:0000000000000308 .L25
     /tmp/ccw2llFv.s:546    .text:000000000000035c .L26
     /tmp/ccw2llFv.s:774    .text:00000000000004f0 .L39
     /tmp/ccw2llFv.s:747    .text:00000000000004c0 .L42
     /tmp/ccw2llFv.s:733    .text:00000000000004ac .L38
     /tmp/ccw2llFv.s:267    .text:000000000000018c .LEHB0
     /tmp/ccw2llFv.s:241    .text:0000000000000164 .LFB19
     /tmp/ccw2llFv.s:270    .text:0000000000000194 .LEHE0
     /tmp/ccw2llFv.s:273    .text:000000000000019c .LEHB1
     /tmp/ccw2llFv.s:276    .text:00000000000001a4 .LEHE1
     /tmp/ccw2llFv.s:313    .text:00000000000001d8 .L15
     /tmp/ccw2llFv.s:320    .text:00000000000001ec .LEHB2
     /tmp/ccw2llFv.s:323    .text:00000000000001f4 .LEHE2
     /tmp/ccw2llFv.s:2645   .debug_abbrev:0000000000000000 .Ldebug_abbrev0
     /tmp/ccw2llFv.s:4314   .debug_str:0000000000000969 .LASF164
     /tmp/ccw2llFv.s:4094   .debug_str:0000000000000220 .LASF165
     /tmp/ccw2llFv.s:4122   .debug_str:0000000000000334 .LASF166
     /tmp/ccw2llFv.s:5      .text:0000000000000000 .Ltext0
     /tmp/ccw2llFv.s:838    .text:0000000000000528 .Letext0
     /tmp/ccw2llFv.s:4034   .debug_line:0000000000000000 .Ldebug_line0
     /tmp/ccw2llFv.s:4142   .debug_str:00000000000003f1 .LASF0
     /tmp/ccw2llFv.s:4170   .debug_str:0000000000000500 .LASF1
     /tmp/ccw2llFv.s:4256   .debug_str:00000000000007a3 .LASF2
     /tmp/ccw2llFv.s:4262   .debug_str:00000000000007d1 .LASF4
     /tmp/ccw2llFv.s:4150   .debug_str:000000000000042c .LASF3
GAS LISTING /tmp/ccw2llFv.s 			page 26


     /tmp/ccw2llFv.s:4042   .debug_str:0000000000000027 .LASF5
     /tmp/ccw2llFv.s:4344   .debug_str:0000000000000b33 .LASF6
     /tmp/ccw2llFv.s:4364   .debug_str:0000000000000b9d .LASF7
     /tmp/ccw2llFv.s:4222   .debug_str:000000000000069e .LASF8
     /tmp/ccw2llFv.s:4162   .debug_str:00000000000004ab .LASF9
     /tmp/ccw2llFv.s:4082   .debug_str:00000000000001c2 .LASF10
     /tmp/ccw2llFv.s:4118   .debug_str:00000000000002fe .LASF11
     /tmp/ccw2llFv.s:4130   .debug_str:0000000000000382 .LASF12
     /tmp/ccw2llFv.s:4072   .debug_str:0000000000000169 .LASF13
     /tmp/ccw2llFv.s:4108   .debug_str:00000000000002ad .LASF14
     /tmp/ccw2llFv.s:4086   .debug_str:00000000000001e3 .LASF15
     /tmp/ccw2llFv.s:4070   .debug_str:0000000000000159 .LASF16
     /tmp/ccw2llFv.s:4294   .debug_str:00000000000008d8 .LASF17
     /tmp/ccw2llFv.s:4100   .debug_str:0000000000000247 .LASF18
     /tmp/ccw2llFv.s:4286   .debug_str:000000000000089d .LASF19
     /tmp/ccw2llFv.s:4124   .debug_str:0000000000000352 .LASF44
     /tmp/ccw2llFv.s:4196   .debug_str:00000000000005d1 .LASF20
     /tmp/ccw2llFv.s:4258   .debug_str:00000000000007b1 .LASF22
     /tmp/ccw2llFv.s:4374   .debug_str:0000000000000c09 .LASF21
     /tmp/ccw2llFv.s:4214   .debug_str:000000000000064d .LASF23
     /tmp/ccw2llFv.s:4354   .debug_str:0000000000000b66 .LASF24
     /tmp/ccw2llFv.s:4106   .debug_str:000000000000028e .LASF25
     /tmp/ccw2llFv.s:4326   .debug_str:0000000000000a74 .LASF26
     /tmp/ccw2llFv.s:4064   .debug_str:00000000000000f8 .LASF28
     /tmp/ccw2llFv.s:4092   .debug_str:000000000000021a .LASF27
     /tmp/ccw2llFv.s:4284   .debug_str:0000000000000883 .LASF29
     /tmp/ccw2llFv.s:4290   .debug_str:00000000000008cc .LASF30
     /tmp/ccw2llFv.s:4202   .debug_str:00000000000005f9 .LASF31
     /tmp/ccw2llFv.s:4136   .debug_str:00000000000003b9 .LASF167
     /tmp/ccw2llFv.s:4236   .debug_str:00000000000006ed .LASF32
     /tmp/ccw2llFv.s:4186   .debug_str:000000000000057c .LASF34
     /tmp/ccw2llFv.s:4288   .debug_str:00000000000008b3 .LASF33
     /tmp/ccw2llFv.s:4152   .debug_str:000000000000043e .LASF35
     /tmp/ccw2llFv.s:4178   .debug_str:000000000000053d .LASF36
     /tmp/ccw2llFv.s:4226   .debug_str:00000000000006ba .LASF168
     /tmp/ccw2llFv.s:4310   .debug_str:000000000000094e .LASF40
     /tmp/ccw2llFv.s:4074   .debug_str:0000000000000178 .LASF37
     /tmp/ccw2llFv.s:4054   .debug_str:000000000000008f .LASF38
     /tmp/ccw2llFv.s:4168   .debug_str:00000000000004fb .LASF39
     /tmp/ccw2llFv.s:4080   .debug_str:00000000000001b0 .LASF41
     /tmp/ccw2llFv.s:4154   .debug_str:0000000000000449 .LASF42
     /tmp/ccw2llFv.s:4224   .debug_str:00000000000006b1 .LASF43
     /tmp/ccw2llFv.s:4328   .debug_str:0000000000000a85 .LASF45
     /tmp/ccw2llFv.s:4260   .debug_str:00000000000007c7 .LASF46
     /tmp/ccw2llFv.s:4036   .debug_str:0000000000000000 .LASF47
     /tmp/ccw2llFv.s:4060   .debug_str:00000000000000c5 .LASF52
     /tmp/ccw2llFv.s:4066   .debug_str:000000000000011e .LASF54
     /tmp/ccw2llFv.s:4292   .debug_str:00000000000008d1 .LASF48
     /tmp/ccw2llFv.s:4084   .debug_str:00000000000001d0 .LASF50
     /tmp/ccw2llFv.s:4266   .debug_str:00000000000007f8 .LASF49
     /tmp/ccw2llFv.s:4242   .debug_str:000000000000071f .LASF51
     /tmp/ccw2llFv.s:4096   .debug_str:0000000000000232 .LASF53
     /tmp/ccw2llFv.s:4216   .debug_str:0000000000000663 .LASF55
     /tmp/ccw2llFv.s:4356   .debug_str:0000000000000b6e .LASF56
     /tmp/ccw2llFv.s:4058   .debug_str:00000000000000b1 .LASF57
     /tmp/ccw2llFv.s:4200   .debug_str:00000000000005f1 .LASF58
     /tmp/ccw2llFv.s:4090   .debug_str:0000000000000206 .LASF59
GAS LISTING /tmp/ccw2llFv.s 			page 27


     /tmp/ccw2llFv.s:4112   .debug_str:00000000000002ea .LASF60
     /tmp/ccw2llFv.s:4230   .debug_str:00000000000006d0 .LASF61
     /tmp/ccw2llFv.s:4274   .debug_str:000000000000083e .LASF62
     /tmp/ccw2llFv.s:4194   .debug_str:00000000000005c0 .LASF63
     /tmp/ccw2llFv.s:4234   .debug_str:00000000000006e6 .LASF64
     /tmp/ccw2llFv.s:4312   .debug_str:0000000000000956 .LASF65
     /tmp/ccw2llFv.s:4206   .debug_str:0000000000000612 .LASF66
     /tmp/ccw2llFv.s:4088   .debug_str:00000000000001f3 .LASF67
     /tmp/ccw2llFv.s:4044   .debug_str:000000000000002e .LASF68
     /tmp/ccw2llFv.s:4324   .debug_str:0000000000000a5c .LASF69
     /tmp/ccw2llFv.s:4254   .debug_str:0000000000000798 .LASF70
     /tmp/ccw2llFv.s:4338   .debug_str:0000000000000aec .LASF71
     /tmp/ccw2llFv.s:4352   .debug_str:0000000000000b5c .LASF72
     /tmp/ccw2llFv.s:4166   .debug_str:00000000000004e5 .LASF73
     /tmp/ccw2llFv.s:4346   .debug_str:0000000000000b3c .LASF74
     /tmp/ccw2llFv.s:4102   .debug_str:000000000000025d .LASF75
     /tmp/ccw2llFv.s:4348   .debug_str:0000000000000b46 .LASF78
     /tmp/ccw2llFv.s:4306   .debug_str:000000000000091b .LASF80
     /tmp/ccw2llFv.s:4334   .debug_str:0000000000000ac7 .LASF76
     /tmp/ccw2llFv.s:4370   .debug_str:0000000000000be5 .LASF77
     /tmp/ccw2llFv.s:4098   .debug_str:0000000000000238 .LASF79
     /tmp/ccw2llFv.s:4336   .debug_str:0000000000000ad0 .LASF81
     /tmp/ccw2llFv.s:4318   .debug_str:0000000000000a32 .LASF82
     /tmp/ccw2llFv.s:4220   .debug_str:0000000000000685 .LASF83
     /tmp/ccw2llFv.s:4182   .debug_str:0000000000000566 .LASF84
     /tmp/ccw2llFv.s:4204   .debug_str:00000000000005fe .LASF85
     /tmp/ccw2llFv.s:4228   .debug_str:00000000000006cb .LASF86
     /tmp/ccw2llFv.s:4198   .debug_str:00000000000005d6 .LASF87
     /tmp/ccw2llFv.s:4276   .debug_str:0000000000000843 .LASF88
     /tmp/ccw2llFv.s:4180   .debug_str:0000000000000542 .LASF89
     /tmp/ccw2llFv.s:4390   .debug_str:0000000000000c9d .LASF90
     /tmp/ccw2llFv.s:4104   .debug_str:0000000000000273 .LASF91
     /tmp/ccw2llFv.s:4184   .debug_str:0000000000000571 .LASF92
     /tmp/ccw2llFv.s:4272   .debug_str:0000000000000819 .LASF93
     /tmp/ccw2llFv.s:4350   .debug_str:0000000000000b57 .LASF94
     /tmp/ccw2llFv.s:4232   .debug_str:00000000000006e1 .LASF95
     /tmp/ccw2llFv.s:4212   .debug_str:000000000000063f .LASF96
     /tmp/ccw2llFv.s:4280   .debug_str:0000000000000862 .LASF97
     /tmp/ccw2llFv.s:4076   .debug_str:000000000000017d .LASF98
     /tmp/ccw2llFv.s:4164   .debug_str:00000000000004be .LASF99
     /tmp/ccw2llFv.s:4132   .debug_str:0000000000000390 .LASF100
     /tmp/ccw2llFv.s:4140   .debug_str:00000000000003c6 .LASF101
     /tmp/ccw2llFv.s:4188   .debug_str:000000000000058b .LASF102
     /tmp/ccw2llFv.s:4308   .debug_str:0000000000000939 .LASF169
     /tmp/ccw2llFv.s:4376   .debug_str:0000000000000c0f .LASF170
     /tmp/ccw2llFv.s:4302   .debug_str:00000000000008f9 .LASF103
     /tmp/ccw2llFv.s:4238   .debug_str:000000000000070a .LASF171
     /tmp/ccw2llFv.s:4270   .debug_str:0000000000000807 .LASF172
     /tmp/ccw2llFv.s:4316   .debug_str:0000000000000a2d .LASF104
     /tmp/ccw2llFv.s:4078   .debug_str:000000000000019b .LASF105
     /tmp/ccw2llFv.s:4296   .debug_str:00000000000008e4 .LASF106
     /tmp/ccw2llFv.s:4322   .debug_str:0000000000000a45 .LASF107
     /tmp/ccw2llFv.s:4248   .debug_str:0000000000000769 .LASF108
     /tmp/ccw2llFv.s:4062   .debug_str:00000000000000dd .LASF109
     /tmp/ccw2llFv.s:4240   .debug_str:0000000000000715 .LASF110
     /tmp/ccw2llFv.s:4386   .debug_str:0000000000000c73 .LASF111
     /tmp/ccw2llFv.s:4174   .debug_str:0000000000000525 .LASF112
GAS LISTING /tmp/ccw2llFv.s 			page 28


     /tmp/ccw2llFv.s:4160   .debug_str:0000000000000492 .LASF113
     /tmp/ccw2llFv.s:4134   .debug_str:00000000000003ae .LASF114
     /tmp/ccw2llFv.s:4250   .debug_str:0000000000000772 .LASF115
     /tmp/ccw2llFv.s:4380   .debug_str:0000000000000c2a .LASF116
     /tmp/ccw2llFv.s:4358   .debug_str:0000000000000b76 .LASF117
     /tmp/ccw2llFv.s:4038   .debug_str:000000000000000d .LASF118
     /tmp/ccw2llFv.s:4340   .debug_str:0000000000000b04 .LASF119
     /tmp/ccw2llFv.s:4146   .debug_str:0000000000000419 .LASF120
     /tmp/ccw2llFv.s:4268   .debug_str:00000000000007ff .LASF121
     /tmp/ccw2llFv.s:4300   .debug_str:00000000000008f4 .LASF122
     /tmp/ccw2llFv.s:4218   .debug_str:0000000000000675 .LASF123
     /tmp/ccw2llFv.s:4244   .debug_str:0000000000000732 .LASF124
     /tmp/ccw2llFv.s:4264   .debug_str:00000000000007d8 .LASF125
     /tmp/ccw2llFv.s:4360   .debug_str:0000000000000b88 .LASF126
     /tmp/ccw2llFv.s:4120   .debug_str:000000000000030e .LASF127
     /tmp/ccw2llFv.s:4330   .debug_str:0000000000000a8b .LASF128
     /tmp/ccw2llFv.s:4384   .debug_str:0000000000000c4a .LASF129
     /tmp/ccw2llFv.s:4392   .debug_str:0000000000000ca6 .LASF130
     /tmp/ccw2llFv.s:4110   .debug_str:00000000000002bc .LASF131
     /tmp/ccw2llFv.s:4068   .debug_str:0000000000000143 .LASF132
     /tmp/ccw2llFv.s:4246   .debug_str:000000000000073b .LASF133
     /tmp/ccw2llFv.s:4190   .debug_str:0000000000000595 .LASF134
     /tmp/ccw2llFv.s:4046   .debug_str:0000000000000039 .LASF135
     /tmp/ccw2llFv.s:4298   .debug_str:00000000000008eb .LASF136
     /tmp/ccw2llFv.s:4192   .debug_str:000000000000059f .LASF137
     /tmp/ccw2llFv.s:4052   .debug_str:0000000000000076 .LASF138
     /tmp/ccw2llFv.s:4282   .debug_str:0000000000000879 .LASF139
     /tmp/ccw2llFv.s:4138   .debug_str:00000000000003c0 .LASF140
     /tmp/ccw2llFv.s:4056   .debug_str:0000000000000094 .LASF141
     /tmp/ccw2llFv.s:4148   .debug_str:0000000000000422 .LASF142
     /tmp/ccw2llFv.s:4156   .debug_str:0000000000000452 .LASF143
     /tmp/ccw2llFv.s:4378   .debug_str:0000000000000c1f .LASF144
     /tmp/ccw2llFv.s:4278   .debug_str:0000000000000854 .LASF145
     /tmp/ccw2llFv.s:4158   .debug_str:000000000000047b .LASF146
     /tmp/ccw2llFv.s:4366   .debug_str:0000000000000ba3 .LASF147
     /tmp/ccw2llFv.s:4388   .debug_str:0000000000000c8d .LASF148
     /tmp/ccw2llFv.s:4332   .debug_str:0000000000000a9c .LASF149
     /tmp/ccw2llFv.s:4116   .debug_str:00000000000002f4 .LASF150
     /tmp/ccw2llFv.s:4368   .debug_str:0000000000000bd3 .LASF151
     /tmp/ccw2llFv.s:4144   .debug_str:00000000000003fe .LASF173
     /tmp/ccw2llFv.s:4210   .debug_str:000000000000062b .LASF174
     /tmp/ccw2llFv.s:4048   .debug_str:000000000000005a .LASF152
     /tmp/ccw2llFv.s:4382   .debug_str:0000000000000c37 .LASF175
     /tmp/ccw2llFv.s:4304   .debug_str:000000000000090b .LASF176
     /tmp/ccw2llFv.s:686    .text:0000000000000450 .LFB22
     /tmp/ccw2llFv.s:781    .text:00000000000004f8 .LFE22
     /tmp/ccw2llFv.s:3687   .debug_loc:0000000000000000 .LLST17
     /tmp/ccw2llFv.s:4252   .debug_str:000000000000078e .LASF153
     /tmp/ccw2llFv.s:3701   .debug_loc:0000000000000039 .LLST18
     /tmp/ccw2llFv.s:750    .text:00000000000004c0 .LBB18
     /tmp/ccw2llFv.s:767    .text:00000000000004e8 .LBE18
     /tmp/ccw2llFv.s:4320   .debug_str:0000000000000a3e .LASF154
     /tmp/ccw2llFv.s:3724   .debug_loc:0000000000000099 .LLST19
     /tmp/ccw2llFv.s:755    .text:00000000000004cc .LVL82
     /tmp/ccw2llFv.s:763    .text:00000000000004e4 .LVL84
     /tmp/ccw2llFv.s:704    .text:0000000000000470 .LVL75
     /tmp/ccw2llFv.s:706    .text:0000000000000478 .LVL76
GAS LISTING /tmp/ccw2llFv.s 			page 29


     /tmp/ccw2llFv.s:710    .text:0000000000000484 .LVL77
     /tmp/ccw2llFv.s:726    .text:00000000000004a4 .LVL79
     /tmp/ccw2llFv.s:454    .text:00000000000002a8 .LFB21
     /tmp/ccw2llFv.s:644    .text:0000000000000420 .LFE21
     /tmp/ccw2llFv.s:3731   .debug_loc:00000000000000bc .LLST12
     /tmp/ccw2llFv.s:3745   .debug_loc:00000000000000f5 .LLST13
     /tmp/ccw2llFv.s:4022   .debug_ranges:0000000000000000 .Ldebug_ranges0
     /tmp/ccw2llFv.s:4126   .debug_str:000000000000035f .LASF155
     /tmp/ccw2llFv.s:3766   .debug_loc:0000000000000153 .LLST14
     /tmp/ccw2llFv.s:584    .text:00000000000003b8 .LBB8
     /tmp/ccw2llFv.s:599    .text:00000000000003d8 .LBE8
     /tmp/ccw2llFv.s:3781   .debug_loc:000000000000019c .LLST15
     /tmp/ccw2llFv.s:590    .text:00000000000003cc .LVL61
     /tmp/ccw2llFv.s:526    .text:000000000000032c .LVL52
     /tmp/ccw2llFv.s:531    .text:000000000000033c .LVL53
     /tmp/ccw2llFv.s:541    .text:0000000000000354 .LVL54
     /tmp/ccw2llFv.s:553    .text:0000000000000370 .LVL55
     /tmp/ccw2llFv.s:563    .text:0000000000000388 .LVL56
     /tmp/ccw2llFv.s:569    .text:00000000000003a0 .LVL58
     /tmp/ccw2llFv.s:573    .text:00000000000003b0 .LVL59
     /tmp/ccw2llFv.s:606    .text:00000000000003e4 .LVL64
     /tmp/ccw2llFv.s:610    .text:00000000000003ec .LVL65
     /tmp/ccw2llFv.s:616    .text:0000000000000400 .LVL66
     /tmp/ccw2llFv.s:618    .text:0000000000000408 .LVL67
     /tmp/ccw2llFv.s:472    .text:00000000000002c8 .LVL46
     /tmp/ccw2llFv.s:474    .text:00000000000002d0 .LVL47
     /tmp/ccw2llFv.s:478    .text:00000000000002dc .LVL48
     /tmp/ccw2llFv.s:350    .text:00000000000001f4 .LFB20
     /tmp/ccw2llFv.s:448    .text:00000000000002a8 .LFE20
     /tmp/ccw2llFv.s:3788   .debug_loc:00000000000001bf .LLST9
     /tmp/ccw2llFv.s:3802   .debug_loc:00000000000001f8 .LLST10
     /tmp/ccw2llFv.s:392    .text:0000000000000248 .LBB4
     /tmp/ccw2llFv.s:410    .text:0000000000000270 .LBE4
     /tmp/ccw2llFv.s:3821   .debug_loc:0000000000000254 .LLST11
     /tmp/ccw2llFv.s:397    .text:0000000000000254 .LVL37
     /tmp/ccw2llFv.s:409    .text:0000000000000270 .LVL40
     /tmp/ccw2llFv.s:370    .text:0000000000000218 .LVL31
     /tmp/ccw2llFv.s:372    .text:0000000000000220 .LVL32
     /tmp/ccw2llFv.s:376    .text:000000000000022c .LVL33
     /tmp/ccw2llFv.s:389    .text:0000000000000244 .LVL36
     /tmp/ccw2llFv.s:420    .text:0000000000000284 .LVL41
     /tmp/ccw2llFv.s:325    .text:00000000000001f4 .LFE19
     /tmp/ccw2llFv.s:4362   .debug_str:0000000000000b96 .LASF156
     /tmp/ccw2llFv.s:3832   .debug_loc:000000000000028a .LLST6
     /tmp/ccw2llFv.s:3854   .debug_loc:00000000000002e9 .LLST7
     /tmp/ccw2llFv.s:3868   .debug_loc:0000000000000322 .LLST8
     /tmp/ccw2llFv.s:269    .text:0000000000000194 .LVL22
     /tmp/ccw2llFv.s:275    .text:00000000000001a4 .LVL23
     /tmp/ccw2llFv.s:318    .text:00000000000001e8 .LVL28
     /tmp/ccw2llFv.s:322    .text:00000000000001f4 .LVL29
     /tmp/ccw2llFv.s:148    .text:00000000000000dc .LFB18
     /tmp/ccw2llFv.s:188    .text:0000000000000124 .LFE18
     /tmp/ccw2llFv.s:3879   .debug_loc:0000000000000358 .LLST4
     /tmp/ccw2llFv.s:168    .text:00000000000000fc .LVL12
     /tmp/ccw2llFv.s:170    .text:0000000000000104 .LVL13
     /tmp/ccw2llFv.s:174    .text:0000000000000110 .LVL14
     /tmp/ccw2llFv.s:111    .text:00000000000000a4 .LFB17
GAS LISTING /tmp/ccw2llFv.s 			page 30


     /tmp/ccw2llFv.s:142    .text:00000000000000dc .LFE17
     /tmp/ccw2llFv.s:3897   .debug_loc:00000000000003a4 .LLST3
     /tmp/ccw2llFv.s:126    .text:00000000000000bc .LVL8
     /tmp/ccw2llFv.s:128    .text:00000000000000c4 .LVL9
     /tmp/ccw2llFv.s:131    .text:00000000000000cc .LVL10
     /tmp/ccw2llFv.s:787    .text:00000000000004f8 .LFB16
     /tmp/ccw2llFv.s:817    .text:0000000000000528 .LFE16
     /tmp/ccw2llFv.s:4114   .debug_str:00000000000002ef .LASF157
     /tmp/ccw2llFv.s:3911   .debug_loc:00000000000003dd .LLST20
     /tmp/ccw2llFv.s:804    .text:0000000000000514 .LVL89
     /tmp/ccw2llFv.s:650    .text:0000000000000420 .LFB15
     /tmp/ccw2llFv.s:680    .text:0000000000000450 .LFE15
     /tmp/ccw2llFv.s:3925   .debug_loc:0000000000000416 .LLST16
     /tmp/ccw2llFv.s:667    .text:000000000000043c .LVL73
     /tmp/ccw2llFv.s:4040   .debug_str:000000000000001d .LASF158
     /tmp/ccw2llFv.s:4172   .debug_str:0000000000000513 .LASF159
     /tmp/ccw2llFv.s:202    .text:0000000000000124 .LFB14
     /tmp/ccw2llFv.s:235    .text:0000000000000164 .LFE14
     /tmp/ccw2llFv.s:3939   .debug_loc:000000000000044f .LLST5
     /tmp/ccw2llFv.s:219    .text:0000000000000144 .LVL17
     /tmp/ccw2llFv.s:222    .text:0000000000000150 .LVL18
     /tmp/ccw2llFv.s:4050   .debug_str:0000000000000064 .LASF160
     /tmp/ccw2llFv.s:10     .text:0000000000000000 .LFB12
     /tmp/ccw2llFv.s:42     .text:0000000000000038 .LFE12
     /tmp/ccw2llFv.s:3957   .debug_loc:000000000000049b .LLST0
     /tmp/ccw2llFv.s:30     .text:0000000000000028 .LVL2
     /tmp/ccw2llFv.s:4208   .debug_str:0000000000000619 .LASF161
     /tmp/ccw2llFv.s:50     .text:0000000000000038 .LFB9
     /tmp/ccw2llFv.s:103    .text:00000000000000a4 .LFE9
     /tmp/ccw2llFv.s:3977   .debug_loc:00000000000004e9 .LLST1
     /tmp/ccw2llFv.s:3995   .debug_loc:0000000000000535 .LLST2
     /tmp/ccw2llFv.s:75     .text:0000000000000070 .LVL5
     /tmp/ccw2llFv.s:4176   .debug_str:000000000000052e .LASF162
     /tmp/ccw2llFv.s:4342   .debug_str:0000000000000b17 .LASF163
     /tmp/ccw2llFv.s:4372   .debug_str:0000000000000bfa .LASF177
     /tmp/ccw2llFv.s:4128   .debug_str:000000000000036a .LASF178
     /tmp/ccw2llFv.s:689    .text:0000000000000450 .LVL74
     /tmp/ccw2llFv.s:724    .text:000000000000049c .LVL78
     /tmp/ccw2llFv.s:732    .text:00000000000004ac .LVL80
     /tmp/ccw2llFv.s:746    .text:00000000000004c0 .LVL81
     /tmp/ccw2llFv.s:757    .text:00000000000004d0 .LVL83
     /tmp/ccw2llFv.s:773    .text:00000000000004f0 .LVL85
     /tmp/ccw2llFv.s:778    .text:00000000000004f4 .LVL86
     /tmp/ccw2llFv.s:457    .text:00000000000002a8 .LVL45
     /tmp/ccw2llFv.s:500    .text:0000000000000308 .LVL49
     /tmp/ccw2llFv.s:514    .text:000000000000031c .LVL50
     /tmp/ccw2llFv.s:524    .text:0000000000000324 .LVL51
     /tmp/ccw2llFv.s:626    .text:0000000000000410 .LVL68
     /tmp/ccw2llFv.s:632    .text:0000000000000414 .LVL69
     /tmp/ccw2llFv.s:565    .text:000000000000038c .LVL57
     /tmp/ccw2llFv.s:579    .text:00000000000003b8 .LVL60
     /tmp/ccw2llFv.s:634    .text:0000000000000418 .LVL70
     /tmp/ccw2llFv.s:596    .text:00000000000003d4 .LVL62
     /tmp/ccw2llFv.s:353    .text:00000000000001f4 .LVL30
     /tmp/ccw2llFv.s:378    .text:0000000000000230 .LVL34
     /tmp/ccw2llFv.s:381    .text:0000000000000234 .LVL35
     /tmp/ccw2llFv.s:436    .text:0000000000000298 .LVL42
GAS LISTING /tmp/ccw2llFv.s 			page 31


     /tmp/ccw2llFv.s:440    .text:00000000000002a0 .LVL43
     /tmp/ccw2llFv.s:445    .text:00000000000002a4 .LVL44
     /tmp/ccw2llFv.s:399    .text:0000000000000258 .LVL38
     /tmp/ccw2llFv.s:407    .text:0000000000000268 .LVL39
     /tmp/ccw2llFv.s:246    .text:0000000000000164 .LVL20
     /tmp/ccw2llFv.s:266    .text:000000000000018c .LVL21
     /tmp/ccw2llFv.s:302    .text:00000000000001c8 .LVL25
     /tmp/ccw2llFv.s:306    .text:00000000000001d0 .LVL26
     /tmp/ccw2llFv.s:297    .text:00000000000001c0 .LVL24
     /tmp/ccw2llFv.s:312    .text:00000000000001d8 .LVL27
     /tmp/ccw2llFv.s:153    .text:00000000000000dc .LVL11
     /tmp/ccw2llFv.s:183    .text:000000000000011c .LVL15
     /tmp/ccw2llFv.s:114    .text:00000000000000a4 .LVL7
     /tmp/ccw2llFv.s:790    .text:00000000000004f8 .LVL87
     /tmp/ccw2llFv.s:802    .text:000000000000050c .LVL88
     /tmp/ccw2llFv.s:653    .text:0000000000000420 .LVL71
     /tmp/ccw2llFv.s:665    .text:0000000000000434 .LVL72
     /tmp/ccw2llFv.s:205    .text:0000000000000124 .LVL16
     /tmp/ccw2llFv.s:230    .text:000000000000015c .LVL19
     /tmp/ccw2llFv.s:14     .text:0000000000000000 .LVL0
     /tmp/ccw2llFv.s:28     .text:0000000000000020 .LVL1
     /tmp/ccw2llFv.s:53     .text:0000000000000038 .LVL3
     /tmp/ccw2llFv.s:73     .text:0000000000000068 .LVL4
     /tmp/ccw2llFv.s:96     .text:0000000000000098 .LVL6
     /tmp/ccw2llFv.s:850    .debug_info:0000000000000000 .Ldebug_info0
     /tmp/ccw2llFv.s:518    .text:000000000000031c .LBB6
     /tmp/ccw2llFv.s:574    .text:00000000000003b0 .LBE6
     /tmp/ccw2llFv.s:582    .text:00000000000003b8 .LBB10
     /tmp/ccw2llFv.s:619    .text:0000000000000408 .LBE10
     /tmp/ccw2llFv.s:624    .text:000000000000040c .LBB11
     /tmp/ccw2llFv.s:628    .text:0000000000000410 .LBE11
     /tmp/ccw2llFv.s:637    .text:0000000000000418 .LBB12
     /tmp/ccw2llFv.s:641    .text:0000000000000420 .LBE12
     /tmp/ccw2llFv.s:191    .gcc_except_table:0000000000000000 .LLSDA18
     /tmp/ccw2llFv.s:327    .gcc_except_table:0000000000000004 .LLSDA19

UNDEFINED SYMBOLS
_ZN4ListI6ThreadED1Ev
_ZN4ListI6ThreadEC1Ev
_ZN15MemoryAllocator8InstanceEv
_ZN15MemoryAllocator16getSemaphorePoolEv
_ZN13SemaphorePool8allocateEv
_ZN13SemaphorePool10deallocateEP9Semaphore
__gxx_personality_v0
_Unwind_Resume
_ZN13SemaphorePool16getSemaphoreByIdEj
_ZN4ListI6ThreadE5emptyEv
_ZN4ListI6ThreadE16remove_beginningEv
scheduler
_ZN9Scheduler3putEP6Thread
_ZN6Thread7runningE
_ZN4ListI6ThreadE7add_endEPS0_
_ZN9Scheduler3getEv
_ZN6Thread10getContextEv
context_switch
_ZN6Thread14getWrapperArgsEv
_ZN5RiscV14w_last_sstatusEv
GAS LISTING /tmp/ccw2llFv.s 			page 32


_ZN5RiscV11w_last_sepcEv
restore_context_kernel_mode
