GAS LISTING /tmp/ccAGJi9K.s 			page 1


   1              		.file	"SemaphorePool.cpp"
   2              		.option pic
   3              		.option norelax
   4              		.text
   5              	.Ltext0:
   6              		.align	2
   7              		.globl	_ZN13SemaphorePoolC2Ev
   9              	_ZN13SemaphorePoolC2Ev:
  10              	.LFB1:
  11              		.file 1 "src/SemaphorePool.cpp"
   1:src/SemaphorePool.cpp **** 
   2:src/SemaphorePool.cpp **** #include "../h/SemaphorePool.hpp"
   3:src/SemaphorePool.cpp **** 
   4:src/SemaphorePool.cpp **** SemaphorePool::SemaphorePool() : pool(nullptr), used(nullptr) {}
  12              		.loc 1 4 1
  13              		.cfi_startproc
  14              	.LVL0:
  15 0000 130101FF 		addi	sp,sp,-16
  16              		.cfi_def_cfa_offset 16
  17 0004 23348100 		sd	s0,8(sp)
  18              		.cfi_offset 8, -8
  19 0008 13040101 		addi	s0,sp,16
  20              		.cfi_def_cfa 8, 0
  21              	.LBB2:
  22              		.loc 1 4 61 is_stmt 0
  23 000c 23300500 		sd	zero,0(a0)
  24 0010 23340500 		sd	zero,8(a0)
  25              	.LBE2:
  26              		.loc 1 4 64
  27 0014 03348100 		ld	s0,8(sp)
  28              		.cfi_restore 8
  29              		.cfi_def_cfa 2, 16
  30 0018 13010101 		addi	sp,sp,16
  31              		.cfi_def_cfa_offset 0
  32 001c 67800000 		jr	ra
  33              		.cfi_endproc
  34              	.LFE1:
  36              		.globl	_ZN13SemaphorePoolC1Ev
  37              		.set	_ZN13SemaphorePoolC1Ev,_ZN13SemaphorePoolC2Ev
  38              		.align	2
  39              		.globl	_ZN13SemaphorePool4initEPvS0_
  41              	_ZN13SemaphorePool4initEPvS0_:
  42              	.LFB3:
   5:src/SemaphorePool.cpp **** 
   6:src/SemaphorePool.cpp **** void SemaphorePool::init(void* poolStartAddress, void* usedStartAddress) {
  43              		.loc 1 6 74 is_stmt 1
  44              		.cfi_startproc
  45              	.LVL1:
  46 0020 130101FF 		addi	sp,sp,-16
  47              		.cfi_def_cfa_offset 16
  48 0024 23348100 		sd	s0,8(sp)
  49              		.cfi_offset 8, -8
  50 0028 13040101 		addi	s0,sp,16
  51              		.cfi_def_cfa 8, 0
   7:src/SemaphorePool.cpp ****     pool = (Semaphore*)poolStartAddress;
  52              		.loc 1 7 5
  53              		.loc 1 7 10 is_stmt 0
GAS LISTING /tmp/ccAGJi9K.s 			page 2


  54 002c 2330B500 		sd	a1,0(a0)
   8:src/SemaphorePool.cpp ****     used = (bool*)usedStartAddress;
  55              		.loc 1 8 5 is_stmt 1
  56              		.loc 1 8 10 is_stmt 0
  57 0030 2334C500 		sd	a2,8(a0)
   9:src/SemaphorePool.cpp ****     for (int i = 0; i < MAX_SEMAPHORES; i++) used[i] = false;
  58              		.loc 1 9 5 is_stmt 1
  59              	.LVL2:
  60              	.LBB3:
  61              		.loc 1 9 14 is_stmt 0
  62 0034 93070000 		li	a5,0
  63              	.LVL3:
  64              	.L5:
  65              		.loc 1 9 23 is_stmt 1 discriminator 3
  66 0038 13079000 		li	a4,9
  67 003c 634CF700 		bgt	a5,a4,.L3
  68              		.loc 1 9 46 discriminator 2
  69 0040 03378500 		ld	a4,8(a0)
  70              		.loc 1 9 52 is_stmt 0 discriminator 2
  71 0044 3307F700 		add	a4,a4,a5
  72              		.loc 1 9 54 discriminator 2
  73 0048 23000700 		sb	zero,0(a4)
  74              		.loc 1 9 5 is_stmt 1 discriminator 2
  75 004c 9B871700 		addiw	a5,a5,1
  76              	.LVL4:
  77 0050 6FF09FFE 		j	.L5
  78              	.LVL5:
  79              	.L3:
  80              	.LBE3:
  10:src/SemaphorePool.cpp **** }
  81              		.loc 1 10 1 is_stmt 0
  82 0054 03348100 		ld	s0,8(sp)
  83              		.cfi_restore 8
  84              		.cfi_def_cfa 2, 16
  85 0058 13010101 		addi	sp,sp,16
  86              		.cfi_def_cfa_offset 0
  87 005c 67800000 		jr	ra
  88              		.cfi_endproc
  89              	.LFE3:
  91              		.align	2
  92              		.globl	_ZN13SemaphorePool16getSemaphoreByIdEj
  94              	_ZN13SemaphorePool16getSemaphoreByIdEj:
  95              	.LFB4:
  11:src/SemaphorePool.cpp **** 
  12:src/SemaphorePool.cpp **** Semaphore* SemaphorePool::getSemaphoreById(sem_t id){
  96              		.loc 1 12 53 is_stmt 1
  97              		.cfi_startproc
  98              	.LVL6:
  99 0060 130101FF 		addi	sp,sp,-16
 100              		.cfi_def_cfa_offset 16
 101 0064 23348100 		sd	s0,8(sp)
 102              		.cfi_offset 8, -8
 103 0068 13040101 		addi	s0,sp,16
 104              		.cfi_def_cfa 8, 0
 105 006c 93060500 		mv	a3,a0
  13:src/SemaphorePool.cpp ****     for(int i = 0; i < MAX_SEMAPHORES; i++){
 106              		.loc 1 13 5
GAS LISTING /tmp/ccAGJi9K.s 			page 3


 107              	.LVL7:
 108              	.LBB4:
 109              		.loc 1 13 13 is_stmt 0
 110 0070 93070000 		li	a5,0
 111 0074 6F008000 		j	.L10
 112              	.LVL8:
 113              	.L9:
 114              		.loc 1 13 5 is_stmt 1 discriminator 2
 115 0078 9B871700 		addiw	a5,a5,1
 116              	.LVL9:
 117              	.L10:
 118              		.loc 1 13 22 discriminator 1
 119 007c 13079000 		li	a4,9
 120 0080 6346F702 		bgt	a5,a4,.L11
  14:src/SemaphorePool.cpp ****         if(used[i] == true && pool[i].myHandle == id){
 121              		.loc 1 14 9
 122              		.loc 1 14 12 is_stmt 0
 123 0084 03B78600 		ld	a4,8(a3)
 124              		.loc 1 14 18
 125 0088 3307F700 		add	a4,a4,a5
 126 008c 03470700 		lbu	a4,0(a4)
 127              		.loc 1 14 9
 128 0090 E30407FE 		beqz	a4,.L9
 129              		.loc 1 14 31 discriminator 1
 130 0094 03B50600 		ld	a0,0(a3)
 131              		.loc 1 14 37 discriminator 1
 132 0098 13975700 		slli	a4,a5,5
 133 009c 3305E500 		add	a0,a0,a4
 134              		.loc 1 14 39 discriminator 1
 135 00a0 03278500 		lw	a4,8(a0)
 136              		.loc 1 14 28 discriminator 1
 137 00a4 E31AB7FC 		bne	a4,a1,.L9
 138 00a8 6F008000 		j	.L7
 139              	.L11:
 140              	.LBE4:
  15:src/SemaphorePool.cpp ****             return &pool[i];
  16:src/SemaphorePool.cpp ****         }
  17:src/SemaphorePool.cpp ****     }
  18:src/SemaphorePool.cpp ****     return nullptr;
 141              		.loc 1 18 12
 142 00ac 13050000 		li	a0,0
 143              	.L7:
  19:src/SemaphorePool.cpp **** }
 144              		.loc 1 19 1
 145 00b0 03348100 		ld	s0,8(sp)
 146              		.cfi_restore 8
 147              		.cfi_def_cfa 2, 16
 148 00b4 13010101 		addi	sp,sp,16
 149              		.cfi_def_cfa_offset 0
 150 00b8 67800000 		jr	ra
 151              		.cfi_endproc
 152              	.LFE4:
 154              		.align	2
 155              		.globl	_ZN13SemaphorePool8allocateEv
 157              	_ZN13SemaphorePool8allocateEv:
 158              	.LFB5:
  20:src/SemaphorePool.cpp **** Semaphore* SemaphorePool::allocate() {
GAS LISTING /tmp/ccAGJi9K.s 			page 4


 159              		.loc 1 20 38 is_stmt 1
 160              		.cfi_startproc
 161              	.LVL10:
 162 00bc 130101FF 		addi	sp,sp,-16
 163              		.cfi_def_cfa_offset 16
 164 00c0 23348100 		sd	s0,8(sp)
 165              		.cfi_offset 8, -8
 166 00c4 13040101 		addi	s0,sp,16
 167              		.cfi_def_cfa 8, 0
  21:src/SemaphorePool.cpp ****     for (int i = 0; i < MAX_SEMAPHORES; i++) {
 168              		.loc 1 21 5
 169              	.LVL11:
 170              	.LBB5:
 171              		.loc 1 21 14 is_stmt 0
 172 00c8 93070000 		li	a5,0
 173              	.LVL12:
 174              	.L16:
 175              		.loc 1 21 23 is_stmt 1 discriminator 1
 176 00cc 13079000 		li	a4,9
 177 00d0 634CF702 		bgt	a5,a4,.L17
  22:src/SemaphorePool.cpp ****         if (!used[i]) {
 178              		.loc 1 22 9
 179              		.loc 1 22 14 is_stmt 0
 180 00d4 03378500 		ld	a4,8(a0)
 181              		.loc 1 22 19
 182 00d8 13860700 		mv	a2,a5
 183              		.loc 1 22 20
 184 00dc 3307F700 		add	a4,a4,a5
 185 00e0 83460700 		lbu	a3,0(a4)
 186              		.loc 1 22 9
 187 00e4 63860600 		beqz	a3,.L19
  21:src/SemaphorePool.cpp ****     for (int i = 0; i < MAX_SEMAPHORES; i++) {
 188              		.loc 1 21 5 is_stmt 1 discriminator 2
 189 00e8 9B871700 		addiw	a5,a5,1
 190              	.LVL13:
 191 00ec 6FF01FFE 		j	.L16
 192              	.LVL14:
 193              	.L19:
  23:src/SemaphorePool.cpp ****             used[i] = true;
 194              		.loc 1 23 13
 195              		.loc 1 23 21 is_stmt 0
 196 00f0 93071000 		li	a5,1
 197              	.LVL15:
 198 00f4 2300F700 		sb	a5,0(a4)
  24:src/SemaphorePool.cpp ****             return &pool[i];
 199              		.loc 1 24 13 is_stmt 1
 200              		.loc 1 24 21 is_stmt 0
 201 00f8 03350500 		ld	a0,0(a0)
 202              	.LVL16:
 203              		.loc 1 24 27
 204 00fc 13165600 		slli	a2,a2,5
 205 0100 3305C500 		add	a0,a0,a2
 206 0104 6F008000 		j	.L13
 207              	.LVL17:
 208              	.L17:
 209              	.LBE5:
  25:src/SemaphorePool.cpp ****         }
GAS LISTING /tmp/ccAGJi9K.s 			page 5


  26:src/SemaphorePool.cpp ****     }
  27:src/SemaphorePool.cpp ****     return nullptr;
 210              		.loc 1 27 12
 211 0108 13050000 		li	a0,0
 212              	.LVL18:
 213              	.L13:
  28:src/SemaphorePool.cpp **** }
 214              		.loc 1 28 1
 215 010c 03348100 		ld	s0,8(sp)
 216              		.cfi_restore 8
 217              		.cfi_def_cfa 2, 16
 218 0110 13010101 		addi	sp,sp,16
 219              		.cfi_def_cfa_offset 0
 220 0114 67800000 		jr	ra
 221              		.cfi_endproc
 222              	.LFE5:
 224              		.align	2
 225              		.globl	_ZN13SemaphorePool10deallocateEP9Semaphore
 227              	_ZN13SemaphorePool10deallocateEP9Semaphore:
 228              	.LFB6:
  29:src/SemaphorePool.cpp **** 
  30:src/SemaphorePool.cpp **** void SemaphorePool::deallocate(Semaphore* obj) {
 229              		.loc 1 30 48 is_stmt 1
 230              		.cfi_startproc
 231              	.LVL19:
 232 0118 130101FF 		addi	sp,sp,-16
 233              		.cfi_def_cfa_offset 16
 234 011c 23348100 		sd	s0,8(sp)
 235              		.cfi_offset 8, -8
 236 0120 13040101 		addi	s0,sp,16
 237              		.cfi_def_cfa 8, 0
  31:src/SemaphorePool.cpp ****     for (int i = 0; i < MAX_SEMAPHORES; i++) {
 238              		.loc 1 31 5
 239              	.LVL20:
 240              	.LBB6:
 241              		.loc 1 31 14 is_stmt 0
 242 0124 93070000 		li	a5,0
 243              	.LVL21:
 244              	.L23:
 245              		.loc 1 31 23 is_stmt 1 discriminator 1
 246 0128 13079000 		li	a4,9
 247 012c 6346F702 		bgt	a5,a4,.L20
  32:src/SemaphorePool.cpp ****         if (&pool[i] == obj) {
 248              		.loc 1 32 9
 249              		.loc 1 32 14 is_stmt 0
 250 0130 03370500 		ld	a4,0(a0)
 251              		.loc 1 32 19
 252 0134 13860700 		mv	a2,a5
 253              		.loc 1 32 20
 254 0138 93965700 		slli	a3,a5,5
 255              		.loc 1 32 13
 256 013c 3307D700 		add	a4,a4,a3
 257              		.loc 1 32 9
 258 0140 6306B700 		beq	a4,a1,.L25
  31:src/SemaphorePool.cpp ****     for (int i = 0; i < MAX_SEMAPHORES; i++) {
 259              		.loc 1 31 5 is_stmt 1 discriminator 2
 260 0144 9B871700 		addiw	a5,a5,1
GAS LISTING /tmp/ccAGJi9K.s 			page 6


 261              	.LVL22:
 262 0148 6FF01FFE 		j	.L23
 263              	.LVL23:
 264              	.L25:
  33:src/SemaphorePool.cpp ****             used[i] = false;
 265              		.loc 1 33 13
 266 014c 83378500 		ld	a5,8(a0)
 267              	.LVL24:
 268              		.loc 1 33 19 is_stmt 0
 269 0150 3386C700 		add	a2,a5,a2
 270              		.loc 1 33 21
 271 0154 23000600 		sb	zero,0(a2)
  34:src/SemaphorePool.cpp ****             return;
 272              		.loc 1 34 13 is_stmt 1
 273              	.L20:
 274              	.LBE6:
  35:src/SemaphorePool.cpp ****         }
  36:src/SemaphorePool.cpp ****     }
  37:src/SemaphorePool.cpp **** }
 275              		.loc 1 37 1 is_stmt 0
 276 0158 03348100 		ld	s0,8(sp)
 277              		.cfi_restore 8
 278              		.cfi_def_cfa 2, 16
 279 015c 13010101 		addi	sp,sp,16
 280              		.cfi_def_cfa_offset 0
 281 0160 67800000 		jr	ra
 282              		.cfi_endproc
 283              	.LFE6:
 285              	.Letext0:
 286              		.file 2 "src/../h/../lib/hw.h"
 287              		.file 3 "src/../h/SemaphorePool.hpp"
GAS LISTING /tmp/ccAGJi9K.s 			page 7

