GAS LISTING /tmp/ccdcbteg.s 			page 1


   1              		.file	"syscall_c.cpp"
   2              		.option pic
   3              		.option norelax
   4              		.text
   5              	.Ltext0:
   6              		.align	2
   7              		.globl	mem_alloc
   9              	mem_alloc:
  10              	.LFB3:
  11              		.file 1 "src/syscall_c.cpp"
   1:src/syscall_c.cpp **** #include "../h/syscall_c.hpp"
   2:src/syscall_c.cpp **** #include "../h/abi.h"
   3:src/syscall_c.cpp **** #include "../lib/hw.h"
   4:src/syscall_c.cpp **** #include "../h/memory_structs.h"
   5:src/syscall_c.cpp **** #include "../lib/console.h"
   6:src/syscall_c.cpp **** #include "../h/Thread.hpp"
   7:src/syscall_c.cpp **** 
   8:src/syscall_c.cpp **** 
   9:src/syscall_c.cpp **** 
  10:src/syscall_c.cpp **** extern "C" ThreadContext * getRunningThreadContext();
  11:src/syscall_c.cpp **** extern int getWaitStatusForRunning();
  12:src/syscall_c.cpp **** 
  13:src/syscall_c.cpp **** void* mem_alloc(size_t size) {
  12              		.loc 1 13 30
  13              		.cfi_startproc
  14              	.LVL0:
  15 0000 130101FE 		addi	sp,sp,-32
  16              		.cfi_def_cfa_offset 32
  17 0004 233C1100 		sd	ra,24(sp)
  18 0008 23388100 		sd	s0,16(sp)
  19 000c 23349100 		sd	s1,8(sp)
  20              		.cfi_offset 1, -8
  21              		.cfi_offset 8, -16
  22              		.cfi_offset 9, -24
  23 0010 13040102 		addi	s0,sp,32
  24              		.cfi_def_cfa 8, 0
  14:src/syscall_c.cpp ****     size_t numOfBlocks = (size + sizeof(Header) + MEM_BLOCK_SIZE - 1) / MEM_BLOCK_SIZE ;
  25              		.loc 1 14 5
  26              		.loc 1 14 66 is_stmt 0
  27 0014 93047504 		addi	s1,a0,71
  28              		.loc 1 14 12
  29 0018 93D46400 		srli	s1,s1,6
  30              	.LVL1:
  15:src/syscall_c.cpp ****     ThreadContext *t = getRunningThreadContext();
  31              		.loc 1 15 5 is_stmt 1
  32              		.loc 1 15 47 is_stmt 0
  33 001c 97000000 		call	getRunningThreadContext@plt
  33      E7800000 
  34              	.LVL2:
  16:src/syscall_c.cpp ****     return (char*)abi_mem_alloc(t, numOfBlocks) + sizeof(Header);
  35              		.loc 1 16 5 is_stmt 1
  36              		.loc 1 16 32 is_stmt 0
  37 0024 93850400 		mv	a1,s1
  38 0028 97000000 		call	abi_mem_alloc@plt
  38      E7800000 
  39              	.LVL3:
  17:src/syscall_c.cpp **** }
GAS LISTING /tmp/ccdcbteg.s 			page 2


  40              		.loc 1 17 1
  41 0030 13058500 		addi	a0,a0,8
  42 0034 83308101 		ld	ra,24(sp)
  43              		.cfi_restore 1
  44 0038 03340101 		ld	s0,16(sp)
  45              		.cfi_restore 8
  46              		.cfi_def_cfa 2, 32
  47 003c 83348100 		ld	s1,8(sp)
  48              		.cfi_restore 9
  49              	.LVL4:
  50 0040 13010102 		addi	sp,sp,32
  51              		.cfi_def_cfa_offset 0
  52 0044 67800000 		jr	ra
  53              		.cfi_endproc
  54              	.LFE3:
  56              		.align	2
  57              		.globl	mem_free
  59              	mem_free:
  60              	.LFB4:
  18:src/syscall_c.cpp **** int mem_free(void* ptr){
  61              		.loc 1 18 24 is_stmt 1
  62              		.cfi_startproc
  63              	.LVL5:
  19:src/syscall_c.cpp ****     if(!ptr) return 0;
  64              		.loc 1 19 5
  65 0048 63020504 		beqz	a0,.L5
  18:src/syscall_c.cpp **** int mem_free(void* ptr){
  66              		.loc 1 18 24 is_stmt 0
  67 004c 130101FE 		addi	sp,sp,-32
  68              		.cfi_def_cfa_offset 32
  69 0050 233C1100 		sd	ra,24(sp)
  70 0054 23388100 		sd	s0,16(sp)
  71 0058 23349100 		sd	s1,8(sp)
  72              		.cfi_offset 1, -8
  73              		.cfi_offset 8, -16
  74              		.cfi_offset 9, -24
  75 005c 13040102 		addi	s0,sp,32
  76              		.cfi_def_cfa 8, 0
  20:src/syscall_c.cpp ****     Header* header = (Header*)((char*)ptr - sizeof(Header));
  77              		.loc 1 20 5 is_stmt 1
  78              		.loc 1 20 13 is_stmt 0
  79 0060 930485FF 		addi	s1,a0,-8
  80              	.LVL6:
  21:src/syscall_c.cpp ****     ThreadContext *t = getRunningThreadContext();
  81              		.loc 1 21 5 is_stmt 1
  82              		.loc 1 21 47 is_stmt 0
  83 0064 97000000 		call	getRunningThreadContext@plt
  83      E7800000 
  84              	.LVL7:
  22:src/syscall_c.cpp ****     return abi_mem_free(t, header);
  85              		.loc 1 22 5 is_stmt 1
  86              		.loc 1 22 24 is_stmt 0
  87 006c 93850400 		mv	a1,s1
  88 0070 97000000 		call	abi_mem_free@plt
  88      E7800000 
  89              	.LVL8:
  23:src/syscall_c.cpp **** }
GAS LISTING /tmp/ccdcbteg.s 			page 3


  90              		.loc 1 23 1
  91 0078 83308101 		ld	ra,24(sp)
  92              		.cfi_restore 1
  93 007c 03340101 		ld	s0,16(sp)
  94              		.cfi_restore 8
  95              		.cfi_def_cfa 2, 32
  96 0080 83348100 		ld	s1,8(sp)
  97              		.cfi_restore 9
  98              	.LVL9:
  99 0084 13010102 		addi	sp,sp,32
 100              		.cfi_def_cfa_offset 0
 101 0088 67800000 		jr	ra
 102              	.LVL10:
 103              	.L5:
  19:src/syscall_c.cpp ****     Header* header = (Header*)((char*)ptr - sizeof(Header));
 104              		.loc 1 19 21
 105 008c 13050000 		li	a0,0
 106              	.LVL11:
 107              		.loc 1 23 1
 108 0090 67800000 		ret
 109              		.cfi_endproc
 110              	.LFE4:
 112              		.align	2
 113              		.globl	thread_create
 115              	thread_create:
 116              	.LFB5:
  24:src/syscall_c.cpp **** 
  25:src/syscall_c.cpp **** int thread_create(thread_t* handle, void(*startRoutine)(void*), void* args)
  26:src/syscall_c.cpp **** {
 117              		.loc 1 26 1 is_stmt 1
 118              		.cfi_startproc
 119              	.LVL12:
 120 0094 130101FD 		addi	sp,sp,-48
 121              		.cfi_def_cfa_offset 48
 122 0098 23341102 		sd	ra,40(sp)
 123 009c 23308102 		sd	s0,32(sp)
 124 00a0 233C9100 		sd	s1,24(sp)
 125 00a4 23382101 		sd	s2,16(sp)
 126 00a8 23343101 		sd	s3,8(sp)
 127 00ac 23304101 		sd	s4,0(sp)
 128              		.cfi_offset 1, -8
 129              		.cfi_offset 8, -16
 130              		.cfi_offset 9, -24
 131              		.cfi_offset 18, -32
 132              		.cfi_offset 19, -40
 133              		.cfi_offset 20, -48
 134 00b0 13040103 		addi	s0,sp,48
 135              		.cfi_def_cfa 8, 0
 136 00b4 13090500 		mv	s2,a0
 137 00b8 93890500 		mv	s3,a1
 138 00bc 130A0600 		mv	s4,a2
  27:src/syscall_c.cpp ****     size_t numOfBlocks = (2 * DEFAULT_STACK_SIZE + sizeof(Header) + MEM_BLOCK_SIZE - 1) / MEM_BLOCK
 139              		.loc 1 27 5
 140              	.LVL13:
  28:src/syscall_c.cpp ****     ThreadContext *t = getRunningThreadContext();
 141              		.loc 1 28 5
 142              		.loc 1 28 47 is_stmt 0
GAS LISTING /tmp/ccdcbteg.s 			page 4


 143 00c0 97000000 		call	getRunningThreadContext@plt
 143      E7800000 
 144              	.LVL14:
 145 00c8 93040500 		mv	s1,a0
 146              	.LVL15:
  29:src/syscall_c.cpp ****     void* result = abi_mem_alloc(t, numOfBlocks);
 147              		.loc 1 29 5 is_stmt 1
 148              		.loc 1 29 33 is_stmt 0
 149 00cc 93051008 		li	a1,129
 150 00d0 97000000 		call	abi_mem_alloc@plt
 150      E7800000 
 151              	.LVL16:
  30:src/syscall_c.cpp ****     void* stack = (char*)result + sizeof(Header);
 152              		.loc 1 30 5 is_stmt 1
  31:src/syscall_c.cpp ****     void* stack_top = (char*)stack + 2*DEFAULT_STACK_SIZE;
 153              		.loc 1 31 5
  32:src/syscall_c.cpp ****     return abi_thread_create(t, handle, startRoutine, args, stack_top);
 154              		.loc 1 32 5
 155              		.loc 1 32 29 is_stmt 0
 156 00d8 B7270000 		li	a5,8192
 157 00dc 93878700 		addi	a5,a5,8
 158 00e0 3307F500 		add	a4,a0,a5
 159 00e4 93060A00 		mv	a3,s4
 160 00e8 13860900 		mv	a2,s3
 161 00ec 93050900 		mv	a1,s2
 162 00f0 13850400 		mv	a0,s1
 163              	.LVL17:
 164 00f4 97000000 		call	abi_thread_create@plt
 164      E7800000 
 165              	.LVL18:
  33:src/syscall_c.cpp **** }
 166              		.loc 1 33 1
 167 00fc 83308102 		ld	ra,40(sp)
 168              		.cfi_restore 1
 169 0100 03340102 		ld	s0,32(sp)
 170              		.cfi_restore 8
 171              		.cfi_def_cfa 2, 48
 172 0104 83348101 		ld	s1,24(sp)
 173              		.cfi_restore 9
 174              	.LVL19:
 175 0108 03390101 		ld	s2,16(sp)
 176              		.cfi_restore 18
 177              	.LVL20:
 178 010c 83398100 		ld	s3,8(sp)
 179              		.cfi_restore 19
 180              	.LVL21:
 181 0110 033A0100 		ld	s4,0(sp)
 182              		.cfi_restore 20
 183              	.LVL22:
 184 0114 13010103 		addi	sp,sp,48
 185              		.cfi_def_cfa_offset 0
 186 0118 67800000 		jr	ra
 187              		.cfi_endproc
 188              	.LFE5:
 190              		.align	2
 191              		.globl	thread_exit
 193              	thread_exit:
GAS LISTING /tmp/ccdcbteg.s 			page 5


 194              	.LFB6:
  34:src/syscall_c.cpp **** 
  35:src/syscall_c.cpp **** int thread_exit(){
 195              		.loc 1 35 18 is_stmt 1
 196              		.cfi_startproc
 197 011c 130101FF 		addi	sp,sp,-16
 198              		.cfi_def_cfa_offset 16
 199 0120 23341100 		sd	ra,8(sp)
 200 0124 23308100 		sd	s0,0(sp)
 201              		.cfi_offset 1, -8
 202              		.cfi_offset 8, -16
 203 0128 13040101 		addi	s0,sp,16
 204              		.cfi_def_cfa 8, 0
  36:src/syscall_c.cpp ****     ThreadContext *t = getRunningThreadContext();
 205              		.loc 1 36 5
 206              		.loc 1 36 47 is_stmt 0
 207 012c 97000000 		call	getRunningThreadContext@plt
 207      E7800000 
 208              	.LVL23:
  37:src/syscall_c.cpp ****     return abi_thread_exit(t);
 209              		.loc 1 37 5 is_stmt 1
 210              		.loc 1 37 27 is_stmt 0
 211 0134 97000000 		call	abi_thread_exit@plt
 211      E7800000 
 212              	.LVL24:
  38:src/syscall_c.cpp **** }
 213              		.loc 1 38 1
 214 013c 83308100 		ld	ra,8(sp)
 215              		.cfi_restore 1
 216 0140 03340100 		ld	s0,0(sp)
 217              		.cfi_restore 8
 218              		.cfi_def_cfa 2, 16
 219 0144 13010101 		addi	sp,sp,16
 220              		.cfi_def_cfa_offset 0
 221 0148 67800000 		jr	ra
 222              		.cfi_endproc
 223              	.LFE6:
 225              		.align	2
 226              		.globl	thread_dispatch
 228              	thread_dispatch:
 229              	.LFB7:
  39:src/syscall_c.cpp **** void thread_dispatch(){
 230              		.loc 1 39 23 is_stmt 1
 231              		.cfi_startproc
 232 014c 130101FF 		addi	sp,sp,-16
 233              		.cfi_def_cfa_offset 16
 234 0150 23341100 		sd	ra,8(sp)
 235 0154 23308100 		sd	s0,0(sp)
 236              		.cfi_offset 1, -8
 237              		.cfi_offset 8, -16
 238 0158 13040101 		addi	s0,sp,16
 239              		.cfi_def_cfa 8, 0
  40:src/syscall_c.cpp ****     ThreadContext *t = getRunningThreadContext();
 240              		.loc 1 40 5
 241              		.loc 1 40 47 is_stmt 0
 242 015c 97000000 		call	getRunningThreadContext@plt
 242      E7800000 
GAS LISTING /tmp/ccdcbteg.s 			page 6


 243              	.LVL25:
  41:src/syscall_c.cpp ****     abi_thread_dispatch(t);
 244              		.loc 1 41 5 is_stmt 1
 245              		.loc 1 41 24 is_stmt 0
 246 0164 97000000 		call	abi_thread_dispatch@plt
 246      E7800000 
 247              	.LVL26:
  42:src/syscall_c.cpp **** }
 248              		.loc 1 42 1
 249 016c 83308100 		ld	ra,8(sp)
 250              		.cfi_restore 1
 251 0170 03340100 		ld	s0,0(sp)
 252              		.cfi_restore 8
 253              		.cfi_def_cfa 2, 16
 254 0174 13010101 		addi	sp,sp,16
 255              		.cfi_def_cfa_offset 0
 256 0178 67800000 		jr	ra
 257              		.cfi_endproc
 258              	.LFE7:
 260              		.align	2
 261              		.globl	mem_get_free_space
 263              	mem_get_free_space:
 264              	.LFB8:
  43:src/syscall_c.cpp **** size_t mem_get_free_space(){
 265              		.loc 1 43 28 is_stmt 1
 266              		.cfi_startproc
 267 017c 130101FF 		addi	sp,sp,-16
 268              		.cfi_def_cfa_offset 16
 269 0180 23341100 		sd	ra,8(sp)
 270 0184 23308100 		sd	s0,0(sp)
 271              		.cfi_offset 1, -8
 272              		.cfi_offset 8, -16
 273 0188 13040101 		addi	s0,sp,16
 274              		.cfi_def_cfa 8, 0
  44:src/syscall_c.cpp ****     return abi_mem_get_free_space();
 275              		.loc 1 44 5
 276              		.loc 1 44 34 is_stmt 0
 277 018c 97000000 		call	abi_mem_get_free_space@plt
 277      E7800000 
 278              	.LVL27:
  45:src/syscall_c.cpp **** }
 279              		.loc 1 45 1
 280 0194 83308100 		ld	ra,8(sp)
 281              		.cfi_restore 1
 282 0198 03340100 		ld	s0,0(sp)
 283              		.cfi_restore 8
 284              		.cfi_def_cfa 2, 16
 285 019c 13010101 		addi	sp,sp,16
 286              		.cfi_def_cfa_offset 0
 287 01a0 67800000 		jr	ra
 288              		.cfi_endproc
 289              	.LFE8:
 291              		.align	2
 292              		.globl	mem_get_largest_free_block
 294              	mem_get_largest_free_block:
 295              	.LFB9:
  46:src/syscall_c.cpp **** size_t mem_get_largest_free_block(){
GAS LISTING /tmp/ccdcbteg.s 			page 7


 296              		.loc 1 46 36 is_stmt 1
 297              		.cfi_startproc
 298 01a4 130101FF 		addi	sp,sp,-16
 299              		.cfi_def_cfa_offset 16
 300 01a8 23341100 		sd	ra,8(sp)
 301 01ac 23308100 		sd	s0,0(sp)
 302              		.cfi_offset 1, -8
 303              		.cfi_offset 8, -16
 304 01b0 13040101 		addi	s0,sp,16
 305              		.cfi_def_cfa 8, 0
  47:src/syscall_c.cpp ****     return abi_mem_get_largest_free_block();
 306              		.loc 1 47 5
 307              		.loc 1 47 42 is_stmt 0
 308 01b4 97000000 		call	abi_mem_get_largest_free_block@plt
 308      E7800000 
 309              	.LVL28:
  48:src/syscall_c.cpp **** }
 310              		.loc 1 48 1
 311 01bc 83308100 		ld	ra,8(sp)
 312              		.cfi_restore 1
 313 01c0 03340100 		ld	s0,0(sp)
 314              		.cfi_restore 8
 315              		.cfi_def_cfa 2, 16
 316 01c4 13010101 		addi	sp,sp,16
 317              		.cfi_def_cfa_offset 0
 318 01c8 67800000 		jr	ra
 319              		.cfi_endproc
 320              	.LFE9:
 322              		.align	2
 323              		.globl	sem_open
 325              	sem_open:
 326              	.LFB10:
  49:src/syscall_c.cpp **** 
  50:src/syscall_c.cpp **** int sem_open(sem_t* handle, unsigned init){
 327              		.loc 1 50 43 is_stmt 1
 328              		.cfi_startproc
 329              	.LVL29:
 330 01cc 130101FE 		addi	sp,sp,-32
 331              		.cfi_def_cfa_offset 32
 332 01d0 233C1100 		sd	ra,24(sp)
 333 01d4 23388100 		sd	s0,16(sp)
 334 01d8 23349100 		sd	s1,8(sp)
 335 01dc 23302101 		sd	s2,0(sp)
 336              		.cfi_offset 1, -8
 337              		.cfi_offset 8, -16
 338              		.cfi_offset 9, -24
 339              		.cfi_offset 18, -32
 340 01e0 13040102 		addi	s0,sp,32
 341              		.cfi_def_cfa 8, 0
 342 01e4 93040500 		mv	s1,a0
 343 01e8 13890500 		mv	s2,a1
  51:src/syscall_c.cpp ****     ThreadContext *t = getRunningThreadContext();
 344              		.loc 1 51 5
 345              		.loc 1 51 47 is_stmt 0
 346 01ec 97000000 		call	getRunningThreadContext@plt
 346      E7800000 
 347              	.LVL30:
GAS LISTING /tmp/ccdcbteg.s 			page 8


  52:src/syscall_c.cpp ****     return abi_sem_open(t, handle, init);
 348              		.loc 1 52 5 is_stmt 1
 349              		.loc 1 52 24 is_stmt 0
 350 01f4 13060900 		mv	a2,s2
 351 01f8 93850400 		mv	a1,s1
 352 01fc 97000000 		call	abi_sem_open@plt
 352      E7800000 
 353              	.LVL31:
  53:src/syscall_c.cpp **** }
 354              		.loc 1 53 1
 355 0204 83308101 		ld	ra,24(sp)
 356              		.cfi_restore 1
 357 0208 03340101 		ld	s0,16(sp)
 358              		.cfi_restore 8
 359              		.cfi_def_cfa 2, 32
 360 020c 83348100 		ld	s1,8(sp)
 361              		.cfi_restore 9
 362              	.LVL32:
 363 0210 03390100 		ld	s2,0(sp)
 364              		.cfi_restore 18
 365 0214 13010102 		addi	sp,sp,32
 366              		.cfi_def_cfa_offset 0
 367 0218 67800000 		jr	ra
 368              		.cfi_endproc
 369              	.LFE10:
 371              		.align	2
 372              		.globl	sem_wait
 374              	sem_wait:
 375              	.LFB11:
  54:src/syscall_c.cpp **** 
  55:src/syscall_c.cpp **** int sem_wait(sem_t id){
 376              		.loc 1 55 23 is_stmt 1
 377              		.cfi_startproc
 378              	.LVL33:
 379 021c 130101FE 		addi	sp,sp,-32
 380              		.cfi_def_cfa_offset 32
 381 0220 233C1100 		sd	ra,24(sp)
 382 0224 23388100 		sd	s0,16(sp)
 383 0228 23349100 		sd	s1,8(sp)
 384              		.cfi_offset 1, -8
 385              		.cfi_offset 8, -16
 386              		.cfi_offset 9, -24
 387 022c 13040102 		addi	s0,sp,32
 388              		.cfi_def_cfa 8, 0
 389 0230 93040500 		mv	s1,a0
  56:src/syscall_c.cpp ****     ThreadContext *t = getRunningThreadContext();
 390              		.loc 1 56 5
 391              		.loc 1 56 47 is_stmt 0
 392 0234 97000000 		call	getRunningThreadContext@plt
 392      E7800000 
 393              	.LVL34:
  57:src/syscall_c.cpp ****     abi_sem_wait(t, id);
 394              		.loc 1 57 5 is_stmt 1
 395              		.loc 1 57 17 is_stmt 0
 396 023c 93850400 		mv	a1,s1
 397 0240 97000000 		call	abi_sem_wait@plt
 397      E7800000 
GAS LISTING /tmp/ccdcbteg.s 			page 9


 398              	.LVL35:
  58:src/syscall_c.cpp ****     int status = getWaitStatusForRunning();
 399              		.loc 1 58 5 is_stmt 1
 400              		.loc 1 58 41 is_stmt 0
 401 0248 97000000 		call	_Z23getWaitStatusForRunningv@plt
 401      E7800000 
 402              	.LVL36:
  59:src/syscall_c.cpp ****     return status;
 403              		.loc 1 59 5 is_stmt 1
  60:src/syscall_c.cpp **** }
 404              		.loc 1 60 1 is_stmt 0
 405 0250 83308101 		ld	ra,24(sp)
 406              		.cfi_restore 1
 407 0254 03340101 		ld	s0,16(sp)
 408              		.cfi_restore 8
 409              		.cfi_def_cfa 2, 32
 410 0258 83348100 		ld	s1,8(sp)
 411              		.cfi_restore 9
 412 025c 13010102 		addi	sp,sp,32
 413              		.cfi_def_cfa_offset 0
 414 0260 67800000 		jr	ra
 415              		.cfi_endproc
 416              	.LFE11:
 418              		.align	2
 419              		.globl	sem_signal
 421              	sem_signal:
 422              	.LFB12:
  61:src/syscall_c.cpp **** 
  62:src/syscall_c.cpp **** int sem_signal(sem_t id){
 423              		.loc 1 62 25 is_stmt 1
 424              		.cfi_startproc
 425              	.LVL37:
 426 0264 130101FE 		addi	sp,sp,-32
 427              		.cfi_def_cfa_offset 32
 428 0268 233C1100 		sd	ra,24(sp)
 429 026c 23388100 		sd	s0,16(sp)
 430 0270 23349100 		sd	s1,8(sp)
 431              		.cfi_offset 1, -8
 432              		.cfi_offset 8, -16
 433              		.cfi_offset 9, -24
 434 0274 13040102 		addi	s0,sp,32
 435              		.cfi_def_cfa 8, 0
 436 0278 93040500 		mv	s1,a0
  63:src/syscall_c.cpp ****     ThreadContext* t = getRunningThreadContext();
 437              		.loc 1 63 5
 438              		.loc 1 63 47 is_stmt 0
 439 027c 97000000 		call	getRunningThreadContext@plt
 439      E7800000 
 440              	.LVL38:
  64:src/syscall_c.cpp ****     return abi_sem_signal(t, id);
 441              		.loc 1 64 5 is_stmt 1
 442              		.loc 1 64 26 is_stmt 0
 443 0284 93850400 		mv	a1,s1
 444 0288 97000000 		call	abi_sem_signal@plt
 444      E7800000 
 445              	.LVL39:
  65:src/syscall_c.cpp **** }
GAS LISTING /tmp/ccdcbteg.s 			page 10


 446              		.loc 1 65 1
 447 0290 83308101 		ld	ra,24(sp)
 448              		.cfi_restore 1
 449 0294 03340101 		ld	s0,16(sp)
 450              		.cfi_restore 8
 451              		.cfi_def_cfa 2, 32
 452 0298 83348100 		ld	s1,8(sp)
 453              		.cfi_restore 9
 454 029c 13010102 		addi	sp,sp,32
 455              		.cfi_def_cfa_offset 0
 456 02a0 67800000 		jr	ra
 457              		.cfi_endproc
 458              	.LFE12:
 460              		.align	2
 461              		.globl	sem_close
 463              	sem_close:
 464              	.LFB13:
  66:src/syscall_c.cpp **** 
  67:src/syscall_c.cpp **** int sem_close(sem_t id){
 465              		.loc 1 67 24 is_stmt 1
 466              		.cfi_startproc
 467              	.LVL40:
 468 02a4 130101FE 		addi	sp,sp,-32
 469              		.cfi_def_cfa_offset 32
 470 02a8 233C1100 		sd	ra,24(sp)
 471 02ac 23388100 		sd	s0,16(sp)
 472 02b0 23349100 		sd	s1,8(sp)
 473              		.cfi_offset 1, -8
 474              		.cfi_offset 8, -16
 475              		.cfi_offset 9, -24
 476 02b4 13040102 		addi	s0,sp,32
 477              		.cfi_def_cfa 8, 0
 478 02b8 93040500 		mv	s1,a0
  68:src/syscall_c.cpp ****     ThreadContext* t = getRunningThreadContext();
 479              		.loc 1 68 5
 480              		.loc 1 68 47 is_stmt 0
 481 02bc 97000000 		call	getRunningThreadContext@plt
 481      E7800000 
 482              	.LVL41:
  69:src/syscall_c.cpp ****     return abi_sem_close(t, id);
 483              		.loc 1 69 5 is_stmt 1
 484              		.loc 1 69 25 is_stmt 0
 485 02c4 93850400 		mv	a1,s1
 486 02c8 97000000 		call	abi_sem_close@plt
 486      E7800000 
 487              	.LVL42:
  70:src/syscall_c.cpp **** }
 488              		.loc 1 70 1
 489 02d0 83308101 		ld	ra,24(sp)
 490              		.cfi_restore 1
 491 02d4 03340101 		ld	s0,16(sp)
 492              		.cfi_restore 8
 493              		.cfi_def_cfa 2, 32
 494 02d8 83348100 		ld	s1,8(sp)
 495              		.cfi_restore 9
 496 02dc 13010102 		addi	sp,sp,32
 497              		.cfi_def_cfa_offset 0
GAS LISTING /tmp/ccdcbteg.s 			page 11


 498 02e0 67800000 		jr	ra
 499              		.cfi_endproc
 500              	.LFE13:
 502              		.align	2
 503              		.globl	getc
 505              	getc:
 506              	.LFB14:
  71:src/syscall_c.cpp **** 
  72:src/syscall_c.cpp **** char getc () {
 507              		.loc 1 72 14 is_stmt 1
 508              		.cfi_startproc
 509 02e4 130101FF 		addi	sp,sp,-16
 510              		.cfi_def_cfa_offset 16
 511 02e8 23341100 		sd	ra,8(sp)
 512 02ec 23308100 		sd	s0,0(sp)
 513              		.cfi_offset 1, -8
 514              		.cfi_offset 8, -16
 515 02f0 13040101 		addi	s0,sp,16
 516              		.cfi_def_cfa 8, 0
  73:src/syscall_c.cpp **** 
  74:src/syscall_c.cpp ****     ThreadContext* t = getRunningThreadContext();
 517              		.loc 1 74 5
 518              		.loc 1 74 47 is_stmt 0
 519 02f4 97000000 		call	getRunningThreadContext@plt
 519      E7800000 
 520              	.LVL43:
  75:src/syscall_c.cpp ****     return abi_getc(t);
 521              		.loc 1 75 5 is_stmt 1
 522              		.loc 1 75 20 is_stmt 0
 523 02fc 97000000 		call	abi_getc@plt
 523      E7800000 
 524              	.LVL44:
  76:src/syscall_c.cpp **** }
 525              		.loc 1 76 1
 526 0304 83308100 		ld	ra,8(sp)
 527              		.cfi_restore 1
 528 0308 03340100 		ld	s0,0(sp)
 529              		.cfi_restore 8
 530              		.cfi_def_cfa 2, 16
 531 030c 13010101 		addi	sp,sp,16
 532              		.cfi_def_cfa_offset 0
 533 0310 67800000 		jr	ra
 534              		.cfi_endproc
 535              	.LFE14:
 537              		.align	2
 538              		.globl	putc
 540              	putc:
 541              	.LFB15:
  77:src/syscall_c.cpp **** 
  78:src/syscall_c.cpp **** void putc (char c){
 542              		.loc 1 78 19 is_stmt 1
 543              		.cfi_startproc
 544              	.LVL45:
 545 0314 130101FE 		addi	sp,sp,-32
 546              		.cfi_def_cfa_offset 32
 547 0318 233C1100 		sd	ra,24(sp)
 548 031c 23388100 		sd	s0,16(sp)
GAS LISTING /tmp/ccdcbteg.s 			page 12


 549 0320 23349100 		sd	s1,8(sp)
 550              		.cfi_offset 1, -8
 551              		.cfi_offset 8, -16
 552              		.cfi_offset 9, -24
 553 0324 13040102 		addi	s0,sp,32
 554              		.cfi_def_cfa 8, 0
 555 0328 93040500 		mv	s1,a0
  79:src/syscall_c.cpp ****     ThreadContext* t = getRunningThreadContext();
 556              		.loc 1 79 5
 557              		.loc 1 79 47 is_stmt 0
 558 032c 97000000 		call	getRunningThreadContext@plt
 558      E7800000 
 559              	.LVL46:
  80:src/syscall_c.cpp ****     abi_putc(t, c);
 560              		.loc 1 80 5 is_stmt 1
 561              		.loc 1 80 13 is_stmt 0
 562 0334 93850400 		mv	a1,s1
 563 0338 97000000 		call	abi_putc@plt
 563      E7800000 
 564              	.LVL47:
  81:src/syscall_c.cpp **** }
 565              		.loc 1 81 1
 566 0340 83308101 		ld	ra,24(sp)
 567              		.cfi_restore 1
 568 0344 03340101 		ld	s0,16(sp)
 569              		.cfi_restore 8
 570              		.cfi_def_cfa 2, 32
 571 0348 83348100 		ld	s1,8(sp)
 572              		.cfi_restore 9
 573 034c 13010102 		addi	sp,sp,32
 574              		.cfi_def_cfa_offset 0
 575 0350 67800000 		jr	ra
 576              		.cfi_endproc
 577              	.LFE15:
 579              		.align	2
 580              		.globl	time_sleep
 582              	time_sleep:
 583              	.LFB16:
  82:src/syscall_c.cpp **** 
  83:src/syscall_c.cpp **** void time_sleep(time_t slice){
 584              		.loc 1 83 30 is_stmt 1
 585              		.cfi_startproc
 586              	.LVL48:
 587 0354 130101FE 		addi	sp,sp,-32
 588              		.cfi_def_cfa_offset 32
 589 0358 233C1100 		sd	ra,24(sp)
 590 035c 23388100 		sd	s0,16(sp)
 591 0360 23349100 		sd	s1,8(sp)
 592              		.cfi_offset 1, -8
 593              		.cfi_offset 8, -16
 594              		.cfi_offset 9, -24
 595 0364 13040102 		addi	s0,sp,32
 596              		.cfi_def_cfa 8, 0
 597 0368 93040500 		mv	s1,a0
  84:src/syscall_c.cpp ****     ThreadContext *t = getRunningThreadContext();
 598              		.loc 1 84 5
 599              		.loc 1 84 47 is_stmt 0
GAS LISTING /tmp/ccdcbteg.s 			page 13


 600 036c 97000000 		call	getRunningThreadContext@plt
 600      E7800000 
 601              	.LVL49:
  85:src/syscall_c.cpp ****     abi_time_sleep(t, slice);
 602              		.loc 1 85 5 is_stmt 1
 603              		.loc 1 85 19 is_stmt 0
 604 0374 93850400 		mv	a1,s1
 605 0378 97000000 		call	abi_time_sleep@plt
 605      E7800000 
 606              	.LVL50:
  86:src/syscall_c.cpp **** }
 607              		.loc 1 86 1
 608 0380 83308101 		ld	ra,24(sp)
 609              		.cfi_restore 1
 610 0384 03340101 		ld	s0,16(sp)
 611              		.cfi_restore 8
 612              		.cfi_def_cfa 2, 32
 613 0388 83348100 		ld	s1,8(sp)
 614              		.cfi_restore 9
 615              	.LVL51:
 616 038c 13010102 		addi	sp,sp,32
 617              		.cfi_def_cfa_offset 0
 618 0390 67800000 		jr	ra
 619              		.cfi_endproc
 620              	.LFE16:
 622              	.Letext0:
 623              		.file 2 "src/../h/../lib/hw.h"
 624              		.file 3 "src/../h/memory_structs.h"
 625              		.file 4 "src/../h/abi.h"
GAS LISTING /tmp/ccdcbteg.s 			page 14


DEFINED SYMBOLS
                            *ABS*:0000000000000000 syscall_c.cpp
     /tmp/ccdcbteg.s:9      .text:0000000000000000 mem_alloc
     /tmp/ccdcbteg.s:13     .text:0000000000000000 .L0 
     /tmp/ccdcbteg.s:15     .text:0000000000000000 .L0 
     /tmp/ccdcbteg.s:16     .text:0000000000000004 .L0 
     /tmp/ccdcbteg.s:20     .text:0000000000000010 .L0 
     /tmp/ccdcbteg.s:21     .text:0000000000000010 .L0 
     /tmp/ccdcbteg.s:22     .text:0000000000000010 .L0 
     /tmp/ccdcbteg.s:24     .text:0000000000000014 .L0 
     /tmp/ccdcbteg.s:26     .text:0000000000000014 .L0 
     /tmp/ccdcbteg.s:27     .text:0000000000000014 .L0 
     /tmp/ccdcbteg.s:29     .text:0000000000000018 .L0 
     /tmp/ccdcbteg.s:32     .text:000000000000001c .L0 
     /tmp/ccdcbteg.s:33     .text:000000000000001c .L0 
     /tmp/ccdcbteg.s:36     .text:0000000000000024 .L0 
     /tmp/ccdcbteg.s:37     .text:0000000000000024 .L0 
     /tmp/ccdcbteg.s:41     .text:0000000000000030 .L0 
     /tmp/ccdcbteg.s:43     .text:0000000000000038 .L0 
     /tmp/ccdcbteg.s:45     .text:000000000000003c .L0 
     /tmp/ccdcbteg.s:46     .text:000000000000003c .L0 
     /tmp/ccdcbteg.s:48     .text:0000000000000040 .L0 
     /tmp/ccdcbteg.s:51     .text:0000000000000044 .L0 
     /tmp/ccdcbteg.s:53     .text:0000000000000048 .L0 
     /tmp/ccdcbteg.s:59     .text:0000000000000048 mem_free
     /tmp/ccdcbteg.s:62     .text:0000000000000048 .L0 
     /tmp/ccdcbteg.s:64     .text:0000000000000048 .L0 
     /tmp/ccdcbteg.s:65     .text:0000000000000048 .L0 
     /tmp/ccdcbteg.s:67     .text:000000000000004c .L0 
     /tmp/ccdcbteg.s:68     .text:0000000000000050 .L0 
     /tmp/ccdcbteg.s:72     .text:000000000000005c .L0 
     /tmp/ccdcbteg.s:73     .text:000000000000005c .L0 
     /tmp/ccdcbteg.s:74     .text:000000000000005c .L0 
     /tmp/ccdcbteg.s:76     .text:0000000000000060 .L0 
     /tmp/ccdcbteg.s:78     .text:0000000000000060 .L0 
     /tmp/ccdcbteg.s:79     .text:0000000000000060 .L0 
     /tmp/ccdcbteg.s:82     .text:0000000000000064 .L0 
     /tmp/ccdcbteg.s:83     .text:0000000000000064 .L0 
     /tmp/ccdcbteg.s:86     .text:000000000000006c .L0 
     /tmp/ccdcbteg.s:87     .text:000000000000006c .L0 
     /tmp/ccdcbteg.s:91     .text:0000000000000078 .L0 
     /tmp/ccdcbteg.s:92     .text:000000000000007c .L0 
     /tmp/ccdcbteg.s:94     .text:0000000000000080 .L0 
     /tmp/ccdcbteg.s:95     .text:0000000000000080 .L0 
     /tmp/ccdcbteg.s:97     .text:0000000000000084 .L0 
     /tmp/ccdcbteg.s:100    .text:0000000000000088 .L0 
     /tmp/ccdcbteg.s:105    .text:000000000000008c .L0 
     /tmp/ccdcbteg.s:108    .text:0000000000000090 .L0 
     /tmp/ccdcbteg.s:109    .text:0000000000000094 .L0 
     /tmp/ccdcbteg.s:115    .text:0000000000000094 thread_create
     /tmp/ccdcbteg.s:118    .text:0000000000000094 .L0 
     /tmp/ccdcbteg.s:120    .text:0000000000000094 .L0 
     /tmp/ccdcbteg.s:121    .text:0000000000000098 .L0 
     /tmp/ccdcbteg.s:128    .text:00000000000000b0 .L0 
     /tmp/ccdcbteg.s:129    .text:00000000000000b0 .L0 
     /tmp/ccdcbteg.s:130    .text:00000000000000b0 .L0 
     /tmp/ccdcbteg.s:131    .text:00000000000000b0 .L0 
GAS LISTING /tmp/ccdcbteg.s 			page 15


     /tmp/ccdcbteg.s:132    .text:00000000000000b0 .L0 
     /tmp/ccdcbteg.s:133    .text:00000000000000b0 .L0 
     /tmp/ccdcbteg.s:135    .text:00000000000000b4 .L0 
     /tmp/ccdcbteg.s:141    .text:00000000000000c0 .L0 
     /tmp/ccdcbteg.s:142    .text:00000000000000c0 .L0 
     /tmp/ccdcbteg.s:143    .text:00000000000000c0 .L0 
     /tmp/ccdcbteg.s:148    .text:00000000000000cc .L0 
     /tmp/ccdcbteg.s:149    .text:00000000000000cc .L0 
     /tmp/ccdcbteg.s:153    .text:00000000000000d8 .L0 
     /tmp/ccdcbteg.s:154    .text:00000000000000d8 .L0 
     /tmp/ccdcbteg.s:155    .text:00000000000000d8 .L0 
     /tmp/ccdcbteg.s:156    .text:00000000000000d8 .L0 
     /tmp/ccdcbteg.s:167    .text:00000000000000fc .L0 
     /tmp/ccdcbteg.s:168    .text:0000000000000100 .L0 
     /tmp/ccdcbteg.s:170    .text:0000000000000104 .L0 
     /tmp/ccdcbteg.s:171    .text:0000000000000104 .L0 
     /tmp/ccdcbteg.s:173    .text:0000000000000108 .L0 
     /tmp/ccdcbteg.s:176    .text:000000000000010c .L0 
     /tmp/ccdcbteg.s:179    .text:0000000000000110 .L0 
     /tmp/ccdcbteg.s:182    .text:0000000000000114 .L0 
     /tmp/ccdcbteg.s:185    .text:0000000000000118 .L0 
     /tmp/ccdcbteg.s:187    .text:000000000000011c .L0 
     /tmp/ccdcbteg.s:193    .text:000000000000011c thread_exit
     /tmp/ccdcbteg.s:196    .text:000000000000011c .L0 
     /tmp/ccdcbteg.s:197    .text:000000000000011c .L0 
     /tmp/ccdcbteg.s:198    .text:0000000000000120 .L0 
     /tmp/ccdcbteg.s:201    .text:0000000000000128 .L0 
     /tmp/ccdcbteg.s:202    .text:0000000000000128 .L0 
     /tmp/ccdcbteg.s:204    .text:000000000000012c .L0 
     /tmp/ccdcbteg.s:206    .text:000000000000012c .L0 
     /tmp/ccdcbteg.s:207    .text:000000000000012c .L0 
     /tmp/ccdcbteg.s:210    .text:0000000000000134 .L0 
     /tmp/ccdcbteg.s:211    .text:0000000000000134 .L0 
     /tmp/ccdcbteg.s:214    .text:000000000000013c .L0 
     /tmp/ccdcbteg.s:215    .text:0000000000000140 .L0 
     /tmp/ccdcbteg.s:217    .text:0000000000000144 .L0 
     /tmp/ccdcbteg.s:218    .text:0000000000000144 .L0 
     /tmp/ccdcbteg.s:220    .text:0000000000000148 .L0 
     /tmp/ccdcbteg.s:222    .text:000000000000014c .L0 
     /tmp/ccdcbteg.s:228    .text:000000000000014c thread_dispatch
     /tmp/ccdcbteg.s:231    .text:000000000000014c .L0 
     /tmp/ccdcbteg.s:232    .text:000000000000014c .L0 
     /tmp/ccdcbteg.s:233    .text:0000000000000150 .L0 
     /tmp/ccdcbteg.s:236    .text:0000000000000158 .L0 
     /tmp/ccdcbteg.s:237    .text:0000000000000158 .L0 
     /tmp/ccdcbteg.s:239    .text:000000000000015c .L0 
     /tmp/ccdcbteg.s:241    .text:000000000000015c .L0 
     /tmp/ccdcbteg.s:242    .text:000000000000015c .L0 
     /tmp/ccdcbteg.s:245    .text:0000000000000164 .L0 
     /tmp/ccdcbteg.s:246    .text:0000000000000164 .L0 
     /tmp/ccdcbteg.s:249    .text:000000000000016c .L0 
     /tmp/ccdcbteg.s:250    .text:0000000000000170 .L0 
     /tmp/ccdcbteg.s:252    .text:0000000000000174 .L0 
     /tmp/ccdcbteg.s:253    .text:0000000000000174 .L0 
     /tmp/ccdcbteg.s:255    .text:0000000000000178 .L0 
     /tmp/ccdcbteg.s:257    .text:000000000000017c .L0 
     /tmp/ccdcbteg.s:263    .text:000000000000017c mem_get_free_space
GAS LISTING /tmp/ccdcbteg.s 			page 16


     /tmp/ccdcbteg.s:266    .text:000000000000017c .L0 
     /tmp/ccdcbteg.s:267    .text:000000000000017c .L0 
     /tmp/ccdcbteg.s:268    .text:0000000000000180 .L0 
     /tmp/ccdcbteg.s:271    .text:0000000000000188 .L0 
     /tmp/ccdcbteg.s:272    .text:0000000000000188 .L0 
     /tmp/ccdcbteg.s:274    .text:000000000000018c .L0 
     /tmp/ccdcbteg.s:276    .text:000000000000018c .L0 
     /tmp/ccdcbteg.s:277    .text:000000000000018c .L0 
     /tmp/ccdcbteg.s:280    .text:0000000000000194 .L0 
     /tmp/ccdcbteg.s:281    .text:0000000000000198 .L0 
     /tmp/ccdcbteg.s:283    .text:000000000000019c .L0 
     /tmp/ccdcbteg.s:284    .text:000000000000019c .L0 
     /tmp/ccdcbteg.s:286    .text:00000000000001a0 .L0 
     /tmp/ccdcbteg.s:288    .text:00000000000001a4 .L0 
     /tmp/ccdcbteg.s:294    .text:00000000000001a4 mem_get_largest_free_block
     /tmp/ccdcbteg.s:297    .text:00000000000001a4 .L0 
     /tmp/ccdcbteg.s:298    .text:00000000000001a4 .L0 
     /tmp/ccdcbteg.s:299    .text:00000000000001a8 .L0 
     /tmp/ccdcbteg.s:302    .text:00000000000001b0 .L0 
     /tmp/ccdcbteg.s:303    .text:00000000000001b0 .L0 
     /tmp/ccdcbteg.s:305    .text:00000000000001b4 .L0 
     /tmp/ccdcbteg.s:307    .text:00000000000001b4 .L0 
     /tmp/ccdcbteg.s:308    .text:00000000000001b4 .L0 
     /tmp/ccdcbteg.s:311    .text:00000000000001bc .L0 
     /tmp/ccdcbteg.s:312    .text:00000000000001c0 .L0 
     /tmp/ccdcbteg.s:314    .text:00000000000001c4 .L0 
     /tmp/ccdcbteg.s:315    .text:00000000000001c4 .L0 
     /tmp/ccdcbteg.s:317    .text:00000000000001c8 .L0 
     /tmp/ccdcbteg.s:319    .text:00000000000001cc .L0 
     /tmp/ccdcbteg.s:325    .text:00000000000001cc sem_open
     /tmp/ccdcbteg.s:328    .text:00000000000001cc .L0 
     /tmp/ccdcbteg.s:330    .text:00000000000001cc .L0 
     /tmp/ccdcbteg.s:331    .text:00000000000001d0 .L0 
     /tmp/ccdcbteg.s:336    .text:00000000000001e0 .L0 
     /tmp/ccdcbteg.s:337    .text:00000000000001e0 .L0 
     /tmp/ccdcbteg.s:338    .text:00000000000001e0 .L0 
     /tmp/ccdcbteg.s:339    .text:00000000000001e0 .L0 
     /tmp/ccdcbteg.s:341    .text:00000000000001e4 .L0 
     /tmp/ccdcbteg.s:345    .text:00000000000001ec .L0 
     /tmp/ccdcbteg.s:346    .text:00000000000001ec .L0 
     /tmp/ccdcbteg.s:349    .text:00000000000001f4 .L0 
     /tmp/ccdcbteg.s:350    .text:00000000000001f4 .L0 
     /tmp/ccdcbteg.s:355    .text:0000000000000204 .L0 
     /tmp/ccdcbteg.s:356    .text:0000000000000208 .L0 
     /tmp/ccdcbteg.s:358    .text:000000000000020c .L0 
     /tmp/ccdcbteg.s:359    .text:000000000000020c .L0 
     /tmp/ccdcbteg.s:361    .text:0000000000000210 .L0 
     /tmp/ccdcbteg.s:364    .text:0000000000000214 .L0 
     /tmp/ccdcbteg.s:366    .text:0000000000000218 .L0 
     /tmp/ccdcbteg.s:368    .text:000000000000021c .L0 
     /tmp/ccdcbteg.s:374    .text:000000000000021c sem_wait
     /tmp/ccdcbteg.s:377    .text:000000000000021c .L0 
     /tmp/ccdcbteg.s:379    .text:000000000000021c .L0 
     /tmp/ccdcbteg.s:380    .text:0000000000000220 .L0 
     /tmp/ccdcbteg.s:384    .text:000000000000022c .L0 
     /tmp/ccdcbteg.s:385    .text:000000000000022c .L0 
     /tmp/ccdcbteg.s:386    .text:000000000000022c .L0 
GAS LISTING /tmp/ccdcbteg.s 			page 17


     /tmp/ccdcbteg.s:388    .text:0000000000000230 .L0 
     /tmp/ccdcbteg.s:391    .text:0000000000000234 .L0 
     /tmp/ccdcbteg.s:392    .text:0000000000000234 .L0 
     /tmp/ccdcbteg.s:395    .text:000000000000023c .L0 
     /tmp/ccdcbteg.s:396    .text:000000000000023c .L0 
     /tmp/ccdcbteg.s:400    .text:0000000000000248 .L0 
     /tmp/ccdcbteg.s:401    .text:0000000000000248 .L0 
     /tmp/ccdcbteg.s:404    .text:0000000000000250 .L0 
     /tmp/ccdcbteg.s:405    .text:0000000000000250 .L0 
     /tmp/ccdcbteg.s:406    .text:0000000000000254 .L0 
     /tmp/ccdcbteg.s:408    .text:0000000000000258 .L0 
     /tmp/ccdcbteg.s:409    .text:0000000000000258 .L0 
     /tmp/ccdcbteg.s:411    .text:000000000000025c .L0 
     /tmp/ccdcbteg.s:413    .text:0000000000000260 .L0 
     /tmp/ccdcbteg.s:415    .text:0000000000000264 .L0 
     /tmp/ccdcbteg.s:421    .text:0000000000000264 sem_signal
     /tmp/ccdcbteg.s:424    .text:0000000000000264 .L0 
     /tmp/ccdcbteg.s:426    .text:0000000000000264 .L0 
     /tmp/ccdcbteg.s:427    .text:0000000000000268 .L0 
     /tmp/ccdcbteg.s:431    .text:0000000000000274 .L0 
     /tmp/ccdcbteg.s:432    .text:0000000000000274 .L0 
     /tmp/ccdcbteg.s:433    .text:0000000000000274 .L0 
     /tmp/ccdcbteg.s:435    .text:0000000000000278 .L0 
     /tmp/ccdcbteg.s:438    .text:000000000000027c .L0 
     /tmp/ccdcbteg.s:439    .text:000000000000027c .L0 
     /tmp/ccdcbteg.s:442    .text:0000000000000284 .L0 
     /tmp/ccdcbteg.s:443    .text:0000000000000284 .L0 
     /tmp/ccdcbteg.s:447    .text:0000000000000290 .L0 
     /tmp/ccdcbteg.s:448    .text:0000000000000294 .L0 
     /tmp/ccdcbteg.s:450    .text:0000000000000298 .L0 
     /tmp/ccdcbteg.s:451    .text:0000000000000298 .L0 
     /tmp/ccdcbteg.s:453    .text:000000000000029c .L0 
     /tmp/ccdcbteg.s:455    .text:00000000000002a0 .L0 
     /tmp/ccdcbteg.s:457    .text:00000000000002a4 .L0 
     /tmp/ccdcbteg.s:463    .text:00000000000002a4 sem_close
     /tmp/ccdcbteg.s:466    .text:00000000000002a4 .L0 
     /tmp/ccdcbteg.s:468    .text:00000000000002a4 .L0 
     /tmp/ccdcbteg.s:469    .text:00000000000002a8 .L0 
     /tmp/ccdcbteg.s:473    .text:00000000000002b4 .L0 
     /tmp/ccdcbteg.s:474    .text:00000000000002b4 .L0 
     /tmp/ccdcbteg.s:475    .text:00000000000002b4 .L0 
     /tmp/ccdcbteg.s:477    .text:00000000000002b8 .L0 
     /tmp/ccdcbteg.s:480    .text:00000000000002bc .L0 
     /tmp/ccdcbteg.s:481    .text:00000000000002bc .L0 
     /tmp/ccdcbteg.s:484    .text:00000000000002c4 .L0 
     /tmp/ccdcbteg.s:485    .text:00000000000002c4 .L0 
     /tmp/ccdcbteg.s:489    .text:00000000000002d0 .L0 
     /tmp/ccdcbteg.s:490    .text:00000000000002d4 .L0 
     /tmp/ccdcbteg.s:492    .text:00000000000002d8 .L0 
     /tmp/ccdcbteg.s:493    .text:00000000000002d8 .L0 
     /tmp/ccdcbteg.s:495    .text:00000000000002dc .L0 
     /tmp/ccdcbteg.s:497    .text:00000000000002e0 .L0 
     /tmp/ccdcbteg.s:499    .text:00000000000002e4 .L0 
     /tmp/ccdcbteg.s:505    .text:00000000000002e4 getc
     /tmp/ccdcbteg.s:508    .text:00000000000002e4 .L0 
     /tmp/ccdcbteg.s:509    .text:00000000000002e4 .L0 
     /tmp/ccdcbteg.s:510    .text:00000000000002e8 .L0 
GAS LISTING /tmp/ccdcbteg.s 			page 18


     /tmp/ccdcbteg.s:513    .text:00000000000002f0 .L0 
     /tmp/ccdcbteg.s:514    .text:00000000000002f0 .L0 
     /tmp/ccdcbteg.s:516    .text:00000000000002f4 .L0 
     /tmp/ccdcbteg.s:518    .text:00000000000002f4 .L0 
     /tmp/ccdcbteg.s:519    .text:00000000000002f4 .L0 
     /tmp/ccdcbteg.s:522    .text:00000000000002fc .L0 
     /tmp/ccdcbteg.s:523    .text:00000000000002fc .L0 
     /tmp/ccdcbteg.s:526    .text:0000000000000304 .L0 
     /tmp/ccdcbteg.s:527    .text:0000000000000308 .L0 
     /tmp/ccdcbteg.s:529    .text:000000000000030c .L0 
     /tmp/ccdcbteg.s:530    .text:000000000000030c .L0 
     /tmp/ccdcbteg.s:532    .text:0000000000000310 .L0 
     /tmp/ccdcbteg.s:534    .text:0000000000000314 .L0 
     /tmp/ccdcbteg.s:540    .text:0000000000000314 putc
     /tmp/ccdcbteg.s:543    .text:0000000000000314 .L0 
     /tmp/ccdcbteg.s:545    .text:0000000000000314 .L0 
     /tmp/ccdcbteg.s:546    .text:0000000000000318 .L0 
     /tmp/ccdcbteg.s:550    .text:0000000000000324 .L0 
     /tmp/ccdcbteg.s:551    .text:0000000000000324 .L0 
     /tmp/ccdcbteg.s:552    .text:0000000000000324 .L0 
     /tmp/ccdcbteg.s:554    .text:0000000000000328 .L0 
     /tmp/ccdcbteg.s:557    .text:000000000000032c .L0 
     /tmp/ccdcbteg.s:558    .text:000000000000032c .L0 
     /tmp/ccdcbteg.s:561    .text:0000000000000334 .L0 
     /tmp/ccdcbteg.s:562    .text:0000000000000334 .L0 
     /tmp/ccdcbteg.s:566    .text:0000000000000340 .L0 
     /tmp/ccdcbteg.s:567    .text:0000000000000344 .L0 
     /tmp/ccdcbteg.s:569    .text:0000000000000348 .L0 
     /tmp/ccdcbteg.s:570    .text:0000000000000348 .L0 
     /tmp/ccdcbteg.s:572    .text:000000000000034c .L0 
     /tmp/ccdcbteg.s:574    .text:0000000000000350 .L0 
     /tmp/ccdcbteg.s:576    .text:0000000000000354 .L0 
     /tmp/ccdcbteg.s:582    .text:0000000000000354 time_sleep
     /tmp/ccdcbteg.s:585    .text:0000000000000354 .L0 
     /tmp/ccdcbteg.s:587    .text:0000000000000354 .L0 
     /tmp/ccdcbteg.s:588    .text:0000000000000358 .L0 
     /tmp/ccdcbteg.s:592    .text:0000000000000364 .L0 
     /tmp/ccdcbteg.s:593    .text:0000000000000364 .L0 
     /tmp/ccdcbteg.s:594    .text:0000000000000364 .L0 
     /tmp/ccdcbteg.s:596    .text:0000000000000368 .L0 
     /tmp/ccdcbteg.s:599    .text:000000000000036c .L0 
     /tmp/ccdcbteg.s:600    .text:000000000000036c .L0 
     /tmp/ccdcbteg.s:603    .text:0000000000000374 .L0 
     /tmp/ccdcbteg.s:604    .text:0000000000000374 .L0 
     /tmp/ccdcbteg.s:608    .text:0000000000000380 .L0 
     /tmp/ccdcbteg.s:609    .text:0000000000000384 .L0 
     /tmp/ccdcbteg.s:611    .text:0000000000000388 .L0 
     /tmp/ccdcbteg.s:612    .text:0000000000000388 .L0 
     /tmp/ccdcbteg.s:614    .text:000000000000038c .L0 
     /tmp/ccdcbteg.s:617    .text:0000000000000390 .L0 
     /tmp/ccdcbteg.s:619    .text:0000000000000394 .L0 
     /tmp/ccdcbteg.s:626    .text:0000000000000394 .L0 
     /tmp/ccdcbteg.s:103    .text:000000000000008c .L5
     /tmp/ccdcbteg.s:1585   .debug_abbrev:0000000000000000 .Ldebug_abbrev0
     /tmp/ccdcbteg.s:2513   .debug_str:0000000000000323 .LASF74
     /tmp/ccdcbteg.s:2437   .debug_str:0000000000000150 .LASF75
     /tmp/ccdcbteg.s:2425   .debug_str:00000000000000f1 .LASF76
GAS LISTING /tmp/ccdcbteg.s 			page 19


     /tmp/ccdcbteg.s:5      .text:0000000000000000 .Ltext0
     /tmp/ccdcbteg.s:622    .text:0000000000000394 .Letext0
     /tmp/ccdcbteg.s:2379   .debug_line:0000000000000000 .Ldebug_line0
     /tmp/ccdcbteg.s:2453   .debug_str:00000000000001b4 .LASF0
     /tmp/ccdcbteg.s:2463   .debug_str:00000000000001e4 .LASF1
     /tmp/ccdcbteg.s:2443   .debug_str:0000000000000172 .LASF2
     /tmp/ccdcbteg.s:2433   .debug_str:000000000000013a .LASF4
     /tmp/ccdcbteg.s:2499   .debug_str:00000000000002ca .LASF3
     /tmp/ccdcbteg.s:2393   .debug_str:000000000000003f .LASF5
     /tmp/ccdcbteg.s:2415   .debug_str:00000000000000cb .LASF6
     /tmp/ccdcbteg.s:2381   .debug_str:0000000000000000 .LASF7
     /tmp/ccdcbteg.s:2421   .debug_str:00000000000000e2 .LASF8
     /tmp/ccdcbteg.s:2467   .debug_str:00000000000001fe .LASF9
     /tmp/ccdcbteg.s:2451   .debug_str:00000000000001a1 .LASF10
     /tmp/ccdcbteg.s:2497   .debug_str:00000000000002bc .LASF11
     /tmp/ccdcbteg.s:2523   .debug_str:0000000000000423 .LASF12
     /tmp/ccdcbteg.s:2429   .debug_str:000000000000011f .LASF13
     /tmp/ccdcbteg.s:2479   .debug_str:0000000000000241 .LASF14
     /tmp/ccdcbteg.s:2515   .debug_str:00000000000003e7 .LASF15
     /tmp/ccdcbteg.s:2395   .debug_str:0000000000000046 .LASF16
     /tmp/ccdcbteg.s:2385   .debug_str:0000000000000010 .LASF17
     /tmp/ccdcbteg.s:2401   .debug_str:000000000000006b .LASF18
     /tmp/ccdcbteg.s:2493   .debug_str:000000000000029b .LASF19
     /tmp/ccdcbteg.s:2411   .debug_str:00000000000000a7 .LASF20
     /tmp/ccdcbteg.s:2417   .debug_str:00000000000000d2 .LASF21
     /tmp/ccdcbteg.s:2403   .debug_str:0000000000000077 .LASF23
     /tmp/ccdcbteg.s:2455   .debug_str:00000000000001c1 .LASF22
     /tmp/ccdcbteg.s:2475   .debug_str:000000000000022a .LASF24
     /tmp/ccdcbteg.s:2399   .debug_str:000000000000005f .LASF25
     /tmp/ccdcbteg.s:2485   .debug_str:000000000000026a .LASF26
     /tmp/ccdcbteg.s:2481   .debug_str:0000000000000250 .LASF27
     /tmp/ccdcbteg.s:2487   .debug_str:0000000000000272 .LASF28
     /tmp/ccdcbteg.s:2461   .debug_str:00000000000001da .LASF29
     /tmp/ccdcbteg.s:2435   .debug_str:0000000000000141 .LASF30
     /tmp/ccdcbteg.s:2495   .debug_str:00000000000002b1 .LASF31
     /tmp/ccdcbteg.s:583    .text:0000000000000354 .LFB16
     /tmp/ccdcbteg.s:620    .text:0000000000000394 .LFE16
     /tmp/ccdcbteg.s:2441   .debug_str:000000000000016c .LASF33
     /tmp/ccdcbteg.s:2002   .debug_loc:0000000000000000 .LLST27
     /tmp/ccdcbteg.s:2020   .debug_loc:000000000000004c .LLST28
     /tmp/ccdcbteg.s:601    .text:0000000000000374 .LVL49
     /tmp/ccdcbteg.s:606    .text:0000000000000380 .LVL50
     /tmp/ccdcbteg.s:2447   .debug_str:000000000000018f .LASF32
     /tmp/ccdcbteg.s:541    .text:0000000000000314 .LFB15
     /tmp/ccdcbteg.s:577    .text:0000000000000354 .LFE15
     /tmp/ccdcbteg.s:2027   .debug_loc:000000000000006f .LLST25
     /tmp/ccdcbteg.s:2041   .debug_loc:00000000000000a8 .LLST26
     /tmp/ccdcbteg.s:559    .text:0000000000000334 .LVL46
     /tmp/ccdcbteg.s:564    .text:0000000000000340 .LVL47
     /tmp/ccdcbteg.s:2469   .debug_str:0000000000000211 .LASF34
     /tmp/ccdcbteg.s:2387   .debug_str:0000000000000020 .LASF35
     /tmp/ccdcbteg.s:506    .text:00000000000002e4 .LFB14
     /tmp/ccdcbteg.s:535    .text:0000000000000314 .LFE14
     /tmp/ccdcbteg.s:2048   .debug_loc:00000000000000cb .LLST24
     /tmp/ccdcbteg.s:520    .text:00000000000002fc .LVL43
     /tmp/ccdcbteg.s:524    .text:0000000000000304 .LVL44
     /tmp/ccdcbteg.s:2439   .debug_str:0000000000000162 .LASF36
GAS LISTING /tmp/ccdcbteg.s 			page 20


     /tmp/ccdcbteg.s:464    .text:00000000000002a4 .LFB13
     /tmp/ccdcbteg.s:500    .text:00000000000002e4 .LFE13
     /tmp/ccdcbteg.s:2055   .debug_loc:00000000000000ee .LLST22
     /tmp/ccdcbteg.s:2069   .debug_loc:0000000000000127 .LLST23
     /tmp/ccdcbteg.s:482    .text:00000000000002c4 .LVL41
     /tmp/ccdcbteg.s:487    .text:00000000000002d0 .LVL42
     /tmp/ccdcbteg.s:2521   .debug_str:0000000000000418 .LASF37
     /tmp/ccdcbteg.s:422    .text:0000000000000264 .LFB12
     /tmp/ccdcbteg.s:458    .text:00000000000002a4 .LFE12
     /tmp/ccdcbteg.s:2076   .debug_loc:000000000000014a .LLST20
     /tmp/ccdcbteg.s:2090   .debug_loc:0000000000000183 .LLST21
     /tmp/ccdcbteg.s:440    .text:0000000000000284 .LVL38
     /tmp/ccdcbteg.s:445    .text:0000000000000290 .LVL39
     /tmp/ccdcbteg.s:2405   .debug_str:0000000000000083 .LASF38
     /tmp/ccdcbteg.s:375    .text:000000000000021c .LFB11
     /tmp/ccdcbteg.s:416    .text:0000000000000264 .LFE11
     /tmp/ccdcbteg.s:2097   .debug_loc:00000000000001a6 .LLST18
     /tmp/ccdcbteg.s:2111   .debug_loc:00000000000001df .LLST19
     /tmp/ccdcbteg.s:2465   .debug_str:00000000000001f7 .LASF39
     /tmp/ccdcbteg.s:393    .text:000000000000023c .LVL34
     /tmp/ccdcbteg.s:398    .text:0000000000000248 .LVL35
     /tmp/ccdcbteg.s:402    .text:0000000000000250 .LVL36
     /tmp/ccdcbteg.s:2423   .debug_str:00000000000000e8 .LASF40
     /tmp/ccdcbteg.s:326    .text:00000000000001cc .LFB10
     /tmp/ccdcbteg.s:369    .text:000000000000021c .LFE10
     /tmp/ccdcbteg.s:2509   .debug_str:0000000000000317 .LASF41
     /tmp/ccdcbteg.s:2118   .debug_loc:0000000000000202 .LLST15
     /tmp/ccdcbteg.s:2471   .debug_str:0000000000000216 .LASF42
     /tmp/ccdcbteg.s:2136   .debug_loc:000000000000024e .LLST16
     /tmp/ccdcbteg.s:2150   .debug_loc:0000000000000287 .LLST17
     /tmp/ccdcbteg.s:347    .text:00000000000001f4 .LVL30
     /tmp/ccdcbteg.s:353    .text:0000000000000204 .LVL31
     /tmp/ccdcbteg.s:2525   .debug_str:0000000000000433 .LASF43
     /tmp/ccdcbteg.s:295    .text:00000000000001a4 .LFB9
     /tmp/ccdcbteg.s:320    .text:00000000000001cc .LFE9
     /tmp/ccdcbteg.s:309    .text:00000000000001bc .LVL28
     /tmp/ccdcbteg.s:2529   .debug_str:000000000000046b .LASF44
     /tmp/ccdcbteg.s:264    .text:000000000000017c .LFB8
     /tmp/ccdcbteg.s:289    .text:00000000000001a4 .LFE8
     /tmp/ccdcbteg.s:278    .text:0000000000000194 .LVL27
     /tmp/ccdcbteg.s:2427   .debug_str:000000000000010f .LASF45
     /tmp/ccdcbteg.s:229    .text:000000000000014c .LFB7
     /tmp/ccdcbteg.s:258    .text:000000000000017c .LFE7
     /tmp/ccdcbteg.s:2157   .debug_loc:00000000000002aa .LLST14
     /tmp/ccdcbteg.s:243    .text:0000000000000164 .LVL25
     /tmp/ccdcbteg.s:247    .text:000000000000016c .LVL26
     /tmp/ccdcbteg.s:2391   .debug_str:0000000000000033 .LASF46
     /tmp/ccdcbteg.s:194    .text:000000000000011c .LFB6
     /tmp/ccdcbteg.s:223    .text:000000000000014c .LFE6
     /tmp/ccdcbteg.s:2164   .debug_loc:00000000000002cd .LLST13
     /tmp/ccdcbteg.s:208    .text:0000000000000134 .LVL23
     /tmp/ccdcbteg.s:212    .text:000000000000013c .LVL24
     /tmp/ccdcbteg.s:2413   .debug_str:00000000000000bd .LASF47
     /tmp/ccdcbteg.s:116    .text:0000000000000094 .LFB5
     /tmp/ccdcbteg.s:188    .text:000000000000011c .LFE5
     /tmp/ccdcbteg.s:2171   .debug_loc:00000000000002f0 .LLST6
     /tmp/ccdcbteg.s:2431   .debug_str:000000000000012d .LASF48
GAS LISTING /tmp/ccdcbteg.s 			page 21


     /tmp/ccdcbteg.s:2189   .debug_loc:000000000000033c .LLST7
     /tmp/ccdcbteg.s:2459   .debug_str:00000000000001d5 .LASF49
     /tmp/ccdcbteg.s:2207   .debug_loc:0000000000000388 .LLST8
     /tmp/ccdcbteg.s:2225   .debug_loc:00000000000003d4 .LLST9
     /tmp/ccdcbteg.s:2383   .debug_str:0000000000000009 .LASF50
     /tmp/ccdcbteg.s:2232   .debug_loc:00000000000003f7 .LLST10
     /tmp/ccdcbteg.s:2457   .debug_str:00000000000001cf .LASF51
     /tmp/ccdcbteg.s:2245   .debug_loc:0000000000000431 .LLST11
     /tmp/ccdcbteg.s:2519   .debug_str:000000000000040e .LASF52
     /tmp/ccdcbteg.s:2260   .debug_loc:000000000000046c .LLST12
     /tmp/ccdcbteg.s:144    .text:00000000000000c8 .LVL14
     /tmp/ccdcbteg.s:151    .text:00000000000000d8 .LVL16
     /tmp/ccdcbteg.s:165    .text:00000000000000fc .LVL18
     /tmp/ccdcbteg.s:2419   .debug_str:00000000000000d9 .LASF53
     /tmp/ccdcbteg.s:60     .text:0000000000000048 .LFB4
     /tmp/ccdcbteg.s:110    .text:0000000000000094 .LFE4
     /tmp/ccdcbteg.s:2273   .debug_loc:00000000000004a6 .LLST3
     /tmp/ccdcbteg.s:2409   .debug_str:00000000000000a0 .LASF54
     /tmp/ccdcbteg.s:2304   .debug_loc:000000000000051d .LLST4
     /tmp/ccdcbteg.s:2320   .debug_loc:0000000000000558 .LLST5
     /tmp/ccdcbteg.s:84     .text:000000000000006c .LVL7
     /tmp/ccdcbteg.s:89     .text:0000000000000078 .LVL8
     /tmp/ccdcbteg.s:2501   .debug_str:00000000000002dc .LASF55
     /tmp/ccdcbteg.s:10     .text:0000000000000000 .LFB3
     /tmp/ccdcbteg.s:54     .text:0000000000000048 .LFE3
     /tmp/ccdcbteg.s:2511   .debug_str:000000000000031e .LASF56
     /tmp/ccdcbteg.s:2327   .debug_loc:000000000000057b .LLST0
     /tmp/ccdcbteg.s:2341   .debug_loc:00000000000005b4 .LLST1
     /tmp/ccdcbteg.s:2359   .debug_loc:00000000000005f1 .LLST2
     /tmp/ccdcbteg.s:34     .text:0000000000000024 .LVL2
     /tmp/ccdcbteg.s:39     .text:0000000000000030 .LVL3
     /tmp/ccdcbteg.s:2517   .debug_str:00000000000003f6 .LASF57
     /tmp/ccdcbteg.s:2445   .debug_str:0000000000000180 .LASF58
     /tmp/ccdcbteg.s:2397   .debug_str:0000000000000056 .LASF59
     /tmp/ccdcbteg.s:2505   .debug_str:00000000000002f6 .LASF60
     /tmp/ccdcbteg.s:2483   .debug_str:000000000000025c .LASF61
     /tmp/ccdcbteg.s:2473   .debug_str:000000000000021b .LASF62
     /tmp/ccdcbteg.s:2489   .debug_str:000000000000027c .LASF63
     /tmp/ccdcbteg.s:2527   .debug_str:000000000000044e .LASF64
     /tmp/ccdcbteg.s:2507   .debug_str:00000000000002ff .LASF65
     /tmp/ccdcbteg.s:2449   .debug_str:0000000000000194 .LASF66
     /tmp/ccdcbteg.s:2531   .debug_str:000000000000047e .LASF67
     /tmp/ccdcbteg.s:2533   .debug_str:000000000000049d .LASF68
     /tmp/ccdcbteg.s:2407   .debug_str:000000000000008c .LASF69
     /tmp/ccdcbteg.s:2503   .debug_str:00000000000002e6 .LASF70
     /tmp/ccdcbteg.s:2389   .debug_str:0000000000000025 .LASF71
     /tmp/ccdcbteg.s:2491   .debug_str:0000000000000289 .LASF72
     /tmp/ccdcbteg.s:2477   .debug_str:0000000000000234 .LASF73
     /tmp/ccdcbteg.s:586    .text:0000000000000354 .LVL48
     /tmp/ccdcbteg.s:615    .text:000000000000038c .LVL51
     /tmp/ccdcbteg.s:544    .text:0000000000000314 .LVL45
     /tmp/ccdcbteg.s:467    .text:00000000000002a4 .LVL40
     /tmp/ccdcbteg.s:425    .text:0000000000000264 .LVL37
     /tmp/ccdcbteg.s:378    .text:000000000000021c .LVL33
     /tmp/ccdcbteg.s:329    .text:00000000000001cc .LVL29
     /tmp/ccdcbteg.s:362    .text:0000000000000210 .LVL32
     /tmp/ccdcbteg.s:119    .text:0000000000000094 .LVL12
GAS LISTING /tmp/ccdcbteg.s 			page 22


     /tmp/ccdcbteg.s:177    .text:000000000000010c .LVL20
     /tmp/ccdcbteg.s:180    .text:0000000000000110 .LVL21
     /tmp/ccdcbteg.s:183    .text:0000000000000114 .LVL22
     /tmp/ccdcbteg.s:146    .text:00000000000000cc .LVL15
     /tmp/ccdcbteg.s:174    .text:0000000000000108 .LVL19
     /tmp/ccdcbteg.s:163    .text:00000000000000f4 .LVL17
     /tmp/ccdcbteg.s:63     .text:0000000000000048 .LVL5
     /tmp/ccdcbteg.s:98     .text:0000000000000084 .LVL9
     /tmp/ccdcbteg.s:102    .text:000000000000008c .LVL10
     /tmp/ccdcbteg.s:106    .text:0000000000000090 .LVL11
     /tmp/ccdcbteg.s:80     .text:0000000000000064 .LVL6
     /tmp/ccdcbteg.s:14     .text:0000000000000000 .LVL0
     /tmp/ccdcbteg.s:30     .text:000000000000001c .LVL1
     /tmp/ccdcbteg.s:49     .text:0000000000000040 .LVL4
     /tmp/ccdcbteg.s:627    .debug_info:0000000000000000 .Ldebug_info0

UNDEFINED SYMBOLS
getRunningThreadContext
abi_mem_alloc
abi_mem_free
abi_thread_create
abi_thread_exit
abi_thread_dispatch
abi_mem_get_free_space
abi_mem_get_largest_free_block
abi_sem_open
abi_sem_wait
_Z23getWaitStatusForRunningv
abi_sem_signal
abi_sem_close
abi_getc
abi_putc
abi_time_sleep
