GAS LISTING /tmp/ccnrE35E.s 			page 1


   1              		.file	"syscall_c.c"
   2              		.option nopic
   3              		.option norelax
   4              		.text
   5              	.Ltext0:
   6              		.cfi_sections	.debug_frame
   7              		.align	2
   8              		.globl	mem_alloc
  10              	mem_alloc:
  11              	.LFB0:
  12              		.file 1 "src/syscall_c.c"
   1:src/syscall_c.c **** #include "../h/syscall_c.h"
   2:src/syscall_c.c **** #include "../h/abi.h"
   3:src/syscall_c.c **** #include "../lib/hw.h"
   4:src/syscall_c.c **** #include "../h/memory_structs.h"
   5:src/syscall_c.c **** #include "../lib/console.h"
   6:src/syscall_c.c **** 
   7:src/syscall_c.c **** 
   8:src/syscall_c.c **** extern ThreadContext * getRunningThreadContext();
   9:src/syscall_c.c **** extern int getWaitStatusForRunning();
  10:src/syscall_c.c **** 
  11:src/syscall_c.c **** void* mem_alloc(size_t size) {
  13              		.loc 1 11 30
  14              		.cfi_startproc
  15              	.LVL0:
  16 0000 130101FE 		addi	sp,sp,-32
  17              		.cfi_def_cfa_offset 32
  18 0004 233C1100 		sd	ra,24(sp)
  19 0008 23388100 		sd	s0,16(sp)
  20 000c 23349100 		sd	s1,8(sp)
  21              		.cfi_offset 1, -8
  22              		.cfi_offset 8, -16
  23              		.cfi_offset 9, -24
  24 0010 13040102 		addi	s0,sp,32
  25              		.cfi_def_cfa 8, 0
  12:src/syscall_c.c ****     size_t numOfBlocks = (size + sizeof(Header) + MEM_BLOCK_SIZE - 1) / MEM_BLOCK_SIZE ;
  26              		.loc 1 12 5
  27              		.loc 1 12 66 is_stmt 0
  28 0014 93047504 		addi	s1,a0,71
  29              		.loc 1 12 12
  30 0018 93D46400 		srli	s1,s1,6
  31              	.LVL1:
  13:src/syscall_c.c ****     ThreadContext *t = getRunningThreadContext();
  32              		.loc 1 13 5 is_stmt 1
  33              		.loc 1 13 24 is_stmt 0
  34 001c 97000000 		call	getRunningThreadContext
  34      E7800000 
  35              	.LVL2:
  14:src/syscall_c.c ****     return (char*)abi_mem_alloc(t, numOfBlocks) + sizeof(Header);
  36              		.loc 1 14 5 is_stmt 1
  37              		.loc 1 14 19 is_stmt 0
  38 0024 93850400 		mv	a1,s1
  39 0028 97000000 		call	abi_mem_alloc
  39      E7800000 
  40              	.LVL3:
  15:src/syscall_c.c **** }
  41              		.loc 1 15 1
GAS LISTING /tmp/ccnrE35E.s 			page 2


  42 0030 13058500 		addi	a0,a0,8
  43 0034 83308101 		ld	ra,24(sp)
  44              		.cfi_restore 1
  45 0038 03340101 		ld	s0,16(sp)
  46              		.cfi_restore 8
  47              		.cfi_def_cfa 2, 32
  48 003c 83348100 		ld	s1,8(sp)
  49              		.cfi_restore 9
  50              	.LVL4:
  51 0040 13010102 		addi	sp,sp,32
  52              		.cfi_def_cfa_offset 0
  53 0044 67800000 		jr	ra
  54              		.cfi_endproc
  55              	.LFE0:
  57              		.align	2
  58              		.globl	mem_free
  60              	mem_free:
  61              	.LFB1:
  16:src/syscall_c.c **** int mem_free(void* ptr){
  62              		.loc 1 16 24 is_stmt 1
  63              		.cfi_startproc
  64              	.LVL5:
  17:src/syscall_c.c ****     if(!ptr) return 0;
  65              		.loc 1 17 5
  66              		.loc 1 17 7 is_stmt 0
  67 0048 63020504 		beqz	a0,.L5
  16:src/syscall_c.c **** int mem_free(void* ptr){
  68              		.loc 1 16 24
  69 004c 130101FE 		addi	sp,sp,-32
  70              		.cfi_def_cfa_offset 32
  71 0050 233C1100 		sd	ra,24(sp)
  72 0054 23388100 		sd	s0,16(sp)
  73 0058 23349100 		sd	s1,8(sp)
  74              		.cfi_offset 1, -8
  75              		.cfi_offset 8, -16
  76              		.cfi_offset 9, -24
  77 005c 13040102 		addi	s0,sp,32
  78              		.cfi_def_cfa 8, 0
  18:src/syscall_c.c ****     Header* header = (Header*)((char*)ptr - sizeof(Header));
  79              		.loc 1 18 5 is_stmt 1
  80              		.loc 1 18 13 is_stmt 0
  81 0060 930485FF 		addi	s1,a0,-8
  82              	.LVL6:
  19:src/syscall_c.c ****     ThreadContext *t = getRunningThreadContext();
  83              		.loc 1 19 5 is_stmt 1
  84              		.loc 1 19 24 is_stmt 0
  85 0064 97000000 		call	getRunningThreadContext
  85      E7800000 
  86              	.LVL7:
  20:src/syscall_c.c ****     return abi_mem_free(t, header);
  87              		.loc 1 20 5 is_stmt 1
  88              		.loc 1 20 12 is_stmt 0
  89 006c 93850400 		mv	a1,s1
  90 0070 97000000 		call	abi_mem_free
  90      E7800000 
  91              	.LVL8:
  21:src/syscall_c.c **** }
GAS LISTING /tmp/ccnrE35E.s 			page 3


  92              		.loc 1 21 1
  93 0078 83308101 		ld	ra,24(sp)
  94              		.cfi_restore 1
  95 007c 03340101 		ld	s0,16(sp)
  96              		.cfi_restore 8
  97              		.cfi_def_cfa 2, 32
  98 0080 83348100 		ld	s1,8(sp)
  99              		.cfi_restore 9
 100              	.LVL9:
 101 0084 13010102 		addi	sp,sp,32
 102              		.cfi_def_cfa_offset 0
 103 0088 67800000 		jr	ra
 104              	.LVL10:
 105              	.L5:
  17:src/syscall_c.c ****     Header* header = (Header*)((char*)ptr - sizeof(Header));
 106              		.loc 1 17 21
 107 008c 13050000 		li	a0,0
 108              	.LVL11:
 109              		.loc 1 21 1
 110 0090 67800000 		ret
 111              		.cfi_endproc
 112              	.LFE1:
 114              		.align	2
 115              		.globl	thread_create
 117              	thread_create:
 118              	.LFB2:
  22:src/syscall_c.c **** 
  23:src/syscall_c.c **** int thread_create(thread_t* handle, void(*startRoutine)(void*), void* args)
  24:src/syscall_c.c **** {
 119              		.loc 1 24 1 is_stmt 1
 120              		.cfi_startproc
 121              	.LVL12:
 122 0094 130101FD 		addi	sp,sp,-48
 123              		.cfi_def_cfa_offset 48
 124 0098 23341102 		sd	ra,40(sp)
 125 009c 23308102 		sd	s0,32(sp)
 126 00a0 233C9100 		sd	s1,24(sp)
 127 00a4 23382101 		sd	s2,16(sp)
 128 00a8 23343101 		sd	s3,8(sp)
 129 00ac 23304101 		sd	s4,0(sp)
 130              		.cfi_offset 1, -8
 131              		.cfi_offset 8, -16
 132              		.cfi_offset 9, -24
 133              		.cfi_offset 18, -32
 134              		.cfi_offset 19, -40
 135              		.cfi_offset 20, -48
 136 00b0 13040103 		addi	s0,sp,48
 137              		.cfi_def_cfa 8, 0
 138 00b4 13090500 		mv	s2,a0
 139 00b8 93890500 		mv	s3,a1
 140 00bc 130A0600 		mv	s4,a2
  25:src/syscall_c.c ****     size_t numOfBlocks = (2 * DEFAULT_STACK_SIZE + sizeof(Header) + MEM_BLOCK_SIZE - 1) / MEM_BLOCK
 141              		.loc 1 25 5
 142              	.LVL13:
  26:src/syscall_c.c ****     ThreadContext *t = getRunningThreadContext();
 143              		.loc 1 26 5
 144              		.loc 1 26 24 is_stmt 0
GAS LISTING /tmp/ccnrE35E.s 			page 4


 145 00c0 97000000 		call	getRunningThreadContext
 145      E7800000 
 146              	.LVL14:
 147 00c8 93040500 		mv	s1,a0
 148              	.LVL15:
  27:src/syscall_c.c ****     void* result = abi_mem_alloc(t, numOfBlocks);
 149              		.loc 1 27 5 is_stmt 1
 150              		.loc 1 27 20 is_stmt 0
 151 00cc 93051008 		li	a1,129
 152 00d0 97000000 		call	abi_mem_alloc
 152      E7800000 
 153              	.LVL16:
  28:src/syscall_c.c ****     void* stack = (char*)result + sizeof(Header);
 154              		.loc 1 28 5 is_stmt 1
  29:src/syscall_c.c ****     void* stack_top = (char*)stack + 2*DEFAULT_STACK_SIZE;
 155              		.loc 1 29 5
  30:src/syscall_c.c ****     return abi_thread_create(t, handle, startRoutine, args, stack_top);
 156              		.loc 1 30 5
 157              		.loc 1 30 12 is_stmt 0
 158 00d8 B7270000 		li	a5,8192
 159 00dc 93878700 		addi	a5,a5,8
 160 00e0 3307F500 		add	a4,a0,a5
 161 00e4 93060A00 		mv	a3,s4
 162 00e8 13860900 		mv	a2,s3
 163 00ec 93050900 		mv	a1,s2
 164 00f0 13850400 		mv	a0,s1
 165              	.LVL17:
 166 00f4 97000000 		call	abi_thread_create
 166      E7800000 
 167              	.LVL18:
  31:src/syscall_c.c **** }
 168              		.loc 1 31 1
 169 00fc 83308102 		ld	ra,40(sp)
 170              		.cfi_restore 1
 171 0100 03340102 		ld	s0,32(sp)
 172              		.cfi_restore 8
 173              		.cfi_def_cfa 2, 48
 174 0104 83348101 		ld	s1,24(sp)
 175              		.cfi_restore 9
 176              	.LVL19:
 177 0108 03390101 		ld	s2,16(sp)
 178              		.cfi_restore 18
 179              	.LVL20:
 180 010c 83398100 		ld	s3,8(sp)
 181              		.cfi_restore 19
 182              	.LVL21:
 183 0110 033A0100 		ld	s4,0(sp)
 184              		.cfi_restore 20
 185              	.LVL22:
 186 0114 13010103 		addi	sp,sp,48
 187              		.cfi_def_cfa_offset 0
 188 0118 67800000 		jr	ra
 189              		.cfi_endproc
 190              	.LFE2:
 192              		.align	2
 193              		.globl	thread_exit
 195              	thread_exit:
GAS LISTING /tmp/ccnrE35E.s 			page 5


 196              	.LFB3:
  32:src/syscall_c.c **** 
  33:src/syscall_c.c **** int thread_exit(){
 197              		.loc 1 33 18 is_stmt 1
 198              		.cfi_startproc
 199 011c 130101FF 		addi	sp,sp,-16
 200              		.cfi_def_cfa_offset 16
 201 0120 23341100 		sd	ra,8(sp)
 202 0124 23308100 		sd	s0,0(sp)
 203              		.cfi_offset 1, -8
 204              		.cfi_offset 8, -16
 205 0128 13040101 		addi	s0,sp,16
 206              		.cfi_def_cfa 8, 0
  34:src/syscall_c.c ****     ThreadContext *t = getRunningThreadContext();
 207              		.loc 1 34 5
 208              		.loc 1 34 24 is_stmt 0
 209 012c 97000000 		call	getRunningThreadContext
 209      E7800000 
 210              	.LVL23:
  35:src/syscall_c.c ****     return abi_thread_exit(t);
 211              		.loc 1 35 5 is_stmt 1
 212              		.loc 1 35 12 is_stmt 0
 213 0134 97000000 		call	abi_thread_exit
 213      E7800000 
 214              	.LVL24:
  36:src/syscall_c.c **** }
 215              		.loc 1 36 1
 216 013c 83308100 		ld	ra,8(sp)
 217              		.cfi_restore 1
 218 0140 03340100 		ld	s0,0(sp)
 219              		.cfi_restore 8
 220              		.cfi_def_cfa 2, 16
 221 0144 13010101 		addi	sp,sp,16
 222              		.cfi_def_cfa_offset 0
 223 0148 67800000 		jr	ra
 224              		.cfi_endproc
 225              	.LFE3:
 227              		.align	2
 228              		.globl	thread_dispatch
 230              	thread_dispatch:
 231              	.LFB4:
  37:src/syscall_c.c **** void thread_dispatch(){
 232              		.loc 1 37 23 is_stmt 1
 233              		.cfi_startproc
 234 014c 130101FF 		addi	sp,sp,-16
 235              		.cfi_def_cfa_offset 16
 236 0150 23341100 		sd	ra,8(sp)
 237 0154 23308100 		sd	s0,0(sp)
 238              		.cfi_offset 1, -8
 239              		.cfi_offset 8, -16
 240 0158 13040101 		addi	s0,sp,16
 241              		.cfi_def_cfa 8, 0
  38:src/syscall_c.c ****     ThreadContext *t = getRunningThreadContext();
 242              		.loc 1 38 5
 243              		.loc 1 38 24 is_stmt 0
 244 015c 97000000 		call	getRunningThreadContext
 244      E7800000 
GAS LISTING /tmp/ccnrE35E.s 			page 6


 245              	.LVL25:
  39:src/syscall_c.c ****     abi_thread_dispatch(t);
 246              		.loc 1 39 5 is_stmt 1
 247 0164 97000000 		call	abi_thread_dispatch
 247      E7800000 
 248              	.LVL26:
  40:src/syscall_c.c **** }
 249              		.loc 1 40 1 is_stmt 0
 250 016c 83308100 		ld	ra,8(sp)
 251              		.cfi_restore 1
 252 0170 03340100 		ld	s0,0(sp)
 253              		.cfi_restore 8
 254              		.cfi_def_cfa 2, 16
 255 0174 13010101 		addi	sp,sp,16
 256              		.cfi_def_cfa_offset 0
 257 0178 67800000 		jr	ra
 258              		.cfi_endproc
 259              	.LFE4:
 261              		.align	2
 262              		.globl	mem_get_free_space
 264              	mem_get_free_space:
 265              	.LFB5:
  41:src/syscall_c.c **** size_t mem_get_free_space(){
 266              		.loc 1 41 28 is_stmt 1
 267              		.cfi_startproc
 268 017c 130101FF 		addi	sp,sp,-16
 269              		.cfi_def_cfa_offset 16
 270 0180 23341100 		sd	ra,8(sp)
 271 0184 23308100 		sd	s0,0(sp)
 272              		.cfi_offset 1, -8
 273              		.cfi_offset 8, -16
 274 0188 13040101 		addi	s0,sp,16
 275              		.cfi_def_cfa 8, 0
  42:src/syscall_c.c ****     return abi_mem_get_free_space();
 276              		.loc 1 42 5
 277              		.loc 1 42 12 is_stmt 0
 278 018c 97000000 		call	abi_mem_get_free_space
 278      E7800000 
 279              	.LVL27:
  43:src/syscall_c.c **** }
 280              		.loc 1 43 1
 281 0194 83308100 		ld	ra,8(sp)
 282              		.cfi_restore 1
 283 0198 03340100 		ld	s0,0(sp)
 284              		.cfi_restore 8
 285              		.cfi_def_cfa 2, 16
 286 019c 13010101 		addi	sp,sp,16
 287              		.cfi_def_cfa_offset 0
 288 01a0 67800000 		jr	ra
 289              		.cfi_endproc
 290              	.LFE5:
 292              		.align	2
 293              		.globl	mem_get_largest_free_block
 295              	mem_get_largest_free_block:
 296              	.LFB6:
  44:src/syscall_c.c **** size_t mem_get_largest_free_block(){
 297              		.loc 1 44 36 is_stmt 1
GAS LISTING /tmp/ccnrE35E.s 			page 7


 298              		.cfi_startproc
 299 01a4 130101FF 		addi	sp,sp,-16
 300              		.cfi_def_cfa_offset 16
 301 01a8 23341100 		sd	ra,8(sp)
 302 01ac 23308100 		sd	s0,0(sp)
 303              		.cfi_offset 1, -8
 304              		.cfi_offset 8, -16
 305 01b0 13040101 		addi	s0,sp,16
 306              		.cfi_def_cfa 8, 0
  45:src/syscall_c.c ****     return abi_mem_get_largest_free_block();
 307              		.loc 1 45 5
 308              		.loc 1 45 12 is_stmt 0
 309 01b4 97000000 		call	abi_mem_get_largest_free_block
 309      E7800000 
 310              	.LVL28:
  46:src/syscall_c.c **** }
 311              		.loc 1 46 1
 312 01bc 83308100 		ld	ra,8(sp)
 313              		.cfi_restore 1
 314 01c0 03340100 		ld	s0,0(sp)
 315              		.cfi_restore 8
 316              		.cfi_def_cfa 2, 16
 317 01c4 13010101 		addi	sp,sp,16
 318              		.cfi_def_cfa_offset 0
 319 01c8 67800000 		jr	ra
 320              		.cfi_endproc
 321              	.LFE6:
 323              		.align	2
 324              		.globl	sem_open
 326              	sem_open:
 327              	.LFB7:
  47:src/syscall_c.c **** 
  48:src/syscall_c.c **** int sem_open(sem_t* handle, unsigned init){
 328              		.loc 1 48 43 is_stmt 1
 329              		.cfi_startproc
 330              	.LVL29:
 331 01cc 130101FE 		addi	sp,sp,-32
 332              		.cfi_def_cfa_offset 32
 333 01d0 233C1100 		sd	ra,24(sp)
 334 01d4 23388100 		sd	s0,16(sp)
 335 01d8 23349100 		sd	s1,8(sp)
 336 01dc 23302101 		sd	s2,0(sp)
 337              		.cfi_offset 1, -8
 338              		.cfi_offset 8, -16
 339              		.cfi_offset 9, -24
 340              		.cfi_offset 18, -32
 341 01e0 13040102 		addi	s0,sp,32
 342              		.cfi_def_cfa 8, 0
 343 01e4 93040500 		mv	s1,a0
 344 01e8 13890500 		mv	s2,a1
  49:src/syscall_c.c ****     ThreadContext *t = getRunningThreadContext();
 345              		.loc 1 49 5
 346              		.loc 1 49 24 is_stmt 0
 347 01ec 97000000 		call	getRunningThreadContext
 347      E7800000 
 348              	.LVL30:
  50:src/syscall_c.c ****     return abi_sem_open(t, handle, init);
GAS LISTING /tmp/ccnrE35E.s 			page 8


 349              		.loc 1 50 5 is_stmt 1
 350              		.loc 1 50 12 is_stmt 0
 351 01f4 13060900 		mv	a2,s2
 352 01f8 93850400 		mv	a1,s1
 353 01fc 97000000 		call	abi_sem_open
 353      E7800000 
 354              	.LVL31:
  51:src/syscall_c.c **** }
 355              		.loc 1 51 1
 356 0204 83308101 		ld	ra,24(sp)
 357              		.cfi_restore 1
 358 0208 03340101 		ld	s0,16(sp)
 359              		.cfi_restore 8
 360              		.cfi_def_cfa 2, 32
 361 020c 83348100 		ld	s1,8(sp)
 362              		.cfi_restore 9
 363              	.LVL32:
 364 0210 03390100 		ld	s2,0(sp)
 365              		.cfi_restore 18
 366 0214 13010102 		addi	sp,sp,32
 367              		.cfi_def_cfa_offset 0
 368 0218 67800000 		jr	ra
 369              		.cfi_endproc
 370              	.LFE7:
 372              		.align	2
 373              		.globl	sem_wait
 375              	sem_wait:
 376              	.LFB8:
  52:src/syscall_c.c **** 
  53:src/syscall_c.c **** int sem_wait(sem_t id){
 377              		.loc 1 53 23 is_stmt 1
 378              		.cfi_startproc
 379              	.LVL33:
 380 021c 130101FE 		addi	sp,sp,-32
 381              		.cfi_def_cfa_offset 32
 382 0220 233C1100 		sd	ra,24(sp)
 383 0224 23388100 		sd	s0,16(sp)
 384 0228 23349100 		sd	s1,8(sp)
 385              		.cfi_offset 1, -8
 386              		.cfi_offset 8, -16
 387              		.cfi_offset 9, -24
 388 022c 13040102 		addi	s0,sp,32
 389              		.cfi_def_cfa 8, 0
 390 0230 93040500 		mv	s1,a0
  54:src/syscall_c.c ****     ThreadContext *t = getRunningThreadContext();
 391              		.loc 1 54 5
 392              		.loc 1 54 24 is_stmt 0
 393 0234 97000000 		call	getRunningThreadContext
 393      E7800000 
 394              	.LVL34:
  55:src/syscall_c.c ****     abi_sem_wait(t, id);
 395              		.loc 1 55 5 is_stmt 1
 396 023c 93850400 		mv	a1,s1
 397 0240 97000000 		call	abi_sem_wait
 397      E7800000 
 398              	.LVL35:
  56:src/syscall_c.c ****     int status = getWaitStatusForRunning();
GAS LISTING /tmp/ccnrE35E.s 			page 9


 399              		.loc 1 56 5
 400              		.loc 1 56 18 is_stmt 0
 401 0248 97000000 		call	getWaitStatusForRunning
 401      E7800000 
 402              	.LVL36:
  57:src/syscall_c.c ****     return status;
 403              		.loc 1 57 5 is_stmt 1
  58:src/syscall_c.c **** }
 404              		.loc 1 58 1 is_stmt 0
 405 0250 83308101 		ld	ra,24(sp)
 406              		.cfi_restore 1
 407 0254 03340101 		ld	s0,16(sp)
 408              		.cfi_restore 8
 409              		.cfi_def_cfa 2, 32
 410 0258 83348100 		ld	s1,8(sp)
 411              		.cfi_restore 9
 412 025c 13010102 		addi	sp,sp,32
 413              		.cfi_def_cfa_offset 0
 414 0260 67800000 		jr	ra
 415              		.cfi_endproc
 416              	.LFE8:
 418              		.align	2
 419              		.globl	sem_signal
 421              	sem_signal:
 422              	.LFB9:
  59:src/syscall_c.c **** 
  60:src/syscall_c.c **** int sem_signal(sem_t id){
 423              		.loc 1 60 25 is_stmt 1
 424              		.cfi_startproc
 425              	.LVL37:
 426 0264 130101FE 		addi	sp,sp,-32
 427              		.cfi_def_cfa_offset 32
 428 0268 233C1100 		sd	ra,24(sp)
 429 026c 23388100 		sd	s0,16(sp)
 430 0270 23349100 		sd	s1,8(sp)
 431              		.cfi_offset 1, -8
 432              		.cfi_offset 8, -16
 433              		.cfi_offset 9, -24
 434 0274 13040102 		addi	s0,sp,32
 435              		.cfi_def_cfa 8, 0
 436 0278 93040500 		mv	s1,a0
  61:src/syscall_c.c ****     ThreadContext* t = getRunningThreadContext();
 437              		.loc 1 61 5
 438              		.loc 1 61 24 is_stmt 0
 439 027c 97000000 		call	getRunningThreadContext
 439      E7800000 
 440              	.LVL38:
  62:src/syscall_c.c ****     return abi_sem_signal(t, id);
 441              		.loc 1 62 5 is_stmt 1
 442              		.loc 1 62 12 is_stmt 0
 443 0284 93850400 		mv	a1,s1
 444 0288 97000000 		call	abi_sem_signal
 444      E7800000 
 445              	.LVL39:
  63:src/syscall_c.c **** }
 446              		.loc 1 63 1
 447 0290 83308101 		ld	ra,24(sp)
GAS LISTING /tmp/ccnrE35E.s 			page 10


 448              		.cfi_restore 1
 449 0294 03340101 		ld	s0,16(sp)
 450              		.cfi_restore 8
 451              		.cfi_def_cfa 2, 32
 452 0298 83348100 		ld	s1,8(sp)
 453              		.cfi_restore 9
 454 029c 13010102 		addi	sp,sp,32
 455              		.cfi_def_cfa_offset 0
 456 02a0 67800000 		jr	ra
 457              		.cfi_endproc
 458              	.LFE9:
 460              		.align	2
 461              		.globl	sem_close
 463              	sem_close:
 464              	.LFB10:
  64:src/syscall_c.c **** 
  65:src/syscall_c.c **** int sem_close(sem_t id){
 465              		.loc 1 65 24 is_stmt 1
 466              		.cfi_startproc
 467              	.LVL40:
 468 02a4 130101FE 		addi	sp,sp,-32
 469              		.cfi_def_cfa_offset 32
 470 02a8 233C1100 		sd	ra,24(sp)
 471 02ac 23388100 		sd	s0,16(sp)
 472 02b0 23349100 		sd	s1,8(sp)
 473              		.cfi_offset 1, -8
 474              		.cfi_offset 8, -16
 475              		.cfi_offset 9, -24
 476 02b4 13040102 		addi	s0,sp,32
 477              		.cfi_def_cfa 8, 0
 478 02b8 93040500 		mv	s1,a0
  66:src/syscall_c.c ****     ThreadContext* t = getRunningThreadContext();
 479              		.loc 1 66 5
 480              		.loc 1 66 24 is_stmt 0
 481 02bc 97000000 		call	getRunningThreadContext
 481      E7800000 
 482              	.LVL41:
  67:src/syscall_c.c ****     return abi_sem_close(t, id);
 483              		.loc 1 67 5 is_stmt 1
 484              		.loc 1 67 12 is_stmt 0
 485 02c4 93850400 		mv	a1,s1
 486 02c8 97000000 		call	abi_sem_close
 486      E7800000 
 487              	.LVL42:
  68:src/syscall_c.c **** }
 488              		.loc 1 68 1
 489 02d0 83308101 		ld	ra,24(sp)
 490              		.cfi_restore 1
 491 02d4 03340101 		ld	s0,16(sp)
 492              		.cfi_restore 8
 493              		.cfi_def_cfa 2, 32
 494 02d8 83348100 		ld	s1,8(sp)
 495              		.cfi_restore 9
 496 02dc 13010102 		addi	sp,sp,32
 497              		.cfi_def_cfa_offset 0
 498 02e0 67800000 		jr	ra
 499              		.cfi_endproc
GAS LISTING /tmp/ccnrE35E.s 			page 11


 500              	.LFE10:
 502              		.align	2
 503              		.globl	putc
 505              	putc:
 506              	.LFB11:
  69:src/syscall_c.c **** 
  70:src/syscall_c.c **** void putc(char x) {
 507              		.loc 1 70 19 is_stmt 1
 508              		.cfi_startproc
 509              	.LVL43:
 510 02e4 130101FE 		addi	sp,sp,-32
 511              		.cfi_def_cfa_offset 32
 512 02e8 233C1100 		sd	ra,24(sp)
 513 02ec 23388100 		sd	s0,16(sp)
 514 02f0 23349100 		sd	s1,8(sp)
 515              		.cfi_offset 1, -8
 516              		.cfi_offset 8, -16
 517              		.cfi_offset 9, -24
 518 02f4 13040102 		addi	s0,sp,32
 519              		.cfi_def_cfa 8, 0
  71:src/syscall_c.c ****     unsigned long sstatus_old, sstatus_new;
 520              		.loc 1 71 5
  72:src/syscall_c.c **** 
  73:src/syscall_c.c ****     // Učitaj trenutni sstatus
  74:src/syscall_c.c ****     asm volatile("csrr %0, sstatus" : "=r"(sstatus_old));
 521              		.loc 1 74 5
 522              	#APP
 523              	# 74 "src/syscall_c.c" 1
  75              	
 524              		csrr s1, sstatus
 525              	# 0 "" 2
 526              	.LVL44:
  76:src/syscall_c.c ****     // Maskiraj spoljne prekide (SIE = 0)
  77:src/syscall_c.c ****     sstatus_new = sstatus_old & ~(1UL << 1);
 527              		.loc 1 77 5
 528              		.loc 1 77 17 is_stmt 0
 529              	#NO_APP
 530 02fc 93F7D4FF 		andi	a5,s1,-3
 531              	.LVL45:
  78:src/syscall_c.c ****     asm volatile("csrw sstatus, %0" :: "r"(sstatus_new));
 532              		.loc 1 78 5 is_stmt 1
 533              	#APP
 534              	# 78 "src/syscall_c.c" 1
  79              	
  80:src/syscall_c.c ****     // Poziv niskonivojske funkcije
  81:src/syscall_c.c ****     __putc(x);
 535              		csrw sstatus, a5
 536              	# 0 "" 2
 537              		.loc 1 81 5
 538              	#NO_APP
 539 0304 97000000 		call	__putc
 539      E7800000 
 540              	.LVL46:
  82:src/syscall_c.c **** 
  83:src/syscall_c.c ****     // Vrati sstatus na staru vrednost
  84:src/syscall_c.c ****     asm volatile("csrw sstatus, %0" :: "r"(sstatus_old));
 541              		.loc 1 84 5
GAS LISTING /tmp/ccnrE35E.s 			page 12


 542              	#APP
 543              	# 84 "src/syscall_c.c" 1
  85              	}
 544              		csrw sstatus, s1
 545              	# 0 "" 2
 546              		.loc 1 85 1 is_stmt 0
 547              	#NO_APP
 548 0310 83308101 		ld	ra,24(sp)
 549              		.cfi_restore 1
 550 0314 03340101 		ld	s0,16(sp)
 551              		.cfi_restore 8
 552              		.cfi_def_cfa 2, 32
 553 0318 83348100 		ld	s1,8(sp)
 554              		.cfi_restore 9
 555              	.LVL47:
 556 031c 13010102 		addi	sp,sp,32
 557              		.cfi_def_cfa_offset 0
 558 0320 67800000 		jr	ra
 559              		.cfi_endproc
 560              	.LFE11:
 562              		.align	2
 563              		.globl	getc
 565              	getc:
 566              	.LFB12:
  86:src/syscall_c.c **** 
  87:src/syscall_c.c **** char getc() {
 567              		.loc 1 87 13 is_stmt 1
 568              		.cfi_startproc
 569 0324 130101FF 		addi	sp,sp,-16
 570              		.cfi_def_cfa_offset 16
 571 0328 23341100 		sd	ra,8(sp)
 572 032c 23308100 		sd	s0,0(sp)
 573              		.cfi_offset 1, -8
 574              		.cfi_offset 8, -16
 575 0330 13040101 		addi	s0,sp,16
 576              		.cfi_def_cfa 8, 0
  88:src/syscall_c.c ****     return __getc();
 577              		.loc 1 88 5
 578              		.loc 1 88 12 is_stmt 0
 579 0334 97000000 		call	__getc
 579      E7800000 
 580              	.LVL48:
  89:src/syscall_c.c **** }
 581              		.loc 1 89 1
 582 033c 83308100 		ld	ra,8(sp)
 583              		.cfi_restore 1
 584 0340 03340100 		ld	s0,0(sp)
 585              		.cfi_restore 8
 586              		.cfi_def_cfa 2, 16
 587 0344 13010101 		addi	sp,sp,16
 588              		.cfi_def_cfa_offset 0
 589 0348 67800000 		jr	ra
 590              		.cfi_endproc
 591              	.LFE12:
 593              	.Letext0:
 594              		.file 2 "/usr/lib/gcc-cross/riscv64-linux-gnu/9/include/stddef.h"
 595              		.file 3 "src/../h/../lib/hw.h"
GAS LISTING /tmp/ccnrE35E.s 			page 13


 596              		.file 4 "src/../h/memory_structs.h"
 597              		.file 5 "src/../lib/console.h"
 598              		.file 6 "src/../h/abi.h"
GAS LISTING /tmp/ccnrE35E.s 			page 14

