GAS LISTING /tmp/ccrJdvvS.s 			page 1


   1              		.file	"ThreadPool.cpp"
   2              		.option pic
   3              		.option norelax
   4              		.text
   5              	.Ltext0:
   6              		.align	2
   7              		.globl	_ZN10ThreadPoolC2Ev
   9              	_ZN10ThreadPoolC2Ev:
  10              	.LFB4:
  11              		.file 1 "src/ThreadPool.cpp"
   1:src/ThreadPool.cpp **** #include "../h/ThreadPool.hpp"
   2:src/ThreadPool.cpp **** 
   3:src/ThreadPool.cpp **** ThreadPool::ThreadPool() : pool(nullptr), used(nullptr) {}
  12              		.loc 1 3 1
  13              		.cfi_startproc
  14              	.LVL0:
  15 0000 130101FF 		addi	sp,sp,-16
  16              		.cfi_def_cfa_offset 16
  17 0004 23348100 		sd	s0,8(sp)
  18              		.cfi_offset 8, -8
  19 0008 13040101 		addi	s0,sp,16
  20              		.cfi_def_cfa 8, 0
  21              	.LBB2:
  22              		.loc 1 3 55 is_stmt 0
  23 000c 23300500 		sd	zero,0(a0)
  24 0010 23340500 		sd	zero,8(a0)
  25              	.LBE2:
  26              		.loc 1 3 58
  27 0014 03348100 		ld	s0,8(sp)
  28              		.cfi_restore 8
  29              		.cfi_def_cfa 2, 16
  30 0018 13010101 		addi	sp,sp,16
  31              		.cfi_def_cfa_offset 0
  32 001c 67800000 		jr	ra
  33              		.cfi_endproc
  34              	.LFE4:
  36              		.globl	_ZN10ThreadPoolC1Ev
  37              		.set	_ZN10ThreadPoolC1Ev,_ZN10ThreadPoolC2Ev
  38              		.align	2
  39              		.globl	_ZN10ThreadPool4initEPvS0_
  41              	_ZN10ThreadPool4initEPvS0_:
  42              	.LFB6:
   4:src/ThreadPool.cpp **** 
   5:src/ThreadPool.cpp **** void ThreadPool::init(void* poolStartAddress, void* usedStartAddress) {
  43              		.loc 1 5 71 is_stmt 1
  44              		.cfi_startproc
  45              	.LVL1:
  46 0020 130101FF 		addi	sp,sp,-16
  47              		.cfi_def_cfa_offset 16
  48 0024 23348100 		sd	s0,8(sp)
  49              		.cfi_offset 8, -8
  50 0028 13040101 		addi	s0,sp,16
  51              		.cfi_def_cfa 8, 0
   6:src/ThreadPool.cpp ****     pool = (Thread*)poolStartAddress;
  52              		.loc 1 6 5
  53              		.loc 1 6 10 is_stmt 0
  54 002c 2330B500 		sd	a1,0(a0)
GAS LISTING /tmp/ccrJdvvS.s 			page 2


   7:src/ThreadPool.cpp ****     used = (bool*)usedStartAddress;
  55              		.loc 1 7 5 is_stmt 1
  56              		.loc 1 7 10 is_stmt 0
  57 0030 2334C500 		sd	a2,8(a0)
   8:src/ThreadPool.cpp ****     for (int i = 0; i < MAX_THREADS; i++) used[i] = false;
  58              		.loc 1 8 5 is_stmt 1
  59              	.LVL2:
  60              	.LBB3:
  61              		.loc 1 8 14 is_stmt 0
  62 0034 93070000 		li	a5,0
  63              	.LVL3:
  64              	.L5:
  65              		.loc 1 8 23 is_stmt 1 discriminator 3
  66 0038 13079000 		li	a4,9
  67 003c 634CF700 		bgt	a5,a4,.L3
  68              		.loc 1 8 43 discriminator 2
  69 0040 03378500 		ld	a4,8(a0)
  70              		.loc 1 8 49 is_stmt 0 discriminator 2
  71 0044 3307F700 		add	a4,a4,a5
  72              		.loc 1 8 51 discriminator 2
  73 0048 23000700 		sb	zero,0(a4)
  74              		.loc 1 8 5 is_stmt 1 discriminator 2
  75 004c 9B871700 		addiw	a5,a5,1
  76              	.LVL4:
  77 0050 6FF09FFE 		j	.L5
  78              	.LVL5:
  79              	.L3:
  80              	.LBE3:
   9:src/ThreadPool.cpp **** }
  81              		.loc 1 9 1 is_stmt 0
  82 0054 03348100 		ld	s0,8(sp)
  83              		.cfi_restore 8
  84              		.cfi_def_cfa 2, 16
  85 0058 13010101 		addi	sp,sp,16
  86              		.cfi_def_cfa_offset 0
  87 005c 67800000 		jr	ra
  88              		.cfi_endproc
  89              	.LFE6:
  91              		.align	2
  92              		.globl	_ZN10ThreadPool16getSemaphoreByIdEj
  94              	_ZN10ThreadPool16getSemaphoreByIdEj:
  95              	.LFB7:
  10:src/ThreadPool.cpp **** 
  11:src/ThreadPool.cpp **** Thread* ThreadPool::getSemaphoreById(thread_t id){
  96              		.loc 1 11 50 is_stmt 1
  97              		.cfi_startproc
  98              	.LVL6:
  99 0060 130101FF 		addi	sp,sp,-16
 100              		.cfi_def_cfa_offset 16
 101 0064 23348100 		sd	s0,8(sp)
 102              		.cfi_offset 8, -8
 103 0068 13040101 		addi	s0,sp,16
 104              		.cfi_def_cfa 8, 0
 105 006c 93060500 		mv	a3,a0
  12:src/ThreadPool.cpp ****     for(int i = 0; i < MAX_THREADS; i++){
 106              		.loc 1 12 5
 107              	.LVL7:
GAS LISTING /tmp/ccrJdvvS.s 			page 3


 108              	.LBB4:
 109              		.loc 1 12 13 is_stmt 0
 110 0070 93070000 		li	a5,0
 111 0074 6F008000 		j	.L10
 112              	.LVL8:
 113              	.L9:
 114              		.loc 1 12 5 is_stmt 1 discriminator 2
 115 0078 9B871700 		addiw	a5,a5,1
 116              	.LVL9:
 117              	.L10:
 118              		.loc 1 12 22 discriminator 1
 119 007c 13079000 		li	a4,9
 120 0080 6348F702 		bgt	a5,a4,.L11
  13:src/ThreadPool.cpp ****         if(used[i] == true && pool[i].threadId == id){
 121              		.loc 1 13 9
 122              		.loc 1 13 12 is_stmt 0
 123 0084 03B78600 		ld	a4,8(a3)
 124              		.loc 1 13 18
 125 0088 3307F700 		add	a4,a4,a5
 126 008c 03470700 		lbu	a4,0(a4)
 127              		.loc 1 13 9
 128 0090 E30407FE 		beqz	a4,.L9
 129              		.loc 1 13 31 discriminator 1
 130 0094 03B50600 		ld	a0,0(a3)
 131              		.loc 1 13 37 discriminator 1
 132 0098 1307800A 		li	a4,168
 133 009c 3387E702 		mul	a4,a5,a4
 134 00a0 3305E500 		add	a0,a0,a4
 135              		.loc 1 13 39 discriminator 1
 136 00a4 03274502 		lw	a4,36(a0)
 137              		.loc 1 13 28 discriminator 1
 138 00a8 E318B7FC 		bne	a4,a1,.L9
 139 00ac 6F008000 		j	.L7
 140              	.L11:
 141              	.LBE4:
  14:src/ThreadPool.cpp ****             return &pool[i];
  15:src/ThreadPool.cpp ****         }
  16:src/ThreadPool.cpp ****     }
  17:src/ThreadPool.cpp ****     return nullptr;
 142              		.loc 1 17 12
 143 00b0 13050000 		li	a0,0
 144              	.L7:
  18:src/ThreadPool.cpp **** }
 145              		.loc 1 18 1
 146 00b4 03348100 		ld	s0,8(sp)
 147              		.cfi_restore 8
 148              		.cfi_def_cfa 2, 16
 149 00b8 13010101 		addi	sp,sp,16
 150              		.cfi_def_cfa_offset 0
 151 00bc 67800000 		jr	ra
 152              		.cfi_endproc
 153              	.LFE7:
 155              		.align	2
 156              		.globl	_ZN10ThreadPool8allocateEv
 158              	_ZN10ThreadPool8allocateEv:
 159              	.LFB8:
  19:src/ThreadPool.cpp **** Thread* ThreadPool::allocate() {
GAS LISTING /tmp/ccrJdvvS.s 			page 4


 160              		.loc 1 19 32 is_stmt 1
 161              		.cfi_startproc
 162              	.LVL10:
 163 00c0 130101FF 		addi	sp,sp,-16
 164              		.cfi_def_cfa_offset 16
 165 00c4 23348100 		sd	s0,8(sp)
 166              		.cfi_offset 8, -8
 167 00c8 13040101 		addi	s0,sp,16
 168              		.cfi_def_cfa 8, 0
  20:src/ThreadPool.cpp ****     for (int i = 0; i < MAX_THREADS; i++) {
 169              		.loc 1 20 5
 170              	.LVL11:
 171              	.LBB5:
 172              		.loc 1 20 14 is_stmt 0
 173 00cc 93070000 		li	a5,0
 174              	.LVL12:
 175              	.L16:
 176              		.loc 1 20 23 is_stmt 1 discriminator 1
 177 00d0 13079000 		li	a4,9
 178 00d4 634EF702 		bgt	a5,a4,.L17
  21:src/ThreadPool.cpp ****         if (!used[i]) {
 179              		.loc 1 21 9
 180              		.loc 1 21 14 is_stmt 0
 181 00d8 03378500 		ld	a4,8(a0)
 182              		.loc 1 21 19
 183 00dc 13860700 		mv	a2,a5
 184              		.loc 1 21 20
 185 00e0 3307F700 		add	a4,a4,a5
 186 00e4 83460700 		lbu	a3,0(a4)
 187              		.loc 1 21 9
 188 00e8 63860600 		beqz	a3,.L19
  20:src/ThreadPool.cpp ****     for (int i = 0; i < MAX_THREADS; i++) {
 189              		.loc 1 20 5 is_stmt 1 discriminator 2
 190 00ec 9B871700 		addiw	a5,a5,1
 191              	.LVL13:
 192 00f0 6FF01FFE 		j	.L16
 193              	.LVL14:
 194              	.L19:
  22:src/ThreadPool.cpp ****             used[i] = true;
 195              		.loc 1 22 13
 196              		.loc 1 22 21 is_stmt 0
 197 00f4 93071000 		li	a5,1
 198              	.LVL15:
 199 00f8 2300F700 		sb	a5,0(a4)
  23:src/ThreadPool.cpp ****             return &pool[i];
 200              		.loc 1 23 13 is_stmt 1
 201              		.loc 1 23 21 is_stmt 0
 202 00fc 03350500 		ld	a0,0(a0)
 203              	.LVL16:
 204              		.loc 1 23 27
 205 0100 9307800A 		li	a5,168
 206 0104 3306F602 		mul	a2,a2,a5
 207 0108 3305C500 		add	a0,a0,a2
 208 010c 6F008000 		j	.L13
 209              	.LVL17:
 210              	.L17:
 211              	.LBE5:
GAS LISTING /tmp/ccrJdvvS.s 			page 5


  24:src/ThreadPool.cpp ****         }
  25:src/ThreadPool.cpp ****     }
  26:src/ThreadPool.cpp ****     return nullptr;
 212              		.loc 1 26 12
 213 0110 13050000 		li	a0,0
 214              	.LVL18:
 215              	.L13:
  27:src/ThreadPool.cpp **** }
 216              		.loc 1 27 1
 217 0114 03348100 		ld	s0,8(sp)
 218              		.cfi_restore 8
 219              		.cfi_def_cfa 2, 16
 220 0118 13010101 		addi	sp,sp,16
 221              		.cfi_def_cfa_offset 0
 222 011c 67800000 		jr	ra
 223              		.cfi_endproc
 224              	.LFE8:
 226              		.align	2
 227              		.globl	_ZN10ThreadPool10deallocateEP6Thread
 229              	_ZN10ThreadPool10deallocateEP6Thread:
 230              	.LFB9:
  28:src/ThreadPool.cpp **** 
  29:src/ThreadPool.cpp **** void ThreadPool::deallocate(Thread* obj) {
 231              		.loc 1 29 42 is_stmt 1
 232              		.cfi_startproc
 233              	.LVL19:
 234 0120 130101FF 		addi	sp,sp,-16
 235              		.cfi_def_cfa_offset 16
 236 0124 23348100 		sd	s0,8(sp)
 237              		.cfi_offset 8, -8
 238 0128 13040101 		addi	s0,sp,16
 239              		.cfi_def_cfa 8, 0
  30:src/ThreadPool.cpp ****     for (int i = 0; i < MAX_THREADS; i++) {
 240              		.loc 1 30 5
 241              	.LVL20:
 242              	.LBB6:
 243              		.loc 1 30 14 is_stmt 0
 244 012c 93070000 		li	a5,0
 245              	.LVL21:
 246              	.L23:
 247              		.loc 1 30 23 is_stmt 1 discriminator 1
 248 0130 13079000 		li	a4,9
 249 0134 6348F702 		bgt	a5,a4,.L20
  31:src/ThreadPool.cpp ****         if (&pool[i] == obj) {
 250              		.loc 1 31 9
 251              		.loc 1 31 14 is_stmt 0
 252 0138 03370500 		ld	a4,0(a0)
 253              		.loc 1 31 19
 254 013c 13860700 		mv	a2,a5
 255              		.loc 1 31 20
 256 0140 9306800A 		li	a3,168
 257 0144 B386D702 		mul	a3,a5,a3
 258              		.loc 1 31 13
 259 0148 3307D700 		add	a4,a4,a3
 260              		.loc 1 31 9
 261 014c 6306B700 		beq	a4,a1,.L25
  30:src/ThreadPool.cpp ****     for (int i = 0; i < MAX_THREADS; i++) {
GAS LISTING /tmp/ccrJdvvS.s 			page 6


 262              		.loc 1 30 5 is_stmt 1 discriminator 2
 263 0150 9B871700 		addiw	a5,a5,1
 264              	.LVL22:
 265 0154 6FF0DFFD 		j	.L23
 266              	.LVL23:
 267              	.L25:
  32:src/ThreadPool.cpp ****             used[i] = false;
 268              		.loc 1 32 13
 269 0158 83378500 		ld	a5,8(a0)
 270              	.LVL24:
 271              		.loc 1 32 19 is_stmt 0
 272 015c 3386C700 		add	a2,a5,a2
 273              		.loc 1 32 21
 274 0160 23000600 		sb	zero,0(a2)
  33:src/ThreadPool.cpp ****             return;
 275              		.loc 1 33 13 is_stmt 1
 276              	.L20:
 277              	.LBE6:
  34:src/ThreadPool.cpp ****         }
  35:src/ThreadPool.cpp ****     }
  36:src/ThreadPool.cpp **** }
 278              		.loc 1 36 1 is_stmt 0
 279 0164 03348100 		ld	s0,8(sp)
 280              		.cfi_restore 8
 281              		.cfi_def_cfa 2, 16
 282 0168 13010101 		addi	sp,sp,16
 283              		.cfi_def_cfa_offset 0
 284 016c 67800000 		jr	ra
 285              		.cfi_endproc
 286              	.LFE9:
 288              	.Letext0:
 289              		.file 2 "src/../h/../lib/hw.h"
 290              		.file 3 "src/../h/ThreadPool.hpp"
GAS LISTING /tmp/ccrJdvvS.s 			page 7


DEFINED SYMBOLS
                            *ABS*:0000000000000000 ThreadPool.cpp
     /tmp/ccrJdvvS.s:9      .text:0000000000000000 _ZN10ThreadPoolC2Ev
     /tmp/ccrJdvvS.s:13     .text:0000000000000000 .L0 
     /tmp/ccrJdvvS.s:15     .text:0000000000000000 .L0 
     /tmp/ccrJdvvS.s:16     .text:0000000000000004 .L0 
     /tmp/ccrJdvvS.s:18     .text:0000000000000008 .L0 
     /tmp/ccrJdvvS.s:20     .text:000000000000000c .L0 
     /tmp/ccrJdvvS.s:23     .text:000000000000000c .L0 
     /tmp/ccrJdvvS.s:27     .text:0000000000000014 .L0 
     /tmp/ccrJdvvS.s:28     .text:0000000000000018 .L0 
     /tmp/ccrJdvvS.s:29     .text:0000000000000018 .L0 
     /tmp/ccrJdvvS.s:31     .text:000000000000001c .L0 
     /tmp/ccrJdvvS.s:33     .text:0000000000000020 .L0 
     /tmp/ccrJdvvS.s:9      .text:0000000000000000 _ZN10ThreadPoolC1Ev
     /tmp/ccrJdvvS.s:41     .text:0000000000000020 _ZN10ThreadPool4initEPvS0_
     /tmp/ccrJdvvS.s:44     .text:0000000000000020 .L0 
     /tmp/ccrJdvvS.s:46     .text:0000000000000020 .L0 
     /tmp/ccrJdvvS.s:47     .text:0000000000000024 .L0 
     /tmp/ccrJdvvS.s:49     .text:0000000000000028 .L0 
     /tmp/ccrJdvvS.s:51     .text:000000000000002c .L0 
     /tmp/ccrJdvvS.s:53     .text:000000000000002c .L0 
     /tmp/ccrJdvvS.s:54     .text:000000000000002c .L0 
     /tmp/ccrJdvvS.s:56     .text:0000000000000030 .L0 
     /tmp/ccrJdvvS.s:57     .text:0000000000000030 .L0 
     /tmp/ccrJdvvS.s:61     .text:0000000000000034 .L0 
     /tmp/ccrJdvvS.s:62     .text:0000000000000034 .L0 
     /tmp/ccrJdvvS.s:66     .text:0000000000000038 .L0 
     /tmp/ccrJdvvS.s:69     .text:0000000000000040 .L0 
     /tmp/ccrJdvvS.s:71     .text:0000000000000044 .L0 
     /tmp/ccrJdvvS.s:73     .text:0000000000000048 .L0 
     /tmp/ccrJdvvS.s:75     .text:000000000000004c .L0 
     /tmp/ccrJdvvS.s:82     .text:0000000000000054 .L0 
     /tmp/ccrJdvvS.s:83     .text:0000000000000058 .L0 
     /tmp/ccrJdvvS.s:84     .text:0000000000000058 .L0 
     /tmp/ccrJdvvS.s:86     .text:000000000000005c .L0 
     /tmp/ccrJdvvS.s:88     .text:0000000000000060 .L0 
     /tmp/ccrJdvvS.s:94     .text:0000000000000060 _ZN10ThreadPool16getSemaphoreByIdEj
     /tmp/ccrJdvvS.s:97     .text:0000000000000060 .L0 
     /tmp/ccrJdvvS.s:99     .text:0000000000000060 .L0 
     /tmp/ccrJdvvS.s:100    .text:0000000000000064 .L0 
     /tmp/ccrJdvvS.s:102    .text:0000000000000068 .L0 
     /tmp/ccrJdvvS.s:104    .text:000000000000006c .L0 
     /tmp/ccrJdvvS.s:109    .text:0000000000000070 .L0 
     /tmp/ccrJdvvS.s:110    .text:0000000000000070 .L0 
     /tmp/ccrJdvvS.s:115    .text:0000000000000078 .L0 
     /tmp/ccrJdvvS.s:119    .text:000000000000007c .L0 
     /tmp/ccrJdvvS.s:122    .text:0000000000000084 .L0 
     /tmp/ccrJdvvS.s:123    .text:0000000000000084 .L0 
     /tmp/ccrJdvvS.s:125    .text:0000000000000088 .L0 
     /tmp/ccrJdvvS.s:128    .text:0000000000000090 .L0 
     /tmp/ccrJdvvS.s:130    .text:0000000000000094 .L0 
     /tmp/ccrJdvvS.s:132    .text:0000000000000098 .L0 
     /tmp/ccrJdvvS.s:136    .text:00000000000000a4 .L0 
     /tmp/ccrJdvvS.s:138    .text:00000000000000a8 .L0 
     /tmp/ccrJdvvS.s:143    .text:00000000000000b0 .L0 
     /tmp/ccrJdvvS.s:146    .text:00000000000000b4 .L0 
GAS LISTING /tmp/ccrJdvvS.s 			page 8


     /tmp/ccrJdvvS.s:147    .text:00000000000000b8 .L0 
     /tmp/ccrJdvvS.s:148    .text:00000000000000b8 .L0 
     /tmp/ccrJdvvS.s:150    .text:00000000000000bc .L0 
     /tmp/ccrJdvvS.s:152    .text:00000000000000c0 .L0 
     /tmp/ccrJdvvS.s:158    .text:00000000000000c0 _ZN10ThreadPool8allocateEv
     /tmp/ccrJdvvS.s:161    .text:00000000000000c0 .L0 
     /tmp/ccrJdvvS.s:163    .text:00000000000000c0 .L0 
     /tmp/ccrJdvvS.s:164    .text:00000000000000c4 .L0 
     /tmp/ccrJdvvS.s:166    .text:00000000000000c8 .L0 
     /tmp/ccrJdvvS.s:168    .text:00000000000000cc .L0 
     /tmp/ccrJdvvS.s:172    .text:00000000000000cc .L0 
     /tmp/ccrJdvvS.s:173    .text:00000000000000cc .L0 
     /tmp/ccrJdvvS.s:177    .text:00000000000000d0 .L0 
     /tmp/ccrJdvvS.s:180    .text:00000000000000d8 .L0 
     /tmp/ccrJdvvS.s:181    .text:00000000000000d8 .L0 
     /tmp/ccrJdvvS.s:183    .text:00000000000000dc .L0 
     /tmp/ccrJdvvS.s:185    .text:00000000000000e0 .L0 
     /tmp/ccrJdvvS.s:188    .text:00000000000000e8 .L0 
     /tmp/ccrJdvvS.s:190    .text:00000000000000ec .L0 
     /tmp/ccrJdvvS.s:196    .text:00000000000000f4 .L0 
     /tmp/ccrJdvvS.s:197    .text:00000000000000f4 .L0 
     /tmp/ccrJdvvS.s:201    .text:00000000000000fc .L0 
     /tmp/ccrJdvvS.s:202    .text:00000000000000fc .L0 
     /tmp/ccrJdvvS.s:205    .text:0000000000000100 .L0 
     /tmp/ccrJdvvS.s:213    .text:0000000000000110 .L0 
     /tmp/ccrJdvvS.s:217    .text:0000000000000114 .L0 
     /tmp/ccrJdvvS.s:218    .text:0000000000000118 .L0 
     /tmp/ccrJdvvS.s:219    .text:0000000000000118 .L0 
     /tmp/ccrJdvvS.s:221    .text:000000000000011c .L0 
     /tmp/ccrJdvvS.s:223    .text:0000000000000120 .L0 
     /tmp/ccrJdvvS.s:229    .text:0000000000000120 _ZN10ThreadPool10deallocateEP6Thread
     /tmp/ccrJdvvS.s:232    .text:0000000000000120 .L0 
     /tmp/ccrJdvvS.s:234    .text:0000000000000120 .L0 
     /tmp/ccrJdvvS.s:235    .text:0000000000000124 .L0 
     /tmp/ccrJdvvS.s:237    .text:0000000000000128 .L0 
     /tmp/ccrJdvvS.s:239    .text:000000000000012c .L0 
     /tmp/ccrJdvvS.s:243    .text:000000000000012c .L0 
     /tmp/ccrJdvvS.s:244    .text:000000000000012c .L0 
     /tmp/ccrJdvvS.s:248    .text:0000000000000130 .L0 
     /tmp/ccrJdvvS.s:251    .text:0000000000000138 .L0 
     /tmp/ccrJdvvS.s:252    .text:0000000000000138 .L0 
     /tmp/ccrJdvvS.s:254    .text:000000000000013c .L0 
     /tmp/ccrJdvvS.s:256    .text:0000000000000140 .L0 
     /tmp/ccrJdvvS.s:259    .text:0000000000000148 .L0 
     /tmp/ccrJdvvS.s:261    .text:000000000000014c .L0 
     /tmp/ccrJdvvS.s:263    .text:0000000000000150 .L0 
     /tmp/ccrJdvvS.s:269    .text:0000000000000158 .L0 
     /tmp/ccrJdvvS.s:272    .text:000000000000015c .L0 
     /tmp/ccrJdvvS.s:274    .text:0000000000000160 .L0 
     /tmp/ccrJdvvS.s:278    .text:0000000000000164 .L0 
     /tmp/ccrJdvvS.s:279    .text:0000000000000164 .L0 
     /tmp/ccrJdvvS.s:280    .text:0000000000000168 .L0 
     /tmp/ccrJdvvS.s:281    .text:0000000000000168 .L0 
     /tmp/ccrJdvvS.s:283    .text:000000000000016c .L0 
     /tmp/ccrJdvvS.s:285    .text:0000000000000170 .L0 
     /tmp/ccrJdvvS.s:291    .text:0000000000000170 .L0 
     /tmp/ccrJdvvS.s:79     .text:0000000000000054 .L3
GAS LISTING /tmp/ccrJdvvS.s 			page 9


     /tmp/ccrJdvvS.s:64     .text:0000000000000038 .L5
     /tmp/ccrJdvvS.s:117    .text:000000000000007c .L10
     /tmp/ccrJdvvS.s:140    .text:00000000000000b0 .L11
     /tmp/ccrJdvvS.s:113    .text:0000000000000078 .L9
     /tmp/ccrJdvvS.s:144    .text:00000000000000b4 .L7
     /tmp/ccrJdvvS.s:210    .text:0000000000000110 .L17
     /tmp/ccrJdvvS.s:194    .text:00000000000000f4 .L19
     /tmp/ccrJdvvS.s:175    .text:00000000000000d0 .L16
     /tmp/ccrJdvvS.s:215    .text:0000000000000114 .L13
     /tmp/ccrJdvvS.s:276    .text:0000000000000164 .L20
     /tmp/ccrJdvvS.s:267    .text:0000000000000158 .L25
     /tmp/ccrJdvvS.s:246    .text:0000000000000130 .L23
     /tmp/ccrJdvvS.s:710    .debug_abbrev:0000000000000000 .Ldebug_abbrev0
     /tmp/ccrJdvvS.s:1325   .debug_str:00000000000001f9 .LASF35
     /tmp/ccrJdvvS.s:1323   .debug_str:00000000000001e6 .LASF36
     /tmp/ccrJdvvS.s:1281   .debug_str:0000000000000083 .LASF37
     /tmp/ccrJdvvS.s:5      .text:0000000000000000 .Ltext0
     /tmp/ccrJdvvS.s:288    .text:0000000000000170 .Letext0
     /tmp/ccrJdvvS.s:1261   .debug_line:0000000000000000 .Ldebug_line0
     /tmp/ccrJdvvS.s:1301   .debug_str:0000000000000147 .LASF0
     /tmp/ccrJdvvS.s:1305   .debug_str:000000000000015d .LASF1
     /tmp/ccrJdvvS.s:1295   .debug_str:000000000000011b .LASF2
     /tmp/ccrJdvvS.s:1287   .debug_str:00000000000000d4 .LASF4
     /tmp/ccrJdvvS.s:1321   .debug_str:00000000000001d4 .LASF3
     /tmp/ccrJdvvS.s:1271   .debug_str:0000000000000045 .LASF5
     /tmp/ccrJdvvS.s:1263   .debug_str:0000000000000000 .LASF6
     /tmp/ccrJdvvS.s:1307   .debug_str:0000000000000170 .LASF7
     /tmp/ccrJdvvS.s:1299   .debug_str:0000000000000134 .LASF8
     /tmp/ccrJdvvS.s:1319   .debug_str:00000000000001c6 .LASF9
     /tmp/ccrJdvvS.s:1335   .debug_str:00000000000002ec .LASF10
     /tmp/ccrJdvvS.s:1285   .debug_str:00000000000000c6 .LASF11
     /tmp/ccrJdvvS.s:1313   .debug_str:000000000000019c .LASF12
     /tmp/ccrJdvvS.s:1327   .debug_str:00000000000002bd .LASF13
     /tmp/ccrJdvvS.s:1273   .debug_str:000000000000004c .LASF14
     /tmp/ccrJdvvS.s:1265   .debug_str:0000000000000009 .LASF15
     /tmp/ccrJdvvS.s:1275   .debug_str:000000000000005c .LASF16
     /tmp/ccrJdvvS.s:1317   .debug_str:00000000000001b0 .LASF17
     /tmp/ccrJdvvS.s:1277   .debug_str:0000000000000068 .LASF18
     /tmp/ccrJdvvS.s:1297   .debug_str:0000000000000129 .LASF19
     /tmp/ccrJdvvS.s:1309   .debug_str:0000000000000183 .LASF21
     /tmp/ccrJdvvS.s:1311   .debug_str:0000000000000197 .LASF20
     /tmp/ccrJdvvS.s:1267   .debug_str:0000000000000019 .LASF22
     /tmp/ccrJdvvS.s:1291   .debug_str:00000000000000ff .LASF23
     /tmp/ccrJdvvS.s:1289   .debug_str:00000000000000db .LASF25
     /tmp/ccrJdvvS.s:1303   .debug_str:0000000000000154 .LASF24
     /tmp/ccrJdvvS.s:1339   .debug_str:0000000000000301 .LASF26
     /tmp/ccrJdvvS.s:1293   .debug_str:0000000000000110 .LASF27
     /tmp/ccrJdvvS.s:1283   .debug_str:00000000000000a1 .LASF28
     /tmp/ccrJdvvS.s:1337   .debug_str:00000000000002fc .LASF29
     /tmp/ccrJdvvS.s:1331   .debug_str:00000000000002d3 .LASF30
     /tmp/ccrJdvvS.s:1329   .debug_str:00000000000002cc .LASF38
     /tmp/ccrJdvvS.s:1279   .debug_str:000000000000007e .LASF31
     /tmp/ccrJdvvS.s:230    .text:0000000000000120 .LFB9
     /tmp/ccrJdvvS.s:286    .text:0000000000000170 .LFE9
     /tmp/ccrJdvvS.s:1315   .debug_str:00000000000001ab .LASF32
     /tmp/ccrJdvvS.s:242    .text:000000000000012c .LBB6
     /tmp/ccrJdvvS.s:277    .text:0000000000000164 .LBE6
GAS LISTING /tmp/ccrJdvvS.s 			page 10


     /tmp/ccrJdvvS.s:1148   .debug_loc:0000000000000000 .LLST5
     /tmp/ccrJdvvS.s:159    .text:00000000000000c0 .LFB8
     /tmp/ccrJdvvS.s:224    .text:0000000000000120 .LFE8
     /tmp/ccrJdvvS.s:1164   .debug_loc:000000000000004a .LLST3
     /tmp/ccrJdvvS.s:171    .text:00000000000000cc .LBB5
     /tmp/ccrJdvvS.s:211    .text:0000000000000110 .LBE5
     /tmp/ccrJdvvS.s:1189   .debug_loc:00000000000000ac .LLST4
     /tmp/ccrJdvvS.s:95     .text:0000000000000060 .LFB7
     /tmp/ccrJdvvS.s:153    .text:00000000000000c0 .LFE7
     /tmp/ccrJdvvS.s:1209   .debug_loc:0000000000000109 .LLST1
     /tmp/ccrJdvvS.s:108    .text:0000000000000070 .LBB4
     /tmp/ccrJdvvS.s:141    .text:00000000000000b0 .LBE4
     /tmp/ccrJdvvS.s:1220   .debug_loc:000000000000013f .LLST2
     /tmp/ccrJdvvS.s:42     .text:0000000000000020 .LFB6
     /tmp/ccrJdvvS.s:89     .text:0000000000000060 .LFE6
     /tmp/ccrJdvvS.s:1269   .debug_str:0000000000000034 .LASF33
     /tmp/ccrJdvvS.s:1341   .debug_str:000000000000031c .LASF34
     /tmp/ccrJdvvS.s:60     .text:0000000000000034 .LBB3
     /tmp/ccrJdvvS.s:80     .text:0000000000000054 .LBE3
     /tmp/ccrJdvvS.s:1232   .debug_loc:0000000000000176 .LLST0
     /tmp/ccrJdvvS.s:1333   .debug_str:00000000000002d8 .LASF39
     /tmp/ccrJdvvS.s:10     .text:0000000000000000 .LFB4
     /tmp/ccrJdvvS.s:34     .text:0000000000000020 .LFE4
     /tmp/ccrJdvvS.s:241    .text:000000000000012c .LVL20
     /tmp/ccrJdvvS.s:245    .text:0000000000000130 .LVL21
     /tmp/ccrJdvvS.s:264    .text:0000000000000154 .LVL22
     /tmp/ccrJdvvS.s:266    .text:0000000000000158 .LVL23
     /tmp/ccrJdvvS.s:270    .text:000000000000015c .LVL24
     /tmp/ccrJdvvS.s:162    .text:00000000000000c0 .LVL10
     /tmp/ccrJdvvS.s:203    .text:0000000000000100 .LVL16
     /tmp/ccrJdvvS.s:209    .text:0000000000000110 .LVL17
     /tmp/ccrJdvvS.s:214    .text:0000000000000114 .LVL18
     /tmp/ccrJdvvS.s:170    .text:00000000000000cc .LVL11
     /tmp/ccrJdvvS.s:174    .text:00000000000000d0 .LVL12
     /tmp/ccrJdvvS.s:191    .text:00000000000000f0 .LVL13
     /tmp/ccrJdvvS.s:193    .text:00000000000000f4 .LVL14
     /tmp/ccrJdvvS.s:198    .text:00000000000000f8 .LVL15
     /tmp/ccrJdvvS.s:98     .text:0000000000000060 .LVL6
     /tmp/ccrJdvvS.s:112    .text:0000000000000078 .LVL8
     /tmp/ccrJdvvS.s:107    .text:0000000000000070 .LVL7
     /tmp/ccrJdvvS.s:59     .text:0000000000000034 .LVL2
     /tmp/ccrJdvvS.s:63     .text:0000000000000038 .LVL3
     /tmp/ccrJdvvS.s:76     .text:0000000000000050 .LVL4
     /tmp/ccrJdvvS.s:78     .text:0000000000000054 .LVL5
     /tmp/ccrJdvvS.s:292    .debug_info:0000000000000000 .Ldebug_info0

NO UNDEFINED SYMBOLS
