GAS LISTING /tmp/ccfK279k.s 			page 1


   1              		.file	"ThreadPool.cpp"
   2              		.option pic
   3              		.option norelax
   4              		.text
   5              	.Ltext0:
   6              		.align	2
   7              		.globl	_ZN10ThreadPoolC2Ev
   9              	_ZN10ThreadPoolC2Ev:
  10              	.LFB2:
  11              		.file 1 "src/ThreadPool.cpp"
   1:src/ThreadPool.cpp **** #include "../h/ThreadPool.hpp"
   2:src/ThreadPool.cpp **** 
   3:src/ThreadPool.cpp **** ThreadPool::ThreadPool() : pool(nullptr), used(nullptr) {}
  12              		.loc 1 3 1
  13              		.cfi_startproc
  14              	.LVL0:
  15 0000 130101FF 		addi	sp,sp,-16
  16              		.cfi_def_cfa_offset 16
  17 0004 23348100 		sd	s0,8(sp)
  18              		.cfi_offset 8, -8
  19 0008 13040101 		addi	s0,sp,16
  20              		.cfi_def_cfa 8, 0
  21              	.LBB2:
  22              		.loc 1 3 55 is_stmt 0
  23 000c 23300500 		sd	zero,0(a0)
  24 0010 23340500 		sd	zero,8(a0)
  25              	.LBE2:
  26              		.loc 1 3 58
  27 0014 03348100 		ld	s0,8(sp)
  28              		.cfi_restore 8
  29              		.cfi_def_cfa 2, 16
  30 0018 13010101 		addi	sp,sp,16
  31              		.cfi_def_cfa_offset 0
  32 001c 67800000 		jr	ra
  33              		.cfi_endproc
  34              	.LFE2:
  36              		.globl	_ZN10ThreadPoolC1Ev
  37              		.set	_ZN10ThreadPoolC1Ev,_ZN10ThreadPoolC2Ev
  38              		.align	2
  39              		.globl	_ZN10ThreadPool4initEPvS0_
  41              	_ZN10ThreadPool4initEPvS0_:
  42              	.LFB4:
   4:src/ThreadPool.cpp **** 
   5:src/ThreadPool.cpp **** void ThreadPool::init(void* poolStartAddress, void* usedStartAddress) {
  43              		.loc 1 5 71 is_stmt 1
  44              		.cfi_startproc
  45              	.LVL1:
  46 0020 130101FF 		addi	sp,sp,-16
  47              		.cfi_def_cfa_offset 16
  48 0024 23348100 		sd	s0,8(sp)
  49              		.cfi_offset 8, -8
  50 0028 13040101 		addi	s0,sp,16
  51              		.cfi_def_cfa 8, 0
   6:src/ThreadPool.cpp ****     pool = (Thread*)poolStartAddress;
  52              		.loc 1 6 5
  53              		.loc 1 6 10 is_stmt 0
  54 002c 2330B500 		sd	a1,0(a0)
GAS LISTING /tmp/ccfK279k.s 			page 2


   7:src/ThreadPool.cpp ****     used = (bool*)usedStartAddress;
  55              		.loc 1 7 5 is_stmt 1
  56              		.loc 1 7 10 is_stmt 0
  57 0030 2334C500 		sd	a2,8(a0)
   8:src/ThreadPool.cpp ****     for (int i = 0; i < MAX_THREADS; i++) used[i] = false;
  58              		.loc 1 8 5 is_stmt 1
  59              	.LVL2:
  60              	.LBB3:
  61              		.loc 1 8 14 is_stmt 0
  62 0034 93070000 		li	a5,0
  63              	.LVL3:
  64              	.L5:
  65              		.loc 1 8 23 is_stmt 1 discriminator 3
  66 0038 13079000 		li	a4,9
  67 003c 634CF700 		bgt	a5,a4,.L3
  68              		.loc 1 8 43 discriminator 2
  69 0040 03378500 		ld	a4,8(a0)
  70              		.loc 1 8 49 is_stmt 0 discriminator 2
  71 0044 3307F700 		add	a4,a4,a5
  72              		.loc 1 8 51 discriminator 2
  73 0048 23000700 		sb	zero,0(a4)
  74              		.loc 1 8 5 is_stmt 1 discriminator 2
  75 004c 9B871700 		addiw	a5,a5,1
  76              	.LVL4:
  77 0050 6FF09FFE 		j	.L5
  78              	.LVL5:
  79              	.L3:
  80              	.LBE3:
   9:src/ThreadPool.cpp **** }
  81              		.loc 1 9 1 is_stmt 0
  82 0054 03348100 		ld	s0,8(sp)
  83              		.cfi_restore 8
  84              		.cfi_def_cfa 2, 16
  85 0058 13010101 		addi	sp,sp,16
  86              		.cfi_def_cfa_offset 0
  87 005c 67800000 		jr	ra
  88              		.cfi_endproc
  89              	.LFE4:
  91              		.align	2
  92              		.globl	_ZN10ThreadPool16getSemaphoreByIdEj
  94              	_ZN10ThreadPool16getSemaphoreByIdEj:
  95              	.LFB5:
  10:src/ThreadPool.cpp **** 
  11:src/ThreadPool.cpp **** Thread* ThreadPool::getSemaphoreById(thread_t id){
  96              		.loc 1 11 50 is_stmt 1
  97              		.cfi_startproc
  98              	.LVL6:
  99 0060 130101FF 		addi	sp,sp,-16
 100              		.cfi_def_cfa_offset 16
 101 0064 23348100 		sd	s0,8(sp)
 102              		.cfi_offset 8, -8
 103 0068 13040101 		addi	s0,sp,16
 104              		.cfi_def_cfa 8, 0
 105 006c 93060500 		mv	a3,a0
  12:src/ThreadPool.cpp ****     for(int i = 0; i < MAX_THREADS; i++){
 106              		.loc 1 12 5
 107              	.LVL7:
GAS LISTING /tmp/ccfK279k.s 			page 3


 108              	.LBB4:
 109              		.loc 1 12 13 is_stmt 0
 110 0070 93070000 		li	a5,0
 111 0074 6F008000 		j	.L10
 112              	.LVL8:
 113              	.L9:
 114              		.loc 1 12 5 is_stmt 1 discriminator 2
 115 0078 9B871700 		addiw	a5,a5,1
 116              	.LVL9:
 117              	.L10:
 118              		.loc 1 12 22 discriminator 1
 119 007c 13079000 		li	a4,9
 120 0080 634AF702 		bgt	a5,a4,.L11
  13:src/ThreadPool.cpp ****         if(used[i] == true && pool[i].threadId == id){
 121              		.loc 1 13 9
 122              		.loc 1 13 12 is_stmt 0
 123 0084 03B78600 		ld	a4,8(a3)
 124              		.loc 1 13 18
 125 0088 3307F700 		add	a4,a4,a5
 126 008c 03470700 		lbu	a4,0(a4)
 127              		.loc 1 13 9
 128 0090 E30407FE 		beqz	a4,.L9
 129              		.loc 1 13 31 discriminator 1
 130 0094 03B50600 		ld	a0,0(a3)
 131              		.loc 1 13 37 discriminator 1
 132 0098 13974700 		slli	a4,a5,4
 133 009c 3307F700 		add	a4,a4,a5
 134 00a0 13173700 		slli	a4,a4,3
 135 00a4 3305E500 		add	a0,a0,a4
 136              		.loc 1 13 39 discriminator 1
 137 00a8 03274501 		lw	a4,20(a0)
 138              		.loc 1 13 28 discriminator 1
 139 00ac E316B7FC 		bne	a4,a1,.L9
 140 00b0 6F008000 		j	.L7
 141              	.L11:
 142              	.LBE4:
  14:src/ThreadPool.cpp ****             return &pool[i];
  15:src/ThreadPool.cpp ****         }
  16:src/ThreadPool.cpp ****     }
  17:src/ThreadPool.cpp ****     return nullptr;
 143              		.loc 1 17 12
 144 00b4 13050000 		li	a0,0
 145              	.L7:
  18:src/ThreadPool.cpp **** }
 146              		.loc 1 18 1
 147 00b8 03348100 		ld	s0,8(sp)
 148              		.cfi_restore 8
 149              		.cfi_def_cfa 2, 16
 150 00bc 13010101 		addi	sp,sp,16
 151              		.cfi_def_cfa_offset 0
 152 00c0 67800000 		jr	ra
 153              		.cfi_endproc
 154              	.LFE5:
 156              		.align	2
 157              		.globl	_ZN10ThreadPool8allocateEv
 159              	_ZN10ThreadPool8allocateEv:
 160              	.LFB6:
GAS LISTING /tmp/ccfK279k.s 			page 4


  19:src/ThreadPool.cpp **** Thread* ThreadPool::allocate() {
 161              		.loc 1 19 32 is_stmt 1
 162              		.cfi_startproc
 163              	.LVL10:
 164 00c4 130101FF 		addi	sp,sp,-16
 165              		.cfi_def_cfa_offset 16
 166 00c8 23348100 		sd	s0,8(sp)
 167              		.cfi_offset 8, -8
 168 00cc 13040101 		addi	s0,sp,16
 169              		.cfi_def_cfa 8, 0
  20:src/ThreadPool.cpp ****     for (int i = 0; i < MAX_THREADS; i++) {
 170              		.loc 1 20 5
 171              	.LVL11:
 172              	.LBB5:
 173              		.loc 1 20 14 is_stmt 0
 174 00d0 93070000 		li	a5,0
 175              	.LVL12:
 176              	.L16:
 177              		.loc 1 20 23 is_stmt 1 discriminator 1
 178 00d4 13079000 		li	a4,9
 179 00d8 6340F704 		bgt	a5,a4,.L17
  21:src/ThreadPool.cpp ****         if (!used[i]) {
 180              		.loc 1 21 9
 181              		.loc 1 21 14 is_stmt 0
 182 00dc 03378500 		ld	a4,8(a0)
 183              		.loc 1 21 19
 184 00e0 13860700 		mv	a2,a5
 185              		.loc 1 21 20
 186 00e4 3307F700 		add	a4,a4,a5
 187 00e8 83460700 		lbu	a3,0(a4)
 188              		.loc 1 21 9
 189 00ec 63860600 		beqz	a3,.L19
  20:src/ThreadPool.cpp ****     for (int i = 0; i < MAX_THREADS; i++) {
 190              		.loc 1 20 5 is_stmt 1 discriminator 2
 191 00f0 9B871700 		addiw	a5,a5,1
 192              	.LVL13:
 193 00f4 6FF01FFE 		j	.L16
 194              	.LVL14:
 195              	.L19:
  22:src/ThreadPool.cpp ****             used[i] = true;
 196              		.loc 1 22 13
 197              		.loc 1 22 21 is_stmt 0
 198 00f8 93071000 		li	a5,1
 199              	.LVL15:
 200 00fc 2300F700 		sb	a5,0(a4)
  23:src/ThreadPool.cpp ****             return &pool[i];
 201              		.loc 1 23 13 is_stmt 1
 202              		.loc 1 23 21 is_stmt 0
 203 0100 03350500 		ld	a0,0(a0)
 204              	.LVL16:
 205              		.loc 1 23 27
 206 0104 93174600 		slli	a5,a2,4
 207 0108 3386C700 		add	a2,a5,a2
 208 010c 13163600 		slli	a2,a2,3
 209 0110 3305C500 		add	a0,a0,a2
 210 0114 6F008000 		j	.L13
 211              	.LVL17:
GAS LISTING /tmp/ccfK279k.s 			page 5


 212              	.L17:
 213              	.LBE5:
  24:src/ThreadPool.cpp ****         }
  25:src/ThreadPool.cpp ****     }
  26:src/ThreadPool.cpp ****     return nullptr;
 214              		.loc 1 26 12
 215 0118 13050000 		li	a0,0
 216              	.LVL18:
 217              	.L13:
  27:src/ThreadPool.cpp **** }
 218              		.loc 1 27 1
 219 011c 03348100 		ld	s0,8(sp)
 220              		.cfi_restore 8
 221              		.cfi_def_cfa 2, 16
 222 0120 13010101 		addi	sp,sp,16
 223              		.cfi_def_cfa_offset 0
 224 0124 67800000 		jr	ra
 225              		.cfi_endproc
 226              	.LFE6:
 228              		.align	2
 229              		.globl	_ZN10ThreadPool10deallocateEP6Thread
 231              	_ZN10ThreadPool10deallocateEP6Thread:
 232              	.LFB7:
  28:src/ThreadPool.cpp **** 
  29:src/ThreadPool.cpp **** void ThreadPool::deallocate(Thread* obj) {
 233              		.loc 1 29 42 is_stmt 1
 234              		.cfi_startproc
 235              	.LVL19:
 236 0128 130101FF 		addi	sp,sp,-16
 237              		.cfi_def_cfa_offset 16
 238 012c 23348100 		sd	s0,8(sp)
 239              		.cfi_offset 8, -8
 240 0130 13040101 		addi	s0,sp,16
 241              		.cfi_def_cfa 8, 0
  30:src/ThreadPool.cpp ****     for (int i = 0; i < MAX_THREADS; i++) {
 242              		.loc 1 30 5
 243              	.LVL20:
 244              	.LBB6:
 245              		.loc 1 30 14 is_stmt 0
 246 0134 93070000 		li	a5,0
 247              	.LVL21:
 248              	.L23:
 249              		.loc 1 30 23 is_stmt 1 discriminator 1
 250 0138 13079000 		li	a4,9
 251 013c 634AF702 		bgt	a5,a4,.L20
  31:src/ThreadPool.cpp ****         if (&pool[i] == obj) {
 252              		.loc 1 31 9
 253              		.loc 1 31 14 is_stmt 0
 254 0140 83360500 		ld	a3,0(a0)
 255              		.loc 1 31 19
 256 0144 13860700 		mv	a2,a5
 257              		.loc 1 31 20
 258 0148 13974700 		slli	a4,a5,4
 259 014c 3307F700 		add	a4,a4,a5
 260 0150 13173700 		slli	a4,a4,3
 261              		.loc 1 31 13
 262 0154 3387E600 		add	a4,a3,a4
GAS LISTING /tmp/ccfK279k.s 			page 6


 263              		.loc 1 31 9
 264 0158 6306B700 		beq	a4,a1,.L25
  30:src/ThreadPool.cpp ****     for (int i = 0; i < MAX_THREADS; i++) {
 265              		.loc 1 30 5 is_stmt 1 discriminator 2
 266 015c 9B871700 		addiw	a5,a5,1
 267              	.LVL22:
 268 0160 6FF09FFD 		j	.L23
 269              	.LVL23:
 270              	.L25:
  32:src/ThreadPool.cpp ****             used[i] = false;
 271              		.loc 1 32 13
 272 0164 83378500 		ld	a5,8(a0)
 273              	.LVL24:
 274              		.loc 1 32 19 is_stmt 0
 275 0168 3386C700 		add	a2,a5,a2
 276              		.loc 1 32 21
 277 016c 23000600 		sb	zero,0(a2)
  33:src/ThreadPool.cpp ****             return;
 278              		.loc 1 33 13 is_stmt 1
 279              	.L20:
 280              	.LBE6:
  34:src/ThreadPool.cpp ****         }
  35:src/ThreadPool.cpp ****     }
  36:src/ThreadPool.cpp **** }
 281              		.loc 1 36 1 is_stmt 0
 282 0170 03348100 		ld	s0,8(sp)
 283              		.cfi_restore 8
 284              		.cfi_def_cfa 2, 16
 285 0174 13010101 		addi	sp,sp,16
 286              		.cfi_def_cfa_offset 0
 287 0178 67800000 		jr	ra
 288              		.cfi_endproc
 289              	.LFE7:
 291              	.Letext0:
 292              		.file 2 "src/../h/../lib/hw.h"
 293              		.file 3 "src/../h/ThreadPool.hpp"
GAS LISTING /tmp/ccfK279k.s 			page 7


DEFINED SYMBOLS
                            *ABS*:0000000000000000 ThreadPool.cpp
     /tmp/ccfK279k.s:9      .text:0000000000000000 _ZN10ThreadPoolC2Ev
     /tmp/ccfK279k.s:13     .text:0000000000000000 .L0 
     /tmp/ccfK279k.s:15     .text:0000000000000000 .L0 
     /tmp/ccfK279k.s:16     .text:0000000000000004 .L0 
     /tmp/ccfK279k.s:18     .text:0000000000000008 .L0 
     /tmp/ccfK279k.s:20     .text:000000000000000c .L0 
     /tmp/ccfK279k.s:23     .text:000000000000000c .L0 
     /tmp/ccfK279k.s:27     .text:0000000000000014 .L0 
     /tmp/ccfK279k.s:28     .text:0000000000000018 .L0 
     /tmp/ccfK279k.s:29     .text:0000000000000018 .L0 
     /tmp/ccfK279k.s:31     .text:000000000000001c .L0 
     /tmp/ccfK279k.s:33     .text:0000000000000020 .L0 
     /tmp/ccfK279k.s:9      .text:0000000000000000 _ZN10ThreadPoolC1Ev
     /tmp/ccfK279k.s:41     .text:0000000000000020 _ZN10ThreadPool4initEPvS0_
     /tmp/ccfK279k.s:44     .text:0000000000000020 .L0 
     /tmp/ccfK279k.s:46     .text:0000000000000020 .L0 
     /tmp/ccfK279k.s:47     .text:0000000000000024 .L0 
     /tmp/ccfK279k.s:49     .text:0000000000000028 .L0 
     /tmp/ccfK279k.s:51     .text:000000000000002c .L0 
     /tmp/ccfK279k.s:53     .text:000000000000002c .L0 
     /tmp/ccfK279k.s:54     .text:000000000000002c .L0 
     /tmp/ccfK279k.s:56     .text:0000000000000030 .L0 
     /tmp/ccfK279k.s:57     .text:0000000000000030 .L0 
     /tmp/ccfK279k.s:61     .text:0000000000000034 .L0 
     /tmp/ccfK279k.s:62     .text:0000000000000034 .L0 
     /tmp/ccfK279k.s:66     .text:0000000000000038 .L0 
     /tmp/ccfK279k.s:69     .text:0000000000000040 .L0 
     /tmp/ccfK279k.s:71     .text:0000000000000044 .L0 
     /tmp/ccfK279k.s:73     .text:0000000000000048 .L0 
     /tmp/ccfK279k.s:75     .text:000000000000004c .L0 
     /tmp/ccfK279k.s:82     .text:0000000000000054 .L0 
     /tmp/ccfK279k.s:83     .text:0000000000000058 .L0 
     /tmp/ccfK279k.s:84     .text:0000000000000058 .L0 
     /tmp/ccfK279k.s:86     .text:000000000000005c .L0 
     /tmp/ccfK279k.s:88     .text:0000000000000060 .L0 
     /tmp/ccfK279k.s:94     .text:0000000000000060 _ZN10ThreadPool16getSemaphoreByIdEj
     /tmp/ccfK279k.s:97     .text:0000000000000060 .L0 
     /tmp/ccfK279k.s:99     .text:0000000000000060 .L0 
     /tmp/ccfK279k.s:100    .text:0000000000000064 .L0 
     /tmp/ccfK279k.s:102    .text:0000000000000068 .L0 
     /tmp/ccfK279k.s:104    .text:000000000000006c .L0 
     /tmp/ccfK279k.s:109    .text:0000000000000070 .L0 
     /tmp/ccfK279k.s:110    .text:0000000000000070 .L0 
     /tmp/ccfK279k.s:115    .text:0000000000000078 .L0 
     /tmp/ccfK279k.s:119    .text:000000000000007c .L0 
     /tmp/ccfK279k.s:122    .text:0000000000000084 .L0 
     /tmp/ccfK279k.s:123    .text:0000000000000084 .L0 
     /tmp/ccfK279k.s:125    .text:0000000000000088 .L0 
     /tmp/ccfK279k.s:128    .text:0000000000000090 .L0 
     /tmp/ccfK279k.s:130    .text:0000000000000094 .L0 
     /tmp/ccfK279k.s:132    .text:0000000000000098 .L0 
     /tmp/ccfK279k.s:137    .text:00000000000000a8 .L0 
     /tmp/ccfK279k.s:139    .text:00000000000000ac .L0 
     /tmp/ccfK279k.s:144    .text:00000000000000b4 .L0 
     /tmp/ccfK279k.s:147    .text:00000000000000b8 .L0 
GAS LISTING /tmp/ccfK279k.s 			page 8


     /tmp/ccfK279k.s:148    .text:00000000000000bc .L0 
     /tmp/ccfK279k.s:149    .text:00000000000000bc .L0 
     /tmp/ccfK279k.s:151    .text:00000000000000c0 .L0 
     /tmp/ccfK279k.s:153    .text:00000000000000c4 .L0 
     /tmp/ccfK279k.s:159    .text:00000000000000c4 _ZN10ThreadPool8allocateEv
     /tmp/ccfK279k.s:162    .text:00000000000000c4 .L0 
     /tmp/ccfK279k.s:164    .text:00000000000000c4 .L0 
     /tmp/ccfK279k.s:165    .text:00000000000000c8 .L0 
     /tmp/ccfK279k.s:167    .text:00000000000000cc .L0 
     /tmp/ccfK279k.s:169    .text:00000000000000d0 .L0 
     /tmp/ccfK279k.s:173    .text:00000000000000d0 .L0 
     /tmp/ccfK279k.s:174    .text:00000000000000d0 .L0 
     /tmp/ccfK279k.s:178    .text:00000000000000d4 .L0 
     /tmp/ccfK279k.s:181    .text:00000000000000dc .L0 
     /tmp/ccfK279k.s:182    .text:00000000000000dc .L0 
     /tmp/ccfK279k.s:184    .text:00000000000000e0 .L0 
     /tmp/ccfK279k.s:186    .text:00000000000000e4 .L0 
     /tmp/ccfK279k.s:189    .text:00000000000000ec .L0 
     /tmp/ccfK279k.s:191    .text:00000000000000f0 .L0 
     /tmp/ccfK279k.s:197    .text:00000000000000f8 .L0 
     /tmp/ccfK279k.s:198    .text:00000000000000f8 .L0 
     /tmp/ccfK279k.s:202    .text:0000000000000100 .L0 
     /tmp/ccfK279k.s:203    .text:0000000000000100 .L0 
     /tmp/ccfK279k.s:206    .text:0000000000000104 .L0 
     /tmp/ccfK279k.s:215    .text:0000000000000118 .L0 
     /tmp/ccfK279k.s:219    .text:000000000000011c .L0 
     /tmp/ccfK279k.s:220    .text:0000000000000120 .L0 
     /tmp/ccfK279k.s:221    .text:0000000000000120 .L0 
     /tmp/ccfK279k.s:223    .text:0000000000000124 .L0 
     /tmp/ccfK279k.s:225    .text:0000000000000128 .L0 
     /tmp/ccfK279k.s:231    .text:0000000000000128 _ZN10ThreadPool10deallocateEP6Thread
     /tmp/ccfK279k.s:234    .text:0000000000000128 .L0 
     /tmp/ccfK279k.s:236    .text:0000000000000128 .L0 
     /tmp/ccfK279k.s:237    .text:000000000000012c .L0 
     /tmp/ccfK279k.s:239    .text:0000000000000130 .L0 
     /tmp/ccfK279k.s:241    .text:0000000000000134 .L0 
     /tmp/ccfK279k.s:245    .text:0000000000000134 .L0 
     /tmp/ccfK279k.s:246    .text:0000000000000134 .L0 
     /tmp/ccfK279k.s:250    .text:0000000000000138 .L0 
     /tmp/ccfK279k.s:253    .text:0000000000000140 .L0 
     /tmp/ccfK279k.s:254    .text:0000000000000140 .L0 
     /tmp/ccfK279k.s:256    .text:0000000000000144 .L0 
     /tmp/ccfK279k.s:258    .text:0000000000000148 .L0 
     /tmp/ccfK279k.s:262    .text:0000000000000154 .L0 
     /tmp/ccfK279k.s:264    .text:0000000000000158 .L0 
     /tmp/ccfK279k.s:266    .text:000000000000015c .L0 
     /tmp/ccfK279k.s:272    .text:0000000000000164 .L0 
     /tmp/ccfK279k.s:275    .text:0000000000000168 .L0 
     /tmp/ccfK279k.s:277    .text:000000000000016c .L0 
     /tmp/ccfK279k.s:281    .text:0000000000000170 .L0 
     /tmp/ccfK279k.s:282    .text:0000000000000170 .L0 
     /tmp/ccfK279k.s:283    .text:0000000000000174 .L0 
     /tmp/ccfK279k.s:284    .text:0000000000000174 .L0 
     /tmp/ccfK279k.s:286    .text:0000000000000178 .L0 
     /tmp/ccfK279k.s:288    .text:000000000000017c .L0 
     /tmp/ccfK279k.s:294    .text:000000000000017c .L0 
     /tmp/ccfK279k.s:79     .text:0000000000000054 .L3
GAS LISTING /tmp/ccfK279k.s 			page 9


     /tmp/ccfK279k.s:64     .text:0000000000000038 .L5
     /tmp/ccfK279k.s:117    .text:000000000000007c .L10
     /tmp/ccfK279k.s:141    .text:00000000000000b4 .L11
     /tmp/ccfK279k.s:113    .text:0000000000000078 .L9
     /tmp/ccfK279k.s:145    .text:00000000000000b8 .L7
     /tmp/ccfK279k.s:212    .text:0000000000000118 .L17
     /tmp/ccfK279k.s:195    .text:00000000000000f8 .L19
     /tmp/ccfK279k.s:176    .text:00000000000000d4 .L16
     /tmp/ccfK279k.s:217    .text:000000000000011c .L13
     /tmp/ccfK279k.s:279    .text:0000000000000170 .L20
     /tmp/ccfK279k.s:270    .text:0000000000000164 .L25
     /tmp/ccfK279k.s:248    .text:0000000000000138 .L23
     /tmp/ccfK279k.s:713    .debug_abbrev:0000000000000000 .Ldebug_abbrev0
     /tmp/ccfK279k.s:1328   .debug_str:00000000000001f9 .LASF35
     /tmp/ccfK279k.s:1326   .debug_str:00000000000001e6 .LASF36
     /tmp/ccfK279k.s:1284   .debug_str:0000000000000083 .LASF37
     /tmp/ccfK279k.s:5      .text:0000000000000000 .Ltext0
     /tmp/ccfK279k.s:291    .text:000000000000017c .Letext0
     /tmp/ccfK279k.s:1264   .debug_line:0000000000000000 .Ldebug_line0
     /tmp/ccfK279k.s:1304   .debug_str:0000000000000147 .LASF0
     /tmp/ccfK279k.s:1308   .debug_str:000000000000015d .LASF1
     /tmp/ccfK279k.s:1298   .debug_str:000000000000011b .LASF2
     /tmp/ccfK279k.s:1290   .debug_str:00000000000000d4 .LASF4
     /tmp/ccfK279k.s:1324   .debug_str:00000000000001d4 .LASF3
     /tmp/ccfK279k.s:1274   .debug_str:0000000000000045 .LASF5
     /tmp/ccfK279k.s:1266   .debug_str:0000000000000000 .LASF6
     /tmp/ccfK279k.s:1310   .debug_str:0000000000000170 .LASF7
     /tmp/ccfK279k.s:1302   .debug_str:0000000000000134 .LASF8
     /tmp/ccfK279k.s:1322   .debug_str:00000000000001c6 .LASF9
     /tmp/ccfK279k.s:1338   .debug_str:00000000000002ec .LASF10
     /tmp/ccfK279k.s:1288   .debug_str:00000000000000c6 .LASF11
     /tmp/ccfK279k.s:1316   .debug_str:000000000000019c .LASF12
     /tmp/ccfK279k.s:1330   .debug_str:00000000000002bd .LASF13
     /tmp/ccfK279k.s:1276   .debug_str:000000000000004c .LASF14
     /tmp/ccfK279k.s:1268   .debug_str:0000000000000009 .LASF15
     /tmp/ccfK279k.s:1278   .debug_str:000000000000005c .LASF16
     /tmp/ccfK279k.s:1320   .debug_str:00000000000001b0 .LASF17
     /tmp/ccfK279k.s:1280   .debug_str:0000000000000068 .LASF18
     /tmp/ccfK279k.s:1300   .debug_str:0000000000000129 .LASF19
     /tmp/ccfK279k.s:1312   .debug_str:0000000000000183 .LASF21
     /tmp/ccfK279k.s:1314   .debug_str:0000000000000197 .LASF20
     /tmp/ccfK279k.s:1270   .debug_str:0000000000000019 .LASF22
     /tmp/ccfK279k.s:1294   .debug_str:00000000000000ff .LASF23
     /tmp/ccfK279k.s:1292   .debug_str:00000000000000db .LASF25
     /tmp/ccfK279k.s:1306   .debug_str:0000000000000154 .LASF24
     /tmp/ccfK279k.s:1342   .debug_str:0000000000000301 .LASF26
     /tmp/ccfK279k.s:1296   .debug_str:0000000000000110 .LASF27
     /tmp/ccfK279k.s:1286   .debug_str:00000000000000a1 .LASF28
     /tmp/ccfK279k.s:1340   .debug_str:00000000000002fc .LASF29
     /tmp/ccfK279k.s:1334   .debug_str:00000000000002d3 .LASF30
     /tmp/ccfK279k.s:1332   .debug_str:00000000000002cc .LASF38
     /tmp/ccfK279k.s:1282   .debug_str:000000000000007e .LASF31
     /tmp/ccfK279k.s:232    .text:0000000000000128 .LFB7
     /tmp/ccfK279k.s:289    .text:000000000000017c .LFE7
     /tmp/ccfK279k.s:1318   .debug_str:00000000000001ab .LASF32
     /tmp/ccfK279k.s:244    .text:0000000000000134 .LBB6
     /tmp/ccfK279k.s:280    .text:0000000000000170 .LBE6
GAS LISTING /tmp/ccfK279k.s 			page 10


     /tmp/ccfK279k.s:1151   .debug_loc:0000000000000000 .LLST5
     /tmp/ccfK279k.s:160    .text:00000000000000c4 .LFB6
     /tmp/ccfK279k.s:226    .text:0000000000000128 .LFE6
     /tmp/ccfK279k.s:1167   .debug_loc:000000000000004a .LLST3
     /tmp/ccfK279k.s:172    .text:00000000000000d0 .LBB5
     /tmp/ccfK279k.s:213    .text:0000000000000118 .LBE5
     /tmp/ccfK279k.s:1192   .debug_loc:00000000000000ac .LLST4
     /tmp/ccfK279k.s:95     .text:0000000000000060 .LFB5
     /tmp/ccfK279k.s:154    .text:00000000000000c4 .LFE5
     /tmp/ccfK279k.s:1212   .debug_loc:0000000000000109 .LLST1
     /tmp/ccfK279k.s:108    .text:0000000000000070 .LBB4
     /tmp/ccfK279k.s:142    .text:00000000000000b4 .LBE4
     /tmp/ccfK279k.s:1223   .debug_loc:000000000000013f .LLST2
     /tmp/ccfK279k.s:42     .text:0000000000000020 .LFB4
     /tmp/ccfK279k.s:89     .text:0000000000000060 .LFE4
     /tmp/ccfK279k.s:1272   .debug_str:0000000000000034 .LASF33
     /tmp/ccfK279k.s:1344   .debug_str:000000000000031c .LASF34
     /tmp/ccfK279k.s:60     .text:0000000000000034 .LBB3
     /tmp/ccfK279k.s:80     .text:0000000000000054 .LBE3
     /tmp/ccfK279k.s:1235   .debug_loc:0000000000000176 .LLST0
     /tmp/ccfK279k.s:1336   .debug_str:00000000000002d8 .LASF39
     /tmp/ccfK279k.s:10     .text:0000000000000000 .LFB2
     /tmp/ccfK279k.s:34     .text:0000000000000020 .LFE2
     /tmp/ccfK279k.s:243    .text:0000000000000134 .LVL20
     /tmp/ccfK279k.s:247    .text:0000000000000138 .LVL21
     /tmp/ccfK279k.s:267    .text:0000000000000160 .LVL22
     /tmp/ccfK279k.s:269    .text:0000000000000164 .LVL23
     /tmp/ccfK279k.s:273    .text:0000000000000168 .LVL24
     /tmp/ccfK279k.s:163    .text:00000000000000c4 .LVL10
     /tmp/ccfK279k.s:204    .text:0000000000000104 .LVL16
     /tmp/ccfK279k.s:211    .text:0000000000000118 .LVL17
     /tmp/ccfK279k.s:216    .text:000000000000011c .LVL18
     /tmp/ccfK279k.s:171    .text:00000000000000d0 .LVL11
     /tmp/ccfK279k.s:175    .text:00000000000000d4 .LVL12
     /tmp/ccfK279k.s:192    .text:00000000000000f4 .LVL13
     /tmp/ccfK279k.s:194    .text:00000000000000f8 .LVL14
     /tmp/ccfK279k.s:199    .text:00000000000000fc .LVL15
     /tmp/ccfK279k.s:98     .text:0000000000000060 .LVL6
     /tmp/ccfK279k.s:112    .text:0000000000000078 .LVL8
     /tmp/ccfK279k.s:107    .text:0000000000000070 .LVL7
     /tmp/ccfK279k.s:59     .text:0000000000000034 .LVL2
     /tmp/ccfK279k.s:63     .text:0000000000000038 .LVL3
     /tmp/ccfK279k.s:76     .text:0000000000000050 .LVL4
     /tmp/ccfK279k.s:78     .text:0000000000000054 .LVL5
     /tmp/ccfK279k.s:295    .debug_info:0000000000000000 .Ldebug_info0

NO UNDEFINED SYMBOLS
