GAS LISTING /tmp/ccR0ry3G.s 			page 1


   1              		.file	"Thread.cpp"
   2              		.option pic
   3              		.option norelax
   4              		.text
   5              	.Ltext0:
   6              		.section	.text._ZN6Thread3runEv,"axG",@progbits,_ZN6Thread3runEv,comdat
   7              		.align	2
   8              		.weak	_ZN6Thread3runEv
  10              	_ZN6Thread3runEv:
  11              	.LFB0:
  12              		.file 1 "src/../h/Thread.hpp"
   1:src/../h/Thread.hpp **** #ifndef THREAD_HPP
   2:src/../h/Thread.hpp **** #define THREAD_HPP
   3:src/../h/Thread.hpp **** #include "memory_structs.h"
   4:src/../h/Thread.hpp **** #include "List.hpp"
   5:src/../h/Thread.hpp **** #include "../lib/hw.h"
   6:src/../h/Thread.hpp **** #include "RiscV.hpp"
   7:src/../h/Thread.hpp **** #ifdef __cplusplus
   8:src/../h/Thread.hpp **** extern "C" {
   9:src/../h/Thread.hpp **** #endif
  10:src/../h/Thread.hpp **** 
  11:src/../h/Thread.hpp **** void restore_context_kernel_mode(ThreadContext* newContext);
  12:src/../h/Thread.hpp **** 
  13:src/../h/Thread.hpp **** void context_switch(ThreadContext* c1, ThreadContext* c2);
  14:src/../h/Thread.hpp **** 
  15:src/../h/Thread.hpp **** #ifdef __cplusplus
  16:src/../h/Thread.hpp **** }
  17:src/../h/Thread.hpp **** #endif
  18:src/../h/Thread.hpp **** 
  19:src/../h/Thread.hpp **** class Thread{
  20:src/../h/Thread.hpp ****     friend class ThreadPool;
  21:src/../h/Thread.hpp **** public:
  22:src/../h/Thread.hpp ****     Thread();
  23:src/../h/Thread.hpp ****     Thread(void(*kernelBody)(void*), void* arg);
  24:src/../h/Thread.hpp ****     virtual ~Thread ();
  25:src/../h/Thread.hpp ****     int start ();
  26:src/../h/Thread.hpp ****     static void dispatch();
  27:src/../h/Thread.hpp ****     static void* operator new(size_t size);
  28:src/../h/Thread.hpp ****     static void operator delete(void*) noexcept;
  29:src/../h/Thread.hpp ****     virtual void run (){};
  13              		.loc 1 29 18
  14              		.cfi_startproc
  15              	.LVL0:
  16 0000 130101FF 		addi	sp,sp,-16
  17              		.cfi_def_cfa_offset 16
  18 0004 23348100 		sd	s0,8(sp)
  19              		.cfi_offset 8, -8
  20 0008 13040101 		addi	s0,sp,16
  21              		.cfi_def_cfa 8, 0
  22              		.loc 1 29 25 is_stmt 0
  23 000c 03348100 		ld	s0,8(sp)
  24              		.cfi_restore 8
  25              		.cfi_def_cfa 2, 16
  26 0010 13010101 		addi	sp,sp,16
  27              		.cfi_def_cfa_offset 0
  28 0014 67800000 		jr	ra
  29              		.cfi_endproc
GAS LISTING /tmp/ccR0ry3G.s 			page 2


  30              	.LFE0:
  32              		.text
  33              		.align	2
  35              	_ZZN6ThreadC4EvENUlPvE_4_FUNES0_:
  36              	.LFB15:
  37              		.file 2 "src/Thread.cpp"
   1:src/Thread.cpp **** #include "../h/Thread.hpp"
   2:src/Thread.cpp **** #include "../h/Pool.hpp"
   3:src/Thread.cpp **** #include "../h/Scheduler.hpp"
   4:src/Thread.cpp **** #include "../h/RiscV.hpp"
   5:src/Thread.cpp **** 
   6:src/Thread.cpp **** 
   7:src/Thread.cpp **** 
   8:src/Thread.cpp **** 
   9:src/Thread.cpp **** int Thread::cnt = 0;
  10:src/Thread.cpp **** extern Scheduler scheduler;
  11:src/Thread.cpp **** Thread* Thread::running = nullptr;
  12:src/Thread.cpp **** 
  13:src/Thread.cpp **** 
  14:src/Thread.cpp **** 
  15:src/Thread.cpp **** 
  16:src/Thread.cpp **** void Thread::threadWrapper() {
  17:src/Thread.cpp **** 
  18:src/Thread.cpp ****     RiscV::switchToUserMode();
  19:src/Thread.cpp ****     ThreadWrapperArgs* wa = Thread::running->getWrapperArgs();
  20:src/Thread.cpp ****     wa->userFunc(wa->userArgs);
  21:src/Thread.cpp ****     thread_exit();
  22:src/Thread.cpp **** 
  23:src/Thread.cpp **** 
  24:src/Thread.cpp **** }
  25:src/Thread.cpp **** void Thread::kernelThreadWrapper() {
  26:src/Thread.cpp **** 
  27:src/Thread.cpp ****     ThreadWrapperArgs* wa = Thread::running->getWrapperArgs();
  28:src/Thread.cpp **** 
  29:src/Thread.cpp **** 
  30:src/Thread.cpp ****     wa->userFunc(wa->userArgs);
  31:src/Thread.cpp **** 
  32:src/Thread.cpp **** 
  33:src/Thread.cpp ****     thread_exit_kernel();
  34:src/Thread.cpp **** 
  35:src/Thread.cpp **** }
  36:src/Thread.cpp **** 
  37:src/Thread.cpp **** Thread::Thread(void (*body)(void*), void* arg, void* stack_top) {
  38:src/Thread.cpp ****     this->next = nullptr;
  39:src/Thread.cpp ****     this->body = body;
  40:src/Thread.cpp ****     this->arg = arg;
  41:src/Thread.cpp ****     threadId = cnt++;
  42:src/Thread.cpp ****     context.userStack = (uint64*)((char*)stack_top - DEFAULT_STACK_SIZE);
  43:src/Thread.cpp ****     context.sp = (uint64)stack_top;
  44:src/Thread.cpp **** 
  45:src/Thread.cpp ****     if (Thread::running != nullptr) {
  46:src/Thread.cpp **** 
  47:src/Thread.cpp ****         context.sstatus = Thread::running->getContext()->sstatus;
  48:src/Thread.cpp ****     } else {
  49:src/Thread.cpp ****         context.sstatus = 0;
  50:src/Thread.cpp ****         context.sstatus &= ~RiscV::SSTATUS_SPP;
  51:src/Thread.cpp ****         context.sstatus |= RiscV::SSTATUS_SPIE;
GAS LISTING /tmp/ccR0ry3G.s 			page 3


  52:src/Thread.cpp ****     }
  53:src/Thread.cpp ****     context.kernelStack = (uint64*)((char*)stack_top - 2 * DEFAULT_STACK_SIZE);
  54:src/Thread.cpp ****     context.ssp = (uint64)((char*)context.kernelStack + DEFAULT_STACK_SIZE);
  55:src/Thread.cpp ****     context.startedOnce = (uint64)0;
  56:src/Thread.cpp ****     context.wasActive = (uint64)0;
  57:src/Thread.cpp ****     this->wrapperArgs.userArgs = arg;
  58:src/Thread.cpp ****     this->wrapperArgs.userFunc = body;
  59:src/Thread.cpp ****     context.ra = (uint64)&threadWrapper;
  60:src/Thread.cpp ****     context.timeSlice = DEFAULT_TIME_SLICE;
  61:src/Thread.cpp ****     context.isKernelThread = 0;
  62:src/Thread.cpp **** }
  63:src/Thread.cpp **** Thread::Thread() {
  64:src/Thread.cpp ****     size_t numOfBlocks = (2 * DEFAULT_STACK_SIZE + sizeof(Header) + MEM_BLOCK_SIZE - 1) / MEM_BLOCK
  65:src/Thread.cpp ****     void* result = MemoryAllocator::Instance()->mem_alloc(numOfBlocks);
  66:src/Thread.cpp ****     void* stack = (char*)result + sizeof(Header);
  67:src/Thread.cpp ****     void* stack_top = (char*)stack + 2 * DEFAULT_STACK_SIZE;
  68:src/Thread.cpp **** 
  69:src/Thread.cpp ****     this->next = nullptr;
  70:src/Thread.cpp ****     this->body = nullptr;  // C++ nit nema body
  71:src/Thread.cpp ****     this->arg = nullptr;
  72:src/Thread.cpp ****     threadId = cnt++;
  73:src/Thread.cpp **** 
  74:src/Thread.cpp ****     context.userStack = (uint64*)((char*)stack_top - DEFAULT_STACK_SIZE);
  75:src/Thread.cpp ****     context.sp = (uint64)stack_top;
  76:src/Thread.cpp **** 
  77:src/Thread.cpp **** 
  78:src/Thread.cpp ****     if (Thread::running != nullptr) {
  79:src/Thread.cpp **** 
  80:src/Thread.cpp ****         context.sstatus = Thread::running->getContext()->sstatus;
  81:src/Thread.cpp ****     } else {
  82:src/Thread.cpp ****         context.sstatus = 0;
  83:src/Thread.cpp ****         context.sstatus &= ~RiscV::SSTATUS_SPP;
  84:src/Thread.cpp ****         context.sstatus |= RiscV::SSTATUS_SPIE;
  85:src/Thread.cpp ****     }
  86:src/Thread.cpp ****     context.kernelStack = (uint64*)((char*)stack_top - 2 * DEFAULT_STACK_SIZE);
  87:src/Thread.cpp ****     context.ssp = (uint64)((char*)context.kernelStack + DEFAULT_STACK_SIZE);
  88:src/Thread.cpp ****     context.startedOnce = 0;
  89:src/Thread.cpp ****     context.wasActive = 0;
  90:src/Thread.cpp ****     context.timeSlice = DEFAULT_TIME_SLICE;
  91:src/Thread.cpp ****     context.ra = (uint64)&threadWrapper;
  92:src/Thread.cpp ****     wrapperArgs.userArgs = this;
  93:src/Thread.cpp ****     wrapperArgs.userFunc = this->body = [](void* obj){
  38              		.loc 2 93 41 is_stmt 1
  39              		.cfi_startproc
  40 0000 130101FF 		addi	sp,sp,-16
  41              		.cfi_def_cfa_offset 16
  42 0004 23341100 		sd	ra,8(sp)
  43 0008 23308100 		sd	s0,0(sp)
  44              		.cfi_offset 1, -8
  45              		.cfi_offset 8, -16
  46 000c 13040101 		addi	s0,sp,16
  47              		.cfi_def_cfa 8, 0
  48              	.LVL1:
  49              	.LBB8:
  50              	.LBB9:
  94:src/Thread.cpp ****         static_cast<Thread*>(obj)->run();
  51              		.loc 2 94 9
GAS LISTING /tmp/ccR0ry3G.s 			page 4


  52              		.loc 2 94 40 is_stmt 0
  53 0010 83370500 		ld	a5,0(a0)
  54 0014 83B70701 		ld	a5,16(a5)
  55              		.loc 2 94 39
  56 0018 E7800700 		jalr	a5
  57              	.LVL2:
  58              	.LBE9:
  59              	.LBE8:
  95:src/Thread.cpp ****     };
  60              		.loc 2 95 5
  61 001c 83308100 		ld	ra,8(sp)
  62              		.cfi_restore 1
  63 0020 03340100 		ld	s0,0(sp)
  64              		.cfi_restore 8
  65              		.cfi_def_cfa 2, 16
  66 0024 13010101 		addi	sp,sp,16
  67              		.cfi_def_cfa_offset 0
  68 0028 67800000 		jr	ra
  69              		.cfi_endproc
  70              	.LFE15:
  72              		.align	2
  73              		.globl	_ZN6ThreadD2Ev
  75              	_ZN6ThreadD2Ev:
  76              	.LFB30:
  96:src/Thread.cpp ****     context.isKernelThread = 0;
  97:src/Thread.cpp **** 
  98:src/Thread.cpp **** }
  99:src/Thread.cpp **** 
 100:src/Thread.cpp **** 
 101:src/Thread.cpp **** Thread::Thread(void (*kernelBody)(void*), void* arg)
 102:src/Thread.cpp **** {
 103:src/Thread.cpp ****     this->next = nullptr;
 104:src/Thread.cpp ****     this->body = kernelBody;
 105:src/Thread.cpp ****     this->arg = arg;
 106:src/Thread.cpp ****     threadId = cnt++;
 107:src/Thread.cpp **** 
 108:src/Thread.cpp ****     // alokacija stacka
 109:src/Thread.cpp ****     size_t numOfBlocks = (2 * DEFAULT_STACK_SIZE + sizeof(Header) + MEM_BLOCK_SIZE - 1) / MEM_BLOCK
 110:src/Thread.cpp ****     void* result = MemoryAllocator::Instance()->mem_alloc(numOfBlocks);
 111:src/Thread.cpp ****     void* stack = (char*)result + sizeof(Header);
 112:src/Thread.cpp ****     void* stack_top = (char*)stack + 2 * DEFAULT_STACK_SIZE;
 113:src/Thread.cpp **** 
 114:src/Thread.cpp ****     context.userStack = nullptr;                 // kernel nit nema user stack
 115:src/Thread.cpp ****     context.sp = (uint64)stack_top;
 116:src/Thread.cpp ****     context.sstatus = 0;
 117:src/Thread.cpp ****     context.sstatus &= ~RiscV::SSTATUS_SPP;
 118:src/Thread.cpp ****     context.sstatus |= RiscV::SSTATUS_SPIE;
 119:src/Thread.cpp **** 
 120:src/Thread.cpp ****     context.kernelStack = (uint64*)((char*)stack_top - 2 * DEFAULT_STACK_SIZE);
 121:src/Thread.cpp ****     context.ssp = (uint64)((char*)context.kernelStack + DEFAULT_STACK_SIZE);
 122:src/Thread.cpp **** 
 123:src/Thread.cpp ****     context.startedOnce = 0;
 124:src/Thread.cpp ****     context.wasActive = 0;
 125:src/Thread.cpp ****     context.timeSlice = DEFAULT_TIME_SLICE;
 126:src/Thread.cpp **** 
 127:src/Thread.cpp ****     wrapperArgs.userArgs = arg;
 128:src/Thread.cpp ****     wrapperArgs.userFunc = kernelBody;
GAS LISTING /tmp/ccR0ry3G.s 			page 5


 129:src/Thread.cpp **** 
 130:src/Thread.cpp ****     context.ra = (uint64)&kernelThreadWrapper;
 131:src/Thread.cpp ****     context.isKernelThread = 1;
 132:src/Thread.cpp **** }
 133:src/Thread.cpp **** 
 134:src/Thread.cpp **** 
 135:src/Thread.cpp **** 
 136:src/Thread.cpp **** int Thread::create_thread_kernel(thread_t* handle, void(*routine)(void*) , void* args, void* stack_
 137:src/Thread.cpp ****     if(!handle || !routine || !stack_top)return -1;
 138:src/Thread.cpp ****     Thread* thread = new Thread(routine, args, stack_top);
 139:src/Thread.cpp ****     if(!thread) return -2;
 140:src/Thread.cpp ****     *handle =  thread->threadId;
 141:src/Thread.cpp ****     if(!Thread::running){
 142:src/Thread.cpp ****         Thread::running = thread;
 143:src/Thread.cpp ****         return 0;
 144:src/Thread.cpp ****     }
 145:src/Thread.cpp ****     scheduler.put(thread);
 146:src/Thread.cpp **** 
 147:src/Thread.cpp **** 
 148:src/Thread.cpp ****     return 0;
 149:src/Thread.cpp **** }
 150:src/Thread.cpp **** 
 151:src/Thread.cpp **** 
 152:src/Thread.cpp **** void Thread::clearTimeSliceCounter() {
 153:src/Thread.cpp ****     this->timeSliceCounter = 0;
 154:src/Thread.cpp **** }
 155:src/Thread.cpp **** uint64 Thread::getTimeSliceCounter() {
 156:src/Thread.cpp ****     return this->timeSliceCounter;
 157:src/Thread.cpp **** }
 158:src/Thread.cpp **** void Thread::incrementtimeSliceCounter() {
 159:src/Thread.cpp ****     this->timeSliceCounter++;
 160:src/Thread.cpp **** }
 161:src/Thread.cpp **** uint64 Thread::getTimeSlice() {
 162:src/Thread.cpp ****     return this->context.timeSlice;
 163:src/Thread.cpp **** }
 164:src/Thread.cpp **** 
 165:src/Thread.cpp **** int Thread::thread_exit_kernel(){
 166:src/Thread.cpp ****     Thread* oldRunning = Thread::running;
 167:src/Thread.cpp ****     //Take the thread out of ThreadManager array
 168:src/Thread.cpp **** 
 169:src/Thread.cpp ****     Thread::running = scheduler.get();
 170:src/Thread.cpp ****     if(Thread::running){
 171:src/Thread.cpp ****         if(Thread::running->getContext()->wasActive == 1){
 172:src/Thread.cpp ****             RiscV::w_last_sstatus();
 173:src/Thread.cpp ****             RiscV::w_last_sepc();
 174:src/Thread.cpp ****             restore_context_kernel_mode(&Thread::running->context);
 175:src/Thread.cpp ****         }
 176:src/Thread.cpp ****         else
 177:src/Thread.cpp ****         {
 178:src/Thread.cpp ****             context_switch(&oldRunning->context, &Thread::running->context);
 179:src/Thread.cpp ****         }
 180:src/Thread.cpp ****     }
 181:src/Thread.cpp ****     return 0;
 182:src/Thread.cpp **** }
 183:src/Thread.cpp **** void Thread::thread_dispatch_kernel() {
 184:src/Thread.cpp ****     Thread* oldRunning = Thread::running;
 185:src/Thread.cpp ****     if(oldRunning)
GAS LISTING /tmp/ccR0ry3G.s 			page 6


 186:src/Thread.cpp ****     {
 187:src/Thread.cpp ****         scheduler.put(oldRunning);
 188:src/Thread.cpp ****     }
 189:src/Thread.cpp **** 
 190:src/Thread.cpp **** 
 191:src/Thread.cpp ****     Thread::running = scheduler.get();
 192:src/Thread.cpp ****     if(Thread::running->getContext()->isKernelThread){
 193:src/Thread.cpp ****         ThreadWrapperArgs *wa = Thread::running->getWrapperArgs();
 194:src/Thread.cpp ****         wa->userFunc(wa->userArgs);
 195:src/Thread.cpp ****     }
 196:src/Thread.cpp ****     if(Thread::running->getContext()->wasActive == 1){
 197:src/Thread.cpp ****         RiscV::w_last_sstatus();
 198:src/Thread.cpp ****         RiscV::w_last_sepc();
 199:src/Thread.cpp ****         restore_context_kernel_mode(&Thread::running->context);
 200:src/Thread.cpp ****     }
 201:src/Thread.cpp ****     else {
 202:src/Thread.cpp ****         Thread::running->getContext()->wasActive = 1;
 203:src/Thread.cpp ****         context_switch(&oldRunning->context, &Thread::running->context);
 204:src/Thread.cpp ****     }
 205:src/Thread.cpp **** 
 206:src/Thread.cpp **** }
 207:src/Thread.cpp **** 
 208:src/Thread.cpp **** Thread::~Thread(){}
  77              		.loc 2 208 1 is_stmt 1
  78              		.cfi_startproc
  79              	.LVL3:
  80 002c 130101FF 		addi	sp,sp,-16
  81              		.cfi_def_cfa_offset 16
  82 0030 23348100 		sd	s0,8(sp)
  83              		.cfi_offset 8, -8
  84 0034 13040101 		addi	s0,sp,16
  85              		.cfi_def_cfa 8, 0
  86              		.loc 2 208 19 is_stmt 0
  87 0038 03348100 		ld	s0,8(sp)
  88              		.cfi_restore 8
  89              		.cfi_def_cfa 2, 16
  90 003c 13010101 		addi	sp,sp,16
  91              		.cfi_def_cfa_offset 0
  92 0040 67800000 		jr	ra
  93              		.cfi_endproc
  94              	.LFE30:
  96              		.globl	_ZN6ThreadD1Ev
  97              		.set	_ZN6ThreadD1Ev,_ZN6ThreadD2Ev
  98              		.align	2
  99              		.globl	_ZN6ThreadC2EPFvPvES0_
 101              	_ZN6ThreadC2EPFvPvES0_:
 102              	.LFB20:
 101:src/Thread.cpp **** {
 103              		.loc 2 101 1 is_stmt 1
 104              		.cfi_startproc
 105              	.LVL4:
 106 0044 130101FD 		addi	sp,sp,-48
 107              		.cfi_def_cfa_offset 48
 108 0048 23341102 		sd	ra,40(sp)
 109 004c 23308102 		sd	s0,32(sp)
 110 0050 233C9100 		sd	s1,24(sp)
 111 0054 23382101 		sd	s2,16(sp)
GAS LISTING /tmp/ccR0ry3G.s 			page 7


 112 0058 23343101 		sd	s3,8(sp)
 113              		.cfi_offset 1, -8
 114              		.cfi_offset 8, -16
 115              		.cfi_offset 9, -24
 116              		.cfi_offset 18, -32
 117              		.cfi_offset 19, -40
 118 005c 13040103 		addi	s0,sp,48
 119              		.cfi_def_cfa 8, 0
 120 0060 93040500 		mv	s1,a0
 121 0064 13890500 		mv	s2,a1
 122 0068 93090600 		mv	s3,a2
 123              	.LBB10:
 101:src/Thread.cpp **** {
 124              		.loc 2 101 52 is_stmt 0
 125 006c 97070000 		lla	a5,_ZTV6Thread+16
 125      93870700 
 126 0074 2330F500 		sd	a5,0(a0)
 127              	.LBB11:
 103:src/Thread.cpp ****     this->body = kernelBody;
 128              		.loc 2 103 5 is_stmt 1
 103:src/Thread.cpp ****     this->body = kernelBody;
 129              		.loc 2 103 16 is_stmt 0
 130 0078 23380500 		sd	zero,16(a0)
 104:src/Thread.cpp ****     this->arg = arg;
 131              		.loc 2 104 5 is_stmt 1
 104:src/Thread.cpp ****     this->arg = arg;
 132              		.loc 2 104 16 is_stmt 0
 133 007c 233CB508 		sd	a1,152(a0)
 105:src/Thread.cpp ****     threadId = cnt++;
 134              		.loc 2 105 5 is_stmt 1
 105:src/Thread.cpp ****     threadId = cnt++;
 135              		.loc 2 105 15 is_stmt 0
 136 0080 2330C50A 		sd	a2,160(a0)
 106:src/Thread.cpp **** 
 137              		.loc 2 106 5 is_stmt 1
 106:src/Thread.cpp **** 
 138              		.loc 2 106 19 is_stmt 0
 139 0084 17070000 		lla	a4,.LANCHOR0
 139      13070700 
 140 008c 83270700 		lw	a5,0(a4)
 141 0090 9B861700 		addiw	a3,a5,1
 142 0094 2320D700 		sw	a3,0(a4)
 106:src/Thread.cpp **** 
 143              		.loc 2 106 14
 144 0098 2322F502 		sw	a5,36(a0)
 109:src/Thread.cpp ****     void* result = MemoryAllocator::Instance()->mem_alloc(numOfBlocks);
 145              		.loc 2 109 5 is_stmt 1
 146              	.LVL5:
 110:src/Thread.cpp ****     void* stack = (char*)result + sizeof(Header);
 147              		.loc 2 110 5
 110:src/Thread.cpp ****     void* stack = (char*)result + sizeof(Header);
 148              		.loc 2 110 58 is_stmt 0
 149 009c 97000000 		call	_ZN15MemoryAllocator8InstanceEv@plt
 149      E7800000 
 150              	.LVL6:
 151 00a4 93051008 		li	a1,129
 152 00a8 97000000 		call	_ZN15MemoryAllocator9mem_allocEm@plt
GAS LISTING /tmp/ccR0ry3G.s 			page 8


 152      E7800000 
 153              	.LVL7:
 111:src/Thread.cpp ****     void* stack_top = (char*)stack + 2 * DEFAULT_STACK_SIZE;
 154              		.loc 2 111 5 is_stmt 1
 111:src/Thread.cpp ****     void* stack_top = (char*)stack + 2 * DEFAULT_STACK_SIZE;
 155              		.loc 2 111 11 is_stmt 0
 156 00b0 93078500 		addi	a5,a0,8
 157              	.LVL8:
 112:src/Thread.cpp **** 
 158              		.loc 2 112 5 is_stmt 1
 112:src/Thread.cpp **** 
 159              		.loc 2 112 11 is_stmt 0
 160 00b4 37270000 		li	a4,8192
 161 00b8 13078700 		addi	a4,a4,8
 162 00bc 3305E500 		add	a0,a0,a4
 163              	.LVL9:
 114:src/Thread.cpp ****     context.sp = (uint64)stack_top;
 164              		.loc 2 114 5 is_stmt 1
 114:src/Thread.cpp ****     context.sp = (uint64)stack_top;
 165              		.loc 2 114 23 is_stmt 0
 166 00c0 23B80402 		sd	zero,48(s1)
 115:src/Thread.cpp ****     context.sstatus = 0;
 167              		.loc 2 115 5 is_stmt 1
 115:src/Thread.cpp ****     context.sstatus = 0;
 168              		.loc 2 115 16 is_stmt 0
 169 00c4 23B0A404 		sd	a0,64(s1)
 116:src/Thread.cpp ****     context.sstatus &= ~RiscV::SSTATUS_SPP;
 170              		.loc 2 116 5 is_stmt 1
 117:src/Thread.cpp ****     context.sstatus |= RiscV::SSTATUS_SPIE;
 171              		.loc 2 117 5
 118:src/Thread.cpp **** 
 172              		.loc 2 118 5
 118:src/Thread.cpp **** 
 173              		.loc 2 118 21 is_stmt 0
 174 00c8 13070002 		li	a4,32
 175 00cc 23B8E404 		sd	a4,80(s1)
 120:src/Thread.cpp ****     context.ssp = (uint64)((char*)context.kernelStack + DEFAULT_STACK_SIZE);
 176              		.loc 2 120 5 is_stmt 1
 120:src/Thread.cpp ****     context.ssp = (uint64)((char*)context.kernelStack + DEFAULT_STACK_SIZE);
 177              		.loc 2 120 25 is_stmt 0
 178 00d0 23BCF402 		sd	a5,56(s1)
 121:src/Thread.cpp **** 
 179              		.loc 2 121 5 is_stmt 1
 121:src/Thread.cpp **** 
 180              		.loc 2 121 55 is_stmt 0
 181 00d4 37170000 		li	a4,4096
 182 00d8 B387E700 		add	a5,a5,a4
 183              	.LVL10:
 121:src/Thread.cpp **** 
 184              		.loc 2 121 17
 185 00dc 23B4F404 		sd	a5,72(s1)
 123:src/Thread.cpp ****     context.wasActive = 0;
 186              		.loc 2 123 5 is_stmt 1
 123:src/Thread.cpp ****     context.wasActive = 0;
 187              		.loc 2 123 25 is_stmt 0
 188 00e0 23B00406 		sd	zero,96(s1)
 124:src/Thread.cpp ****     context.timeSlice = DEFAULT_TIME_SLICE;
GAS LISTING /tmp/ccR0ry3G.s 			page 9


 189              		.loc 2 124 5 is_stmt 1
 124:src/Thread.cpp ****     context.timeSlice = DEFAULT_TIME_SLICE;
 190              		.loc 2 124 23 is_stmt 0
 191 00e4 23B40406 		sd	zero,104(s1)
 125:src/Thread.cpp **** 
 192              		.loc 2 125 5 is_stmt 1
 125:src/Thread.cpp **** 
 193              		.loc 2 125 23 is_stmt 0
 194 00e8 93072000 		li	a5,2
 195 00ec 23B8F406 		sd	a5,112(s1)
 127:src/Thread.cpp ****     wrapperArgs.userFunc = kernelBody;
 196              		.loc 2 127 5 is_stmt 1
 127:src/Thread.cpp ****     wrapperArgs.userFunc = kernelBody;
 197              		.loc 2 127 26 is_stmt 0
 198 00f0 23B43409 		sd	s3,136(s1)
 128:src/Thread.cpp **** 
 199              		.loc 2 128 5 is_stmt 1
 128:src/Thread.cpp **** 
 200              		.loc 2 128 26 is_stmt 0
 201 00f4 23B02409 		sd	s2,128(s1)
 130:src/Thread.cpp ****     context.isKernelThread = 1;
 202              		.loc 2 130 5 is_stmt 1
 130:src/Thread.cpp ****     context.isKernelThread = 1;
 203              		.loc 2 130 16 is_stmt 0
 204 00f8 97070000 		lla	a5,_ZN6Thread19kernelThreadWrapperEv
 204      93870700 
 205 0100 23BCF404 		sd	a5,88(s1)
 131:src/Thread.cpp **** }
 206              		.loc 2 131 5 is_stmt 1
 131:src/Thread.cpp **** }
 207              		.loc 2 131 28 is_stmt 0
 208 0104 93071000 		li	a5,1
 209 0108 23BCF406 		sd	a5,120(s1)
 210              	.LBE11:
 211              	.LBE10:
 132:src/Thread.cpp **** 
 212              		.loc 2 132 1
 213 010c 83308102 		ld	ra,40(sp)
 214              		.cfi_restore 1
 215 0110 03340102 		ld	s0,32(sp)
 216              		.cfi_restore 8
 217              		.cfi_def_cfa 2, 48
 218 0114 83348101 		ld	s1,24(sp)
 219              		.cfi_restore 9
 220              	.LVL11:
 221 0118 03390101 		ld	s2,16(sp)
 222              		.cfi_restore 18
 223              	.LVL12:
 224 011c 83398100 		ld	s3,8(sp)
 225              		.cfi_restore 19
 226              	.LVL13:
 227 0120 13010103 		addi	sp,sp,48
 228              		.cfi_def_cfa_offset 0
 229 0124 67800000 		jr	ra
 230              		.cfi_endproc
 231              	.LFE20:
 233              		.globl	_ZN6ThreadC1EPFvPvES0_
GAS LISTING /tmp/ccR0ry3G.s 			page 10


 234              		.set	_ZN6ThreadC1EPFvPvES0_,_ZN6ThreadC2EPFvPvES0_
 235              		.align	2
 236              		.globl	_ZN6Thread21clearTimeSliceCounterEv
 238              	_ZN6Thread21clearTimeSliceCounterEv:
 239              	.LFB23:
 152:src/Thread.cpp ****     this->timeSliceCounter = 0;
 240              		.loc 2 152 38 is_stmt 1
 241              		.cfi_startproc
 242              	.LVL14:
 243 0128 130101FF 		addi	sp,sp,-16
 244              		.cfi_def_cfa_offset 16
 245 012c 23348100 		sd	s0,8(sp)
 246              		.cfi_offset 8, -8
 247 0130 13040101 		addi	s0,sp,16
 248              		.cfi_def_cfa 8, 0
 153:src/Thread.cpp **** }
 249              		.loc 2 153 5
 153:src/Thread.cpp **** }
 250              		.loc 2 153 28 is_stmt 0
 251 0134 233C0500 		sd	zero,24(a0)
 154:src/Thread.cpp **** uint64 Thread::getTimeSliceCounter() {
 252              		.loc 2 154 1
 253 0138 03348100 		ld	s0,8(sp)
 254              		.cfi_restore 8
 255              		.cfi_def_cfa 2, 16
 256 013c 13010101 		addi	sp,sp,16
 257              		.cfi_def_cfa_offset 0
 258 0140 67800000 		jr	ra
 259              		.cfi_endproc
 260              	.LFE23:
 262              		.align	2
 263              		.globl	_ZN6Thread19getTimeSliceCounterEv
 265              	_ZN6Thread19getTimeSliceCounterEv:
 266              	.LFB24:
 155:src/Thread.cpp ****     return this->timeSliceCounter;
 267              		.loc 2 155 38 is_stmt 1
 268              		.cfi_startproc
 269              	.LVL15:
 270 0144 130101FF 		addi	sp,sp,-16
 271              		.cfi_def_cfa_offset 16
 272 0148 23348100 		sd	s0,8(sp)
 273              		.cfi_offset 8, -8
 274 014c 13040101 		addi	s0,sp,16
 275              		.cfi_def_cfa 8, 0
 156:src/Thread.cpp **** }
 276              		.loc 2 156 5
 157:src/Thread.cpp **** void Thread::incrementtimeSliceCounter() {
 277              		.loc 2 157 1 is_stmt 0
 278 0150 03358501 		ld	a0,24(a0)
 279              	.LVL16:
 280 0154 03348100 		ld	s0,8(sp)
 281              		.cfi_restore 8
 282              		.cfi_def_cfa 2, 16
 283 0158 13010101 		addi	sp,sp,16
 284              		.cfi_def_cfa_offset 0
 285 015c 67800000 		jr	ra
 286              		.cfi_endproc
GAS LISTING /tmp/ccR0ry3G.s 			page 11


 287              	.LFE24:
 289              		.align	2
 290              		.globl	_ZN6Thread25incrementtimeSliceCounterEv
 292              	_ZN6Thread25incrementtimeSliceCounterEv:
 293              	.LFB25:
 158:src/Thread.cpp ****     this->timeSliceCounter++;
 294              		.loc 2 158 42 is_stmt 1
 295              		.cfi_startproc
 296              	.LVL17:
 297 0160 130101FF 		addi	sp,sp,-16
 298              		.cfi_def_cfa_offset 16
 299 0164 23348100 		sd	s0,8(sp)
 300              		.cfi_offset 8, -8
 301 0168 13040101 		addi	s0,sp,16
 302              		.cfi_def_cfa 8, 0
 159:src/Thread.cpp **** }
 303              		.loc 2 159 5
 159:src/Thread.cpp **** }
 304              		.loc 2 159 11 is_stmt 0
 305 016c 83378501 		ld	a5,24(a0)
 159:src/Thread.cpp **** }
 306              		.loc 2 159 27
 307 0170 93871700 		addi	a5,a5,1
 308 0174 233CF500 		sd	a5,24(a0)
 160:src/Thread.cpp **** uint64 Thread::getTimeSlice() {
 309              		.loc 2 160 1
 310 0178 03348100 		ld	s0,8(sp)
 311              		.cfi_restore 8
 312              		.cfi_def_cfa 2, 16
 313 017c 13010101 		addi	sp,sp,16
 314              		.cfi_def_cfa_offset 0
 315 0180 67800000 		jr	ra
 316              		.cfi_endproc
 317              	.LFE25:
 319              		.align	2
 320              		.globl	_ZN6Thread12getTimeSliceEv
 322              	_ZN6Thread12getTimeSliceEv:
 323              	.LFB26:
 161:src/Thread.cpp ****     return this->context.timeSlice;
 324              		.loc 2 161 31 is_stmt 1
 325              		.cfi_startproc
 326              	.LVL18:
 327 0184 130101FF 		addi	sp,sp,-16
 328              		.cfi_def_cfa_offset 16
 329 0188 23348100 		sd	s0,8(sp)
 330              		.cfi_offset 8, -8
 331 018c 13040101 		addi	s0,sp,16
 332              		.cfi_def_cfa 8, 0
 162:src/Thread.cpp **** }
 333              		.loc 2 162 5
 163:src/Thread.cpp **** 
 334              		.loc 2 163 1 is_stmt 0
 335 0190 03350507 		ld	a0,112(a0)
 336              	.LVL19:
 337 0194 03348100 		ld	s0,8(sp)
 338              		.cfi_restore 8
 339              		.cfi_def_cfa 2, 16
GAS LISTING /tmp/ccR0ry3G.s 			page 12


 340 0198 13010101 		addi	sp,sp,16
 341              		.cfi_def_cfa_offset 0
 342 019c 67800000 		jr	ra
 343              		.cfi_endproc
 344              	.LFE26:
 346              		.align	2
 347              		.globl	_ZN6Thread10getContextEv
 349              	_ZN6Thread10getContextEv:
 350              	.LFB33:
 209:src/Thread.cpp **** 
 210:src/Thread.cpp **** ThreadContext* Thread::getContext() {
 351              		.loc 2 210 37 is_stmt 1
 352              		.cfi_startproc
 353              	.LVL20:
 354 01a0 130101FF 		addi	sp,sp,-16
 355              		.cfi_def_cfa_offset 16
 356 01a4 23348100 		sd	s0,8(sp)
 357              		.cfi_offset 8, -8
 358 01a8 13040101 		addi	s0,sp,16
 359              		.cfi_def_cfa 8, 0
 211:src/Thread.cpp ****     return &this->context;
 360              		.loc 2 211 5
 212:src/Thread.cpp **** }
 361              		.loc 2 212 1 is_stmt 0
 362 01ac 13058502 		addi	a0,a0,40
 363              	.LVL21:
 364 01b0 03348100 		ld	s0,8(sp)
 365              		.cfi_restore 8
 366              		.cfi_def_cfa 2, 16
 367 01b4 13010101 		addi	sp,sp,16
 368              		.cfi_def_cfa_offset 0
 369 01b8 67800000 		jr	ra
 370              		.cfi_endproc
 371              	.LFE33:
 373              		.align	2
 374              		.globl	_ZN6ThreadC2EPFvPvES0_S0_
 376              	_ZN6ThreadC2EPFvPvES0_S0_:
 377              	.LFB11:
  37:src/Thread.cpp ****     this->next = nullptr;
 378              		.loc 2 37 1 is_stmt 1
 379              		.cfi_startproc
 380              	.LVL22:
 381 01bc 130101FC 		addi	sp,sp,-64
 382              		.cfi_def_cfa_offset 64
 383 01c0 233C1102 		sd	ra,56(sp)
 384 01c4 23388102 		sd	s0,48(sp)
 385 01c8 23349102 		sd	s1,40(sp)
 386 01cc 23302103 		sd	s2,32(sp)
 387 01d0 233C3101 		sd	s3,24(sp)
 388 01d4 23384101 		sd	s4,16(sp)
 389 01d8 23345101 		sd	s5,8(sp)
 390              		.cfi_offset 1, -8
 391              		.cfi_offset 8, -16
 392              		.cfi_offset 9, -24
 393              		.cfi_offset 18, -32
 394              		.cfi_offset 19, -40
 395              		.cfi_offset 20, -48
GAS LISTING /tmp/ccR0ry3G.s 			page 13


 396              		.cfi_offset 21, -56
 397 01dc 13040104 		addi	s0,sp,64
 398              		.cfi_def_cfa 8, 0
 399 01e0 93040500 		mv	s1,a0
 400 01e4 93890500 		mv	s3,a1
 401 01e8 130A0600 		mv	s4,a2
 402 01ec 13890600 		mv	s2,a3
 403              	.LBB12:
  37:src/Thread.cpp ****     this->next = nullptr;
 404              		.loc 2 37 63 is_stmt 0
 405 01f0 97070000 		lla	a5,_ZTV6Thread+16
 405      93870700 
 406 01f8 2330F500 		sd	a5,0(a0)
  38:src/Thread.cpp ****     this->body = body;
 407              		.loc 2 38 5 is_stmt 1
  38:src/Thread.cpp ****     this->body = body;
 408              		.loc 2 38 16 is_stmt 0
 409 01fc 23380500 		sd	zero,16(a0)
  39:src/Thread.cpp ****     this->arg = arg;
 410              		.loc 2 39 5 is_stmt 1
  39:src/Thread.cpp ****     this->arg = arg;
 411              		.loc 2 39 16 is_stmt 0
 412 0200 233CB508 		sd	a1,152(a0)
  40:src/Thread.cpp ****     threadId = cnt++;
 413              		.loc 2 40 5 is_stmt 1
  40:src/Thread.cpp ****     threadId = cnt++;
 414              		.loc 2 40 15 is_stmt 0
 415 0204 2330C50A 		sd	a2,160(a0)
  41:src/Thread.cpp ****     context.userStack = (uint64*)((char*)stack_top - DEFAULT_STACK_SIZE);
 416              		.loc 2 41 5 is_stmt 1
  41:src/Thread.cpp ****     context.userStack = (uint64*)((char*)stack_top - DEFAULT_STACK_SIZE);
 417              		.loc 2 41 19 is_stmt 0
 418 0208 97070000 		lla	a5,.LANCHOR0
 418      93870700 
 419 0210 03A70700 		lw	a4,0(a5)
 420 0214 9B061700 		addiw	a3,a4,1
 421              	.LVL23:
 422 0218 23A0D700 		sw	a3,0(a5)
  41:src/Thread.cpp ****     context.userStack = (uint64*)((char*)stack_top - DEFAULT_STACK_SIZE);
 423              		.loc 2 41 14
 424 021c 2322E502 		sw	a4,36(a0)
  42:src/Thread.cpp ****     context.sp = (uint64)stack_top;
 425              		.loc 2 42 5 is_stmt 1
  42:src/Thread.cpp ****     context.sp = (uint64)stack_top;
 426              		.loc 2 42 25 is_stmt 0
 427 0220 B7FAFFFF 		li	s5,-4096
 428 0224 B30A5901 		add	s5,s2,s5
  42:src/Thread.cpp ****     context.sp = (uint64)stack_top;
 429              		.loc 2 42 23
 430 0228 23385503 		sd	s5,48(a0)
  43:src/Thread.cpp **** 
 431              		.loc 2 43 5 is_stmt 1
  43:src/Thread.cpp **** 
 432              		.loc 2 43 16 is_stmt 0
 433 022c 23302505 		sd	s2,64(a0)
  45:src/Thread.cpp **** 
 434              		.loc 2 45 5 is_stmt 1
GAS LISTING /tmp/ccR0ry3G.s 			page 14


  45:src/Thread.cpp **** 
 435              		.loc 2 45 25 is_stmt 0
 436 0230 03B58700 		ld	a0,8(a5)
 437              	.LVL24:
  45:src/Thread.cpp **** 
 438              		.loc 2 45 5
 439 0234 63080506 		beqz	a0,.L20
  47:src/Thread.cpp ****     } else {
 440              		.loc 2 47 9 is_stmt 1
  47:src/Thread.cpp ****     } else {
 441              		.loc 2 47 54 is_stmt 0
 442 0238 97000000 		call	_ZN6Thread10getContextEv
 442      E7800000 
 443              	.LVL25:
  47:src/Thread.cpp ****     } else {
 444              		.loc 2 47 58
 445 0240 83378502 		ld	a5,40(a0)
  47:src/Thread.cpp ****     } else {
 446              		.loc 2 47 25
 447 0244 23B8F404 		sd	a5,80(s1)
 448              	.L21:
  53:src/Thread.cpp ****     context.ssp = (uint64)((char*)context.kernelStack + DEFAULT_STACK_SIZE);
 449              		.loc 2 53 5 is_stmt 1
  53:src/Thread.cpp ****     context.ssp = (uint64)((char*)context.kernelStack + DEFAULT_STACK_SIZE);
 450              		.loc 2 53 27 is_stmt 0
 451 0248 B7E6FFFF 		li	a3,-8192
 452 024c 3309D900 		add	s2,s2,a3
 453              	.LVL26:
  53:src/Thread.cpp ****     context.ssp = (uint64)((char*)context.kernelStack + DEFAULT_STACK_SIZE);
 454              		.loc 2 53 25
 455 0250 23BC2403 		sd	s2,56(s1)
  54:src/Thread.cpp ****     context.startedOnce = (uint64)0;
 456              		.loc 2 54 5 is_stmt 1
  54:src/Thread.cpp ****     context.startedOnce = (uint64)0;
 457              		.loc 2 54 17 is_stmt 0
 458 0254 23B45405 		sd	s5,72(s1)
  55:src/Thread.cpp ****     context.wasActive = (uint64)0;
 459              		.loc 2 55 5 is_stmt 1
  55:src/Thread.cpp ****     context.wasActive = (uint64)0;
 460              		.loc 2 55 25 is_stmt 0
 461 0258 23B00406 		sd	zero,96(s1)
  56:src/Thread.cpp ****     this->wrapperArgs.userArgs = arg;
 462              		.loc 2 56 5 is_stmt 1
  56:src/Thread.cpp ****     this->wrapperArgs.userArgs = arg;
 463              		.loc 2 56 23 is_stmt 0
 464 025c 23B40406 		sd	zero,104(s1)
  57:src/Thread.cpp ****     this->wrapperArgs.userFunc = body;
 465              		.loc 2 57 5 is_stmt 1
  57:src/Thread.cpp ****     this->wrapperArgs.userFunc = body;
 466              		.loc 2 57 32 is_stmt 0
 467 0260 23B44409 		sd	s4,136(s1)
  58:src/Thread.cpp ****     context.ra = (uint64)&threadWrapper;
 468              		.loc 2 58 5 is_stmt 1
  58:src/Thread.cpp ****     context.ra = (uint64)&threadWrapper;
 469              		.loc 2 58 32 is_stmt 0
 470 0264 23B03409 		sd	s3,128(s1)
  59:src/Thread.cpp ****     context.timeSlice = DEFAULT_TIME_SLICE;
GAS LISTING /tmp/ccR0ry3G.s 			page 15


 471              		.loc 2 59 5 is_stmt 1
  59:src/Thread.cpp ****     context.timeSlice = DEFAULT_TIME_SLICE;
 472              		.loc 2 59 16 is_stmt 0
 473 0268 97070000 		lla	a5,_ZN6Thread13threadWrapperEv
 473      93870700 
 474 0270 23BCF404 		sd	a5,88(s1)
  60:src/Thread.cpp ****     context.isKernelThread = 0;
 475              		.loc 2 60 5 is_stmt 1
  60:src/Thread.cpp ****     context.isKernelThread = 0;
 476              		.loc 2 60 23 is_stmt 0
 477 0274 93072000 		li	a5,2
 478 0278 23B8F406 		sd	a5,112(s1)
  61:src/Thread.cpp **** }
 479              		.loc 2 61 5 is_stmt 1
  61:src/Thread.cpp **** }
 480              		.loc 2 61 28 is_stmt 0
 481 027c 23BC0406 		sd	zero,120(s1)
 482              	.LBE12:
  62:src/Thread.cpp **** Thread::Thread() {
 483              		.loc 2 62 1
 484 0280 83308103 		ld	ra,56(sp)
 485              		.cfi_remember_state
 486              		.cfi_restore 1
 487 0284 03340103 		ld	s0,48(sp)
 488              		.cfi_restore 8
 489              		.cfi_def_cfa 2, 64
 490 0288 83348102 		ld	s1,40(sp)
 491              		.cfi_restore 9
 492              	.LVL27:
 493 028c 03390102 		ld	s2,32(sp)
 494              		.cfi_restore 18
 495              	.LVL28:
 496 0290 83398101 		ld	s3,24(sp)
 497              		.cfi_restore 19
 498              	.LVL29:
 499 0294 033A0101 		ld	s4,16(sp)
 500              		.cfi_restore 20
 501              	.LVL30:
 502 0298 833A8100 		ld	s5,8(sp)
 503              		.cfi_restore 21
 504              	.LVL31:
 505 029c 13010104 		addi	sp,sp,64
 506              		.cfi_def_cfa_offset 0
 507 02a0 67800000 		jr	ra
 508              	.LVL32:
 509              	.L20:
 510              		.cfi_restore_state
 511              	.LBB13:
  49:src/Thread.cpp ****         context.sstatus &= ~RiscV::SSTATUS_SPP;
 512              		.loc 2 49 9 is_stmt 1
  50:src/Thread.cpp ****         context.sstatus |= RiscV::SSTATUS_SPIE;
 513              		.loc 2 50 9
  51:src/Thread.cpp ****     }
 514              		.loc 2 51 9
  51:src/Thread.cpp ****     }
 515              		.loc 2 51 25 is_stmt 0
 516 02a4 93070002 		li	a5,32
GAS LISTING /tmp/ccR0ry3G.s 			page 16


 517 02a8 23B8F404 		sd	a5,80(s1)
 518 02ac 6FF0DFF9 		j	.L21
 519              	.LBE13:
 520              		.cfi_endproc
 521              	.LFE11:
 523              		.globl	_ZN6ThreadC1EPFvPvES0_S0_
 524              		.set	_ZN6ThreadC1EPFvPvES0_S0_,_ZN6ThreadC2EPFvPvES0_S0_
 525              		.align	2
 526              		.globl	_ZN6ThreadC2Ev
 528              	_ZN6ThreadC2Ev:
 529              	.LFB17:
  63:src/Thread.cpp ****     size_t numOfBlocks = (2 * DEFAULT_STACK_SIZE + sizeof(Header) + MEM_BLOCK_SIZE - 1) / MEM_BLOCK
 530              		.loc 2 63 1 is_stmt 1
 531              		.cfi_startproc
 532              	.LVL33:
 533 02b0 130101FE 		addi	sp,sp,-32
 534              		.cfi_def_cfa_offset 32
 535 02b4 233C1100 		sd	ra,24(sp)
 536 02b8 23388100 		sd	s0,16(sp)
 537 02bc 23349100 		sd	s1,8(sp)
 538 02c0 23302101 		sd	s2,0(sp)
 539              		.cfi_offset 1, -8
 540              		.cfi_offset 8, -16
 541              		.cfi_offset 9, -24
 542              		.cfi_offset 18, -32
 543 02c4 13040102 		addi	s0,sp,32
 544              		.cfi_def_cfa 8, 0
 545 02c8 93040500 		mv	s1,a0
 546              	.LBB14:
  63:src/Thread.cpp ****     size_t numOfBlocks = (2 * DEFAULT_STACK_SIZE + sizeof(Header) + MEM_BLOCK_SIZE - 1) / MEM_BLOCK
 547              		.loc 2 63 16 is_stmt 0
 548 02cc 97070000 		lla	a5,_ZTV6Thread+16
 548      93870700 
 549 02d4 2330F500 		sd	a5,0(a0)
 550              	.LBB15:
  64:src/Thread.cpp ****     void* result = MemoryAllocator::Instance()->mem_alloc(numOfBlocks);
 551              		.loc 2 64 5 is_stmt 1
 552              	.LVL34:
  65:src/Thread.cpp ****     void* stack = (char*)result + sizeof(Header);
 553              		.loc 2 65 5
  65:src/Thread.cpp ****     void* stack = (char*)result + sizeof(Header);
 554              		.loc 2 65 58 is_stmt 0
 555 02d8 97000000 		call	_ZN15MemoryAllocator8InstanceEv@plt
 555      E7800000 
 556              	.LVL35:
 557 02e0 93051008 		li	a1,129
 558 02e4 97000000 		call	_ZN15MemoryAllocator9mem_allocEm@plt
 558      E7800000 
 559              	.LVL36:
  66:src/Thread.cpp ****     void* stack_top = (char*)stack + 2 * DEFAULT_STACK_SIZE;
 560              		.loc 2 66 5 is_stmt 1
  66:src/Thread.cpp ****     void* stack_top = (char*)stack + 2 * DEFAULT_STACK_SIZE;
 561              		.loc 2 66 11 is_stmt 0
 562 02ec 13098500 		addi	s2,a0,8
 563              	.LVL37:
  67:src/Thread.cpp **** 
 564              		.loc 2 67 5 is_stmt 1
GAS LISTING /tmp/ccR0ry3G.s 			page 17


  67:src/Thread.cpp **** 
 565              		.loc 2 67 11 is_stmt 0
 566 02f0 B7270000 		li	a5,8192
 567 02f4 93878700 		addi	a5,a5,8
 568 02f8 B307F500 		add	a5,a0,a5
 569              	.LVL38:
  69:src/Thread.cpp ****     this->body = nullptr;  // C++ nit nema body
 570              		.loc 2 69 5 is_stmt 1
  69:src/Thread.cpp ****     this->body = nullptr;  // C++ nit nema body
 571              		.loc 2 69 16 is_stmt 0
 572 02fc 23B80400 		sd	zero,16(s1)
  70:src/Thread.cpp ****     this->arg = nullptr;
 573              		.loc 2 70 5 is_stmt 1
  70:src/Thread.cpp ****     this->arg = nullptr;
 574              		.loc 2 70 16 is_stmt 0
 575 0300 23BC0408 		sd	zero,152(s1)
  71:src/Thread.cpp ****     threadId = cnt++;
 576              		.loc 2 71 5 is_stmt 1
  71:src/Thread.cpp ****     threadId = cnt++;
 577              		.loc 2 71 15 is_stmt 0
 578 0304 23B0040A 		sd	zero,160(s1)
  72:src/Thread.cpp **** 
 579              		.loc 2 72 5 is_stmt 1
  72:src/Thread.cpp **** 
 580              		.loc 2 72 19 is_stmt 0
 581 0308 17070000 		lla	a4,.LANCHOR0
 581      13070700 
 582 0310 83260700 		lw	a3,0(a4)
 583 0314 1B861600 		addiw	a2,a3,1
 584 0318 2320C700 		sw	a2,0(a4)
  72:src/Thread.cpp **** 
 585              		.loc 2 72 14
 586 031c 23A2D402 		sw	a3,36(s1)
  74:src/Thread.cpp ****     context.sp = (uint64)stack_top;
 587              		.loc 2 74 5 is_stmt 1
  74:src/Thread.cpp ****     context.sp = (uint64)stack_top;
 588              		.loc 2 74 25 is_stmt 0
 589 0320 B7160000 		li	a3,4096
 590 0324 93868600 		addi	a3,a3,8
 591 0328 3305D500 		add	a0,a0,a3
 592              	.LVL39:
  74:src/Thread.cpp ****     context.sp = (uint64)stack_top;
 593              		.loc 2 74 23
 594 032c 23B8A402 		sd	a0,48(s1)
  75:src/Thread.cpp **** 
 595              		.loc 2 75 5 is_stmt 1
  75:src/Thread.cpp **** 
 596              		.loc 2 75 16 is_stmt 0
 597 0330 23B0F404 		sd	a5,64(s1)
  78:src/Thread.cpp **** 
 598              		.loc 2 78 5 is_stmt 1
  78:src/Thread.cpp **** 
 599              		.loc 2 78 25 is_stmt 0
 600 0334 03358700 		ld	a0,8(a4)
 601              	.LVL40:
  78:src/Thread.cpp **** 
 602              		.loc 2 78 5
GAS LISTING /tmp/ccR0ry3G.s 			page 18


 603 0338 63080506 		beqz	a0,.L24
  80:src/Thread.cpp ****     } else {
 604              		.loc 2 80 9 is_stmt 1
  80:src/Thread.cpp ****     } else {
 605              		.loc 2 80 54 is_stmt 0
 606 033c 97000000 		call	_ZN6Thread10getContextEv
 606      E7800000 
 607              	.LVL41:
  80:src/Thread.cpp ****     } else {
 608              		.loc 2 80 58
 609 0344 83378502 		ld	a5,40(a0)
  80:src/Thread.cpp ****     } else {
 610              		.loc 2 80 25
 611 0348 23B8F404 		sd	a5,80(s1)
 612              	.L25:
  86:src/Thread.cpp ****     context.ssp = (uint64)((char*)context.kernelStack + DEFAULT_STACK_SIZE);
 613              		.loc 2 86 5 is_stmt 1
  86:src/Thread.cpp ****     context.ssp = (uint64)((char*)context.kernelStack + DEFAULT_STACK_SIZE);
 614              		.loc 2 86 25 is_stmt 0
 615 034c 23BC2403 		sd	s2,56(s1)
  87:src/Thread.cpp ****     context.startedOnce = 0;
 616              		.loc 2 87 5 is_stmt 1
  87:src/Thread.cpp ****     context.startedOnce = 0;
 617              		.loc 2 87 55 is_stmt 0
 618 0350 B7170000 		li	a5,4096
 619 0354 3309F900 		add	s2,s2,a5
 620              	.LVL42:
  87:src/Thread.cpp ****     context.startedOnce = 0;
 621              		.loc 2 87 17
 622 0358 23B42405 		sd	s2,72(s1)
  88:src/Thread.cpp ****     context.wasActive = 0;
 623              		.loc 2 88 5 is_stmt 1
  88:src/Thread.cpp ****     context.wasActive = 0;
 624              		.loc 2 88 25 is_stmt 0
 625 035c 23B00406 		sd	zero,96(s1)
  89:src/Thread.cpp ****     context.timeSlice = DEFAULT_TIME_SLICE;
 626              		.loc 2 89 5 is_stmt 1
  89:src/Thread.cpp ****     context.timeSlice = DEFAULT_TIME_SLICE;
 627              		.loc 2 89 23 is_stmt 0
 628 0360 23B40406 		sd	zero,104(s1)
  90:src/Thread.cpp ****     context.ra = (uint64)&threadWrapper;
 629              		.loc 2 90 5 is_stmt 1
  90:src/Thread.cpp ****     context.ra = (uint64)&threadWrapper;
 630              		.loc 2 90 23 is_stmt 0
 631 0364 93072000 		li	a5,2
 632 0368 23B8F406 		sd	a5,112(s1)
  91:src/Thread.cpp ****     wrapperArgs.userArgs = this;
 633              		.loc 2 91 5 is_stmt 1
  91:src/Thread.cpp ****     wrapperArgs.userArgs = this;
 634              		.loc 2 91 16 is_stmt 0
 635 036c 97070000 		lla	a5,_ZN6Thread13threadWrapperEv
 635      93870700 
 636 0374 23BCF404 		sd	a5,88(s1)
  92:src/Thread.cpp ****     wrapperArgs.userFunc = this->body = [](void* obj){
 637              		.loc 2 92 5 is_stmt 1
  92:src/Thread.cpp ****     wrapperArgs.userFunc = this->body = [](void* obj){
 638              		.loc 2 92 26 is_stmt 0
GAS LISTING /tmp/ccR0ry3G.s 			page 19


 639 0378 23B49408 		sd	s1,136(s1)
  93:src/Thread.cpp ****         static_cast<Thread*>(obj)->run();
 640              		.loc 2 93 5 is_stmt 1
 641              	.LVL43:
  93:src/Thread.cpp ****         static_cast<Thread*>(obj)->run();
 642              		.loc 2 93 39 is_stmt 0
 643 037c 97070000 		lla	a5,_ZZN6ThreadC4EvENUlPvE_4_FUNES0_
 643      93870700 
 644 0384 23BCF408 		sd	a5,152(s1)
  93:src/Thread.cpp ****         static_cast<Thread*>(obj)->run();
 645              		.loc 2 93 26
 646 0388 23B0F408 		sd	a5,128(s1)
  96:src/Thread.cpp **** 
 647              		.loc 2 96 5 is_stmt 1
  96:src/Thread.cpp **** 
 648              		.loc 2 96 28 is_stmt 0
 649 038c 23BC0406 		sd	zero,120(s1)
 650              	.LBE15:
 651              	.LBE14:
  98:src/Thread.cpp **** 
 652              		.loc 2 98 1
 653 0390 83308101 		ld	ra,24(sp)
 654              		.cfi_remember_state
 655              		.cfi_restore 1
 656 0394 03340101 		ld	s0,16(sp)
 657              		.cfi_restore 8
 658              		.cfi_def_cfa 2, 32
 659 0398 83348100 		ld	s1,8(sp)
 660              		.cfi_restore 9
 661              	.LVL44:
 662 039c 03390100 		ld	s2,0(sp)
 663              		.cfi_restore 18
 664              	.LVL45:
 665 03a0 13010102 		addi	sp,sp,32
 666              		.cfi_def_cfa_offset 0
 667 03a4 67800000 		jr	ra
 668              	.LVL46:
 669              	.L24:
 670              		.cfi_restore_state
 671              	.LBB17:
 672              	.LBB16:
  82:src/Thread.cpp ****         context.sstatus &= ~RiscV::SSTATUS_SPP;
 673              		.loc 2 82 9 is_stmt 1
  83:src/Thread.cpp ****         context.sstatus |= RiscV::SSTATUS_SPIE;
 674              		.loc 2 83 9
  84:src/Thread.cpp ****     }
 675              		.loc 2 84 9
  84:src/Thread.cpp ****     }
 676              		.loc 2 84 25 is_stmt 0
 677 03a8 93070002 		li	a5,32
 678              	.LVL47:
 679 03ac 23B8F404 		sd	a5,80(s1)
 680 03b0 6FF0DFF9 		j	.L25
 681              	.LBE16:
 682              	.LBE17:
 683              		.cfi_endproc
 684              	.LFE17:
GAS LISTING /tmp/ccR0ry3G.s 			page 20


 686              		.globl	_ZN6ThreadC1Ev
 687              		.set	_ZN6ThreadC1Ev,_ZN6ThreadC2Ev
 688              		.align	2
 689              		.globl	_ZN6Thread18thread_exit_kernelEv
 691              	_ZN6Thread18thread_exit_kernelEv:
 692              	.LFB27:
 165:src/Thread.cpp ****     Thread* oldRunning = Thread::running;
 693              		.loc 2 165 33 is_stmt 1
 694              		.cfi_startproc
 695 03b4 130101FD 		addi	sp,sp,-48
 696              		.cfi_def_cfa_offset 48
 697 03b8 23341102 		sd	ra,40(sp)
 698 03bc 23308102 		sd	s0,32(sp)
 699 03c0 233C9100 		sd	s1,24(sp)
 700 03c4 23382101 		sd	s2,16(sp)
 701 03c8 23343101 		sd	s3,8(sp)
 702              		.cfi_offset 1, -8
 703              		.cfi_offset 8, -16
 704              		.cfi_offset 9, -24
 705              		.cfi_offset 18, -32
 706              		.cfi_offset 19, -40
 707 03cc 13040103 		addi	s0,sp,48
 708              		.cfi_def_cfa 8, 0
 166:src/Thread.cpp ****     //Take the thread out of ThreadManager array
 709              		.loc 2 166 5
 166:src/Thread.cpp ****     //Take the thread out of ThreadManager array
 710              		.loc 2 166 13 is_stmt 0
 711 03d0 17090000 		lla	s2,.LANCHOR0
 711      13090900 
 712 03d8 83398900 		ld	s3,8(s2)
 713              	.LVL48:
 169:src/Thread.cpp ****     if(Thread::running){
 714              		.loc 2 169 5 is_stmt 1
 169:src/Thread.cpp ****     if(Thread::running){
 715              		.loc 2 169 36 is_stmt 0
 716 03dc 17050000 		la	a0,scheduler
 716      03350500 
 717 03e4 97000000 		call	_ZN9Scheduler3getEv@plt
 717      E7800000 
 718              	.LVL49:
 169:src/Thread.cpp ****     if(Thread::running){
 719              		.loc 2 169 21
 720 03ec 2334A900 		sd	a0,8(s2)
 170:src/Thread.cpp ****         if(Thread::running->getContext()->wasActive == 1){
 721              		.loc 2 170 5 is_stmt 1
 722 03f0 63060502 		beqz	a0,.L28
 723 03f4 93040500 		mv	s1,a0
 171:src/Thread.cpp ****             RiscV::w_last_sstatus();
 724              		.loc 2 171 9
 171:src/Thread.cpp ****             RiscV::w_last_sstatus();
 725              		.loc 2 171 39 is_stmt 0
 726 03f8 97000000 		call	_ZN6Thread10getContextEv
 726      E7800000 
 727              	.LVL50:
 171:src/Thread.cpp ****             RiscV::w_last_sstatus();
 728              		.loc 2 171 43
 729 0400 03370504 		ld	a4,64(a0)
GAS LISTING /tmp/ccR0ry3G.s 			page 21


 171:src/Thread.cpp ****             RiscV::w_last_sstatus();
 730              		.loc 2 171 9
 731 0404 93071000 		li	a5,1
 732 0408 630AF702 		beq	a4,a5,.L31
 178:src/Thread.cpp ****         }
 733              		.loc 2 178 13 is_stmt 1
 178:src/Thread.cpp ****         }
 734              		.loc 2 178 27 is_stmt 0
 735 040c 93858402 		addi	a1,s1,40
 736 0410 13858902 		addi	a0,s3,40
 737 0414 97000000 		call	context_switch@plt
 737      E7800000 
 738              	.LVL51:
 739              	.L28:
 181:src/Thread.cpp **** }
 740              		.loc 2 181 5 is_stmt 1
 182:src/Thread.cpp **** void Thread::thread_dispatch_kernel() {
 741              		.loc 2 182 1 is_stmt 0
 742 041c 13050000 		li	a0,0
 743 0420 83308102 		ld	ra,40(sp)
 744              		.cfi_remember_state
 745              		.cfi_restore 1
 746 0424 03340102 		ld	s0,32(sp)
 747              		.cfi_restore 8
 748              		.cfi_def_cfa 2, 48
 749 0428 83348101 		ld	s1,24(sp)
 750              		.cfi_restore 9
 751 042c 03390101 		ld	s2,16(sp)
 752              		.cfi_restore 18
 753 0430 83398100 		ld	s3,8(sp)
 754              		.cfi_restore 19
 755              	.LVL52:
 756 0434 13010103 		addi	sp,sp,48
 757              		.cfi_def_cfa_offset 0
 758 0438 67800000 		jr	ra
 759              	.LVL53:
 760              	.L31:
 761              		.cfi_restore_state
 172:src/Thread.cpp ****             RiscV::w_last_sepc();
 762              		.loc 2 172 13 is_stmt 1
 172:src/Thread.cpp ****             RiscV::w_last_sepc();
 763              		.loc 2 172 34 is_stmt 0
 764 043c 97000000 		call	_ZN5RiscV14w_last_sstatusEv@plt
 764      E7800000 
 765              	.LVL54:
 173:src/Thread.cpp ****             restore_context_kernel_mode(&Thread::running->context);
 766              		.loc 2 173 13 is_stmt 1
 173:src/Thread.cpp ****             restore_context_kernel_mode(&Thread::running->context);
 767              		.loc 2 173 31 is_stmt 0
 768 0444 97000000 		call	_ZN5RiscV11w_last_sepcEv@plt
 768      E7800000 
 769              	.LVL55:
 174:src/Thread.cpp ****         }
 770              		.loc 2 174 13 is_stmt 1
 174:src/Thread.cpp ****         }
 771              		.loc 2 174 40 is_stmt 0
 772 044c 17050000 		ld	a0,.LANCHOR0+8
GAS LISTING /tmp/ccR0ry3G.s 			page 22


 772      03350500 
 773 0454 13058502 		addi	a0,a0,40
 774 0458 97000000 		call	restore_context_kernel_mode@plt
 774      E7800000 
 775              	.LVL56:
 776 0460 6FF0DFFB 		j	.L28
 777              		.cfi_endproc
 778              	.LFE27:
 780              		.align	2
 781              		.globl	_ZN6Thread14getWrapperArgsEv
 783              	_ZN6Thread14getWrapperArgsEv:
 784              	.LFB34:
 213:src/Thread.cpp **** 
 214:src/Thread.cpp **** ThreadWrapperArgs* Thread::getWrapperArgs() {
 785              		.loc 2 214 45 is_stmt 1
 786              		.cfi_startproc
 787              	.LVL57:
 788 0464 130101FF 		addi	sp,sp,-16
 789              		.cfi_def_cfa_offset 16
 790 0468 23348100 		sd	s0,8(sp)
 791              		.cfi_offset 8, -8
 792 046c 13040101 		addi	s0,sp,16
 793              		.cfi_def_cfa 8, 0
 215:src/Thread.cpp ****     return &this->wrapperArgs;
 794              		.loc 2 215 5
 216:src/Thread.cpp **** }
 795              		.loc 2 216 1 is_stmt 0
 796 0470 13050508 		addi	a0,a0,128
 797              	.LVL58:
 798 0474 03348100 		ld	s0,8(sp)
 799              		.cfi_restore 8
 800              		.cfi_def_cfa 2, 16
 801 0478 13010101 		addi	sp,sp,16
 802              		.cfi_def_cfa_offset 0
 803 047c 67800000 		jr	ra
 804              		.cfi_endproc
 805              	.LFE34:
 807              		.align	2
 808              		.globl	_ZN6Thread13threadWrapperEv
 810              	_ZN6Thread13threadWrapperEv:
 811              	.LFB8:
  16:src/Thread.cpp **** 
 812              		.loc 2 16 30 is_stmt 1
 813              		.cfi_startproc
 814 0480 130101FF 		addi	sp,sp,-16
 815              		.cfi_def_cfa_offset 16
 816 0484 23341100 		sd	ra,8(sp)
 817 0488 23308100 		sd	s0,0(sp)
 818              		.cfi_offset 1, -8
 819              		.cfi_offset 8, -16
 820 048c 13040101 		addi	s0,sp,16
 821              		.cfi_def_cfa 8, 0
  18:src/Thread.cpp ****     ThreadWrapperArgs* wa = Thread::running->getWrapperArgs();
 822              		.loc 2 18 5
  18:src/Thread.cpp ****     ThreadWrapperArgs* wa = Thread::running->getWrapperArgs();
 823              		.loc 2 18 28 is_stmt 0
 824 0490 97000000 		call	_ZN5RiscV16switchToUserModeEv@plt
GAS LISTING /tmp/ccR0ry3G.s 			page 23


 824      E7800000 
 825              	.LVL59:
  19:src/Thread.cpp ****     wa->userFunc(wa->userArgs);
 826              		.loc 2 19 5 is_stmt 1
  19:src/Thread.cpp ****     wa->userFunc(wa->userArgs);
 827              		.loc 2 19 60 is_stmt 0
 828 0498 17050000 		ld	a0,.LANCHOR0+8
 828      03350500 
 829 04a0 97000000 		call	_ZN6Thread14getWrapperArgsEv
 829      E7800000 
 830              	.LVL60:
  20:src/Thread.cpp ****     thread_exit();
 831              		.loc 2 20 5 is_stmt 1
  20:src/Thread.cpp ****     thread_exit();
 832              		.loc 2 20 9 is_stmt 0
 833 04a8 83370500 		ld	a5,0(a0)
  20:src/Thread.cpp ****     thread_exit();
 834              		.loc 2 20 17
 835 04ac 03358500 		ld	a0,8(a0)
 836              	.LVL61:
 837 04b0 E7800700 		jalr	a5
 838              	.LVL62:
  21:src/Thread.cpp **** 
 839              		.loc 2 21 5 is_stmt 1
  21:src/Thread.cpp **** 
 840              		.loc 2 21 16 is_stmt 0
 841 04b4 97000000 		call	thread_exit@plt
 841      E7800000 
 842              	.LVL63:
  24:src/Thread.cpp **** void Thread::kernelThreadWrapper() {
 843              		.loc 2 24 1
 844 04bc 83308100 		ld	ra,8(sp)
 845              		.cfi_restore 1
 846 04c0 03340100 		ld	s0,0(sp)
 847              		.cfi_restore 8
 848              		.cfi_def_cfa 2, 16
 849 04c4 13010101 		addi	sp,sp,16
 850              		.cfi_def_cfa_offset 0
 851 04c8 67800000 		jr	ra
 852              		.cfi_endproc
 853              	.LFE8:
 855              		.align	2
 856              		.globl	_ZN6Thread19kernelThreadWrapperEv
 858              	_ZN6Thread19kernelThreadWrapperEv:
 859              	.LFB9:
  25:src/Thread.cpp **** 
 860              		.loc 2 25 36 is_stmt 1
 861              		.cfi_startproc
 862 04cc 130101FF 		addi	sp,sp,-16
 863              		.cfi_def_cfa_offset 16
 864 04d0 23341100 		sd	ra,8(sp)
 865 04d4 23308100 		sd	s0,0(sp)
 866              		.cfi_offset 1, -8
 867              		.cfi_offset 8, -16
 868 04d8 13040101 		addi	s0,sp,16
 869              		.cfi_def_cfa 8, 0
  27:src/Thread.cpp **** 
GAS LISTING /tmp/ccR0ry3G.s 			page 24


 870              		.loc 2 27 5
  27:src/Thread.cpp **** 
 871              		.loc 2 27 60 is_stmt 0
 872 04dc 17050000 		ld	a0,.LANCHOR0+8
 872      03350500 
 873 04e4 97000000 		call	_ZN6Thread14getWrapperArgsEv
 873      E7800000 
 874              	.LVL64:
  30:src/Thread.cpp **** 
 875              		.loc 2 30 5 is_stmt 1
  30:src/Thread.cpp **** 
 876              		.loc 2 30 9 is_stmt 0
 877 04ec 83370500 		ld	a5,0(a0)
  30:src/Thread.cpp **** 
 878              		.loc 2 30 17
 879 04f0 03358500 		ld	a0,8(a0)
 880              	.LVL65:
 881 04f4 E7800700 		jalr	a5
 882              	.LVL66:
  33:src/Thread.cpp **** 
 883              		.loc 2 33 5 is_stmt 1
  33:src/Thread.cpp **** 
 884              		.loc 2 33 23 is_stmt 0
 885 04f8 97000000 		call	_ZN6Thread18thread_exit_kernelEv
 885      E7800000 
 886              	.LVL67:
  35:src/Thread.cpp **** 
 887              		.loc 2 35 1
 888 0500 83308100 		ld	ra,8(sp)
 889              		.cfi_restore 1
 890 0504 03340100 		ld	s0,0(sp)
 891              		.cfi_restore 8
 892              		.cfi_def_cfa 2, 16
 893 0508 13010101 		addi	sp,sp,16
 894              		.cfi_def_cfa_offset 0
 895 050c 67800000 		jr	ra
 896              		.cfi_endproc
 897              	.LFE9:
 899              		.align	2
 900              		.globl	_ZN6Thread22thread_dispatch_kernelEv
 902              	_ZN6Thread22thread_dispatch_kernelEv:
 903              	.LFB28:
 183:src/Thread.cpp ****     Thread* oldRunning = Thread::running;
 904              		.loc 2 183 39 is_stmt 1
 905              		.cfi_startproc
 906 0510 130101FE 		addi	sp,sp,-32
 907              		.cfi_def_cfa_offset 32
 908 0514 233C1100 		sd	ra,24(sp)
 909 0518 23388100 		sd	s0,16(sp)
 910 051c 23349100 		sd	s1,8(sp)
 911 0520 23302101 		sd	s2,0(sp)
 912              		.cfi_offset 1, -8
 913              		.cfi_offset 8, -16
 914              		.cfi_offset 9, -24
 915              		.cfi_offset 18, -32
 916 0524 13040102 		addi	s0,sp,32
 917              		.cfi_def_cfa 8, 0
GAS LISTING /tmp/ccR0ry3G.s 			page 25


 184:src/Thread.cpp ****     if(oldRunning)
 918              		.loc 2 184 5
 184:src/Thread.cpp ****     if(oldRunning)
 919              		.loc 2 184 13 is_stmt 0
 920 0528 17090000 		ld	s2,.LANCHOR0+8
 920      03390900 
 921              	.LVL68:
 185:src/Thread.cpp ****     {
 922              		.loc 2 185 5 is_stmt 1
 923 0530 630C0900 		beqz	s2,.L39
 187:src/Thread.cpp ****     }
 924              		.loc 2 187 9
 187:src/Thread.cpp ****     }
 925              		.loc 2 187 22 is_stmt 0
 926 0534 93050900 		mv	a1,s2
 927 0538 17050000 		la	a0,scheduler
 927      03350500 
 928 0540 97000000 		call	_ZN9Scheduler3putEP6Thread@plt
 928      E7800000 
 929              	.LVL69:
 930              	.L39:
 191:src/Thread.cpp ****     if(Thread::running->getContext()->isKernelThread){
 931              		.loc 2 191 5 is_stmt 1
 191:src/Thread.cpp ****     if(Thread::running->getContext()->isKernelThread){
 932              		.loc 2 191 36 is_stmt 0
 933 0548 17050000 		la	a0,scheduler
 933      03350500 
 934 0550 97000000 		call	_ZN9Scheduler3getEv@plt
 934      E7800000 
 935              	.LVL70:
 936 0558 93040500 		mv	s1,a0
 191:src/Thread.cpp ****     if(Thread::running->getContext()->isKernelThread){
 937              		.loc 2 191 21
 938 055c 97070000 		sd	a0,.LANCHOR0+8,a5
 938      23B0A700 
 192:src/Thread.cpp ****         ThreadWrapperArgs *wa = Thread::running->getWrapperArgs();
 939              		.loc 2 192 5 is_stmt 1
 940              	.LBB18:
 192:src/Thread.cpp ****         ThreadWrapperArgs *wa = Thread::running->getWrapperArgs();
 941              		.loc 2 192 35 is_stmt 0
 942 0564 97000000 		call	_ZN6Thread10getContextEv
 942      E7800000 
 943              	.LVL71:
 192:src/Thread.cpp ****         ThreadWrapperArgs *wa = Thread::running->getWrapperArgs();
 944              		.loc 2 192 39
 945 056c 83370505 		ld	a5,80(a0)
 192:src/Thread.cpp ****         ThreadWrapperArgs *wa = Thread::running->getWrapperArgs();
 946              		.loc 2 192 5
 947 0570 638E0700 		beqz	a5,.L40
 948              	.LBB19:
 193:src/Thread.cpp ****         wa->userFunc(wa->userArgs);
 949              		.loc 2 193 9 is_stmt 1
 193:src/Thread.cpp ****         wa->userFunc(wa->userArgs);
 950              		.loc 2 193 64 is_stmt 0
 951 0574 13850400 		mv	a0,s1
 952 0578 97000000 		call	_ZN6Thread14getWrapperArgsEv
 952      E7800000 
GAS LISTING /tmp/ccR0ry3G.s 			page 26


 953              	.LVL72:
 194:src/Thread.cpp ****     }
 954              		.loc 2 194 9 is_stmt 1
 194:src/Thread.cpp ****     }
 955              		.loc 2 194 13 is_stmt 0
 956 0580 83370500 		ld	a5,0(a0)
 194:src/Thread.cpp ****     }
 957              		.loc 2 194 21
 958 0584 03358500 		ld	a0,8(a0)
 959              	.LVL73:
 960 0588 E7800700 		jalr	a5
 961              	.LVL74:
 962              	.L40:
 963              	.LBE19:
 964              	.LBE18:
 196:src/Thread.cpp ****         RiscV::w_last_sstatus();
 965              		.loc 2 196 5 is_stmt 1
 196:src/Thread.cpp ****         RiscV::w_last_sstatus();
 966              		.loc 2 196 35 is_stmt 0
 967 058c 97040000 		ld	s1,.LANCHOR0+8
 967      83B40400 
 968 0594 13850400 		mv	a0,s1
 969 0598 97000000 		call	_ZN6Thread10getContextEv
 969      E7800000 
 970              	.LVL75:
 196:src/Thread.cpp ****         RiscV::w_last_sstatus();
 971              		.loc 2 196 39
 972 05a0 03370504 		ld	a4,64(a0)
 196:src/Thread.cpp ****         RiscV::w_last_sstatus();
 973              		.loc 2 196 5
 974 05a4 93071000 		li	a5,1
 975 05a8 630AF702 		beq	a4,a5,.L44
 202:src/Thread.cpp ****         context_switch(&oldRunning->context, &Thread::running->context);
 976              		.loc 2 202 9 is_stmt 1
 202:src/Thread.cpp ****         context_switch(&oldRunning->context, &Thread::running->context);
 977              		.loc 2 202 50 is_stmt 0
 978 05ac 93071000 		li	a5,1
 979 05b0 2330F504 		sd	a5,64(a0)
 203:src/Thread.cpp ****     }
 980              		.loc 2 203 9 is_stmt 1
 203:src/Thread.cpp ****     }
 981              		.loc 2 203 23 is_stmt 0
 982 05b4 93858402 		addi	a1,s1,40
 983 05b8 13058902 		addi	a0,s2,40
 984 05bc 97000000 		call	context_switch@plt
 984      E7800000 
 985              	.LVL76:
 986              	.L38:
 206:src/Thread.cpp **** 
 987              		.loc 2 206 1
 988 05c4 83308101 		ld	ra,24(sp)
 989              		.cfi_remember_state
 990              		.cfi_restore 1
 991 05c8 03340101 		ld	s0,16(sp)
 992              		.cfi_restore 8
 993              		.cfi_def_cfa 2, 32
 994 05cc 83348100 		ld	s1,8(sp)
GAS LISTING /tmp/ccR0ry3G.s 			page 27


 995              		.cfi_restore 9
 996 05d0 03390100 		ld	s2,0(sp)
 997              		.cfi_restore 18
 998              	.LVL77:
 999 05d4 13010102 		addi	sp,sp,32
 1000              		.cfi_def_cfa_offset 0
 1001 05d8 67800000 		jr	ra
 1002              	.LVL78:
 1003              	.L44:
 1004              		.cfi_restore_state
 197:src/Thread.cpp ****         RiscV::w_last_sepc();
 1005              		.loc 2 197 9 is_stmt 1
 197:src/Thread.cpp ****         RiscV::w_last_sepc();
 1006              		.loc 2 197 30 is_stmt 0
 1007 05dc 97000000 		call	_ZN5RiscV14w_last_sstatusEv@plt
 1007      E7800000 
 1008              	.LVL79:
 198:src/Thread.cpp ****         restore_context_kernel_mode(&Thread::running->context);
 1009              		.loc 2 198 9 is_stmt 1
 198:src/Thread.cpp ****         restore_context_kernel_mode(&Thread::running->context);
 1010              		.loc 2 198 27 is_stmt 0
 1011 05e4 97000000 		call	_ZN5RiscV11w_last_sepcEv@plt
 1011      E7800000 
 1012              	.LVL80:
 199:src/Thread.cpp ****     }
 1013              		.loc 2 199 9 is_stmt 1
 199:src/Thread.cpp ****     }
 1014              		.loc 2 199 36 is_stmt 0
 1015 05ec 17050000 		ld	a0,.LANCHOR0+8
 1015      03350500 
 1016 05f4 13058502 		addi	a0,a0,40
 1017 05f8 97000000 		call	restore_context_kernel_mode@plt
 1017      E7800000 
 1018              	.LVL81:
 1019 0600 6FF05FFC 		j	.L38
 1020              		.cfi_endproc
 1021              	.LFE28:
 1023              		.align	2
 1024              		.globl	_ZN6ThreadnwEm
 1026              	_ZN6ThreadnwEm:
 1027              	.LFB35:
 217:src/Thread.cpp **** void* Thread::operator new(size_t size){
 1028              		.loc 2 217 40 is_stmt 1
 1029              		.cfi_startproc
 1030              	.LVL82:
 1031 0604 130101FF 		addi	sp,sp,-16
 1032              		.cfi_def_cfa_offset 16
 1033 0608 23341100 		sd	ra,8(sp)
 1034 060c 23308100 		sd	s0,0(sp)
 1035              		.cfi_offset 1, -8
 1036              		.cfi_offset 8, -16
 1037 0610 13040101 		addi	s0,sp,16
 1038              		.cfi_def_cfa 8, 0
 218:src/Thread.cpp **** 
 219:src/Thread.cpp ****     void* mem = (void*)MemoryAllocator::Instance()->getThreadPool().allocate();
 1039              		.loc 2 219 5
 1040              		.loc 2 219 67 is_stmt 0
GAS LISTING /tmp/ccR0ry3G.s 			page 28


 1041 0614 97000000 		call	_ZN15MemoryAllocator8InstanceEv@plt
 1041      E7800000 
 1042              	.LVL83:
 1043 061c 97000000 		call	_ZN15MemoryAllocator13getThreadPoolEv@plt
 1043      E7800000 
 1044              	.LVL84:
 1045              		.loc 2 219 77
 1046 0624 97000000 		call	_ZN10ThreadPool8allocateEv@plt
 1046      E7800000 
 1047              	.LVL85:
 220:src/Thread.cpp ****     return mem;
 1048              		.loc 2 220 5 is_stmt 1
 221:src/Thread.cpp **** }
 1049              		.loc 2 221 1 is_stmt 0
 1050 062c 83308100 		ld	ra,8(sp)
 1051              		.cfi_restore 1
 1052 0630 03340100 		ld	s0,0(sp)
 1053              		.cfi_restore 8
 1054              		.cfi_def_cfa 2, 16
 1055 0634 13010101 		addi	sp,sp,16
 1056              		.cfi_def_cfa_offset 0
 1057 0638 67800000 		jr	ra
 1058              		.cfi_endproc
 1059              	.LFE35:
 1061              		.align	2
 1062              		.globl	_ZN6Thread20create_thread_kernelEPjPFvPvES1_S1_
 1064              	_ZN6Thread20create_thread_kernelEPjPFvPvES1_S1_:
 1065              	.LFB22:
 136:src/Thread.cpp ****     if(!handle || !routine || !stack_top)return -1;
 1066              		.loc 2 136 104 is_stmt 1
 1067              		.cfi_startproc
 1068              	.LVL86:
 137:src/Thread.cpp ****     Thread* thread = new Thread(routine, args, stack_top);
 1069              		.loc 2 137 5
 1070 063c 6304050C 		beqz	a0,.L50
 136:src/Thread.cpp ****     if(!handle || !routine || !stack_top)return -1;
 1071              		.loc 2 136 104 is_stmt 0 discriminator 2
 1072 0640 130101FC 		addi	sp,sp,-64
 1073              		.cfi_def_cfa_offset 64
 1074 0644 233C1102 		sd	ra,56(sp)
 1075 0648 23388102 		sd	s0,48(sp)
 1076 064c 23349102 		sd	s1,40(sp)
 1077 0650 23302103 		sd	s2,32(sp)
 1078 0654 233C3101 		sd	s3,24(sp)
 1079 0658 23384101 		sd	s4,16(sp)
 1080 065c 23345101 		sd	s5,8(sp)
 1081              		.cfi_offset 1, -8
 1082              		.cfi_offset 8, -16
 1083              		.cfi_offset 9, -24
 1084              		.cfi_offset 18, -32
 1085              		.cfi_offset 19, -40
 1086              		.cfi_offset 20, -48
 1087              		.cfi_offset 21, -56
 1088 0660 13040104 		addi	s0,sp,64
 1089              		.cfi_def_cfa 8, 0
 1090 0664 13090500 		mv	s2,a0
 1091 0668 93890500 		mv	s3,a1
GAS LISTING /tmp/ccR0ry3G.s 			page 29


 1092 066c 930A0600 		mv	s5,a2
 1093 0670 138A0600 		mv	s4,a3
 137:src/Thread.cpp ****     Thread* thread = new Thread(routine, args, stack_top);
 1094              		.loc 2 137 16 discriminator 2
 1095 0674 638C0508 		beqz	a1,.L51
 137:src/Thread.cpp ****     Thread* thread = new Thread(routine, args, stack_top);
 1096              		.loc 2 137 28 discriminator 4
 1097 0678 638E0608 		beqz	a3,.L52
 138:src/Thread.cpp ****     if(!thread) return -2;
 1098              		.loc 2 138 5 is_stmt 1
 138:src/Thread.cpp ****     if(!thread) return -2;
 1099              		.loc 2 138 57 is_stmt 0
 1100 067c 1305800A 		li	a0,168
 1101              	.LVL87:
 1102 0680 97000000 		call	_ZN6ThreadnwEm
 1102      E7800000 
 1103              	.LVL88:
 1104 0688 93040500 		mv	s1,a0
 1105 068c 93060A00 		mv	a3,s4
 1106 0690 13860A00 		mv	a2,s5
 1107 0694 93850900 		mv	a1,s3
 1108 0698 97000000 		call	_ZN6ThreadC1EPFvPvES0_S0_
 1108      E7800000 
 1109              	.LVL89:
 139:src/Thread.cpp ****     *handle =  thread->threadId;
 1110              		.loc 2 139 5 is_stmt 1
 1111 06a0 638E0406 		beqz	s1,.L53
 140:src/Thread.cpp ****     if(!Thread::running){
 1112              		.loc 2 140 5
 140:src/Thread.cpp ****     if(!Thread::running){
 1113              		.loc 2 140 24 is_stmt 0
 1114 06a4 83A74402 		lw	a5,36(s1)
 140:src/Thread.cpp ****     if(!Thread::running){
 1115              		.loc 2 140 13
 1116 06a8 2320F900 		sw	a5,0(s2)
 141:src/Thread.cpp ****         Thread::running = thread;
 1117              		.loc 2 141 5 is_stmt 1
 141:src/Thread.cpp ****         Thread::running = thread;
 1118              		.loc 2 141 8 is_stmt 0
 1119 06ac 97070000 		ld	a5,.LANCHOR0+8
 1119      83B70700 
 141:src/Thread.cpp ****         Thread::running = thread;
 1120              		.loc 2 141 5
 1121 06b4 63800704 		beqz	a5,.L58
 145:src/Thread.cpp **** 
 1122              		.loc 2 145 5 is_stmt 1
 145:src/Thread.cpp **** 
 1123              		.loc 2 145 18 is_stmt 0
 1124 06b8 93850400 		mv	a1,s1
 1125 06bc 17050000 		la	a0,scheduler
 1125      03350500 
 1126 06c4 97000000 		call	_ZN9Scheduler3putEP6Thread@plt
 1126      E7800000 
 1127              	.LVL90:
 148:src/Thread.cpp **** }
 1128              		.loc 2 148 5 is_stmt 1
 148:src/Thread.cpp **** }
GAS LISTING /tmp/ccR0ry3G.s 			page 30


 1129              		.loc 2 148 12 is_stmt 0
 1130 06cc 13050000 		li	a0,0
 1131              	.LVL91:
 1132              	.L48:
 149:src/Thread.cpp **** 
 1133              		.loc 2 149 1
 1134 06d0 83308103 		ld	ra,56(sp)
 1135              		.cfi_remember_state
 1136              		.cfi_restore 1
 1137 06d4 03340103 		ld	s0,48(sp)
 1138              		.cfi_restore 8
 1139              		.cfi_def_cfa 2, 64
 1140 06d8 83348102 		ld	s1,40(sp)
 1141              		.cfi_restore 9
 1142 06dc 03390102 		ld	s2,32(sp)
 1143              		.cfi_restore 18
 1144              	.LVL92:
 1145 06e0 83398101 		ld	s3,24(sp)
 1146              		.cfi_restore 19
 1147              	.LVL93:
 1148 06e4 033A0101 		ld	s4,16(sp)
 1149              		.cfi_restore 20
 1150              	.LVL94:
 1151 06e8 833A8100 		ld	s5,8(sp)
 1152              		.cfi_restore 21
 1153              	.LVL95:
 1154 06ec 13010104 		addi	sp,sp,64
 1155              		.cfi_def_cfa_offset 0
 1156 06f0 67800000 		jr	ra
 1157              	.LVL96:
 1158              	.L58:
 1159              		.cfi_restore_state
 142:src/Thread.cpp ****         return 0;
 1160              		.loc 2 142 9 is_stmt 1
 142:src/Thread.cpp ****         return 0;
 1161              		.loc 2 142 25 is_stmt 0
 1162 06f4 97070000 		sd	s1,.LANCHOR0+8,a5
 1162      23B09700 
 143:src/Thread.cpp ****     }
 1163              		.loc 2 143 9 is_stmt 1
 143:src/Thread.cpp ****     }
 1164              		.loc 2 143 16 is_stmt 0
 1165 06fc 13050000 		li	a0,0
 1166 0700 6FF01FFD 		j	.L48
 1167              	.LVL97:
 1168              	.L50:
 1169              		.cfi_def_cfa_register 2
 1170              		.cfi_restore 1
 1171              		.cfi_restore 8
 1172              		.cfi_restore 9
 1173              		.cfi_restore 18
 1174              		.cfi_restore 19
 1175              		.cfi_restore 20
 1176              		.cfi_restore 21
 137:src/Thread.cpp ****     Thread* thread = new Thread(routine, args, stack_top);
 1177              		.loc 2 137 50
 1178 0704 1305F0FF 		li	a0,-1
GAS LISTING /tmp/ccR0ry3G.s 			page 31


 1179              	.LVL98:
 149:src/Thread.cpp **** 
 1180              		.loc 2 149 1
 1181 0708 67800000 		ret
 1182              	.LVL99:
 1183              	.L51:
 1184              		.cfi_def_cfa_register 8
 1185              		.cfi_offset 1, -8
 1186              		.cfi_offset 8, -16
 1187              		.cfi_offset 9, -24
 1188              		.cfi_offset 18, -32
 1189              		.cfi_offset 19, -40
 1190              		.cfi_offset 20, -48
 1191              		.cfi_offset 21, -56
 137:src/Thread.cpp ****     Thread* thread = new Thread(routine, args, stack_top);
 1192              		.loc 2 137 50
 1193 070c 1305F0FF 		li	a0,-1
 1194              	.LVL100:
 1195 0710 6FF01FFC 		j	.L48
 1196              	.LVL101:
 1197              	.L52:
 1198 0714 1305F0FF 		li	a0,-1
 1199              	.LVL102:
 1200 0718 6FF09FFB 		j	.L48
 1201              	.LVL103:
 1202              	.L53:
 139:src/Thread.cpp ****     *handle =  thread->threadId;
 1203              		.loc 2 139 25
 1204 071c 1305E0FF 		li	a0,-2
 1205 0720 6FF01FFB 		j	.L48
 1206              		.cfi_endproc
 1207              	.LFE22:
 1209              		.align	2
 1210              		.globl	_ZN6ThreaddlEPv
 1212              	_ZN6ThreaddlEPv:
 1213              	.LFB36:
 222:src/Thread.cpp **** void Thread::operator delete(void* mem )noexcept{
 1214              		.loc 2 222 49 is_stmt 1
 1215              		.cfi_startproc
 1216              		.cfi_personality 0x9b,DW.ref.__gxx_personality_v0
 1217              		.cfi_lsda 0x1b,.LLSDA36
 1218              	.LVL104:
 1219 0724 130101FE 		addi	sp,sp,-32
 1220              		.cfi_def_cfa_offset 32
 1221 0728 233C1100 		sd	ra,24(sp)
 1222 072c 23388100 		sd	s0,16(sp)
 1223 0730 23349100 		sd	s1,8(sp)
 1224              		.cfi_offset 1, -8
 1225              		.cfi_offset 8, -16
 1226              		.cfi_offset 9, -24
 1227 0734 13040102 		addi	s0,sp,32
 1228              		.cfi_def_cfa 8, 0
 1229 0738 93040500 		mv	s1,a0
 223:src/Thread.cpp **** MemoryAllocator::Instance()->getThreadPool().deallocate((Thread*) mem);
 1230              		.loc 2 223 1
 1231              		.loc 2 223 44 is_stmt 0
 1232 073c 97000000 		call	_ZN15MemoryAllocator8InstanceEv@plt
GAS LISTING /tmp/ccR0ry3G.s 			page 32


 1232      E7800000 
 1233              	.LVL105:
 1234 0744 97000000 		call	_ZN15MemoryAllocator13getThreadPoolEv@plt
 1234      E7800000 
 1235              	.LVL106:
 1236              		.loc 2 223 56
 1237 074c 93850400 		mv	a1,s1
 1238 0750 97000000 		call	_ZN10ThreadPool10deallocateEP6Thread@plt
 1238      E7800000 
 1239              	.LVL107:
 224:src/Thread.cpp **** }
 1240              		.loc 2 224 1
 1241 0758 83308101 		ld	ra,24(sp)
 1242              		.cfi_restore 1
 1243 075c 03340101 		ld	s0,16(sp)
 1244              		.cfi_restore 8
 1245              		.cfi_def_cfa 2, 32
 1246 0760 83348100 		ld	s1,8(sp)
 1247              		.cfi_restore 9
 1248              	.LVL108:
 1249 0764 13010102 		addi	sp,sp,32
 1250              		.cfi_def_cfa_offset 0
 1251 0768 67800000 		jr	ra
 1252              		.cfi_endproc
 1253              	.LFE36:
 1254              		.globl	__gxx_personality_v0
 1255              		.section	.gcc_except_table,"a",@progbits
 1256              	.LLSDA36:
 1257 0000 FF       		.byte	0xff
 1258 0001 FF       		.byte	0xff
 1259 0002 03       		.byte	0x3
 1260 0003 00       		.byte	0
 1261              		.text
 1263              		.align	2
 1264              		.globl	_ZN6ThreadD0Ev
 1266              	_ZN6ThreadD0Ev:
 1267              	.LFB32:
 208:src/Thread.cpp **** 
 1268              		.loc 2 208 1 is_stmt 1
 1269              		.cfi_startproc
 1270              	.LVL109:
 1271 076c 130101FF 		addi	sp,sp,-16
 1272              		.cfi_def_cfa_offset 16
 1273 0770 23341100 		sd	ra,8(sp)
 1274 0774 23308100 		sd	s0,0(sp)
 1275              		.cfi_offset 1, -8
 1276              		.cfi_offset 8, -16
 1277 0778 13040101 		addi	s0,sp,16
 1278              		.cfi_def_cfa 8, 0
 208:src/Thread.cpp **** 
 1279              		.loc 2 208 19 is_stmt 0
 1280 077c 97000000 		call	_ZN6ThreaddlEPv
 1280      E7800000 
 1281              	.LVL110:
 1282 0784 83308100 		ld	ra,8(sp)
 1283              		.cfi_restore 1
 1284 0788 03340100 		ld	s0,0(sp)
GAS LISTING /tmp/ccR0ry3G.s 			page 33


 1285              		.cfi_restore 8
 1286              		.cfi_def_cfa 2, 16
 1287 078c 13010101 		addi	sp,sp,16
 1288              		.cfi_def_cfa_offset 0
 1289 0790 67800000 		jr	ra
 1290              		.cfi_endproc
 1291              	.LFE32:
 1293              		.align	2
 1294              		.globl	_ZN6Thread8dispatchEv
 1296              	_ZN6Thread8dispatchEv:
 1297              	.LFB37:
 225:src/Thread.cpp **** 
 226:src/Thread.cpp **** void Thread::dispatch(){
 1298              		.loc 2 226 24 is_stmt 1
 1299              		.cfi_startproc
 1300 0794 130101FF 		addi	sp,sp,-16
 1301              		.cfi_def_cfa_offset 16
 1302 0798 23341100 		sd	ra,8(sp)
 1303 079c 23308100 		sd	s0,0(sp)
 1304              		.cfi_offset 1, -8
 1305              		.cfi_offset 8, -16
 1306 07a0 13040101 		addi	s0,sp,16
 1307              		.cfi_def_cfa 8, 0
 227:src/Thread.cpp ****     thread_dispatch();
 1308              		.loc 2 227 5
 1309              		.loc 2 227 20 is_stmt 0
 1310 07a4 97000000 		call	thread_dispatch@plt
 1310      E7800000 
 1311              	.LVL111:
 228:src/Thread.cpp **** }
 1312              		.loc 2 228 1
 1313 07ac 83308100 		ld	ra,8(sp)
 1314              		.cfi_restore 1
 1315 07b0 03340100 		ld	s0,0(sp)
 1316              		.cfi_restore 8
 1317              		.cfi_def_cfa 2, 16
 1318 07b4 13010101 		addi	sp,sp,16
 1319              		.cfi_def_cfa_offset 0
 1320 07b8 67800000 		jr	ra
 1321              		.cfi_endproc
 1322              	.LFE37:
 1324              		.align	2
 1325              		.globl	_ZN6Thread5startEv
 1327              	_ZN6Thread5startEv:
 1328              	.LFB38:
 229:src/Thread.cpp **** 
 230:src/Thread.cpp **** int Thread::start() {
 1329              		.loc 2 230 21 is_stmt 1
 1330              		.cfi_startproc
 1331              	.LVL112:
 1332 07bc 130101FF 		addi	sp,sp,-16
 1333              		.cfi_def_cfa_offset 16
 1334 07c0 23341100 		sd	ra,8(sp)
 1335 07c4 23308100 		sd	s0,0(sp)
 1336              		.cfi_offset 1, -8
 1337              		.cfi_offset 8, -16
 1338 07c8 13040101 		addi	s0,sp,16
GAS LISTING /tmp/ccR0ry3G.s 			page 34


 1339              		.cfi_def_cfa 8, 0
 1340 07cc 93050500 		mv	a1,a0
 231:src/Thread.cpp ****     scheduler.put(this);
 1341              		.loc 2 231 5
 1342              		.loc 2 231 18 is_stmt 0
 1343 07d0 17050000 		la	a0,scheduler
 1343      03350500 
 1344              	.LVL113:
 1345 07d8 97000000 		call	_ZN9Scheduler3putEP6Thread@plt
 1345      E7800000 
 1346              	.LVL114:
 232:src/Thread.cpp **** 
 233:src/Thread.cpp ****     if(Thread::running == nullptr) {
 1347              		.loc 2 233 5 is_stmt 1
 1348              		.loc 2 233 24 is_stmt 0
 1349 07e0 97070000 		ld	a5,.LANCHOR0+8
 1349      83B70700 
 1350              		.loc 2 233 5
 1351 07e8 638C0700 		beqz	a5,.L70
 234:src/Thread.cpp ****         Thread::running = scheduler.get();
 235:src/Thread.cpp ****         if(Thread::running == nullptr) return -1;
 236:src/Thread.cpp **** 
 237:src/Thread.cpp ****     }
 238:src/Thread.cpp ****     return 0;
 1352              		.loc 2 238 12
 1353 07ec 13050000 		li	a0,0
 1354              	.L66:
 239:src/Thread.cpp **** }
 1355              		.loc 2 239 1
 1356 07f0 83308100 		ld	ra,8(sp)
 1357              		.cfi_remember_state
 1358              		.cfi_restore 1
 1359 07f4 03340100 		ld	s0,0(sp)
 1360              		.cfi_restore 8
 1361              		.cfi_def_cfa 2, 16
 1362 07f8 13010101 		addi	sp,sp,16
 1363              		.cfi_def_cfa_offset 0
 1364 07fc 67800000 		jr	ra
 1365              	.L70:
 1366              		.cfi_restore_state
 234:src/Thread.cpp ****         Thread::running = scheduler.get();
 1367              		.loc 2 234 9 is_stmt 1
 234:src/Thread.cpp ****         Thread::running = scheduler.get();
 1368              		.loc 2 234 40 is_stmt 0
 1369 0800 17050000 		la	a0,scheduler
 1369      03350500 
 1370 0808 97000000 		call	_ZN9Scheduler3getEv@plt
 1370      E7800000 
 1371              	.LVL115:
 234:src/Thread.cpp ****         Thread::running = scheduler.get();
 1372              		.loc 2 234 25
 1373 0810 97070000 		sd	a0,.LANCHOR0+8,a5
 1373      23B0A700 
 235:src/Thread.cpp **** 
 1374              		.loc 2 235 9 is_stmt 1
 1375 0818 63060500 		beqz	a0,.L68
 238:src/Thread.cpp **** }
GAS LISTING /tmp/ccR0ry3G.s 			page 35


 1376              		.loc 2 238 12 is_stmt 0
 1377 081c 13050000 		li	a0,0
 1378 0820 6FF01FFD 		j	.L66
 1379              	.L68:
 235:src/Thread.cpp **** 
 1380              		.loc 2 235 48
 1381 0824 1305F0FF 		li	a0,-1
 1382 0828 6FF09FFC 		j	.L66
 1383              		.cfi_endproc
 1384              	.LFE38:
 1386              		.align	2
 1387              		.globl	getRunningThreadContext
 1389              	getRunningThreadContext:
 1390              	.LFB39:
 240:src/Thread.cpp **** extern "C" ThreadContext* getRunningThreadContext(){
 1391              		.loc 2 240 52 is_stmt 1
 1392              		.cfi_startproc
 241:src/Thread.cpp ****     if(Thread::running == nullptr){
 1393              		.loc 2 241 5
 1394              		.loc 2 241 24 is_stmt 0
 1395 082c 17050000 		ld	a0,.LANCHOR0+8
 1395      03350500 
 1396              		.loc 2 241 5
 1397 0834 63060502 		beqz	a0,.L74
 240:src/Thread.cpp **** extern "C" ThreadContext* getRunningThreadContext(){
 1398              		.loc 2 240 52
 1399 0838 130101FF 		addi	sp,sp,-16
 1400              		.cfi_def_cfa_offset 16
 1401 083c 23341100 		sd	ra,8(sp)
 1402 0840 23308100 		sd	s0,0(sp)
 1403              		.cfi_offset 1, -8
 1404              		.cfi_offset 8, -16
 1405 0844 13040101 		addi	s0,sp,16
 1406              		.cfi_def_cfa 8, 0
 242:src/Thread.cpp ****         return nullptr;
 243:src/Thread.cpp ****     }
 244:src/Thread.cpp ****     return Thread::running->getContext();
 1407              		.loc 2 244 5 is_stmt 1
 1408              		.loc 2 244 39 is_stmt 0
 1409 0848 97000000 		call	_ZN6Thread10getContextEv
 1409      E7800000 
 1410              	.LVL116:
 245:src/Thread.cpp **** };
 1411              		.loc 2 245 1
 1412 0850 83308100 		ld	ra,8(sp)
 1413              		.cfi_restore 1
 1414 0854 03340100 		ld	s0,0(sp)
 1415              		.cfi_restore 8
 1416              		.cfi_def_cfa 2, 16
 1417 0858 13010101 		addi	sp,sp,16
 1418              		.cfi_def_cfa_offset 0
 1419 085c 67800000 		jr	ra
 1420              	.L74:
 1421 0860 67800000 		ret
 1422              		.cfi_endproc
 1423              	.LFE39:
 1425              		.align	2
GAS LISTING /tmp/ccR0ry3G.s 			page 36


 1426              		.globl	getWaitStatusForRunning
 1428              	getWaitStatusForRunning:
 1429              	.LFB40:
 246:src/Thread.cpp **** 
 247:src/Thread.cpp **** extern "C" int getWaitStatusForRunning(){
 1430              		.loc 2 247 41 is_stmt 1
 1431              		.cfi_startproc
 1432 0864 130101FF 		addi	sp,sp,-16
 1433              		.cfi_def_cfa_offset 16
 1434 0868 23348100 		sd	s0,8(sp)
 1435              		.cfi_offset 8, -8
 1436 086c 13040101 		addi	s0,sp,16
 1437              		.cfi_def_cfa 8, 0
 248:src/Thread.cpp ****     return Thread::running->semWaitStatus;
 1438              		.loc 2 248 5
 249:src/Thread.cpp **** }
 1439              		.loc 2 249 1 is_stmt 0
 1440 0870 97070000 		ld	a5,.LANCHOR0+8
 1440      83B70700 
 1441 0878 03A58700 		lw	a0,8(a5)
 1442 087c 03348100 		ld	s0,8(sp)
 1443              		.cfi_restore 8
 1444              		.cfi_def_cfa 2, 16
 1445 0880 13010101 		addi	sp,sp,16
 1446              		.cfi_def_cfa_offset 0
 1447 0884 67800000 		jr	ra
 1448              		.cfi_endproc
 1449              	.LFE40:
 1451              		.weak	_ZTV6Thread
 1452              		.section	.data.rel.ro.local._ZTV6Thread,"awG",@progbits,_ZTV6Thread,comdat
 1453              		.align	3
 1456              	_ZTV6Thread:
 1457 0000 00000000 		.dword	0
 1457      00000000 
 1458 0008 00000000 		.dword	0
 1458      00000000 
 1459 0010 00000000 		.dword	_ZN6ThreadD1Ev
 1459      00000000 
 1460 0018 00000000 		.dword	_ZN6ThreadD0Ev
 1460      00000000 
 1461 0020 00000000 		.dword	_ZN6Thread3runEv
 1461      00000000 
 1462              		.globl	_ZN6Thread7runningE
 1463              		.globl	_ZN6Thread3cntE
 1464              		.bss
 1465              		.align	3
 1466              		.set	.LANCHOR0,. + 0
 1469              	_ZN6Thread3cntE:
 1470 0000 00000000 		.zero	4
 1471 0004 00000000 		.zero	4
 1474              	_ZN6Thread7runningE:
 1475 0008 00000000 		.zero	8
 1475      00000000 
 1476              		.text
 1477              	.Letext0:
 1478              		.file 3 "src/../h/../lib/hw.h"
 1479              		.file 4 "src/../h/memory_structs.h"
GAS LISTING /tmp/ccR0ry3G.s 			page 37


 1480              		.file 5 "src/../h/RiscV.hpp"
 1481              		.file 6 "src/../h/ThreadPool.hpp"
 1482              		.file 7 "src/../h/List.hpp"
 1483              		.file 8 "src/../h/SemaphorePool.hpp"
 1484              		.file 9 "src/../h/MemoryAllocator.hpp"
 1485              		.file 10 "src/../h/Scheduler.hpp"
 1486              		.file 11 "src/../h/syscall_c.hpp"
 6583              		.align	3
 6586              	DW.ref.__gxx_personality_v0:
 6587 0000 00000000 		.dword	__gxx_personality_v0
 6587      00000000 
 6588              		.ident	"GCC: (Ubuntu 9.4.0-1ubuntu1~20.04) 9.4.0"
 6589              		.section	.note.GNU-stack,"",@progbits
GAS LISTING /tmp/ccR0ry3G.s 			page 38


DEFINED SYMBOLS
                            *ABS*:0000000000000000 Thread.cpp
     /tmp/ccR0ry3G.s:10     .text._ZN6Thread3runEv:0000000000000000 _ZN6Thread3runEv
     /tmp/ccR0ry3G.s:14     .text._ZN6Thread3runEv:0000000000000000 .L0 
     /tmp/ccR0ry3G.s:16     .text._ZN6Thread3runEv:0000000000000000 .L0 
     /tmp/ccR0ry3G.s:17     .text._ZN6Thread3runEv:0000000000000004 .L0 
     /tmp/ccR0ry3G.s:19     .text._ZN6Thread3runEv:0000000000000008 .L0 
     /tmp/ccR0ry3G.s:21     .text._ZN6Thread3runEv:000000000000000c .L0 
     /tmp/ccR0ry3G.s:23     .text._ZN6Thread3runEv:000000000000000c .L0 
     /tmp/ccR0ry3G.s:24     .text._ZN6Thread3runEv:0000000000000010 .L0 
     /tmp/ccR0ry3G.s:25     .text._ZN6Thread3runEv:0000000000000010 .L0 
     /tmp/ccR0ry3G.s:27     .text._ZN6Thread3runEv:0000000000000014 .L0 
     /tmp/ccR0ry3G.s:29     .text._ZN6Thread3runEv:0000000000000018 .L0 
     /tmp/ccR0ry3G.s:35     .text:0000000000000000 _ZZN6ThreadC4EvENUlPvE_4_FUNES0_
     /tmp/ccR0ry3G.s:39     .text:0000000000000000 .L0 
     /tmp/ccR0ry3G.s:40     .text:0000000000000000 .L0 
     /tmp/ccR0ry3G.s:41     .text:0000000000000004 .L0 
     /tmp/ccR0ry3G.s:44     .text:000000000000000c .L0 
     /tmp/ccR0ry3G.s:45     .text:000000000000000c .L0 
     /tmp/ccR0ry3G.s:47     .text:0000000000000010 .L0 
     /tmp/ccR0ry3G.s:52     .text:0000000000000010 .L0 
     /tmp/ccR0ry3G.s:53     .text:0000000000000010 .L0 
     /tmp/ccR0ry3G.s:56     .text:0000000000000018 .L0 
     /tmp/ccR0ry3G.s:61     .text:000000000000001c .L0 
     /tmp/ccR0ry3G.s:62     .text:0000000000000020 .L0 
     /tmp/ccR0ry3G.s:64     .text:0000000000000024 .L0 
     /tmp/ccR0ry3G.s:65     .text:0000000000000024 .L0 
     /tmp/ccR0ry3G.s:67     .text:0000000000000028 .L0 
     /tmp/ccR0ry3G.s:69     .text:000000000000002c .L0 
     /tmp/ccR0ry3G.s:75     .text:000000000000002c _ZN6ThreadD2Ev
     /tmp/ccR0ry3G.s:78     .text:000000000000002c .L0 
     /tmp/ccR0ry3G.s:80     .text:000000000000002c .L0 
     /tmp/ccR0ry3G.s:81     .text:0000000000000030 .L0 
     /tmp/ccR0ry3G.s:83     .text:0000000000000034 .L0 
     /tmp/ccR0ry3G.s:85     .text:0000000000000038 .L0 
     /tmp/ccR0ry3G.s:87     .text:0000000000000038 .L0 
     /tmp/ccR0ry3G.s:88     .text:000000000000003c .L0 
     /tmp/ccR0ry3G.s:89     .text:000000000000003c .L0 
     /tmp/ccR0ry3G.s:91     .text:0000000000000040 .L0 
     /tmp/ccR0ry3G.s:93     .text:0000000000000044 .L0 
     /tmp/ccR0ry3G.s:75     .text:000000000000002c _ZN6ThreadD1Ev
     /tmp/ccR0ry3G.s:101    .text:0000000000000044 _ZN6ThreadC2EPFvPvES0_
     /tmp/ccR0ry3G.s:104    .text:0000000000000044 .L0 
     /tmp/ccR0ry3G.s:106    .text:0000000000000044 .L0 
     /tmp/ccR0ry3G.s:107    .text:0000000000000048 .L0 
     /tmp/ccR0ry3G.s:113    .text:000000000000005c .L0 
     /tmp/ccR0ry3G.s:114    .text:000000000000005c .L0 
     /tmp/ccR0ry3G.s:115    .text:000000000000005c .L0 
     /tmp/ccR0ry3G.s:116    .text:000000000000005c .L0 
     /tmp/ccR0ry3G.s:117    .text:000000000000005c .L0 
     /tmp/ccR0ry3G.s:119    .text:0000000000000060 .L0 
     /tmp/ccR0ry3G.s:1456   .data.rel.ro.local._ZTV6Thread:0000000000000000 _ZTV6Thread
     /tmp/ccR0ry3G.s:125    .text:000000000000006c .L0 
     /tmp/ccR0ry3G.s:129    .text:0000000000000078 .L0 
     /tmp/ccR0ry3G.s:130    .text:0000000000000078 .L0 
     /tmp/ccR0ry3G.s:132    .text:000000000000007c .L0 
     /tmp/ccR0ry3G.s:133    .text:000000000000007c .L0 
GAS LISTING /tmp/ccR0ry3G.s 			page 39


     /tmp/ccR0ry3G.s:135    .text:0000000000000080 .L0 
     /tmp/ccR0ry3G.s:136    .text:0000000000000080 .L0 
     /tmp/ccR0ry3G.s:138    .text:0000000000000084 .L0 
     /tmp/ccR0ry3G.s:139    .text:0000000000000084 .L0 
     /tmp/ccR0ry3G.s:144    .text:0000000000000098 .L0 
     /tmp/ccR0ry3G.s:147    .text:000000000000009c .L0 
     /tmp/ccR0ry3G.s:148    .text:000000000000009c .L0 
     /tmp/ccR0ry3G.s:149    .text:000000000000009c .L0 
     /tmp/ccR0ry3G.s:155    .text:00000000000000b0 .L0 
     /tmp/ccR0ry3G.s:156    .text:00000000000000b0 .L0 
     /tmp/ccR0ry3G.s:159    .text:00000000000000b4 .L0 
     /tmp/ccR0ry3G.s:160    .text:00000000000000b4 .L0 
     /tmp/ccR0ry3G.s:165    .text:00000000000000c0 .L0 
     /tmp/ccR0ry3G.s:166    .text:00000000000000c0 .L0 
     /tmp/ccR0ry3G.s:168    .text:00000000000000c4 .L0 
     /tmp/ccR0ry3G.s:169    .text:00000000000000c4 .L0 
     /tmp/ccR0ry3G.s:171    .text:00000000000000c8 .L0 
     /tmp/ccR0ry3G.s:172    .text:00000000000000c8 .L0 
     /tmp/ccR0ry3G.s:173    .text:00000000000000c8 .L0 
     /tmp/ccR0ry3G.s:174    .text:00000000000000c8 .L0 
     /tmp/ccR0ry3G.s:177    .text:00000000000000d0 .L0 
     /tmp/ccR0ry3G.s:178    .text:00000000000000d0 .L0 
     /tmp/ccR0ry3G.s:180    .text:00000000000000d4 .L0 
     /tmp/ccR0ry3G.s:181    .text:00000000000000d4 .L0 
     /tmp/ccR0ry3G.s:185    .text:00000000000000dc .L0 
     /tmp/ccR0ry3G.s:187    .text:00000000000000e0 .L0 
     /tmp/ccR0ry3G.s:188    .text:00000000000000e0 .L0 
     /tmp/ccR0ry3G.s:190    .text:00000000000000e4 .L0 
     /tmp/ccR0ry3G.s:191    .text:00000000000000e4 .L0 
     /tmp/ccR0ry3G.s:193    .text:00000000000000e8 .L0 
     /tmp/ccR0ry3G.s:194    .text:00000000000000e8 .L0 
     /tmp/ccR0ry3G.s:197    .text:00000000000000f0 .L0 
     /tmp/ccR0ry3G.s:198    .text:00000000000000f0 .L0 
     /tmp/ccR0ry3G.s:200    .text:00000000000000f4 .L0 
     /tmp/ccR0ry3G.s:201    .text:00000000000000f4 .L0 
     /tmp/ccR0ry3G.s:203    .text:00000000000000f8 .L0 
     /tmp/ccR0ry3G.s:858    .text:00000000000004cc _ZN6Thread19kernelThreadWrapperEv
     /tmp/ccR0ry3G.s:204    .text:00000000000000f8 .L0 
     /tmp/ccR0ry3G.s:207    .text:0000000000000104 .L0 
     /tmp/ccR0ry3G.s:208    .text:0000000000000104 .L0 
     /tmp/ccR0ry3G.s:213    .text:000000000000010c .L0 
     /tmp/ccR0ry3G.s:214    .text:0000000000000110 .L0 
     /tmp/ccR0ry3G.s:216    .text:0000000000000114 .L0 
     /tmp/ccR0ry3G.s:217    .text:0000000000000114 .L0 
     /tmp/ccR0ry3G.s:219    .text:0000000000000118 .L0 
     /tmp/ccR0ry3G.s:222    .text:000000000000011c .L0 
     /tmp/ccR0ry3G.s:225    .text:0000000000000120 .L0 
     /tmp/ccR0ry3G.s:228    .text:0000000000000124 .L0 
     /tmp/ccR0ry3G.s:230    .text:0000000000000128 .L0 
     /tmp/ccR0ry3G.s:101    .text:0000000000000044 _ZN6ThreadC1EPFvPvES0_
     /tmp/ccR0ry3G.s:238    .text:0000000000000128 _ZN6Thread21clearTimeSliceCounterEv
     /tmp/ccR0ry3G.s:241    .text:0000000000000128 .L0 
     /tmp/ccR0ry3G.s:243    .text:0000000000000128 .L0 
     /tmp/ccR0ry3G.s:244    .text:000000000000012c .L0 
     /tmp/ccR0ry3G.s:246    .text:0000000000000130 .L0 
     /tmp/ccR0ry3G.s:248    .text:0000000000000134 .L0 
     /tmp/ccR0ry3G.s:250    .text:0000000000000134 .L0 
GAS LISTING /tmp/ccR0ry3G.s 			page 40


     /tmp/ccR0ry3G.s:251    .text:0000000000000134 .L0 
     /tmp/ccR0ry3G.s:253    .text:0000000000000138 .L0 
     /tmp/ccR0ry3G.s:254    .text:000000000000013c .L0 
     /tmp/ccR0ry3G.s:255    .text:000000000000013c .L0 
     /tmp/ccR0ry3G.s:257    .text:0000000000000140 .L0 
     /tmp/ccR0ry3G.s:259    .text:0000000000000144 .L0 
     /tmp/ccR0ry3G.s:265    .text:0000000000000144 _ZN6Thread19getTimeSliceCounterEv
     /tmp/ccR0ry3G.s:268    .text:0000000000000144 .L0 
     /tmp/ccR0ry3G.s:270    .text:0000000000000144 .L0 
     /tmp/ccR0ry3G.s:271    .text:0000000000000148 .L0 
     /tmp/ccR0ry3G.s:273    .text:000000000000014c .L0 
     /tmp/ccR0ry3G.s:275    .text:0000000000000150 .L0 
     /tmp/ccR0ry3G.s:277    .text:0000000000000150 .L0 
     /tmp/ccR0ry3G.s:278    .text:0000000000000150 .L0 
     /tmp/ccR0ry3G.s:281    .text:0000000000000158 .L0 
     /tmp/ccR0ry3G.s:282    .text:0000000000000158 .L0 
     /tmp/ccR0ry3G.s:284    .text:000000000000015c .L0 
     /tmp/ccR0ry3G.s:286    .text:0000000000000160 .L0 
     /tmp/ccR0ry3G.s:292    .text:0000000000000160 _ZN6Thread25incrementtimeSliceCounterEv
     /tmp/ccR0ry3G.s:295    .text:0000000000000160 .L0 
     /tmp/ccR0ry3G.s:297    .text:0000000000000160 .L0 
     /tmp/ccR0ry3G.s:298    .text:0000000000000164 .L0 
     /tmp/ccR0ry3G.s:300    .text:0000000000000168 .L0 
     /tmp/ccR0ry3G.s:302    .text:000000000000016c .L0 
     /tmp/ccR0ry3G.s:304    .text:000000000000016c .L0 
     /tmp/ccR0ry3G.s:305    .text:000000000000016c .L0 
     /tmp/ccR0ry3G.s:307    .text:0000000000000170 .L0 
     /tmp/ccR0ry3G.s:310    .text:0000000000000178 .L0 
     /tmp/ccR0ry3G.s:311    .text:000000000000017c .L0 
     /tmp/ccR0ry3G.s:312    .text:000000000000017c .L0 
     /tmp/ccR0ry3G.s:314    .text:0000000000000180 .L0 
     /tmp/ccR0ry3G.s:316    .text:0000000000000184 .L0 
     /tmp/ccR0ry3G.s:322    .text:0000000000000184 _ZN6Thread12getTimeSliceEv
     /tmp/ccR0ry3G.s:325    .text:0000000000000184 .L0 
     /tmp/ccR0ry3G.s:327    .text:0000000000000184 .L0 
     /tmp/ccR0ry3G.s:328    .text:0000000000000188 .L0 
     /tmp/ccR0ry3G.s:330    .text:000000000000018c .L0 
     /tmp/ccR0ry3G.s:332    .text:0000000000000190 .L0 
     /tmp/ccR0ry3G.s:334    .text:0000000000000190 .L0 
     /tmp/ccR0ry3G.s:335    .text:0000000000000190 .L0 
     /tmp/ccR0ry3G.s:338    .text:0000000000000198 .L0 
     /tmp/ccR0ry3G.s:339    .text:0000000000000198 .L0 
     /tmp/ccR0ry3G.s:341    .text:000000000000019c .L0 
     /tmp/ccR0ry3G.s:343    .text:00000000000001a0 .L0 
     /tmp/ccR0ry3G.s:349    .text:00000000000001a0 _ZN6Thread10getContextEv
     /tmp/ccR0ry3G.s:352    .text:00000000000001a0 .L0 
     /tmp/ccR0ry3G.s:354    .text:00000000000001a0 .L0 
     /tmp/ccR0ry3G.s:355    .text:00000000000001a4 .L0 
     /tmp/ccR0ry3G.s:357    .text:00000000000001a8 .L0 
     /tmp/ccR0ry3G.s:359    .text:00000000000001ac .L0 
     /tmp/ccR0ry3G.s:361    .text:00000000000001ac .L0 
     /tmp/ccR0ry3G.s:362    .text:00000000000001ac .L0 
     /tmp/ccR0ry3G.s:365    .text:00000000000001b4 .L0 
     /tmp/ccR0ry3G.s:366    .text:00000000000001b4 .L0 
     /tmp/ccR0ry3G.s:368    .text:00000000000001b8 .L0 
     /tmp/ccR0ry3G.s:370    .text:00000000000001bc .L0 
     /tmp/ccR0ry3G.s:376    .text:00000000000001bc _ZN6ThreadC2EPFvPvES0_S0_
GAS LISTING /tmp/ccR0ry3G.s 			page 41


     /tmp/ccR0ry3G.s:379    .text:00000000000001bc .L0 
     /tmp/ccR0ry3G.s:381    .text:00000000000001bc .L0 
     /tmp/ccR0ry3G.s:382    .text:00000000000001c0 .L0 
     /tmp/ccR0ry3G.s:390    .text:00000000000001dc .L0 
     /tmp/ccR0ry3G.s:391    .text:00000000000001dc .L0 
     /tmp/ccR0ry3G.s:392    .text:00000000000001dc .L0 
     /tmp/ccR0ry3G.s:393    .text:00000000000001dc .L0 
     /tmp/ccR0ry3G.s:394    .text:00000000000001dc .L0 
     /tmp/ccR0ry3G.s:395    .text:00000000000001dc .L0 
     /tmp/ccR0ry3G.s:396    .text:00000000000001dc .L0 
     /tmp/ccR0ry3G.s:398    .text:00000000000001e0 .L0 
     /tmp/ccR0ry3G.s:405    .text:00000000000001f0 .L0 
     /tmp/ccR0ry3G.s:408    .text:00000000000001fc .L0 
     /tmp/ccR0ry3G.s:409    .text:00000000000001fc .L0 
     /tmp/ccR0ry3G.s:411    .text:0000000000000200 .L0 
     /tmp/ccR0ry3G.s:412    .text:0000000000000200 .L0 
     /tmp/ccR0ry3G.s:414    .text:0000000000000204 .L0 
     /tmp/ccR0ry3G.s:415    .text:0000000000000204 .L0 
     /tmp/ccR0ry3G.s:417    .text:0000000000000208 .L0 
     /tmp/ccR0ry3G.s:418    .text:0000000000000208 .L0 
     /tmp/ccR0ry3G.s:424    .text:000000000000021c .L0 
     /tmp/ccR0ry3G.s:426    .text:0000000000000220 .L0 
     /tmp/ccR0ry3G.s:427    .text:0000000000000220 .L0 
     /tmp/ccR0ry3G.s:430    .text:0000000000000228 .L0 
     /tmp/ccR0ry3G.s:432    .text:000000000000022c .L0 
     /tmp/ccR0ry3G.s:433    .text:000000000000022c .L0 
     /tmp/ccR0ry3G.s:435    .text:0000000000000230 .L0 
     /tmp/ccR0ry3G.s:436    .text:0000000000000230 .L0 
     /tmp/ccR0ry3G.s:439    .text:0000000000000234 .L0 
     /tmp/ccR0ry3G.s:441    .text:0000000000000238 .L0 
     /tmp/ccR0ry3G.s:442    .text:0000000000000238 .L0 
     /tmp/ccR0ry3G.s:445    .text:0000000000000240 .L0 
     /tmp/ccR0ry3G.s:447    .text:0000000000000244 .L0 
     /tmp/ccR0ry3G.s:450    .text:0000000000000248 .L0 
     /tmp/ccR0ry3G.s:451    .text:0000000000000248 .L0 
     /tmp/ccR0ry3G.s:455    .text:0000000000000250 .L0 
     /tmp/ccR0ry3G.s:457    .text:0000000000000254 .L0 
     /tmp/ccR0ry3G.s:458    .text:0000000000000254 .L0 
     /tmp/ccR0ry3G.s:460    .text:0000000000000258 .L0 
     /tmp/ccR0ry3G.s:461    .text:0000000000000258 .L0 
     /tmp/ccR0ry3G.s:463    .text:000000000000025c .L0 
     /tmp/ccR0ry3G.s:464    .text:000000000000025c .L0 
     /tmp/ccR0ry3G.s:466    .text:0000000000000260 .L0 
     /tmp/ccR0ry3G.s:467    .text:0000000000000260 .L0 
     /tmp/ccR0ry3G.s:469    .text:0000000000000264 .L0 
     /tmp/ccR0ry3G.s:470    .text:0000000000000264 .L0 
     /tmp/ccR0ry3G.s:472    .text:0000000000000268 .L0 
     /tmp/ccR0ry3G.s:810    .text:0000000000000480 _ZN6Thread13threadWrapperEv
     /tmp/ccR0ry3G.s:473    .text:0000000000000268 .L0 
     /tmp/ccR0ry3G.s:476    .text:0000000000000274 .L0 
     /tmp/ccR0ry3G.s:477    .text:0000000000000274 .L0 
     /tmp/ccR0ry3G.s:480    .text:000000000000027c .L0 
     /tmp/ccR0ry3G.s:481    .text:000000000000027c .L0 
     /tmp/ccR0ry3G.s:484    .text:0000000000000280 .L0 
     /tmp/ccR0ry3G.s:485    .text:0000000000000284 .L0 
     /tmp/ccR0ry3G.s:486    .text:0000000000000284 .L0 
     /tmp/ccR0ry3G.s:488    .text:0000000000000288 .L0 
GAS LISTING /tmp/ccR0ry3G.s 			page 42


     /tmp/ccR0ry3G.s:489    .text:0000000000000288 .L0 
     /tmp/ccR0ry3G.s:491    .text:000000000000028c .L0 
     /tmp/ccR0ry3G.s:494    .text:0000000000000290 .L0 
     /tmp/ccR0ry3G.s:497    .text:0000000000000294 .L0 
     /tmp/ccR0ry3G.s:500    .text:0000000000000298 .L0 
     /tmp/ccR0ry3G.s:503    .text:000000000000029c .L0 
     /tmp/ccR0ry3G.s:506    .text:00000000000002a0 .L0 
     /tmp/ccR0ry3G.s:510    .text:00000000000002a4 .L0 
     /tmp/ccR0ry3G.s:513    .text:00000000000002a4 .L0 
     /tmp/ccR0ry3G.s:514    .text:00000000000002a4 .L0 
     /tmp/ccR0ry3G.s:515    .text:00000000000002a4 .L0 
     /tmp/ccR0ry3G.s:516    .text:00000000000002a4 .L0 
     /tmp/ccR0ry3G.s:520    .text:00000000000002b0 .L0 
     /tmp/ccR0ry3G.s:376    .text:00000000000001bc _ZN6ThreadC1EPFvPvES0_S0_
     /tmp/ccR0ry3G.s:528    .text:00000000000002b0 _ZN6ThreadC2Ev
     /tmp/ccR0ry3G.s:531    .text:00000000000002b0 .L0 
     /tmp/ccR0ry3G.s:533    .text:00000000000002b0 .L0 
     /tmp/ccR0ry3G.s:534    .text:00000000000002b4 .L0 
     /tmp/ccR0ry3G.s:539    .text:00000000000002c4 .L0 
     /tmp/ccR0ry3G.s:540    .text:00000000000002c4 .L0 
     /tmp/ccR0ry3G.s:541    .text:00000000000002c4 .L0 
     /tmp/ccR0ry3G.s:542    .text:00000000000002c4 .L0 
     /tmp/ccR0ry3G.s:544    .text:00000000000002c8 .L0 
     /tmp/ccR0ry3G.s:548    .text:00000000000002cc .L0 
     /tmp/ccR0ry3G.s:553    .text:00000000000002d8 .L0 
     /tmp/ccR0ry3G.s:554    .text:00000000000002d8 .L0 
     /tmp/ccR0ry3G.s:555    .text:00000000000002d8 .L0 
     /tmp/ccR0ry3G.s:561    .text:00000000000002ec .L0 
     /tmp/ccR0ry3G.s:562    .text:00000000000002ec .L0 
     /tmp/ccR0ry3G.s:565    .text:00000000000002f0 .L0 
     /tmp/ccR0ry3G.s:566    .text:00000000000002f0 .L0 
     /tmp/ccR0ry3G.s:571    .text:00000000000002fc .L0 
     /tmp/ccR0ry3G.s:572    .text:00000000000002fc .L0 
     /tmp/ccR0ry3G.s:574    .text:0000000000000300 .L0 
     /tmp/ccR0ry3G.s:575    .text:0000000000000300 .L0 
     /tmp/ccR0ry3G.s:577    .text:0000000000000304 .L0 
     /tmp/ccR0ry3G.s:578    .text:0000000000000304 .L0 
     /tmp/ccR0ry3G.s:580    .text:0000000000000308 .L0 
     /tmp/ccR0ry3G.s:581    .text:0000000000000308 .L0 
     /tmp/ccR0ry3G.s:586    .text:000000000000031c .L0 
     /tmp/ccR0ry3G.s:588    .text:0000000000000320 .L0 
     /tmp/ccR0ry3G.s:589    .text:0000000000000320 .L0 
     /tmp/ccR0ry3G.s:594    .text:000000000000032c .L0 
     /tmp/ccR0ry3G.s:596    .text:0000000000000330 .L0 
     /tmp/ccR0ry3G.s:597    .text:0000000000000330 .L0 
     /tmp/ccR0ry3G.s:599    .text:0000000000000334 .L0 
     /tmp/ccR0ry3G.s:600    .text:0000000000000334 .L0 
     /tmp/ccR0ry3G.s:603    .text:0000000000000338 .L0 
     /tmp/ccR0ry3G.s:605    .text:000000000000033c .L0 
     /tmp/ccR0ry3G.s:606    .text:000000000000033c .L0 
     /tmp/ccR0ry3G.s:609    .text:0000000000000344 .L0 
     /tmp/ccR0ry3G.s:611    .text:0000000000000348 .L0 
     /tmp/ccR0ry3G.s:614    .text:000000000000034c .L0 
     /tmp/ccR0ry3G.s:615    .text:000000000000034c .L0 
     /tmp/ccR0ry3G.s:617    .text:0000000000000350 .L0 
     /tmp/ccR0ry3G.s:618    .text:0000000000000350 .L0 
     /tmp/ccR0ry3G.s:622    .text:0000000000000358 .L0 
GAS LISTING /tmp/ccR0ry3G.s 			page 43


     /tmp/ccR0ry3G.s:624    .text:000000000000035c .L0 
     /tmp/ccR0ry3G.s:625    .text:000000000000035c .L0 
     /tmp/ccR0ry3G.s:627    .text:0000000000000360 .L0 
     /tmp/ccR0ry3G.s:628    .text:0000000000000360 .L0 
     /tmp/ccR0ry3G.s:630    .text:0000000000000364 .L0 
     /tmp/ccR0ry3G.s:631    .text:0000000000000364 .L0 
     /tmp/ccR0ry3G.s:634    .text:000000000000036c .L0 
     /tmp/ccR0ry3G.s:635    .text:000000000000036c .L0 
     /tmp/ccR0ry3G.s:638    .text:0000000000000378 .L0 
     /tmp/ccR0ry3G.s:639    .text:0000000000000378 .L0 
     /tmp/ccR0ry3G.s:642    .text:000000000000037c .L0 
     /tmp/ccR0ry3G.s:643    .text:000000000000037c .L0 
     /tmp/ccR0ry3G.s:646    .text:0000000000000388 .L0 
     /tmp/ccR0ry3G.s:648    .text:000000000000038c .L0 
     /tmp/ccR0ry3G.s:649    .text:000000000000038c .L0 
     /tmp/ccR0ry3G.s:653    .text:0000000000000390 .L0 
     /tmp/ccR0ry3G.s:654    .text:0000000000000394 .L0 
     /tmp/ccR0ry3G.s:655    .text:0000000000000394 .L0 
     /tmp/ccR0ry3G.s:657    .text:0000000000000398 .L0 
     /tmp/ccR0ry3G.s:658    .text:0000000000000398 .L0 
     /tmp/ccR0ry3G.s:660    .text:000000000000039c .L0 
     /tmp/ccR0ry3G.s:663    .text:00000000000003a0 .L0 
     /tmp/ccR0ry3G.s:666    .text:00000000000003a4 .L0 
     /tmp/ccR0ry3G.s:670    .text:00000000000003a8 .L0 
     /tmp/ccR0ry3G.s:674    .text:00000000000003a8 .L0 
     /tmp/ccR0ry3G.s:675    .text:00000000000003a8 .L0 
     /tmp/ccR0ry3G.s:676    .text:00000000000003a8 .L0 
     /tmp/ccR0ry3G.s:677    .text:00000000000003a8 .L0 
     /tmp/ccR0ry3G.s:683    .text:00000000000003b4 .L0 
     /tmp/ccR0ry3G.s:528    .text:00000000000002b0 _ZN6ThreadC1Ev
     /tmp/ccR0ry3G.s:691    .text:00000000000003b4 _ZN6Thread18thread_exit_kernelEv
     /tmp/ccR0ry3G.s:694    .text:00000000000003b4 .L0 
     /tmp/ccR0ry3G.s:695    .text:00000000000003b4 .L0 
     /tmp/ccR0ry3G.s:696    .text:00000000000003b8 .L0 
     /tmp/ccR0ry3G.s:702    .text:00000000000003cc .L0 
     /tmp/ccR0ry3G.s:703    .text:00000000000003cc .L0 
     /tmp/ccR0ry3G.s:704    .text:00000000000003cc .L0 
     /tmp/ccR0ry3G.s:705    .text:00000000000003cc .L0 
     /tmp/ccR0ry3G.s:706    .text:00000000000003cc .L0 
     /tmp/ccR0ry3G.s:708    .text:00000000000003d0 .L0 
     /tmp/ccR0ry3G.s:710    .text:00000000000003d0 .L0 
     /tmp/ccR0ry3G.s:711    .text:00000000000003d0 .L0 
     /tmp/ccR0ry3G.s:715    .text:00000000000003dc .L0 
     /tmp/ccR0ry3G.s:716    .text:00000000000003dc .L0 
     /tmp/ccR0ry3G.s:720    .text:00000000000003ec .L0 
     /tmp/ccR0ry3G.s:722    .text:00000000000003f0 .L0 
     /tmp/ccR0ry3G.s:725    .text:00000000000003f8 .L0 
     /tmp/ccR0ry3G.s:726    .text:00000000000003f8 .L0 
     /tmp/ccR0ry3G.s:729    .text:0000000000000400 .L0 
     /tmp/ccR0ry3G.s:731    .text:0000000000000404 .L0 
     /tmp/ccR0ry3G.s:734    .text:000000000000040c .L0 
     /tmp/ccR0ry3G.s:735    .text:000000000000040c .L0 
     /tmp/ccR0ry3G.s:741    .text:000000000000041c .L0 
     /tmp/ccR0ry3G.s:742    .text:000000000000041c .L0 
     /tmp/ccR0ry3G.s:744    .text:0000000000000424 .L0 
     /tmp/ccR0ry3G.s:745    .text:0000000000000424 .L0 
     /tmp/ccR0ry3G.s:747    .text:0000000000000428 .L0 
GAS LISTING /tmp/ccR0ry3G.s 			page 44


     /tmp/ccR0ry3G.s:748    .text:0000000000000428 .L0 
     /tmp/ccR0ry3G.s:750    .text:000000000000042c .L0 
     /tmp/ccR0ry3G.s:752    .text:0000000000000430 .L0 
     /tmp/ccR0ry3G.s:754    .text:0000000000000434 .L0 
     /tmp/ccR0ry3G.s:757    .text:0000000000000438 .L0 
     /tmp/ccR0ry3G.s:761    .text:000000000000043c .L0 
     /tmp/ccR0ry3G.s:763    .text:000000000000043c .L0 
     /tmp/ccR0ry3G.s:764    .text:000000000000043c .L0 
     /tmp/ccR0ry3G.s:767    .text:0000000000000444 .L0 
     /tmp/ccR0ry3G.s:768    .text:0000000000000444 .L0 
     /tmp/ccR0ry3G.s:771    .text:000000000000044c .L0 
     /tmp/ccR0ry3G.s:772    .text:000000000000044c .L0 
     /tmp/ccR0ry3G.s:777    .text:0000000000000464 .L0 
     /tmp/ccR0ry3G.s:783    .text:0000000000000464 _ZN6Thread14getWrapperArgsEv
     /tmp/ccR0ry3G.s:786    .text:0000000000000464 .L0 
     /tmp/ccR0ry3G.s:788    .text:0000000000000464 .L0 
     /tmp/ccR0ry3G.s:789    .text:0000000000000468 .L0 
     /tmp/ccR0ry3G.s:791    .text:000000000000046c .L0 
     /tmp/ccR0ry3G.s:793    .text:0000000000000470 .L0 
     /tmp/ccR0ry3G.s:795    .text:0000000000000470 .L0 
     /tmp/ccR0ry3G.s:796    .text:0000000000000470 .L0 
     /tmp/ccR0ry3G.s:799    .text:0000000000000478 .L0 
     /tmp/ccR0ry3G.s:800    .text:0000000000000478 .L0 
     /tmp/ccR0ry3G.s:802    .text:000000000000047c .L0 
     /tmp/ccR0ry3G.s:804    .text:0000000000000480 .L0 
     /tmp/ccR0ry3G.s:813    .text:0000000000000480 .L0 
     /tmp/ccR0ry3G.s:814    .text:0000000000000480 .L0 
     /tmp/ccR0ry3G.s:815    .text:0000000000000484 .L0 
     /tmp/ccR0ry3G.s:818    .text:000000000000048c .L0 
     /tmp/ccR0ry3G.s:819    .text:000000000000048c .L0 
     /tmp/ccR0ry3G.s:821    .text:0000000000000490 .L0 
     /tmp/ccR0ry3G.s:823    .text:0000000000000490 .L0 
     /tmp/ccR0ry3G.s:824    .text:0000000000000490 .L0 
     /tmp/ccR0ry3G.s:827    .text:0000000000000498 .L0 
     /tmp/ccR0ry3G.s:828    .text:0000000000000498 .L0 
     /tmp/ccR0ry3G.s:832    .text:00000000000004a8 .L0 
     /tmp/ccR0ry3G.s:833    .text:00000000000004a8 .L0 
     /tmp/ccR0ry3G.s:835    .text:00000000000004ac .L0 
     /tmp/ccR0ry3G.s:840    .text:00000000000004b4 .L0 
     /tmp/ccR0ry3G.s:841    .text:00000000000004b4 .L0 
     /tmp/ccR0ry3G.s:844    .text:00000000000004bc .L0 
     /tmp/ccR0ry3G.s:845    .text:00000000000004c0 .L0 
     /tmp/ccR0ry3G.s:847    .text:00000000000004c4 .L0 
     /tmp/ccR0ry3G.s:848    .text:00000000000004c4 .L0 
     /tmp/ccR0ry3G.s:850    .text:00000000000004c8 .L0 
     /tmp/ccR0ry3G.s:852    .text:00000000000004cc .L0 
     /tmp/ccR0ry3G.s:861    .text:00000000000004cc .L0 
     /tmp/ccR0ry3G.s:862    .text:00000000000004cc .L0 
     /tmp/ccR0ry3G.s:863    .text:00000000000004d0 .L0 
     /tmp/ccR0ry3G.s:866    .text:00000000000004d8 .L0 
     /tmp/ccR0ry3G.s:867    .text:00000000000004d8 .L0 
     /tmp/ccR0ry3G.s:869    .text:00000000000004dc .L0 
     /tmp/ccR0ry3G.s:871    .text:00000000000004dc .L0 
     /tmp/ccR0ry3G.s:872    .text:00000000000004dc .L0 
     /tmp/ccR0ry3G.s:876    .text:00000000000004ec .L0 
     /tmp/ccR0ry3G.s:877    .text:00000000000004ec .L0 
     /tmp/ccR0ry3G.s:879    .text:00000000000004f0 .L0 
GAS LISTING /tmp/ccR0ry3G.s 			page 45


     /tmp/ccR0ry3G.s:884    .text:00000000000004f8 .L0 
     /tmp/ccR0ry3G.s:885    .text:00000000000004f8 .L0 
     /tmp/ccR0ry3G.s:888    .text:0000000000000500 .L0 
     /tmp/ccR0ry3G.s:889    .text:0000000000000504 .L0 
     /tmp/ccR0ry3G.s:891    .text:0000000000000508 .L0 
     /tmp/ccR0ry3G.s:892    .text:0000000000000508 .L0 
     /tmp/ccR0ry3G.s:894    .text:000000000000050c .L0 
     /tmp/ccR0ry3G.s:896    .text:0000000000000510 .L0 
     /tmp/ccR0ry3G.s:902    .text:0000000000000510 _ZN6Thread22thread_dispatch_kernelEv
     /tmp/ccR0ry3G.s:905    .text:0000000000000510 .L0 
     /tmp/ccR0ry3G.s:906    .text:0000000000000510 .L0 
     /tmp/ccR0ry3G.s:907    .text:0000000000000514 .L0 
     /tmp/ccR0ry3G.s:912    .text:0000000000000524 .L0 
     /tmp/ccR0ry3G.s:913    .text:0000000000000524 .L0 
     /tmp/ccR0ry3G.s:914    .text:0000000000000524 .L0 
     /tmp/ccR0ry3G.s:915    .text:0000000000000524 .L0 
     /tmp/ccR0ry3G.s:917    .text:0000000000000528 .L0 
     /tmp/ccR0ry3G.s:919    .text:0000000000000528 .L0 
     /tmp/ccR0ry3G.s:920    .text:0000000000000528 .L0 
     /tmp/ccR0ry3G.s:923    .text:0000000000000530 .L0 
     /tmp/ccR0ry3G.s:925    .text:0000000000000534 .L0 
     /tmp/ccR0ry3G.s:926    .text:0000000000000534 .L0 
     /tmp/ccR0ry3G.s:932    .text:0000000000000548 .L0 
     /tmp/ccR0ry3G.s:933    .text:0000000000000548 .L0 
     /tmp/ccR0ry3G.s:938    .text:000000000000055c .L0 
     /tmp/ccR0ry3G.s:941    .text:0000000000000564 .L0 
     /tmp/ccR0ry3G.s:942    .text:0000000000000564 .L0 
     /tmp/ccR0ry3G.s:945    .text:000000000000056c .L0 
     /tmp/ccR0ry3G.s:947    .text:0000000000000570 .L0 
     /tmp/ccR0ry3G.s:950    .text:0000000000000574 .L0 
     /tmp/ccR0ry3G.s:951    .text:0000000000000574 .L0 
     /tmp/ccR0ry3G.s:955    .text:0000000000000580 .L0 
     /tmp/ccR0ry3G.s:956    .text:0000000000000580 .L0 
     /tmp/ccR0ry3G.s:958    .text:0000000000000584 .L0 
     /tmp/ccR0ry3G.s:966    .text:000000000000058c .L0 
     /tmp/ccR0ry3G.s:967    .text:000000000000058c .L0 
     /tmp/ccR0ry3G.s:972    .text:00000000000005a0 .L0 
     /tmp/ccR0ry3G.s:974    .text:00000000000005a4 .L0 
     /tmp/ccR0ry3G.s:977    .text:00000000000005ac .L0 
     /tmp/ccR0ry3G.s:978    .text:00000000000005ac .L0 
     /tmp/ccR0ry3G.s:981    .text:00000000000005b4 .L0 
     /tmp/ccR0ry3G.s:982    .text:00000000000005b4 .L0 
     /tmp/ccR0ry3G.s:988    .text:00000000000005c4 .L0 
     /tmp/ccR0ry3G.s:989    .text:00000000000005c8 .L0 
     /tmp/ccR0ry3G.s:990    .text:00000000000005c8 .L0 
     /tmp/ccR0ry3G.s:992    .text:00000000000005cc .L0 
     /tmp/ccR0ry3G.s:993    .text:00000000000005cc .L0 
     /tmp/ccR0ry3G.s:995    .text:00000000000005d0 .L0 
     /tmp/ccR0ry3G.s:997    .text:00000000000005d4 .L0 
     /tmp/ccR0ry3G.s:1000   .text:00000000000005d8 .L0 
     /tmp/ccR0ry3G.s:1004   .text:00000000000005dc .L0 
     /tmp/ccR0ry3G.s:1006   .text:00000000000005dc .L0 
     /tmp/ccR0ry3G.s:1007   .text:00000000000005dc .L0 
     /tmp/ccR0ry3G.s:1010   .text:00000000000005e4 .L0 
     /tmp/ccR0ry3G.s:1011   .text:00000000000005e4 .L0 
     /tmp/ccR0ry3G.s:1014   .text:00000000000005ec .L0 
     /tmp/ccR0ry3G.s:1015   .text:00000000000005ec .L0 
GAS LISTING /tmp/ccR0ry3G.s 			page 46


     /tmp/ccR0ry3G.s:1020   .text:0000000000000604 .L0 
     /tmp/ccR0ry3G.s:1026   .text:0000000000000604 _ZN6ThreadnwEm
     /tmp/ccR0ry3G.s:1029   .text:0000000000000604 .L0 
     /tmp/ccR0ry3G.s:1031   .text:0000000000000604 .L0 
     /tmp/ccR0ry3G.s:1032   .text:0000000000000608 .L0 
     /tmp/ccR0ry3G.s:1035   .text:0000000000000610 .L0 
     /tmp/ccR0ry3G.s:1036   .text:0000000000000610 .L0 
     /tmp/ccR0ry3G.s:1038   .text:0000000000000614 .L0 
     /tmp/ccR0ry3G.s:1040   .text:0000000000000614 .L0 
     /tmp/ccR0ry3G.s:1041   .text:0000000000000614 .L0 
     /tmp/ccR0ry3G.s:1046   .text:0000000000000624 .L0 
     /tmp/ccR0ry3G.s:1049   .text:000000000000062c .L0 
     /tmp/ccR0ry3G.s:1050   .text:000000000000062c .L0 
     /tmp/ccR0ry3G.s:1051   .text:0000000000000630 .L0 
     /tmp/ccR0ry3G.s:1053   .text:0000000000000634 .L0 
     /tmp/ccR0ry3G.s:1054   .text:0000000000000634 .L0 
     /tmp/ccR0ry3G.s:1056   .text:0000000000000638 .L0 
     /tmp/ccR0ry3G.s:1058   .text:000000000000063c .L0 
     /tmp/ccR0ry3G.s:1064   .text:000000000000063c _ZN6Thread20create_thread_kernelEPjPFvPvES1_S1_
     /tmp/ccR0ry3G.s:1067   .text:000000000000063c .L0 
     /tmp/ccR0ry3G.s:1069   .text:000000000000063c .L0 
     /tmp/ccR0ry3G.s:1070   .text:000000000000063c .L0 
     /tmp/ccR0ry3G.s:1072   .text:0000000000000640 .L0 
     /tmp/ccR0ry3G.s:1073   .text:0000000000000644 .L0 
     /tmp/ccR0ry3G.s:1081   .text:0000000000000660 .L0 
     /tmp/ccR0ry3G.s:1082   .text:0000000000000660 .L0 
     /tmp/ccR0ry3G.s:1083   .text:0000000000000660 .L0 
     /tmp/ccR0ry3G.s:1084   .text:0000000000000660 .L0 
     /tmp/ccR0ry3G.s:1085   .text:0000000000000660 .L0 
     /tmp/ccR0ry3G.s:1086   .text:0000000000000660 .L0 
     /tmp/ccR0ry3G.s:1087   .text:0000000000000660 .L0 
     /tmp/ccR0ry3G.s:1089   .text:0000000000000664 .L0 
     /tmp/ccR0ry3G.s:1095   .text:0000000000000674 .L0 
     /tmp/ccR0ry3G.s:1097   .text:0000000000000678 .L0 
     /tmp/ccR0ry3G.s:1099   .text:000000000000067c .L0 
     /tmp/ccR0ry3G.s:1100   .text:000000000000067c .L0 
     /tmp/ccR0ry3G.s:1111   .text:00000000000006a0 .L0 
     /tmp/ccR0ry3G.s:1113   .text:00000000000006a4 .L0 
     /tmp/ccR0ry3G.s:1114   .text:00000000000006a4 .L0 
     /tmp/ccR0ry3G.s:1116   .text:00000000000006a8 .L0 
     /tmp/ccR0ry3G.s:1118   .text:00000000000006ac .L0 
     /tmp/ccR0ry3G.s:1119   .text:00000000000006ac .L0 
     /tmp/ccR0ry3G.s:1121   .text:00000000000006b4 .L0 
     /tmp/ccR0ry3G.s:1123   .text:00000000000006b8 .L0 
     /tmp/ccR0ry3G.s:1124   .text:00000000000006b8 .L0 
     /tmp/ccR0ry3G.s:1129   .text:00000000000006cc .L0 
     /tmp/ccR0ry3G.s:1130   .text:00000000000006cc .L0 
     /tmp/ccR0ry3G.s:1134   .text:00000000000006d0 .L0 
     /tmp/ccR0ry3G.s:1135   .text:00000000000006d4 .L0 
     /tmp/ccR0ry3G.s:1136   .text:00000000000006d4 .L0 
     /tmp/ccR0ry3G.s:1138   .text:00000000000006d8 .L0 
     /tmp/ccR0ry3G.s:1139   .text:00000000000006d8 .L0 
     /tmp/ccR0ry3G.s:1141   .text:00000000000006dc .L0 
     /tmp/ccR0ry3G.s:1143   .text:00000000000006e0 .L0 
     /tmp/ccR0ry3G.s:1146   .text:00000000000006e4 .L0 
     /tmp/ccR0ry3G.s:1149   .text:00000000000006e8 .L0 
     /tmp/ccR0ry3G.s:1152   .text:00000000000006ec .L0 
GAS LISTING /tmp/ccR0ry3G.s 			page 47


     /tmp/ccR0ry3G.s:1155   .text:00000000000006f0 .L0 
     /tmp/ccR0ry3G.s:1159   .text:00000000000006f4 .L0 
     /tmp/ccR0ry3G.s:1161   .text:00000000000006f4 .L0 
     /tmp/ccR0ry3G.s:1162   .text:00000000000006f4 .L0 
     /tmp/ccR0ry3G.s:1164   .text:00000000000006fc .L0 
     /tmp/ccR0ry3G.s:1165   .text:00000000000006fc .L0 
     /tmp/ccR0ry3G.s:1169   .text:0000000000000704 .L0 
     /tmp/ccR0ry3G.s:1170   .text:0000000000000704 .L0 
     /tmp/ccR0ry3G.s:1171   .text:0000000000000704 .L0 
     /tmp/ccR0ry3G.s:1172   .text:0000000000000704 .L0 
     /tmp/ccR0ry3G.s:1173   .text:0000000000000704 .L0 
     /tmp/ccR0ry3G.s:1174   .text:0000000000000704 .L0 
     /tmp/ccR0ry3G.s:1175   .text:0000000000000704 .L0 
     /tmp/ccR0ry3G.s:1176   .text:0000000000000704 .L0 
     /tmp/ccR0ry3G.s:1178   .text:0000000000000704 .L0 
     /tmp/ccR0ry3G.s:1181   .text:0000000000000708 .L0 
     /tmp/ccR0ry3G.s:1184   .text:000000000000070c .L0 
     /tmp/ccR0ry3G.s:1185   .text:000000000000070c .L0 
     /tmp/ccR0ry3G.s:1186   .text:000000000000070c .L0 
     /tmp/ccR0ry3G.s:1187   .text:000000000000070c .L0 
     /tmp/ccR0ry3G.s:1188   .text:000000000000070c .L0 
     /tmp/ccR0ry3G.s:1189   .text:000000000000070c .L0 
     /tmp/ccR0ry3G.s:1190   .text:000000000000070c .L0 
     /tmp/ccR0ry3G.s:1191   .text:000000000000070c .L0 
     /tmp/ccR0ry3G.s:1193   .text:000000000000070c .L0 
     /tmp/ccR0ry3G.s:1204   .text:000000000000071c .L0 
     /tmp/ccR0ry3G.s:1206   .text:0000000000000724 .L0 
     /tmp/ccR0ry3G.s:1212   .text:0000000000000724 _ZN6ThreaddlEPv
     /tmp/ccR0ry3G.s:1215   .text:0000000000000724 .L0 
     /tmp/ccR0ry3G.s:6586   .data.rel.local.DW.ref.__gxx_personality_v0:0000000000000000 DW.ref.__gxx_personality_v0
     /tmp/ccR0ry3G.s:1219   .text:0000000000000724 .L0 
     /tmp/ccR0ry3G.s:1220   .text:0000000000000728 .L0 
     /tmp/ccR0ry3G.s:1224   .text:0000000000000734 .L0 
     /tmp/ccR0ry3G.s:1225   .text:0000000000000734 .L0 
     /tmp/ccR0ry3G.s:1226   .text:0000000000000734 .L0 
     /tmp/ccR0ry3G.s:1228   .text:0000000000000738 .L0 
     /tmp/ccR0ry3G.s:1231   .text:000000000000073c .L0 
     /tmp/ccR0ry3G.s:1232   .text:000000000000073c .L0 
     /tmp/ccR0ry3G.s:1237   .text:000000000000074c .L0 
     /tmp/ccR0ry3G.s:1241   .text:0000000000000758 .L0 
     /tmp/ccR0ry3G.s:1242   .text:000000000000075c .L0 
     /tmp/ccR0ry3G.s:1244   .text:0000000000000760 .L0 
     /tmp/ccR0ry3G.s:1245   .text:0000000000000760 .L0 
     /tmp/ccR0ry3G.s:1247   .text:0000000000000764 .L0 
     /tmp/ccR0ry3G.s:1250   .text:0000000000000768 .L0 
     /tmp/ccR0ry3G.s:1252   .text:000000000000076c .L0 
     /tmp/ccR0ry3G.s:1266   .text:000000000000076c _ZN6ThreadD0Ev
     /tmp/ccR0ry3G.s:1269   .text:000000000000076c .L0 
     /tmp/ccR0ry3G.s:1271   .text:000000000000076c .L0 
     /tmp/ccR0ry3G.s:1272   .text:0000000000000770 .L0 
     /tmp/ccR0ry3G.s:1275   .text:0000000000000778 .L0 
     /tmp/ccR0ry3G.s:1276   .text:0000000000000778 .L0 
     /tmp/ccR0ry3G.s:1278   .text:000000000000077c .L0 
     /tmp/ccR0ry3G.s:1280   .text:000000000000077c .L0 
     /tmp/ccR0ry3G.s:1283   .text:0000000000000788 .L0 
     /tmp/ccR0ry3G.s:1285   .text:000000000000078c .L0 
     /tmp/ccR0ry3G.s:1286   .text:000000000000078c .L0 
GAS LISTING /tmp/ccR0ry3G.s 			page 48


     /tmp/ccR0ry3G.s:1288   .text:0000000000000790 .L0 
     /tmp/ccR0ry3G.s:1290   .text:0000000000000794 .L0 
     /tmp/ccR0ry3G.s:1296   .text:0000000000000794 _ZN6Thread8dispatchEv
     /tmp/ccR0ry3G.s:1299   .text:0000000000000794 .L0 
     /tmp/ccR0ry3G.s:1300   .text:0000000000000794 .L0 
     /tmp/ccR0ry3G.s:1301   .text:0000000000000798 .L0 
     /tmp/ccR0ry3G.s:1304   .text:00000000000007a0 .L0 
     /tmp/ccR0ry3G.s:1305   .text:00000000000007a0 .L0 
     /tmp/ccR0ry3G.s:1307   .text:00000000000007a4 .L0 
     /tmp/ccR0ry3G.s:1309   .text:00000000000007a4 .L0 
     /tmp/ccR0ry3G.s:1310   .text:00000000000007a4 .L0 
     /tmp/ccR0ry3G.s:1313   .text:00000000000007ac .L0 
     /tmp/ccR0ry3G.s:1314   .text:00000000000007b0 .L0 
     /tmp/ccR0ry3G.s:1316   .text:00000000000007b4 .L0 
     /tmp/ccR0ry3G.s:1317   .text:00000000000007b4 .L0 
     /tmp/ccR0ry3G.s:1319   .text:00000000000007b8 .L0 
     /tmp/ccR0ry3G.s:1321   .text:00000000000007bc .L0 
     /tmp/ccR0ry3G.s:1327   .text:00000000000007bc _ZN6Thread5startEv
     /tmp/ccR0ry3G.s:1330   .text:00000000000007bc .L0 
     /tmp/ccR0ry3G.s:1332   .text:00000000000007bc .L0 
     /tmp/ccR0ry3G.s:1333   .text:00000000000007c0 .L0 
     /tmp/ccR0ry3G.s:1336   .text:00000000000007c8 .L0 
     /tmp/ccR0ry3G.s:1337   .text:00000000000007c8 .L0 
     /tmp/ccR0ry3G.s:1339   .text:00000000000007cc .L0 
     /tmp/ccR0ry3G.s:1342   .text:00000000000007d0 .L0 
     /tmp/ccR0ry3G.s:1343   .text:00000000000007d0 .L0 
     /tmp/ccR0ry3G.s:1348   .text:00000000000007e0 .L0 
     /tmp/ccR0ry3G.s:1349   .text:00000000000007e0 .L0 
     /tmp/ccR0ry3G.s:1351   .text:00000000000007e8 .L0 
     /tmp/ccR0ry3G.s:1353   .text:00000000000007ec .L0 
     /tmp/ccR0ry3G.s:1356   .text:00000000000007f0 .L0 
     /tmp/ccR0ry3G.s:1357   .text:00000000000007f4 .L0 
     /tmp/ccR0ry3G.s:1358   .text:00000000000007f4 .L0 
     /tmp/ccR0ry3G.s:1360   .text:00000000000007f8 .L0 
     /tmp/ccR0ry3G.s:1361   .text:00000000000007f8 .L0 
     /tmp/ccR0ry3G.s:1363   .text:00000000000007fc .L0 
     /tmp/ccR0ry3G.s:1366   .text:0000000000000800 .L0 
     /tmp/ccR0ry3G.s:1368   .text:0000000000000800 .L0 
     /tmp/ccR0ry3G.s:1369   .text:0000000000000800 .L0 
     /tmp/ccR0ry3G.s:1373   .text:0000000000000810 .L0 
     /tmp/ccR0ry3G.s:1375   .text:0000000000000818 .L0 
     /tmp/ccR0ry3G.s:1377   .text:000000000000081c .L0 
     /tmp/ccR0ry3G.s:1381   .text:0000000000000824 .L0 
     /tmp/ccR0ry3G.s:1383   .text:000000000000082c .L0 
     /tmp/ccR0ry3G.s:1389   .text:000000000000082c getRunningThreadContext
     /tmp/ccR0ry3G.s:1392   .text:000000000000082c .L0 
     /tmp/ccR0ry3G.s:1393   .text:000000000000082c .L0 
     /tmp/ccR0ry3G.s:1394   .text:000000000000082c .L0 
     /tmp/ccR0ry3G.s:1395   .text:000000000000082c .L0 
     /tmp/ccR0ry3G.s:1397   .text:0000000000000834 .L0 
     /tmp/ccR0ry3G.s:1399   .text:0000000000000838 .L0 
     /tmp/ccR0ry3G.s:1400   .text:000000000000083c .L0 
     /tmp/ccR0ry3G.s:1403   .text:0000000000000844 .L0 
     /tmp/ccR0ry3G.s:1404   .text:0000000000000844 .L0 
     /tmp/ccR0ry3G.s:1406   .text:0000000000000848 .L0 
     /tmp/ccR0ry3G.s:1408   .text:0000000000000848 .L0 
     /tmp/ccR0ry3G.s:1409   .text:0000000000000848 .L0 
GAS LISTING /tmp/ccR0ry3G.s 			page 49


     /tmp/ccR0ry3G.s:1412   .text:0000000000000850 .L0 
     /tmp/ccR0ry3G.s:1413   .text:0000000000000854 .L0 
     /tmp/ccR0ry3G.s:1415   .text:0000000000000858 .L0 
     /tmp/ccR0ry3G.s:1416   .text:0000000000000858 .L0 
     /tmp/ccR0ry3G.s:1418   .text:000000000000085c .L0 
     /tmp/ccR0ry3G.s:1422   .text:0000000000000864 .L0 
     /tmp/ccR0ry3G.s:1428   .text:0000000000000864 getWaitStatusForRunning
     /tmp/ccR0ry3G.s:1431   .text:0000000000000864 .L0 
     /tmp/ccR0ry3G.s:1432   .text:0000000000000864 .L0 
     /tmp/ccR0ry3G.s:1433   .text:0000000000000868 .L0 
     /tmp/ccR0ry3G.s:1435   .text:000000000000086c .L0 
     /tmp/ccR0ry3G.s:1437   .text:0000000000000870 .L0 
     /tmp/ccR0ry3G.s:1439   .text:0000000000000870 .L0 
     /tmp/ccR0ry3G.s:1440   .text:0000000000000870 .L0 
     /tmp/ccR0ry3G.s:1443   .text:0000000000000880 .L0 
     /tmp/ccR0ry3G.s:1444   .text:0000000000000880 .L0 
     /tmp/ccR0ry3G.s:1446   .text:0000000000000884 .L0 
     /tmp/ccR0ry3G.s:1448   .text:0000000000000888 .L0 
     /tmp/ccR0ry3G.s:1474   .bss:0000000000000008 _ZN6Thread7runningE
     /tmp/ccR0ry3G.s:1469   .bss:0000000000000000 _ZN6Thread3cntE
     /tmp/ccR0ry3G.s:1466   .bss:0000000000000000 .LANCHOR0
     /tmp/ccR0ry3G.s:32     .text._ZN6Thread3runEv:0000000000000018 .L0 
     /tmp/ccR0ry3G.s:1487   .text:0000000000000888 .L0 
     /tmp/ccR0ry3G.s:125    .text:000000000000006c .L0 
     /tmp/ccR0ry3G.s:139    .text:0000000000000084 .L0 
     /tmp/ccR0ry3G.s:204    .text:00000000000000f8 .L0 
     /tmp/ccR0ry3G.s:405    .text:00000000000001f0 .L0 
     /tmp/ccR0ry3G.s:418    .text:0000000000000208 .L0 
     /tmp/ccR0ry3G.s:473    .text:0000000000000268 .L0 
     /tmp/ccR0ry3G.s:548    .text:00000000000002cc .L0 
     /tmp/ccR0ry3G.s:581    .text:0000000000000308 .L0 
     /tmp/ccR0ry3G.s:635    .text:000000000000036c .L0 
     /tmp/ccR0ry3G.s:643    .text:000000000000037c .L0 
     /tmp/ccR0ry3G.s:711    .text:00000000000003d0 .L0 
     /tmp/ccR0ry3G.s:716    .text:00000000000003dc .L0 
     /tmp/ccR0ry3G.s:772    .text:000000000000044c .L0 
     /tmp/ccR0ry3G.s:828    .text:0000000000000498 .L0 
     /tmp/ccR0ry3G.s:872    .text:00000000000004dc .L0 
     /tmp/ccR0ry3G.s:920    .text:0000000000000528 .L0 
     /tmp/ccR0ry3G.s:927    .text:0000000000000538 .L0 
     /tmp/ccR0ry3G.s:933    .text:0000000000000548 .L0 
     /tmp/ccR0ry3G.s:938    .text:000000000000055c .L0 
     /tmp/ccR0ry3G.s:967    .text:000000000000058c .L0 
     /tmp/ccR0ry3G.s:1015   .text:00000000000005ec .L0 
     /tmp/ccR0ry3G.s:1119   .text:00000000000006ac .L0 
     /tmp/ccR0ry3G.s:1125   .text:00000000000006bc .L0 
     /tmp/ccR0ry3G.s:1162   .text:00000000000006f4 .L0 
     /tmp/ccR0ry3G.s:1343   .text:00000000000007d0 .L0 
     /tmp/ccR0ry3G.s:1349   .text:00000000000007e0 .L0 
     /tmp/ccR0ry3G.s:1369   .text:0000000000000800 .L0 
     /tmp/ccR0ry3G.s:1373   .text:0000000000000810 .L0 
     /tmp/ccR0ry3G.s:1395   .text:000000000000082c .L0 
     /tmp/ccR0ry3G.s:1440   .text:0000000000000870 .L0 
     /tmp/ccR0ry3G.s:509    .text:00000000000002a4 .L20
     /tmp/ccR0ry3G.s:448    .text:0000000000000248 .L21
     /tmp/ccR0ry3G.s:669    .text:00000000000003a8 .L24
     /tmp/ccR0ry3G.s:612    .text:000000000000034c .L25
GAS LISTING /tmp/ccR0ry3G.s 			page 50


     /tmp/ccR0ry3G.s:739    .text:000000000000041c .L28
     /tmp/ccR0ry3G.s:760    .text:000000000000043c .L31
     /tmp/ccR0ry3G.s:930    .text:0000000000000548 .L39
     /tmp/ccR0ry3G.s:962    .text:000000000000058c .L40
     /tmp/ccR0ry3G.s:1003   .text:00000000000005dc .L44
     /tmp/ccR0ry3G.s:986    .text:00000000000005c4 .L38
     /tmp/ccR0ry3G.s:1168   .text:0000000000000704 .L50
     /tmp/ccR0ry3G.s:1183   .text:000000000000070c .L51
     /tmp/ccR0ry3G.s:1197   .text:0000000000000714 .L52
     /tmp/ccR0ry3G.s:1202   .text:000000000000071c .L53
     /tmp/ccR0ry3G.s:1158   .text:00000000000006f4 .L58
     /tmp/ccR0ry3G.s:1132   .text:00000000000006d0 .L48
     /tmp/ccR0ry3G.s:1365   .text:0000000000000800 .L70
     /tmp/ccR0ry3G.s:1379   .text:0000000000000824 .L68
     /tmp/ccR0ry3G.s:1354   .text:00000000000007f0 .L66
     /tmp/ccR0ry3G.s:1420   .text:0000000000000860 .L74
     /tmp/ccR0ry3G.s:3959   .debug_abbrev:0000000000000000 .Ldebug_abbrev0
     /tmp/ccR0ry3G.s:6480   .debug_str:0000000000000c75 .LASF219
     /tmp/ccR0ry3G.s:6402   .debug_str:0000000000000a08 .LASF220
     /tmp/ccR0ry3G.s:6242   .debug_str:00000000000004bf .LASF221
     /tmp/ccR0ry3G.s:6090   .debug_ranges:0000000000000000 .Ldebug_ranges0
     /tmp/ccR0ry3G.s:6104   .debug_line:0000000000000000 .Ldebug_line0
     /tmp/ccR0ry3G.s:6266   .debug_str:00000000000005b7 .LASF0
     /tmp/ccR0ry3G.s:6298   .debug_str:00000000000006d5 .LASF1
     /tmp/ccR0ry3G.s:6412   .debug_str:0000000000000a3b .LASF2
     /tmp/ccR0ry3G.s:6420   .debug_str:0000000000000a77 .LASF4
     /tmp/ccR0ry3G.s:6280   .debug_str:000000000000061a .LASF3
     /tmp/ccR0ry3G.s:6122   .debug_str:0000000000000096 .LASF5
     /tmp/ccR0ry3G.s:6382   .debug_str:0000000000000980 .LASF6
     /tmp/ccR0ry3G.s:6518   .debug_str:0000000000000eb8 .LASF7
     /tmp/ccR0ry3G.s:6542   .debug_str:0000000000000f37 .LASF8
     /tmp/ccR0ry3G.s:6374   .debug_str:0000000000000949 .LASF9
     /tmp/ccR0ry3G.s:6290   .debug_str:0000000000000680 .LASF10
     /tmp/ccR0ry3G.s:6176   .debug_str:0000000000000293 .LASF11
     /tmp/ccR0ry3G.s:6240   .debug_str:00000000000004af .LASF12
     /tmp/ccR0ry3G.s:6250   .debug_str:000000000000050c .LASF13
     /tmp/ccR0ry3G.s:6162   .debug_str:0000000000000234 .LASF14
     /tmp/ccR0ry3G.s:6228   .debug_str:000000000000043f .LASF15
     /tmp/ccR0ry3G.s:6180   .debug_str:00000000000002b4 .LASF16
     /tmp/ccR0ry3G.s:6160   .debug_str:0000000000000224 .LASF17
     /tmp/ccR0ry3G.s:6458   .debug_str:0000000000000bc3 .LASF18
     /tmp/ccR0ry3G.s:6212   .debug_str:000000000000039f .LASF19
     /tmp/ccR0ry3G.s:6448   .debug_str:0000000000000b65 .LASF20
     /tmp/ccR0ry3G.s:6474   .debug_str:0000000000000c58 .LASF24
     /tmp/ccR0ry3G.s:6164   .debug_str:0000000000000243 .LASF21
     /tmp/ccR0ry3G.s:6132   .debug_str:00000000000000f9 .LASF22
     /tmp/ccR0ry3G.s:6296   .debug_str:00000000000006d0 .LASF23
     /tmp/ccR0ry3G.s:6352   .debug_str:000000000000088e .LASF25
     /tmp/ccR0ry3G.s:6340   .debug_str:0000000000000848 .LASF26
     /tmp/ccR0ry3G.s:6192   .debug_str:0000000000000325 .LASF27
     /tmp/ccR0ry3G.s:6528   .debug_str:0000000000000eeb .LASF28
     /tmp/ccR0ry3G.s:6268   .debug_str:00000000000005c4 .LASF29
     /tmp/ccR0ry3G.s:6454   .debug_str:0000000000000bb2 .LASF30
     /tmp/ccR0ry3G.s:6486   .debug_str:0000000000000d63 .LASF31
     /tmp/ccR0ry3G.s:6256   .debug_str:0000000000000543 .LASF32
     /tmp/ccR0ry3G.s:6168   .debug_str:0000000000000254 .LASF33
     /tmp/ccR0ry3G.s:6284   .debug_str:0000000000000637 .LASF34
GAS LISTING /tmp/ccR0ry3G.s 			page 51


     /tmp/ccR0ry3G.s:6376   .debug_str:000000000000095c .LASF35
     /tmp/ccR0ry3G.s:6498   .debug_str:0000000000000dc8 .LASF77
     /tmp/ccR0ry3G.s:6206   .debug_str:000000000000037c .LASF222
     /tmp/ccR0ry3G.s:6220   .debug_str:0000000000000400 .LASF36
     /tmp/ccR0ry3G.s:6478   .debug_str:0000000000000c68 .LASF37
     /tmp/ccR0ry3G.s:6190   .debug_str:0000000000000319 .LASF38
     /tmp/ccR0ry3G.s:6418   .debug_str:0000000000000a6d .LASF39
     /tmp/ccR0ry3G.s:6106   .debug_str:0000000000000000 .LASF40
     /tmp/ccR0ry3G.s:6136   .debug_str:000000000000011b .LASF45
     /tmp/ccR0ry3G.s:6144   .debug_str:000000000000015f .LASF47
     /tmp/ccR0ry3G.s:6456   .debug_str:0000000000000bbc .LASF41
     /tmp/ccR0ry3G.s:6178   .debug_str:00000000000002a1 .LASF43
     /tmp/ccR0ry3G.s:6424   .debug_str:0000000000000a9e .LASF42
     /tmp/ccR0ry3G.s:6396   .debug_str:00000000000009dc .LASF44
     /tmp/ccR0ry3G.s:6208   .debug_str:000000000000038a .LASF46
     /tmp/ccR0ry3G.s:6360   .debug_str:00000000000008d1 .LASF48
     /tmp/ccR0ry3G.s:6532   .debug_str:0000000000000efb .LASF49
     /tmp/ccR0ry3G.s:6314   .debug_str:0000000000000764 .LASF50
     /tmp/ccR0ry3G.s:6348   .debug_str:0000000000000881 .LASF51
     /tmp/ccR0ry3G.s:6186   .debug_str:00000000000002eb .LASF52
     /tmp/ccR0ry3G.s:6232   .debug_str:000000000000047c .LASF53
     /tmp/ccR0ry3G.s:6384   .debug_str:0000000000000987 .LASF54
     /tmp/ccR0ry3G.s:6434   .debug_str:0000000000000b07 .LASF55
     /tmp/ccR0ry3G.s:6338   .debug_str:0000000000000837 .LASF56
     /tmp/ccR0ry3G.s:6390   .debug_str:00000000000009a4 .LASF57
     /tmp/ccR0ry3G.s:6196   .debug_str:0000000000000337 .LASF58
     /tmp/ccR0ry3G.s:6354   .debug_str:000000000000089c .LASF59
     /tmp/ccR0ry3G.s:6184   .debug_str:00000000000002d8 .LASF60
     /tmp/ccR0ry3G.s:6124   .debug_str:000000000000009d .LASF61
     /tmp/ccR0ry3G.s:6488   .debug_str:0000000000000d6d .LASF62
     /tmp/ccR0ry3G.s:6410   .debug_str:0000000000000a30 .LASF63
     /tmp/ccR0ry3G.s:6510   .debug_str:0000000000000e56 .LASF64
     /tmp/ccR0ry3G.s:6526   .debug_str:0000000000000ee1 .LASF65
     /tmp/ccR0ry3G.s:6294   .debug_str:00000000000006ba .LASF66
     /tmp/ccR0ry3G.s:6520   .debug_str:0000000000000ec1 .LASF67
     /tmp/ccR0ry3G.s:6214   .debug_str:00000000000003b5 .LASF68
     /tmp/ccR0ry3G.s:6522   .debug_str:0000000000000ecb .LASF71
     /tmp/ccR0ry3G.s:6472   .debug_str:0000000000000c3a .LASF73
     /tmp/ccR0ry3G.s:6506   .debug_str:0000000000000e31 .LASF69
     /tmp/ccR0ry3G.s:6548   .debug_str:0000000000000f7f .LASF70
     /tmp/ccR0ry3G.s:6210   .debug_str:0000000000000390 .LASF72
     /tmp/ccR0ry3G.s:6508   .debug_str:0000000000000e3a .LASF74
     /tmp/ccR0ry3G.s:6202   .debug_str:0000000000000358 .LASF75
     /tmp/ccR0ry3G.s:6372   .debug_str:0000000000000930 .LASF76
     /tmp/ccR0ry3G.s:6324   .debug_str:00000000000007d6 .LASF78
     /tmp/ccR0ry3G.s:6258   .debug_str:0000000000000552 .LASF80
     /tmp/ccR0ry3G.s:6138   .debug_str:0000000000000133 .LASF79
     /tmp/ccR0ry3G.s:6346   .debug_str:0000000000000866 .LASF81
     /tmp/ccR0ry3G.s:6438   .debug_str:0000000000000b11 .LASF82
     /tmp/ccR0ry3G.s:6322   .debug_str:00000000000007b2 .LASF84
     /tmp/ccR0ry3G.s:6576   .debug_str:0000000000001061 .LASF83
     /tmp/ccR0ry3G.s:6218   .debug_str:00000000000003e5 .LASF85
     /tmp/ccR0ry3G.s:6326   .debug_str:00000000000007e1 .LASF86
     /tmp/ccR0ry3G.s:6430   .debug_str:0000000000000ad8 .LASF87
     /tmp/ccR0ry3G.s:6524   .debug_str:0000000000000edc .LASF88
     /tmp/ccR0ry3G.s:6388   .debug_str:000000000000099f .LASF89
     /tmp/ccR0ry3G.s:6336   .debug_str:0000000000000830 .LASF90
GAS LISTING /tmp/ccR0ry3G.s 			page 52


     /tmp/ccR0ry3G.s:6172   .debug_str:0000000000000277 .LASF223
     /tmp/ccR0ry3G.s:6406   .debug_str:0000000000000a1c .LASF224
     /tmp/ccR0ry3G.s:6276   .debug_str:00000000000005ff .LASF91
     /tmp/ccR0ry3G.s:6578   .debug_str:000000000000106a .LASF92
     /tmp/ccR0ry3G.s:6442   .debug_str:0000000000000b39 .LASF225
     /tmp/ccR0ry3G.s:6224   .debug_str:000000000000042b .LASF226
     /tmp/ccR0ry3G.s:6556   .debug_str:0000000000000fcf .LASF93
     /tmp/ccR0ry3G.s:6118   .debug_str:0000000000000079 .LASF94
     /tmp/ccR0ry3G.s:6200   .debug_str:000000000000034f .LASF95
     /tmp/ccR0ry3G.s:6550   .debug_str:0000000000000f94 .LASF96
     /tmp/ccR0ry3G.s:6568   .debug_str:000000000000100a .LASF97
     /tmp/ccR0ry3G.s:6344   .debug_str:0000000000000857 .LASF98
     /tmp/ccR0ry3G.s:6112   .debug_str:0000000000000047 .LASF99
     /tmp/ccR0ry3G.s:6502   .debug_str:0000000000000df9 .LASF100
     /tmp/ccR0ry3G.s:6536   .debug_str:0000000000000f12 .LASF227
     /tmp/ccR0ry3G.s:6476   .debug_str:0000000000000c60 .LASF101
     /tmp/ccR0ry3G.s:6416   .debug_str:0000000000000a5f .LASF114
     /tmp/ccR0ry3G.s:6262   .debug_str:0000000000000581 .LASF102
     /tmp/ccR0ry3G.s:6452   .debug_str:0000000000000b99 .LASF103
     /tmp/ccR0ry3G.s:6328   .debug_str:00000000000007ec .LASF104
     /tmp/ccR0ry3G.s:6392   .debug_str:00000000000009ab .LASF105
     /tmp/ccR0ry3G.s:6306   .debug_str:000000000000070a .LASF106
     /tmp/ccR0ry3G.s:6468   .debug_str:0000000000000bfa .LASF107
     /tmp/ccR0ry3G.s:6300   .debug_str:00000000000006e8 .LASF108
     /tmp/ccR0ry3G.s:6482   .debug_str:0000000000000d39 .LASF109
     /tmp/ccR0ry3G.s:6234   .debug_str:0000000000000481 .LASF110
     /tmp/ccR0ry3G.s:6140   .debug_str:0000000000000138 .LASF111
     /tmp/ccR0ry3G.s:6244   .debug_str:00000000000004dd .LASF112
     /tmp/ccR0ry3G.s:6152   .debug_str:00000000000001b7 .LASF113
     /tmp/ccR0ry3G.s:6146   .debug_str:0000000000000184 .LASF115
     /tmp/ccR0ry3G.s:6308   .debug_str:000000000000071f .LASF116
     /tmp/ccR0ry3G.s:6182   .debug_str:00000000000002c4 .LASF117
     /tmp/ccR0ry3G.s:6154   .debug_str:00000000000001dc .LASF118
     /tmp/ccR0ry3G.s:6238   .debug_str:0000000000000499 .LASF119
     /tmp/ccR0ry3G.s:6110   .debug_str:0000000000000023 .LASF120
     /tmp/ccR0ry3G.s:6358   .debug_str:00000000000008bd .LASF121
     /tmp/ccR0ry3G.s:6428   .debug_str:0000000000000ab6 .LASF122
     /tmp/ccR0ry3G.s:6188   .debug_str:00000000000002ff .LASF123
     /tmp/ccR0ry3G.s:6504   .debug_str:0000000000000e09 .LASF124
     /tmp/ccR0ry3G.s:6254   .debug_str:0000000000000538 .LASF125
     /tmp/ccR0ry3G.s:6216   .debug_str:00000000000003cb .LASF126
     /tmp/ccR0ry3G.s:6492   .debug_str:0000000000000d93 .LASF127
     /tmp/ccR0ry3G.s:6356   .debug_str:00000000000008a3 .LASF128
     /tmp/ccR0ry3G.s:6302   .debug_str:00000000000006ee .LASF129
     /tmp/ccR0ry3G.s:6260   .debug_str:0000000000000566 .LASF130
     /tmp/ccR0ry3G.s:6426   .debug_str:0000000000000aa5 .LASF131
     /tmp/ccR0ry3G.s:6462   .debug_str:0000000000000be3 .LASF132
     /tmp/ccR0ry3G.s:6114   .debug_str:0000000000000057 .LASF133
     /tmp/ccR0ry3G.s:6494   .debug_str:0000000000000d9f .LASF134
     /tmp/ccR0ry3G.s:6166   .debug_str:0000000000000248 .LASF135
     /tmp/ccR0ry3G.s:6362   .debug_str:00000000000008e3 .LASF136
     /tmp/ccR0ry3G.s:6198   .debug_str:000000000000034a .LASF137
     /tmp/ccR0ry3G.s:6150   .debug_str:000000000000019d .LASF138
     /tmp/ccR0ry3G.s:6514   .debug_str:0000000000000e94 .LASF228
     /tmp/ccR0ry3G.s:6554   .debug_str:0000000000000fba .LASF229
     /tmp/ccR0ry3G.s:6404   .debug_str:0000000000000a17 .LASF139
     /tmp/ccR0ry3G.s:6246   .debug_str:00000000000004f4 .LASF140
GAS LISTING /tmp/ccR0ry3G.s 			page 53


     /tmp/ccR0ry3G.s:6342   .debug_str:0000000000000852 .LASF141
     /tmp/ccR0ry3G.s:6414   .debug_str:0000000000000a49 .LASF142
     /tmp/ccR0ry3G.s:6558   .debug_str:0000000000000fd5 .LASF143
     /tmp/ccR0ry3G.s:6368   .debug_str:000000000000090a .LASF144
     /tmp/ccR0ry3G.s:6530   .debug_str:0000000000000ef3 .LASF145
     /tmp/ccR0ry3G.s:6222   .debug_str:000000000000040c .LASF146
     /tmp/ccR0ry3G.s:6170   .debug_str:0000000000000266 .LASF147
     /tmp/ccR0ry3G.s:6316   .debug_str:0000000000000778 .LASF148
     /tmp/ccR0ry3G.s:6142   .debug_str:0000000000000159 .LASF149
     /tmp/ccR0ry3G.s:6446   .debug_str:0000000000000b4b .LASF150
     /tmp/ccR0ry3G.s:6226   .debug_str:000000000000043a .LASF151
     /tmp/ccR0ry3G.s:6350   .debug_str:0000000000000889 .LASF152
     /tmp/ccR0ry3G.s:6378   .debug_str:0000000000000965 .LASF159
     /tmp/ccR0ry3G.s:6366   .debug_str:00000000000008fc .LASF153
     /tmp/ccR0ry3G.s:6440   .debug_str:0000000000000b22 .LASF154
     /tmp/ccR0ry3G.s:6450   .debug_str:0000000000000b7b .LASF155
     /tmp/ccR0ry3G.s:6292   .debug_str:0000000000000693 .LASF156
     /tmp/ccR0ry3G.s:6252   .debug_str:000000000000051a .LASF157
     /tmp/ccR0ry3G.s:6264   .debug_str:000000000000058c .LASF158
     /tmp/ccR0ry3G.s:6330   .debug_str:00000000000007fb .LASF160
     /tmp/ccR0ry3G.s:6466   .debug_str:0000000000000bf5 .LASF161
     /tmp/ccR0ry3G.s:6370   .debug_str:0000000000000920 .LASF162
     /tmp/ccR0ry3G.s:6398   .debug_str:00000000000009ef .LASF163
     /tmp/ccR0ry3G.s:6422   .debug_str:0000000000000a7e .LASF164
     /tmp/ccR0ry3G.s:6538   .debug_str:0000000000000f23 .LASF165
     /tmp/ccR0ry3G.s:6512   .debug_str:0000000000000e6e .LASF166
     /tmp/ccR0ry3G.s:6572   .debug_str:0000000000001040 .LASF167
     /tmp/ccR0ry3G.s:6570   .debug_str:0000000000001017 .LASF168
     /tmp/ccR0ry3G.s:6108   .debug_str:000000000000000d .LASF169
     /tmp/ccR0ry3G.s:6230   .debug_str:000000000000044e .LASF170
     /tmp/ccR0ry3G.s:6156   .debug_str:00000000000001fe .LASF171
     /tmp/ccR0ry3G.s:6126   .debug_str:00000000000000a8 .LASF172
     /tmp/ccR0ry3G.s:6332   .debug_str:0000000000000805 .LASF173
     /tmp/ccR0ry3G.s:6496   .debug_str:0000000000000da7 .LASF174
     /tmp/ccR0ry3G.s:6464   .debug_str:0000000000000bec .LASF175
     /tmp/ccR0ry3G.s:6334   .debug_str:000000000000080f .LASF176
     /tmp/ccR0ry3G.s:6130   .debug_str:00000000000000e0 .LASF177
     /tmp/ccR0ry3G.s:6444   .debug_str:0000000000000b41 .LASF178
     /tmp/ccR0ry3G.s:6540   .debug_str:0000000000000f31 .LASF179
     /tmp/ccR0ry3G.s:6134   .debug_str:00000000000000fe .LASF180
     /tmp/ccR0ry3G.s:6272   .debug_str:00000000000005eb .LASF181
     /tmp/ccR0ry3G.s:6286   .debug_str:0000000000000640 .LASF182
     /tmp/ccR0ry3G.s:6564   .debug_str:0000000000000ff8 .LASF183
     /tmp/ccR0ry3G.s:6490   .debug_str:0000000000000d85 .LASF184
     /tmp/ccR0ry3G.s:6288   .debug_str:0000000000000669 .LASF185
     /tmp/ccR0ry3G.s:6544   .debug_str:0000000000000f3d .LASF186
     /tmp/ccR0ry3G.s:6574   .debug_str:0000000000001051 .LASF187
     /tmp/ccR0ry3G.s:6500   .debug_str:0000000000000dce .LASF188
     /tmp/ccR0ry3G.s:6432   .debug_str:0000000000000afd .LASF189
     /tmp/ccR0ry3G.s:6546   .debug_str:0000000000000f6d .LASF190
     /tmp/ccR0ry3G.s:6270   .debug_str:00000000000005d0 .LASF230
     /tmp/ccR0ry3G.s:6460   .debug_str:0000000000000bcf .LASF231
     /tmp/ccR0ry3G.s:6128   .debug_str:00000000000000d6 .LASF191
     /tmp/ccR0ry3G.s:6552   .debug_str:0000000000000faa .LASF232
     /tmp/ccR0ry3G.s:6394   .debug_str:00000000000009c8 .LASF233
     /tmp/ccR0ry3G.s:6470   .debug_str:0000000000000c2a .LASF234
     /tmp/ccR0ry3G.s:6204   .debug_str:0000000000000364 .LASF235
GAS LISTING /tmp/ccR0ry3G.s 			page 54


     /tmp/ccR0ry3G.s:1429   .text:0000000000000864 .LFB40
     /tmp/ccR0ry3G.s:1449   .text:0000000000000888 .LFE40
     /tmp/ccR0ry3G.s:6560   .debug_str:0000000000000fdb .LASF192
     /tmp/ccR0ry3G.s:1390   .text:000000000000082c .LFB39
     /tmp/ccR0ry3G.s:1423   .text:0000000000000864 .LFE39
     /tmp/ccR0ry3G.s:1410   .text:0000000000000850 .LVL116
     /tmp/ccR0ry3G.s:1328   .text:00000000000007bc .LFB38
     /tmp/ccR0ry3G.s:1384   .text:000000000000082c .LFE38
     /tmp/ccR0ry3G.s:6236   .debug_str:0000000000000494 .LASF193
     /tmp/ccR0ry3G.s:5392   .debug_loc:0000000000000000 .LLST31
     /tmp/ccR0ry3G.s:1346   .text:00000000000007e0 .LVL114
     /tmp/ccR0ry3G.s:1371   .text:0000000000000810 .LVL115
     /tmp/ccR0ry3G.s:1297   .text:0000000000000794 .LFB37
     /tmp/ccR0ry3G.s:1322   .text:00000000000007bc .LFE37
     /tmp/ccR0ry3G.s:1311   .text:00000000000007ac .LVL111
     /tmp/ccR0ry3G.s:1213   .text:0000000000000724 .LFB36
     /tmp/ccR0ry3G.s:1253   .text:000000000000076c .LFE36
     /tmp/ccR0ry3G.s:5410   .debug_loc:000000000000004c .LLST29
     /tmp/ccR0ry3G.s:1233   .text:0000000000000744 .LVL105
     /tmp/ccR0ry3G.s:1235   .text:000000000000074c .LVL106
     /tmp/ccR0ry3G.s:1239   .text:0000000000000758 .LVL107
     /tmp/ccR0ry3G.s:1027   .text:0000000000000604 .LFB35
     /tmp/ccR0ry3G.s:1059   .text:000000000000063c .LFE35
     /tmp/ccR0ry3G.s:5428   .debug_loc:0000000000000098 .LLST23
     /tmp/ccR0ry3G.s:1042   .text:000000000000061c .LVL83
     /tmp/ccR0ry3G.s:1044   .text:0000000000000624 .LVL84
     /tmp/ccR0ry3G.s:1047   .text:000000000000062c .LVL85
     /tmp/ccR0ry3G.s:784    .text:0000000000000464 .LFB34
     /tmp/ccR0ry3G.s:805    .text:0000000000000480 .LFE34
     /tmp/ccR0ry3G.s:5442   .debug_loc:00000000000000d1 .LLST18
     /tmp/ccR0ry3G.s:350    .text:00000000000001a0 .LFB33
     /tmp/ccR0ry3G.s:371    .text:00000000000001bc .LFE33
     /tmp/ccR0ry3G.s:5455   .debug_loc:000000000000010a .LLST8
     /tmp/ccR0ry3G.s:6120   .debug_str:000000000000008c .LASF194
     /tmp/ccR0ry3G.s:6304   .debug_str:00000000000006fb .LASF195
     /tmp/ccR0ry3G.s:1267   .text:000000000000076c .LFB32
     /tmp/ccR0ry3G.s:1291   .text:0000000000000794 .LFE32
     /tmp/ccR0ry3G.s:5468   .debug_loc:0000000000000142 .LLST30
     /tmp/ccR0ry3G.s:1281   .text:0000000000000784 .LVL110
     /tmp/ccR0ry3G.s:6534   .debug_str:0000000000000f03 .LASF196
     /tmp/ccR0ry3G.s:76     .text:000000000000002c .LFB30
     /tmp/ccR0ry3G.s:94     .text:0000000000000044 .LFE30
     /tmp/ccR0ry3G.s:903    .text:0000000000000510 .LFB28
     /tmp/ccR0ry3G.s:1021   .text:0000000000000604 .LFE28
     /tmp/ccR0ry3G.s:6248   .debug_str:0000000000000501 .LASF197
     /tmp/ccR0ry3G.s:5482   .debug_loc:000000000000017b .LLST21
     /tmp/ccR0ry3G.s:948    .text:0000000000000574 .LBB19
     /tmp/ccR0ry3G.s:963    .text:000000000000058c .LBE19
     /tmp/ccR0ry3G.s:5493   .debug_loc:00000000000001b1 .LLST22
     /tmp/ccR0ry3G.s:953    .text:0000000000000580 .LVL72
     /tmp/ccR0ry3G.s:929    .text:0000000000000548 .LVL69
     /tmp/ccR0ry3G.s:935    .text:0000000000000558 .LVL70
     /tmp/ccR0ry3G.s:943    .text:000000000000056c .LVL71
     /tmp/ccR0ry3G.s:970    .text:00000000000005a0 .LVL75
     /tmp/ccR0ry3G.s:985    .text:00000000000005c4 .LVL76
     /tmp/ccR0ry3G.s:1008   .text:00000000000005e4 .LVL79
     /tmp/ccR0ry3G.s:1012   .text:00000000000005ec .LVL80
GAS LISTING /tmp/ccR0ry3G.s 			page 55


     /tmp/ccR0ry3G.s:1018   .text:0000000000000600 .LVL81
     /tmp/ccR0ry3G.s:692    .text:00000000000003b4 .LFB27
     /tmp/ccR0ry3G.s:778    .text:0000000000000464 .LFE27
     /tmp/ccR0ry3G.s:5500   .debug_loc:00000000000001d4 .LLST17
     /tmp/ccR0ry3G.s:718    .text:00000000000003ec .LVL49
     /tmp/ccR0ry3G.s:727    .text:0000000000000400 .LVL50
     /tmp/ccR0ry3G.s:738    .text:000000000000041c .LVL51
     /tmp/ccR0ry3G.s:765    .text:0000000000000444 .LVL54
     /tmp/ccR0ry3G.s:769    .text:000000000000044c .LVL55
     /tmp/ccR0ry3G.s:775    .text:0000000000000460 .LVL56
     /tmp/ccR0ry3G.s:323    .text:0000000000000184 .LFB26
     /tmp/ccR0ry3G.s:344    .text:00000000000001a0 .LFE26
     /tmp/ccR0ry3G.s:5511   .debug_loc:000000000000020a .LLST7
     /tmp/ccR0ry3G.s:293    .text:0000000000000160 .LFB25
     /tmp/ccR0ry3G.s:317    .text:0000000000000184 .LFE25
     /tmp/ccR0ry3G.s:266    .text:0000000000000144 .LFB24
     /tmp/ccR0ry3G.s:287    .text:0000000000000160 .LFE24
     /tmp/ccR0ry3G.s:5525   .debug_loc:0000000000000243 .LLST6
     /tmp/ccR0ry3G.s:239    .text:0000000000000128 .LFB23
     /tmp/ccR0ry3G.s:260    .text:0000000000000144 .LFE23
     /tmp/ccR0ry3G.s:1065   .text:000000000000063c .LFB22
     /tmp/ccR0ry3G.s:1207   .text:0000000000000724 .LFE22
     /tmp/ccR0ry3G.s:6386   .debug_str:0000000000000998 .LASF198
     /tmp/ccR0ry3G.s:5539   .debug_loc:000000000000027c .LLST24
     /tmp/ccR0ry3G.s:6318   .debug_str:000000000000079e .LASF199
     /tmp/ccR0ry3G.s:5588   .debug_loc:0000000000000350 .LLST25
     /tmp/ccR0ry3G.s:6562   .debug_str:0000000000000ff3 .LASF200
     /tmp/ccR0ry3G.s:5618   .debug_loc:00000000000003d5 .LLST26
     /tmp/ccR0ry3G.s:6380   .debug_str:0000000000000976 .LASF201
     /tmp/ccR0ry3G.s:5648   .debug_loc:000000000000045a .LLST27
     /tmp/ccR0ry3G.s:6408   .debug_str:0000000000000a29 .LASF202
     /tmp/ccR0ry3G.s:5678   .debug_loc:00000000000004df .LLST28
     /tmp/ccR0ry3G.s:1103   .text:0000000000000688 .LVL88
     /tmp/ccR0ry3G.s:1109   .text:00000000000006a0 .LVL89
     /tmp/ccR0ry3G.s:1127   .text:00000000000006cc .LVL90
     /tmp/ccR0ry3G.s:6282   .debug_str:000000000000062c .LASF203
     /tmp/ccR0ry3G.s:6320   .debug_str:00000000000007a6 .LASF204
     /tmp/ccR0ry3G.s:6566   .debug_str:0000000000001003 .LASF205
     /tmp/ccR0ry3G.s:6194   .debug_str:0000000000000331 .LASF206
     /tmp/ccR0ry3G.s:6484   .debug_str:0000000000000d4c .LASF207
     /tmp/ccR0ry3G.s:102    .text:0000000000000044 .LFB20
     /tmp/ccR0ry3G.s:231    .text:0000000000000128 .LFE20
     /tmp/ccR0ry3G.s:5693   .debug_loc:0000000000000528 .LLST1
     /tmp/ccR0ry3G.s:5711   .debug_loc:0000000000000574 .LLST2
     /tmp/ccR0ry3G.s:5730   .debug_loc:00000000000005c2 .LLST3
     /tmp/ccR0ry3G.s:150    .text:00000000000000a4 .LVL6
     /tmp/ccR0ry3G.s:153    .text:00000000000000b0 .LVL7
     /tmp/ccR0ry3G.s:127    .text:0000000000000078 .LBB11
     /tmp/ccR0ry3G.s:210    .text:000000000000010c .LBE11
     /tmp/ccR0ry3G.s:5749   .debug_loc:0000000000000610 .LLST4
     /tmp/ccR0ry3G.s:5762   .debug_loc:000000000000064a .LLST5
     /tmp/ccR0ry3G.s:6158   .debug_str:0000000000000214 .LASF236
     /tmp/ccR0ry3G.s:6174   .debug_str:0000000000000289 .LASF208
     /tmp/ccR0ry3G.s:6148   .debug_str:0000000000000192 .LASF209
     /tmp/ccR0ry3G.s:6274   .debug_str:00000000000005f5 .LASF210
     /tmp/ccR0ry3G.s:6116   .debug_str:0000000000000060 .LASF211
     /tmp/ccR0ry3G.s:6436   .debug_str:0000000000000b0c .LASF212
GAS LISTING /tmp/ccR0ry3G.s 			page 56


     /tmp/ccR0ry3G.s:36     .text:0000000000000000 .LFB15
     /tmp/ccR0ry3G.s:70     .text:000000000000002c .LFE15
     /tmp/ccR0ry3G.s:49     .text:0000000000000010 .LBB8
     /tmp/ccR0ry3G.s:59     .text:000000000000001c .LBE8
     /tmp/ccR0ry3G.s:5780   .debug_loc:0000000000000697 .LLST0
     /tmp/ccR0ry3G.s:6364   .debug_str:00000000000008ed .LASF213
     /tmp/ccR0ry3G.s:529    .text:00000000000002b0 .LFB17
     /tmp/ccR0ry3G.s:684    .text:00000000000003b4 .LFE17
     /tmp/ccR0ry3G.s:5787   .debug_loc:00000000000006ba .LLST13
     /tmp/ccR0ry3G.s:556    .text:00000000000002e0 .LVL35
     /tmp/ccR0ry3G.s:559    .text:00000000000002ec .LVL36
     /tmp/ccR0ry3G.s:607    .text:0000000000000344 .LVL41
     /tmp/ccR0ry3G.s:5809   .debug_loc:0000000000000719 .LLST14
     /tmp/ccR0ry3G.s:5875   .debug_loc:00000000000007e4 .LLST15
     /tmp/ccR0ry3G.s:5905   .debug_loc:000000000000085b .LLST16
     /tmp/ccR0ry3G.s:6312   .debug_str:000000000000074a .LASF214
     /tmp/ccR0ry3G.s:377    .text:00000000000001bc .LFB11
     /tmp/ccR0ry3G.s:521    .text:00000000000002b0 .LFE11
     /tmp/ccR0ry3G.s:5954   .debug_loc:0000000000000908 .LLST9
     /tmp/ccR0ry3G.s:5976   .debug_loc:0000000000000967 .LLST10
     /tmp/ccR0ry3G.s:5999   .debug_loc:00000000000009c8 .LLST11
     /tmp/ccR0ry3G.s:6022   .debug_loc:0000000000000a29 .LLST12
     /tmp/ccR0ry3G.s:443    .text:0000000000000240 .LVL25
     /tmp/ccR0ry3G.s:859    .text:00000000000004cc .LFB9
     /tmp/ccR0ry3G.s:897    .text:0000000000000510 .LFE9
     /tmp/ccR0ry3G.s:6061   .debug_loc:0000000000000abb .LLST20
     /tmp/ccR0ry3G.s:874    .text:00000000000004ec .LVL64
     /tmp/ccR0ry3G.s:886    .text:0000000000000500 .LVL67
     /tmp/ccR0ry3G.s:811    .text:0000000000000480 .LFB8
     /tmp/ccR0ry3G.s:853    .text:00000000000004cc .LFE8
     /tmp/ccR0ry3G.s:6068   .debug_loc:0000000000000ade .LLST19
     /tmp/ccR0ry3G.s:825    .text:0000000000000498 .LVL59
     /tmp/ccR0ry3G.s:830    .text:00000000000004a8 .LVL60
     /tmp/ccR0ry3G.s:842    .text:00000000000004bc .LVL63
     /tmp/ccR0ry3G.s:11     .text._ZN6Thread3runEv:0000000000000000 .LFB0
     /tmp/ccR0ry3G.s:30     .text._ZN6Thread3runEv:0000000000000018 .LFE0
     /tmp/ccR0ry3G.s:6400   .debug_str:00000000000009f8 .LASF215
     /tmp/ccR0ry3G.s:6310   .debug_str:000000000000073b .LASF216
     /tmp/ccR0ry3G.s:6516   .debug_str:0000000000000e9c .LASF217
     /tmp/ccR0ry3G.s:6278   .debug_str:000000000000060e .LASF218
     /tmp/ccR0ry3G.s:1331   .text:00000000000007bc .LVL112
     /tmp/ccR0ry3G.s:1344   .text:00000000000007d8 .LVL113
     /tmp/ccR0ry3G.s:1218   .text:0000000000000724 .LVL104
     /tmp/ccR0ry3G.s:1248   .text:0000000000000764 .LVL108
     /tmp/ccR0ry3G.s:1030   .text:0000000000000604 .LVL82
     /tmp/ccR0ry3G.s:787    .text:0000000000000464 .LVL57
     /tmp/ccR0ry3G.s:797    .text:0000000000000474 .LVL58
     /tmp/ccR0ry3G.s:353    .text:00000000000001a0 .LVL20
     /tmp/ccR0ry3G.s:363    .text:00000000000001b0 .LVL21
     /tmp/ccR0ry3G.s:1270   .text:000000000000076c .LVL109
     /tmp/ccR0ry3G.s:921    .text:0000000000000530 .LVL68
     /tmp/ccR0ry3G.s:998    .text:00000000000005d4 .LVL77
     /tmp/ccR0ry3G.s:1002   .text:00000000000005dc .LVL78
     /tmp/ccR0ry3G.s:959    .text:0000000000000588 .LVL73
     /tmp/ccR0ry3G.s:713    .text:00000000000003dc .LVL48
     /tmp/ccR0ry3G.s:755    .text:0000000000000434 .LVL52
     /tmp/ccR0ry3G.s:759    .text:000000000000043c .LVL53
GAS LISTING /tmp/ccR0ry3G.s 			page 57


     /tmp/ccR0ry3G.s:326    .text:0000000000000184 .LVL18
     /tmp/ccR0ry3G.s:336    .text:0000000000000194 .LVL19
     /tmp/ccR0ry3G.s:269    .text:0000000000000144 .LVL15
     /tmp/ccR0ry3G.s:279    .text:0000000000000154 .LVL16
     /tmp/ccR0ry3G.s:1068   .text:000000000000063c .LVL86
     /tmp/ccR0ry3G.s:1101   .text:0000000000000680 .LVL87
     /tmp/ccR0ry3G.s:1144   .text:00000000000006e0 .LVL92
     /tmp/ccR0ry3G.s:1157   .text:00000000000006f4 .LVL96
     /tmp/ccR0ry3G.s:1167   .text:0000000000000704 .LVL97
     /tmp/ccR0ry3G.s:1179   .text:0000000000000708 .LVL98
     /tmp/ccR0ry3G.s:1182   .text:000000000000070c .LVL99
     /tmp/ccR0ry3G.s:1194   .text:0000000000000710 .LVL100
     /tmp/ccR0ry3G.s:1196   .text:0000000000000714 .LVL101
     /tmp/ccR0ry3G.s:1199   .text:0000000000000718 .LVL102
     /tmp/ccR0ry3G.s:1147   .text:00000000000006e4 .LVL93
     /tmp/ccR0ry3G.s:1201   .text:000000000000071c .LVL103
     /tmp/ccR0ry3G.s:1153   .text:00000000000006ec .LVL95
     /tmp/ccR0ry3G.s:1150   .text:00000000000006e8 .LVL94
     /tmp/ccR0ry3G.s:1131   .text:00000000000006d0 .LVL91
     /tmp/ccR0ry3G.s:105    .text:0000000000000044 .LVL4
     /tmp/ccR0ry3G.s:220    .text:0000000000000118 .LVL11
     /tmp/ccR0ry3G.s:223    .text:000000000000011c .LVL12
     /tmp/ccR0ry3G.s:226    .text:0000000000000120 .LVL13
     /tmp/ccR0ry3G.s:163    .text:00000000000000c0 .LVL9
     /tmp/ccR0ry3G.s:157    .text:00000000000000b4 .LVL8
     /tmp/ccR0ry3G.s:183    .text:00000000000000dc .LVL10
     /tmp/ccR0ry3G.s:48     .text:0000000000000010 .LVL1
     /tmp/ccR0ry3G.s:57     .text:000000000000001c .LVL2
     /tmp/ccR0ry3G.s:532    .text:00000000000002b0 .LVL33
     /tmp/ccR0ry3G.s:661    .text:000000000000039c .LVL44
     /tmp/ccR0ry3G.s:668    .text:00000000000003a8 .LVL46
     /tmp/ccR0ry3G.s:592    .text:000000000000032c .LVL39
     /tmp/ccR0ry3G.s:601    .text:0000000000000338 .LVL40
     /tmp/ccR0ry3G.s:620    .text:0000000000000358 .LVL42
     /tmp/ccR0ry3G.s:664    .text:00000000000003a0 .LVL45
     /tmp/ccR0ry3G.s:563    .text:00000000000002f0 .LVL37
     /tmp/ccR0ry3G.s:569    .text:00000000000002fc .LVL38
     /tmp/ccR0ry3G.s:678    .text:00000000000003ac .LVL47
     /tmp/ccR0ry3G.s:380    .text:00000000000001bc .LVL22
     /tmp/ccR0ry3G.s:437    .text:0000000000000234 .LVL24
     /tmp/ccR0ry3G.s:492    .text:000000000000028c .LVL27
     /tmp/ccR0ry3G.s:508    .text:00000000000002a4 .LVL32
     /tmp/ccR0ry3G.s:498    .text:0000000000000294 .LVL29
     /tmp/ccR0ry3G.s:501    .text:0000000000000298 .LVL30
     /tmp/ccR0ry3G.s:421    .text:0000000000000218 .LVL23
     /tmp/ccR0ry3G.s:453    .text:0000000000000250 .LVL26
     /tmp/ccR0ry3G.s:495    .text:0000000000000290 .LVL28
     /tmp/ccR0ry3G.s:504    .text:000000000000029c .LVL31
     /tmp/ccR0ry3G.s:880    .text:00000000000004f4 .LVL65
     /tmp/ccR0ry3G.s:836    .text:00000000000004b0 .LVL61
     /tmp/ccR0ry3G.s:1488   .debug_info:0000000000000000 .Ldebug_info0
     /tmp/ccR0ry3G.s:5      .text:0000000000000000 .Ltext0
     /tmp/ccR0ry3G.s:1477   .text:0000000000000888 .Letext0
     /tmp/ccR0ry3G.s:550    .text:00000000000002d8 .LBB15
     /tmp/ccR0ry3G.s:650    .text:0000000000000390 .LBE15
     /tmp/ccR0ry3G.s:672    .text:00000000000003a8 .LBB16
     /tmp/ccR0ry3G.s:681    .text:00000000000003b4 .LBE16
GAS LISTING /tmp/ccR0ry3G.s 			page 58


     /tmp/ccR0ry3G.s:1256   .gcc_except_table:0000000000000000 .LLSDA36

UNDEFINED SYMBOLS
_ZN15MemoryAllocator8InstanceEv
_ZN15MemoryAllocator9mem_allocEm
scheduler
_ZN9Scheduler3getEv
context_switch
_ZN5RiscV14w_last_sstatusEv
_ZN5RiscV11w_last_sepcEv
restore_context_kernel_mode
_ZN5RiscV16switchToUserModeEv
thread_exit
_ZN9Scheduler3putEP6Thread
_ZN15MemoryAllocator13getThreadPoolEv
_ZN10ThreadPool8allocateEv
_ZN10ThreadPool10deallocateEP6Thread
__gxx_personality_v0
thread_dispatch
