GAS LISTING /tmp/ccagHvCd.s 			page 1


   1              		.file	"Thread.cpp"
   2              		.option pic
   3              		.option norelax
   4              		.text
   5              	.Ltext0:
   6              		.section	.text._ZN6Thread3runEv,"axG",@progbits,_ZN6Thread3runEv,comdat
   7              		.align	2
   8              		.weak	_ZN6Thread3runEv
  10              	_ZN6Thread3runEv:
  11              	.LFB0:
  12              		.file 1 "src/../h/Thread.hpp"
   1:src/../h/Thread.hpp **** #ifndef THREAD_HPP
   2:src/../h/Thread.hpp **** #define THREAD_HPP
   3:src/../h/Thread.hpp **** #include "memory_structs.h"
   4:src/../h/Thread.hpp **** #include "List.hpp"
   5:src/../h/Thread.hpp **** #include "../lib/hw.h"
   6:src/../h/Thread.hpp **** #include "RiscV.hpp"
   7:src/../h/Thread.hpp **** #ifdef __cplusplus
   8:src/../h/Thread.hpp **** extern "C" {
   9:src/../h/Thread.hpp **** #endif
  10:src/../h/Thread.hpp **** 
  11:src/../h/Thread.hpp **** void restore_context_kernel_mode(ThreadContext* newContext);
  12:src/../h/Thread.hpp **** 
  13:src/../h/Thread.hpp **** void context_switch(ThreadContext* c1, ThreadContext* c2);
  14:src/../h/Thread.hpp **** 
  15:src/../h/Thread.hpp **** #ifdef __cplusplus
  16:src/../h/Thread.hpp **** }
  17:src/../h/Thread.hpp **** #endif
  18:src/../h/Thread.hpp **** 
  19:src/../h/Thread.hpp **** class Thread{
  20:src/../h/Thread.hpp ****     friend class ThreadPool;
  21:src/../h/Thread.hpp **** public:
  22:src/../h/Thread.hpp ****     Thread();
  23:src/../h/Thread.hpp ****     Thread(void(*kernelBody)(void*), void* arg);
  24:src/../h/Thread.hpp ****     virtual ~Thread ();
  25:src/../h/Thread.hpp ****     int start ();
  26:src/../h/Thread.hpp ****     static void dispatch();
  27:src/../h/Thread.hpp ****     static void* operator new(size_t size);
  28:src/../h/Thread.hpp ****     static void operator delete(void*) noexcept;
  29:src/../h/Thread.hpp ****     virtual void run (){};
  13              		.loc 1 29 18
  14              		.cfi_startproc
  15              	.LVL0:
  16 0000 130101FF 		addi	sp,sp,-16
  17              		.cfi_def_cfa_offset 16
  18 0004 23348100 		sd	s0,8(sp)
  19              		.cfi_offset 8, -8
  20 0008 13040101 		addi	s0,sp,16
  21              		.cfi_def_cfa 8, 0
  22              		.loc 1 29 25 is_stmt 0
  23 000c 03348100 		ld	s0,8(sp)
  24              		.cfi_restore 8
  25              		.cfi_def_cfa 2, 16
  26 0010 13010101 		addi	sp,sp,16
  27              		.cfi_def_cfa_offset 0
  28 0014 67800000 		jr	ra
  29              		.cfi_endproc
GAS LISTING /tmp/ccagHvCd.s 			page 2


  30              	.LFE0:
  32              		.text
  33              		.align	2
  35              	_ZZN6ThreadC4EvENUlPvE_4_FUNES0_:
  36              	.LFB13:
  37              		.file 2 "src/Thread.cpp"
   1:src/Thread.cpp **** #include "../h/Thread.hpp"
   2:src/Thread.cpp **** #include "../h/Pool.hpp"
   3:src/Thread.cpp **** #include "../h/Scheduler.hpp"
   4:src/Thread.cpp **** #include "../h/RiscV.hpp"
   5:src/Thread.cpp **** 
   6:src/Thread.cpp **** 
   7:src/Thread.cpp **** 
   8:src/Thread.cpp **** 
   9:src/Thread.cpp **** int Thread::cnt = 0;
  10:src/Thread.cpp **** extern Scheduler scheduler;
  11:src/Thread.cpp **** Thread* Thread::running = nullptr;
  12:src/Thread.cpp **** uint64 Thread::timeSliceCounter = 0;
  13:src/Thread.cpp **** 
  14:src/Thread.cpp **** 
  15:src/Thread.cpp **** 
  16:src/Thread.cpp **** void Thread::threadWrapper() {
  17:src/Thread.cpp **** 
  18:src/Thread.cpp ****     RiscV::switchToUserMode();
  19:src/Thread.cpp ****     ThreadWrapperArgs* wa = Thread::running->getWrapperArgs();
  20:src/Thread.cpp ****     wa->userFunc(wa->userArgs);
  21:src/Thread.cpp ****     thread_exit();
  22:src/Thread.cpp **** 
  23:src/Thread.cpp **** 
  24:src/Thread.cpp **** }
  25:src/Thread.cpp **** void Thread::kernelThreadWrapper() {
  26:src/Thread.cpp **** 
  27:src/Thread.cpp ****     ThreadWrapperArgs* wa = Thread::running->getWrapperArgs();
  28:src/Thread.cpp **** 
  29:src/Thread.cpp **** 
  30:src/Thread.cpp ****     wa->userFunc(wa->userArgs);
  31:src/Thread.cpp **** 
  32:src/Thread.cpp **** 
  33:src/Thread.cpp ****     thread_exit_kernel();
  34:src/Thread.cpp **** 
  35:src/Thread.cpp **** }
  36:src/Thread.cpp **** 
  37:src/Thread.cpp **** Thread::Thread(void (*body)(void*), void* arg, void* stack_top) {
  38:src/Thread.cpp ****     this->next = nullptr;
  39:src/Thread.cpp ****     this->body = body;
  40:src/Thread.cpp ****     this->arg = arg;
  41:src/Thread.cpp ****     threadId = cnt++;
  42:src/Thread.cpp ****     context.userStack = (uint64*)((char*)stack_top - DEFAULT_STACK_SIZE);
  43:src/Thread.cpp ****     context.sp = (uint64)stack_top;
  44:src/Thread.cpp **** 
  45:src/Thread.cpp ****     if (Thread::running != nullptr) {
  46:src/Thread.cpp **** 
  47:src/Thread.cpp ****         context.sstatus = Thread::running->getContext()->sstatus;
  48:src/Thread.cpp ****     } else {
  49:src/Thread.cpp ****         context.sstatus = 0;
  50:src/Thread.cpp ****         context.sstatus &= ~RiscV::SSTATUS_SPP;
  51:src/Thread.cpp ****         context.sstatus |= RiscV::SSTATUS_SPIE;
GAS LISTING /tmp/ccagHvCd.s 			page 3


  52:src/Thread.cpp ****     }
  53:src/Thread.cpp ****     context.kernelStack = (uint64*)((char*)stack_top - 2 * DEFAULT_STACK_SIZE);
  54:src/Thread.cpp ****     context.ssp = (uint64)((char*)context.kernelStack + DEFAULT_STACK_SIZE);
  55:src/Thread.cpp ****     context.startedOnce = (uint64)0;
  56:src/Thread.cpp ****     context.wasActive = (uint64)0;
  57:src/Thread.cpp ****     this->wrapperArgs.userArgs = arg;
  58:src/Thread.cpp ****     this->wrapperArgs.userFunc = body;
  59:src/Thread.cpp ****     context.ra = (uint64)&threadWrapper;
  60:src/Thread.cpp ****     context.timeSlice = DEFAULT_TIME_SLICE;
  61:src/Thread.cpp ****     context.isKernelThread = 0;
  62:src/Thread.cpp **** }
  63:src/Thread.cpp **** Thread::Thread() {
  64:src/Thread.cpp ****     size_t numOfBlocks = (2 * DEFAULT_STACK_SIZE + sizeof(Header) + MEM_BLOCK_SIZE - 1) / MEM_BLOCK
  65:src/Thread.cpp ****     void* result = MemoryAllocator::Instance()->mem_alloc(numOfBlocks);
  66:src/Thread.cpp ****     void* stack = (char*)result + sizeof(Header);
  67:src/Thread.cpp ****     void* stack_top = (char*)stack + 2 * DEFAULT_STACK_SIZE;
  68:src/Thread.cpp **** 
  69:src/Thread.cpp ****     this->next = nullptr;
  70:src/Thread.cpp ****     this->body = nullptr;  // C++ nit nema body
  71:src/Thread.cpp ****     this->arg = nullptr;
  72:src/Thread.cpp ****     threadId = cnt++;
  73:src/Thread.cpp **** 
  74:src/Thread.cpp ****     context.userStack = (uint64*)((char*)stack_top - DEFAULT_STACK_SIZE);
  75:src/Thread.cpp ****     context.sp = (uint64)stack_top;
  76:src/Thread.cpp **** 
  77:src/Thread.cpp **** 
  78:src/Thread.cpp ****     if (Thread::running != nullptr) {
  79:src/Thread.cpp **** 
  80:src/Thread.cpp ****         context.sstatus = Thread::running->getContext()->sstatus;
  81:src/Thread.cpp ****     } else {
  82:src/Thread.cpp ****         context.sstatus = 0;
  83:src/Thread.cpp ****         context.sstatus &= ~RiscV::SSTATUS_SPP;
  84:src/Thread.cpp ****         context.sstatus |= RiscV::SSTATUS_SPIE;
  85:src/Thread.cpp ****     }
  86:src/Thread.cpp ****     context.kernelStack = (uint64*)((char*)stack_top - 2 * DEFAULT_STACK_SIZE);
  87:src/Thread.cpp ****     context.ssp = (uint64)((char*)context.kernelStack + DEFAULT_STACK_SIZE);
  88:src/Thread.cpp ****     context.startedOnce = 0;
  89:src/Thread.cpp ****     context.wasActive = 0;
  90:src/Thread.cpp ****     context.timeSlice = DEFAULT_TIME_SLICE;
  91:src/Thread.cpp ****     context.ra = (uint64)&threadWrapper;
  92:src/Thread.cpp ****     wrapperArgs.userArgs = this;
  93:src/Thread.cpp ****     wrapperArgs.userFunc = this->body = [](void* obj){
  38              		.loc 2 93 41 is_stmt 1
  39              		.cfi_startproc
  40 0000 130101FF 		addi	sp,sp,-16
  41              		.cfi_def_cfa_offset 16
  42 0004 23341100 		sd	ra,8(sp)
  43 0008 23308100 		sd	s0,0(sp)
  44              		.cfi_offset 1, -8
  45              		.cfi_offset 8, -16
  46 000c 13040101 		addi	s0,sp,16
  47              		.cfi_def_cfa 8, 0
  48              	.LVL1:
  49              	.LBB8:
  50              	.LBB9:
  94:src/Thread.cpp ****         static_cast<Thread*>(obj)->run();
  51              		.loc 2 94 9
GAS LISTING /tmp/ccagHvCd.s 			page 4


  52              		.loc 2 94 40 is_stmt 0
  53 0010 83370500 		ld	a5,0(a0)
  54 0014 83B70701 		ld	a5,16(a5)
  55              		.loc 2 94 39
  56 0018 E7800700 		jalr	a5
  57              	.LVL2:
  58              	.LBE9:
  59              	.LBE8:
  95:src/Thread.cpp ****     };
  60              		.loc 2 95 5
  61 001c 83308100 		ld	ra,8(sp)
  62              		.cfi_restore 1
  63 0020 03340100 		ld	s0,0(sp)
  64              		.cfi_restore 8
  65              		.cfi_def_cfa 2, 16
  66 0024 13010101 		addi	sp,sp,16
  67              		.cfi_def_cfa_offset 0
  68 0028 67800000 		jr	ra
  69              		.cfi_endproc
  70              	.LFE13:
  72              		.align	2
  73              		.globl	_ZN6ThreadD2Ev
  75              	_ZN6ThreadD2Ev:
  76              	.LFB28:
  96:src/Thread.cpp ****     context.isKernelThread = 0;
  97:src/Thread.cpp **** 
  98:src/Thread.cpp **** }
  99:src/Thread.cpp **** 
 100:src/Thread.cpp **** 
 101:src/Thread.cpp **** Thread::Thread(void (*kernelBody)(void*), void* arg)
 102:src/Thread.cpp **** {
 103:src/Thread.cpp ****     this->next = nullptr;
 104:src/Thread.cpp ****     this->body = kernelBody;
 105:src/Thread.cpp ****     this->arg = arg;
 106:src/Thread.cpp ****     threadId = cnt++;
 107:src/Thread.cpp **** 
 108:src/Thread.cpp ****     // alokacija stacka
 109:src/Thread.cpp ****     size_t numOfBlocks = (2 * DEFAULT_STACK_SIZE + sizeof(Header) + MEM_BLOCK_SIZE - 1) / MEM_BLOCK
 110:src/Thread.cpp ****     void* result = MemoryAllocator::Instance()->mem_alloc(numOfBlocks);
 111:src/Thread.cpp ****     void* stack = (char*)result + sizeof(Header);
 112:src/Thread.cpp ****     void* stack_top = (char*)stack + 2 * DEFAULT_STACK_SIZE;
 113:src/Thread.cpp **** 
 114:src/Thread.cpp ****     context.userStack = nullptr;                 // kernel nit nema user stack
 115:src/Thread.cpp ****     context.sp = (uint64)stack_top;
 116:src/Thread.cpp ****     context.sstatus = 0;
 117:src/Thread.cpp ****     context.sstatus &= ~RiscV::SSTATUS_SPP;
 118:src/Thread.cpp ****     context.sstatus |= RiscV::SSTATUS_SPIE;
 119:src/Thread.cpp **** 
 120:src/Thread.cpp ****     context.kernelStack = (uint64*)((char*)stack_top - 2 * DEFAULT_STACK_SIZE);
 121:src/Thread.cpp ****     context.ssp = (uint64)((char*)context.kernelStack + DEFAULT_STACK_SIZE);
 122:src/Thread.cpp **** 
 123:src/Thread.cpp ****     context.startedOnce = 0;
 124:src/Thread.cpp ****     context.wasActive = 0;
 125:src/Thread.cpp ****     context.timeSlice = DEFAULT_TIME_SLICE;
 126:src/Thread.cpp **** 
 127:src/Thread.cpp ****     wrapperArgs.userArgs = arg;
 128:src/Thread.cpp ****     wrapperArgs.userFunc = kernelBody;
GAS LISTING /tmp/ccagHvCd.s 			page 5


 129:src/Thread.cpp **** 
 130:src/Thread.cpp ****     context.ra = (uint64)&kernelThreadWrapper;
 131:src/Thread.cpp ****     context.isKernelThread = 1;
 132:src/Thread.cpp **** }
 133:src/Thread.cpp **** 
 134:src/Thread.cpp **** 
 135:src/Thread.cpp **** 
 136:src/Thread.cpp **** int Thread::create_thread_kernel(thread_t* handle, void(*routine)(void*) , void* args, void* stack_
 137:src/Thread.cpp ****     if(!handle || !routine || !stack_top)return -1;
 138:src/Thread.cpp ****     Thread* thread = new Thread(routine, args, stack_top);
 139:src/Thread.cpp ****     if(!thread) return -2;
 140:src/Thread.cpp ****     *handle =  thread->threadId;
 141:src/Thread.cpp ****     if(!Thread::running){
 142:src/Thread.cpp ****         Thread::running = thread;
 143:src/Thread.cpp ****         return 0;
 144:src/Thread.cpp ****     }
 145:src/Thread.cpp ****     scheduler.put(thread);
 146:src/Thread.cpp **** 
 147:src/Thread.cpp **** 
 148:src/Thread.cpp ****     return 0;
 149:src/Thread.cpp **** }
 150:src/Thread.cpp **** 
 151:src/Thread.cpp **** 
 152:src/Thread.cpp **** void Thread::clearTimeSliceCounter() {
 153:src/Thread.cpp ****     Thread::timeSliceCounter = 0;
 154:src/Thread.cpp **** }
 155:src/Thread.cpp **** uint64 Thread::getTimeSliceCounter() {
 156:src/Thread.cpp ****     return Thread::timeSliceCounter;
 157:src/Thread.cpp **** }
 158:src/Thread.cpp **** void Thread::incrementtimeSliceCounter() {
 159:src/Thread.cpp ****     Thread::timeSliceCounter++;
 160:src/Thread.cpp **** }
 161:src/Thread.cpp **** uint64 Thread::getTimeSlice() {
 162:src/Thread.cpp ****     return this->context.timeSlice;
 163:src/Thread.cpp **** }
 164:src/Thread.cpp **** 
 165:src/Thread.cpp **** int Thread::thread_exit_kernel(){
 166:src/Thread.cpp ****     Thread* oldRunning = Thread::running;
 167:src/Thread.cpp ****     //Take the thread out of ThreadManager array
 168:src/Thread.cpp **** 
 169:src/Thread.cpp ****     Thread::running = scheduler.get();
 170:src/Thread.cpp ****     if(Thread::running){
 171:src/Thread.cpp ****         if(Thread::running->getContext()->wasActive == 1){
 172:src/Thread.cpp ****             RiscV::w_last_sstatus();
 173:src/Thread.cpp ****             RiscV::w_last_sepc();
 174:src/Thread.cpp ****             restore_context_kernel_mode(&Thread::running->context);
 175:src/Thread.cpp ****         }
 176:src/Thread.cpp ****         else
 177:src/Thread.cpp ****         {
 178:src/Thread.cpp ****             context_switch(&oldRunning->context, &Thread::running->context);
 179:src/Thread.cpp ****         }
 180:src/Thread.cpp ****     }
 181:src/Thread.cpp ****     return 0;
 182:src/Thread.cpp **** }
 183:src/Thread.cpp **** void Thread::thread_dispatch_kernel() {
 184:src/Thread.cpp ****     Thread* oldRunning = Thread::running;
 185:src/Thread.cpp ****     if(oldRunning)
GAS LISTING /tmp/ccagHvCd.s 			page 6


 186:src/Thread.cpp ****     {
 187:src/Thread.cpp ****         scheduler.put(oldRunning);
 188:src/Thread.cpp ****     }
 189:src/Thread.cpp **** 
 190:src/Thread.cpp **** 
 191:src/Thread.cpp ****     Thread::running = scheduler.get();
 192:src/Thread.cpp ****     if(Thread::running->getContext()->isKernelThread){
 193:src/Thread.cpp ****         ThreadWrapperArgs *wa = Thread::running->getWrapperArgs();
 194:src/Thread.cpp ****         wa->userFunc(wa->userArgs);
 195:src/Thread.cpp ****     }
 196:src/Thread.cpp ****     if(Thread::running->getContext()->wasActive == 1){
 197:src/Thread.cpp ****         RiscV::w_last_sstatus();
 198:src/Thread.cpp ****         RiscV::w_last_sepc();
 199:src/Thread.cpp ****         restore_context_kernel_mode(&Thread::running->context);
 200:src/Thread.cpp ****     }
 201:src/Thread.cpp ****     else {
 202:src/Thread.cpp ****         Thread::running->getContext()->wasActive = 1;
 203:src/Thread.cpp ****         context_switch(&oldRunning->context, &Thread::running->context);
 204:src/Thread.cpp ****     }
 205:src/Thread.cpp **** 
 206:src/Thread.cpp **** }
 207:src/Thread.cpp **** 
 208:src/Thread.cpp **** Thread::~Thread(){}
  77              		.loc 2 208 1 is_stmt 1
  78              		.cfi_startproc
  79              	.LVL3:
  80 002c 130101FF 		addi	sp,sp,-16
  81              		.cfi_def_cfa_offset 16
  82 0030 23348100 		sd	s0,8(sp)
  83              		.cfi_offset 8, -8
  84 0034 13040101 		addi	s0,sp,16
  85              		.cfi_def_cfa 8, 0
  86              		.loc 2 208 19 is_stmt 0
  87 0038 03348100 		ld	s0,8(sp)
  88              		.cfi_restore 8
  89              		.cfi_def_cfa 2, 16
  90 003c 13010101 		addi	sp,sp,16
  91              		.cfi_def_cfa_offset 0
  92 0040 67800000 		jr	ra
  93              		.cfi_endproc
  94              	.LFE28:
  96              		.globl	_ZN6ThreadD1Ev
  97              		.set	_ZN6ThreadD1Ev,_ZN6ThreadD2Ev
  98              		.align	2
  99              		.globl	_ZN6ThreadC2EPFvPvES0_
 101              	_ZN6ThreadC2EPFvPvES0_:
 102              	.LFB18:
 101:src/Thread.cpp **** {
 103              		.loc 2 101 1 is_stmt 1
 104              		.cfi_startproc
 105              	.LVL4:
 106 0044 130101FD 		addi	sp,sp,-48
 107              		.cfi_def_cfa_offset 48
 108 0048 23341102 		sd	ra,40(sp)
 109 004c 23308102 		sd	s0,32(sp)
 110 0050 233C9100 		sd	s1,24(sp)
 111 0054 23382101 		sd	s2,16(sp)
GAS LISTING /tmp/ccagHvCd.s 			page 7


 112 0058 23343101 		sd	s3,8(sp)
 113              		.cfi_offset 1, -8
 114              		.cfi_offset 8, -16
 115              		.cfi_offset 9, -24
 116              		.cfi_offset 18, -32
 117              		.cfi_offset 19, -40
 118 005c 13040103 		addi	s0,sp,48
 119              		.cfi_def_cfa 8, 0
 120 0060 93040500 		mv	s1,a0
 121 0064 13890500 		mv	s2,a1
 122 0068 93090600 		mv	s3,a2
 123              	.LBB10:
 101:src/Thread.cpp **** {
 124              		.loc 2 101 52 is_stmt 0
 125 006c 97070000 		lla	a5,_ZTV6Thread+16
 125      93870700 
 126 0074 2330F500 		sd	a5,0(a0)
 127              	.LBB11:
 103:src/Thread.cpp ****     this->body = kernelBody;
 128              		.loc 2 103 5 is_stmt 1
 103:src/Thread.cpp ****     this->body = kernelBody;
 129              		.loc 2 103 16 is_stmt 0
 130 0078 23380500 		sd	zero,16(a0)
 104:src/Thread.cpp ****     this->arg = arg;
 131              		.loc 2 104 5 is_stmt 1
 104:src/Thread.cpp ****     this->arg = arg;
 132              		.loc 2 104 16 is_stmt 0
 133 007c 2338B508 		sd	a1,144(a0)
 105:src/Thread.cpp ****     threadId = cnt++;
 134              		.loc 2 105 5 is_stmt 1
 105:src/Thread.cpp ****     threadId = cnt++;
 135              		.loc 2 105 15 is_stmt 0
 136 0080 233CC508 		sd	a2,152(a0)
 106:src/Thread.cpp **** 
 137              		.loc 2 106 5 is_stmt 1
 106:src/Thread.cpp **** 
 138              		.loc 2 106 19 is_stmt 0
 139 0084 17070000 		lla	a4,.LANCHOR0
 139      13070700 
 140 008c 83270700 		lw	a5,0(a4)
 141 0090 9B861700 		addiw	a3,a5,1
 142 0094 2320D700 		sw	a3,0(a4)
 106:src/Thread.cpp **** 
 143              		.loc 2 106 14
 144 0098 232CF500 		sw	a5,24(a0)
 109:src/Thread.cpp ****     void* result = MemoryAllocator::Instance()->mem_alloc(numOfBlocks);
 145              		.loc 2 109 5 is_stmt 1
 146              	.LVL5:
 110:src/Thread.cpp ****     void* stack = (char*)result + sizeof(Header);
 147              		.loc 2 110 5
 110:src/Thread.cpp ****     void* stack = (char*)result + sizeof(Header);
 148              		.loc 2 110 58 is_stmt 0
 149 009c 97000000 		call	_ZN15MemoryAllocator8InstanceEv@plt
 149      E7800000 
 150              	.LVL6:
 151 00a4 93051008 		li	a1,129
 152 00a8 97000000 		call	_ZN15MemoryAllocator9mem_allocEm@plt
GAS LISTING /tmp/ccagHvCd.s 			page 8


 152      E7800000 
 153              	.LVL7:
 111:src/Thread.cpp ****     void* stack_top = (char*)stack + 2 * DEFAULT_STACK_SIZE;
 154              		.loc 2 111 5 is_stmt 1
 111:src/Thread.cpp ****     void* stack_top = (char*)stack + 2 * DEFAULT_STACK_SIZE;
 155              		.loc 2 111 11 is_stmt 0
 156 00b0 93078500 		addi	a5,a0,8
 157              	.LVL8:
 112:src/Thread.cpp **** 
 158              		.loc 2 112 5 is_stmt 1
 112:src/Thread.cpp **** 
 159              		.loc 2 112 11 is_stmt 0
 160 00b4 37270000 		li	a4,8192
 161 00b8 13078700 		addi	a4,a4,8
 162 00bc 3305E500 		add	a0,a0,a4
 163              	.LVL9:
 114:src/Thread.cpp ****     context.sp = (uint64)stack_top;
 164              		.loc 2 114 5 is_stmt 1
 114:src/Thread.cpp ****     context.sp = (uint64)stack_top;
 165              		.loc 2 114 23 is_stmt 0
 166 00c0 23B40402 		sd	zero,40(s1)
 115:src/Thread.cpp ****     context.sstatus = 0;
 167              		.loc 2 115 5 is_stmt 1
 115:src/Thread.cpp ****     context.sstatus = 0;
 168              		.loc 2 115 16 is_stmt 0
 169 00c4 23BCA402 		sd	a0,56(s1)
 116:src/Thread.cpp ****     context.sstatus &= ~RiscV::SSTATUS_SPP;
 170              		.loc 2 116 5 is_stmt 1
 117:src/Thread.cpp ****     context.sstatus |= RiscV::SSTATUS_SPIE;
 171              		.loc 2 117 5
 118:src/Thread.cpp **** 
 172              		.loc 2 118 5
 118:src/Thread.cpp **** 
 173              		.loc 2 118 21 is_stmt 0
 174 00c8 13070002 		li	a4,32
 175 00cc 23B4E404 		sd	a4,72(s1)
 120:src/Thread.cpp ****     context.ssp = (uint64)((char*)context.kernelStack + DEFAULT_STACK_SIZE);
 176              		.loc 2 120 5 is_stmt 1
 120:src/Thread.cpp ****     context.ssp = (uint64)((char*)context.kernelStack + DEFAULT_STACK_SIZE);
 177              		.loc 2 120 25 is_stmt 0
 178 00d0 23B8F402 		sd	a5,48(s1)
 121:src/Thread.cpp **** 
 179              		.loc 2 121 5 is_stmt 1
 121:src/Thread.cpp **** 
 180              		.loc 2 121 55 is_stmt 0
 181 00d4 37170000 		li	a4,4096
 182 00d8 B387E700 		add	a5,a5,a4
 183              	.LVL10:
 121:src/Thread.cpp **** 
 184              		.loc 2 121 17
 185 00dc 23B0F404 		sd	a5,64(s1)
 123:src/Thread.cpp ****     context.wasActive = 0;
 186              		.loc 2 123 5 is_stmt 1
 123:src/Thread.cpp ****     context.wasActive = 0;
 187              		.loc 2 123 25 is_stmt 0
 188 00e0 23BC0404 		sd	zero,88(s1)
 124:src/Thread.cpp ****     context.timeSlice = DEFAULT_TIME_SLICE;
GAS LISTING /tmp/ccagHvCd.s 			page 9


 189              		.loc 2 124 5 is_stmt 1
 124:src/Thread.cpp ****     context.timeSlice = DEFAULT_TIME_SLICE;
 190              		.loc 2 124 23 is_stmt 0
 191 00e4 23B00406 		sd	zero,96(s1)
 125:src/Thread.cpp **** 
 192              		.loc 2 125 5 is_stmt 1
 125:src/Thread.cpp **** 
 193              		.loc 2 125 23 is_stmt 0
 194 00e8 93072000 		li	a5,2
 195 00ec 23B4F406 		sd	a5,104(s1)
 127:src/Thread.cpp ****     wrapperArgs.userFunc = kernelBody;
 196              		.loc 2 127 5 is_stmt 1
 127:src/Thread.cpp ****     wrapperArgs.userFunc = kernelBody;
 197              		.loc 2 127 26 is_stmt 0
 198 00f0 23B03409 		sd	s3,128(s1)
 128:src/Thread.cpp **** 
 199              		.loc 2 128 5 is_stmt 1
 128:src/Thread.cpp **** 
 200              		.loc 2 128 26 is_stmt 0
 201 00f4 23BC2407 		sd	s2,120(s1)
 130:src/Thread.cpp ****     context.isKernelThread = 1;
 202              		.loc 2 130 5 is_stmt 1
 130:src/Thread.cpp ****     context.isKernelThread = 1;
 203              		.loc 2 130 16 is_stmt 0
 204 00f8 97070000 		lla	a5,_ZN6Thread19kernelThreadWrapperEv
 204      93870700 
 205 0100 23B8F404 		sd	a5,80(s1)
 131:src/Thread.cpp **** }
 206              		.loc 2 131 5 is_stmt 1
 131:src/Thread.cpp **** }
 207              		.loc 2 131 28 is_stmt 0
 208 0104 93071000 		li	a5,1
 209 0108 23B8F406 		sd	a5,112(s1)
 210              	.LBE11:
 211              	.LBE10:
 132:src/Thread.cpp **** 
 212              		.loc 2 132 1
 213 010c 83308102 		ld	ra,40(sp)
 214              		.cfi_restore 1
 215 0110 03340102 		ld	s0,32(sp)
 216              		.cfi_restore 8
 217              		.cfi_def_cfa 2, 48
 218 0114 83348101 		ld	s1,24(sp)
 219              		.cfi_restore 9
 220              	.LVL11:
 221 0118 03390101 		ld	s2,16(sp)
 222              		.cfi_restore 18
 223              	.LVL12:
 224 011c 83398100 		ld	s3,8(sp)
 225              		.cfi_restore 19
 226              	.LVL13:
 227 0120 13010103 		addi	sp,sp,48
 228              		.cfi_def_cfa_offset 0
 229 0124 67800000 		jr	ra
 230              		.cfi_endproc
 231              	.LFE18:
 233              		.globl	_ZN6ThreadC1EPFvPvES0_
GAS LISTING /tmp/ccagHvCd.s 			page 10


 234              		.set	_ZN6ThreadC1EPFvPvES0_,_ZN6ThreadC2EPFvPvES0_
 235              		.align	2
 236              		.globl	_ZN6Thread21clearTimeSliceCounterEv
 238              	_ZN6Thread21clearTimeSliceCounterEv:
 239              	.LFB21:
 152:src/Thread.cpp ****     Thread::timeSliceCounter = 0;
 240              		.loc 2 152 38 is_stmt 1
 241              		.cfi_startproc
 242 0128 130101FF 		addi	sp,sp,-16
 243              		.cfi_def_cfa_offset 16
 244 012c 23348100 		sd	s0,8(sp)
 245              		.cfi_offset 8, -8
 246 0130 13040101 		addi	s0,sp,16
 247              		.cfi_def_cfa 8, 0
 153:src/Thread.cpp **** }
 248              		.loc 2 153 5
 153:src/Thread.cpp **** }
 249              		.loc 2 153 30 is_stmt 0
 250 0134 97070000 		sd	zero,.LANCHOR0+8,a5
 250      23B00700 
 154:src/Thread.cpp **** uint64 Thread::getTimeSliceCounter() {
 251              		.loc 2 154 1
 252 013c 03348100 		ld	s0,8(sp)
 253              		.cfi_restore 8
 254              		.cfi_def_cfa 2, 16
 255 0140 13010101 		addi	sp,sp,16
 256              		.cfi_def_cfa_offset 0
 257 0144 67800000 		jr	ra
 258              		.cfi_endproc
 259              	.LFE21:
 261              		.align	2
 262              		.globl	_ZN6Thread19getTimeSliceCounterEv
 264              	_ZN6Thread19getTimeSliceCounterEv:
 265              	.LFB22:
 155:src/Thread.cpp ****     return Thread::timeSliceCounter;
 266              		.loc 2 155 38 is_stmt 1
 267              		.cfi_startproc
 268 0148 130101FF 		addi	sp,sp,-16
 269              		.cfi_def_cfa_offset 16
 270 014c 23348100 		sd	s0,8(sp)
 271              		.cfi_offset 8, -8
 272 0150 13040101 		addi	s0,sp,16
 273              		.cfi_def_cfa 8, 0
 156:src/Thread.cpp **** }
 274              		.loc 2 156 5
 157:src/Thread.cpp **** void Thread::incrementtimeSliceCounter() {
 275              		.loc 2 157 1 is_stmt 0
 276 0154 17050000 		ld	a0,.LANCHOR0+8
 276      03350500 
 277 015c 03348100 		ld	s0,8(sp)
 278              		.cfi_restore 8
 279              		.cfi_def_cfa 2, 16
 280 0160 13010101 		addi	sp,sp,16
 281              		.cfi_def_cfa_offset 0
 282 0164 67800000 		jr	ra
 283              		.cfi_endproc
 284              	.LFE22:
GAS LISTING /tmp/ccagHvCd.s 			page 11


 286              		.align	2
 287              		.globl	_ZN6Thread25incrementtimeSliceCounterEv
 289              	_ZN6Thread25incrementtimeSliceCounterEv:
 290              	.LFB23:
 158:src/Thread.cpp ****     Thread::timeSliceCounter++;
 291              		.loc 2 158 42 is_stmt 1
 292              		.cfi_startproc
 293 0168 130101FF 		addi	sp,sp,-16
 294              		.cfi_def_cfa_offset 16
 295 016c 23348100 		sd	s0,8(sp)
 296              		.cfi_offset 8, -8
 297 0170 13040101 		addi	s0,sp,16
 298              		.cfi_def_cfa 8, 0
 159:src/Thread.cpp **** }
 299              		.loc 2 159 5
 159:src/Thread.cpp **** }
 300              		.loc 2 159 29 is_stmt 0
 301 0174 17070000 		lla	a4,.LANCHOR0
 301      13070700 
 302 017c 83378700 		ld	a5,8(a4)
 303 0180 93871700 		addi	a5,a5,1
 304 0184 2334F700 		sd	a5,8(a4)
 160:src/Thread.cpp **** uint64 Thread::getTimeSlice() {
 305              		.loc 2 160 1
 306 0188 03348100 		ld	s0,8(sp)
 307              		.cfi_restore 8
 308              		.cfi_def_cfa 2, 16
 309 018c 13010101 		addi	sp,sp,16
 310              		.cfi_def_cfa_offset 0
 311 0190 67800000 		jr	ra
 312              		.cfi_endproc
 313              	.LFE23:
 315              		.align	2
 316              		.globl	_ZN6Thread12getTimeSliceEv
 318              	_ZN6Thread12getTimeSliceEv:
 319              	.LFB24:
 161:src/Thread.cpp ****     return this->context.timeSlice;
 320              		.loc 2 161 31 is_stmt 1
 321              		.cfi_startproc
 322              	.LVL14:
 323 0194 130101FF 		addi	sp,sp,-16
 324              		.cfi_def_cfa_offset 16
 325 0198 23348100 		sd	s0,8(sp)
 326              		.cfi_offset 8, -8
 327 019c 13040101 		addi	s0,sp,16
 328              		.cfi_def_cfa 8, 0
 162:src/Thread.cpp **** }
 329              		.loc 2 162 5
 163:src/Thread.cpp **** 
 330              		.loc 2 163 1 is_stmt 0
 331 01a0 03358506 		ld	a0,104(a0)
 332              	.LVL15:
 333 01a4 03348100 		ld	s0,8(sp)
 334              		.cfi_restore 8
 335              		.cfi_def_cfa 2, 16
 336 01a8 13010101 		addi	sp,sp,16
 337              		.cfi_def_cfa_offset 0
GAS LISTING /tmp/ccagHvCd.s 			page 12


 338 01ac 67800000 		jr	ra
 339              		.cfi_endproc
 340              	.LFE24:
 342              		.align	2
 343              		.globl	_ZN6Thread10getContextEv
 345              	_ZN6Thread10getContextEv:
 346              	.LFB31:
 209:src/Thread.cpp **** 
 210:src/Thread.cpp **** ThreadContext* Thread::getContext() {
 347              		.loc 2 210 37 is_stmt 1
 348              		.cfi_startproc
 349              	.LVL16:
 350 01b0 130101FF 		addi	sp,sp,-16
 351              		.cfi_def_cfa_offset 16
 352 01b4 23348100 		sd	s0,8(sp)
 353              		.cfi_offset 8, -8
 354 01b8 13040101 		addi	s0,sp,16
 355              		.cfi_def_cfa 8, 0
 211:src/Thread.cpp ****     return &this->context;
 356              		.loc 2 211 5
 212:src/Thread.cpp **** }
 357              		.loc 2 212 1 is_stmt 0
 358 01bc 13050502 		addi	a0,a0,32
 359              	.LVL17:
 360 01c0 03348100 		ld	s0,8(sp)
 361              		.cfi_restore 8
 362              		.cfi_def_cfa 2, 16
 363 01c4 13010101 		addi	sp,sp,16
 364              		.cfi_def_cfa_offset 0
 365 01c8 67800000 		jr	ra
 366              		.cfi_endproc
 367              	.LFE31:
 369              		.align	2
 370              		.globl	_ZN6ThreadC2EPFvPvES0_S0_
 372              	_ZN6ThreadC2EPFvPvES0_S0_:
 373              	.LFB9:
  37:src/Thread.cpp ****     this->next = nullptr;
 374              		.loc 2 37 1 is_stmt 1
 375              		.cfi_startproc
 376              	.LVL18:
 377 01cc 130101FC 		addi	sp,sp,-64
 378              		.cfi_def_cfa_offset 64
 379 01d0 233C1102 		sd	ra,56(sp)
 380 01d4 23388102 		sd	s0,48(sp)
 381 01d8 23349102 		sd	s1,40(sp)
 382 01dc 23302103 		sd	s2,32(sp)
 383 01e0 233C3101 		sd	s3,24(sp)
 384 01e4 23384101 		sd	s4,16(sp)
 385 01e8 23345101 		sd	s5,8(sp)
 386              		.cfi_offset 1, -8
 387              		.cfi_offset 8, -16
 388              		.cfi_offset 9, -24
 389              		.cfi_offset 18, -32
 390              		.cfi_offset 19, -40
 391              		.cfi_offset 20, -48
 392              		.cfi_offset 21, -56
 393 01ec 13040104 		addi	s0,sp,64
GAS LISTING /tmp/ccagHvCd.s 			page 13


 394              		.cfi_def_cfa 8, 0
 395 01f0 93040500 		mv	s1,a0
 396 01f4 93890500 		mv	s3,a1
 397 01f8 130A0600 		mv	s4,a2
 398 01fc 13890600 		mv	s2,a3
 399              	.LBB12:
  37:src/Thread.cpp ****     this->next = nullptr;
 400              		.loc 2 37 63 is_stmt 0
 401 0200 97070000 		lla	a5,_ZTV6Thread+16
 401      93870700 
 402 0208 2330F500 		sd	a5,0(a0)
  38:src/Thread.cpp ****     this->body = body;
 403              		.loc 2 38 5 is_stmt 1
  38:src/Thread.cpp ****     this->body = body;
 404              		.loc 2 38 16 is_stmt 0
 405 020c 23380500 		sd	zero,16(a0)
  39:src/Thread.cpp ****     this->arg = arg;
 406              		.loc 2 39 5 is_stmt 1
  39:src/Thread.cpp ****     this->arg = arg;
 407              		.loc 2 39 16 is_stmt 0
 408 0210 2338B508 		sd	a1,144(a0)
  40:src/Thread.cpp ****     threadId = cnt++;
 409              		.loc 2 40 5 is_stmt 1
  40:src/Thread.cpp ****     threadId = cnt++;
 410              		.loc 2 40 15 is_stmt 0
 411 0214 233CC508 		sd	a2,152(a0)
  41:src/Thread.cpp ****     context.userStack = (uint64*)((char*)stack_top - DEFAULT_STACK_SIZE);
 412              		.loc 2 41 5 is_stmt 1
  41:src/Thread.cpp ****     context.userStack = (uint64*)((char*)stack_top - DEFAULT_STACK_SIZE);
 413              		.loc 2 41 19 is_stmt 0
 414 0218 97070000 		lla	a5,.LANCHOR0
 414      93870700 
 415 0220 03A70700 		lw	a4,0(a5)
 416 0224 9B061700 		addiw	a3,a4,1
 417              	.LVL19:
 418 0228 23A0D700 		sw	a3,0(a5)
  41:src/Thread.cpp ****     context.userStack = (uint64*)((char*)stack_top - DEFAULT_STACK_SIZE);
 419              		.loc 2 41 14
 420 022c 232CE500 		sw	a4,24(a0)
  42:src/Thread.cpp ****     context.sp = (uint64)stack_top;
 421              		.loc 2 42 5 is_stmt 1
  42:src/Thread.cpp ****     context.sp = (uint64)stack_top;
 422              		.loc 2 42 25 is_stmt 0
 423 0230 B7FAFFFF 		li	s5,-4096
 424 0234 B30A5901 		add	s5,s2,s5
  42:src/Thread.cpp ****     context.sp = (uint64)stack_top;
 425              		.loc 2 42 23
 426 0238 23345503 		sd	s5,40(a0)
  43:src/Thread.cpp **** 
 427              		.loc 2 43 5 is_stmt 1
  43:src/Thread.cpp **** 
 428              		.loc 2 43 16 is_stmt 0
 429 023c 233C2503 		sd	s2,56(a0)
  45:src/Thread.cpp **** 
 430              		.loc 2 45 5 is_stmt 1
  45:src/Thread.cpp **** 
 431              		.loc 2 45 25 is_stmt 0
GAS LISTING /tmp/ccagHvCd.s 			page 14


 432 0240 03B50701 		ld	a0,16(a5)
 433              	.LVL20:
  45:src/Thread.cpp **** 
 434              		.loc 2 45 5
 435 0244 63080506 		beqz	a0,.L20
  47:src/Thread.cpp ****     } else {
 436              		.loc 2 47 9 is_stmt 1
  47:src/Thread.cpp ****     } else {
 437              		.loc 2 47 54 is_stmt 0
 438 0248 97000000 		call	_ZN6Thread10getContextEv
 438      E7800000 
 439              	.LVL21:
  47:src/Thread.cpp ****     } else {
 440              		.loc 2 47 58
 441 0250 83378502 		ld	a5,40(a0)
  47:src/Thread.cpp ****     } else {
 442              		.loc 2 47 25
 443 0254 23B4F404 		sd	a5,72(s1)
 444              	.L21:
  53:src/Thread.cpp ****     context.ssp = (uint64)((char*)context.kernelStack + DEFAULT_STACK_SIZE);
 445              		.loc 2 53 5 is_stmt 1
  53:src/Thread.cpp ****     context.ssp = (uint64)((char*)context.kernelStack + DEFAULT_STACK_SIZE);
 446              		.loc 2 53 27 is_stmt 0
 447 0258 B7E6FFFF 		li	a3,-8192
 448 025c 3309D900 		add	s2,s2,a3
 449              	.LVL22:
  53:src/Thread.cpp ****     context.ssp = (uint64)((char*)context.kernelStack + DEFAULT_STACK_SIZE);
 450              		.loc 2 53 25
 451 0260 23B82403 		sd	s2,48(s1)
  54:src/Thread.cpp ****     context.startedOnce = (uint64)0;
 452              		.loc 2 54 5 is_stmt 1
  54:src/Thread.cpp ****     context.startedOnce = (uint64)0;
 453              		.loc 2 54 17 is_stmt 0
 454 0264 23B05405 		sd	s5,64(s1)
  55:src/Thread.cpp ****     context.wasActive = (uint64)0;
 455              		.loc 2 55 5 is_stmt 1
  55:src/Thread.cpp ****     context.wasActive = (uint64)0;
 456              		.loc 2 55 25 is_stmt 0
 457 0268 23BC0404 		sd	zero,88(s1)
  56:src/Thread.cpp ****     this->wrapperArgs.userArgs = arg;
 458              		.loc 2 56 5 is_stmt 1
  56:src/Thread.cpp ****     this->wrapperArgs.userArgs = arg;
 459              		.loc 2 56 23 is_stmt 0
 460 026c 23B00406 		sd	zero,96(s1)
  57:src/Thread.cpp ****     this->wrapperArgs.userFunc = body;
 461              		.loc 2 57 5 is_stmt 1
  57:src/Thread.cpp ****     this->wrapperArgs.userFunc = body;
 462              		.loc 2 57 32 is_stmt 0
 463 0270 23B04409 		sd	s4,128(s1)
  58:src/Thread.cpp ****     context.ra = (uint64)&threadWrapper;
 464              		.loc 2 58 5 is_stmt 1
  58:src/Thread.cpp ****     context.ra = (uint64)&threadWrapper;
 465              		.loc 2 58 32 is_stmt 0
 466 0274 23BC3407 		sd	s3,120(s1)
  59:src/Thread.cpp ****     context.timeSlice = DEFAULT_TIME_SLICE;
 467              		.loc 2 59 5 is_stmt 1
  59:src/Thread.cpp ****     context.timeSlice = DEFAULT_TIME_SLICE;
GAS LISTING /tmp/ccagHvCd.s 			page 15


 468              		.loc 2 59 16 is_stmt 0
 469 0278 97070000 		lla	a5,_ZN6Thread13threadWrapperEv
 469      93870700 
 470 0280 23B8F404 		sd	a5,80(s1)
  60:src/Thread.cpp ****     context.isKernelThread = 0;
 471              		.loc 2 60 5 is_stmt 1
  60:src/Thread.cpp ****     context.isKernelThread = 0;
 472              		.loc 2 60 23 is_stmt 0
 473 0284 93072000 		li	a5,2
 474 0288 23B4F406 		sd	a5,104(s1)
  61:src/Thread.cpp **** }
 475              		.loc 2 61 5 is_stmt 1
  61:src/Thread.cpp **** }
 476              		.loc 2 61 28 is_stmt 0
 477 028c 23B80406 		sd	zero,112(s1)
 478              	.LBE12:
  62:src/Thread.cpp **** Thread::Thread() {
 479              		.loc 2 62 1
 480 0290 83308103 		ld	ra,56(sp)
 481              		.cfi_remember_state
 482              		.cfi_restore 1
 483 0294 03340103 		ld	s0,48(sp)
 484              		.cfi_restore 8
 485              		.cfi_def_cfa 2, 64
 486 0298 83348102 		ld	s1,40(sp)
 487              		.cfi_restore 9
 488              	.LVL23:
 489 029c 03390102 		ld	s2,32(sp)
 490              		.cfi_restore 18
 491              	.LVL24:
 492 02a0 83398101 		ld	s3,24(sp)
 493              		.cfi_restore 19
 494              	.LVL25:
 495 02a4 033A0101 		ld	s4,16(sp)
 496              		.cfi_restore 20
 497              	.LVL26:
 498 02a8 833A8100 		ld	s5,8(sp)
 499              		.cfi_restore 21
 500              	.LVL27:
 501 02ac 13010104 		addi	sp,sp,64
 502              		.cfi_def_cfa_offset 0
 503 02b0 67800000 		jr	ra
 504              	.LVL28:
 505              	.L20:
 506              		.cfi_restore_state
 507              	.LBB13:
  49:src/Thread.cpp ****         context.sstatus &= ~RiscV::SSTATUS_SPP;
 508              		.loc 2 49 9 is_stmt 1
  50:src/Thread.cpp ****         context.sstatus |= RiscV::SSTATUS_SPIE;
 509              		.loc 2 50 9
  51:src/Thread.cpp ****     }
 510              		.loc 2 51 9
  51:src/Thread.cpp ****     }
 511              		.loc 2 51 25 is_stmt 0
 512 02b4 93070002 		li	a5,32
 513 02b8 23B4F404 		sd	a5,72(s1)
 514 02bc 6FF0DFF9 		j	.L21
GAS LISTING /tmp/ccagHvCd.s 			page 16


 515              	.LBE13:
 516              		.cfi_endproc
 517              	.LFE9:
 519              		.globl	_ZN6ThreadC1EPFvPvES0_S0_
 520              		.set	_ZN6ThreadC1EPFvPvES0_S0_,_ZN6ThreadC2EPFvPvES0_S0_
 521              		.align	2
 522              		.globl	_ZN6ThreadC2Ev
 524              	_ZN6ThreadC2Ev:
 525              	.LFB15:
  63:src/Thread.cpp ****     size_t numOfBlocks = (2 * DEFAULT_STACK_SIZE + sizeof(Header) + MEM_BLOCK_SIZE - 1) / MEM_BLOCK
 526              		.loc 2 63 1 is_stmt 1
 527              		.cfi_startproc
 528              	.LVL29:
 529 02c0 130101FE 		addi	sp,sp,-32
 530              		.cfi_def_cfa_offset 32
 531 02c4 233C1100 		sd	ra,24(sp)
 532 02c8 23388100 		sd	s0,16(sp)
 533 02cc 23349100 		sd	s1,8(sp)
 534 02d0 23302101 		sd	s2,0(sp)
 535              		.cfi_offset 1, -8
 536              		.cfi_offset 8, -16
 537              		.cfi_offset 9, -24
 538              		.cfi_offset 18, -32
 539 02d4 13040102 		addi	s0,sp,32
 540              		.cfi_def_cfa 8, 0
 541 02d8 93040500 		mv	s1,a0
 542              	.LBB14:
  63:src/Thread.cpp ****     size_t numOfBlocks = (2 * DEFAULT_STACK_SIZE + sizeof(Header) + MEM_BLOCK_SIZE - 1) / MEM_BLOCK
 543              		.loc 2 63 16 is_stmt 0
 544 02dc 97070000 		lla	a5,_ZTV6Thread+16
 544      93870700 
 545 02e4 2330F500 		sd	a5,0(a0)
 546              	.LBB15:
  64:src/Thread.cpp ****     void* result = MemoryAllocator::Instance()->mem_alloc(numOfBlocks);
 547              		.loc 2 64 5 is_stmt 1
 548              	.LVL30:
  65:src/Thread.cpp ****     void* stack = (char*)result + sizeof(Header);
 549              		.loc 2 65 5
  65:src/Thread.cpp ****     void* stack = (char*)result + sizeof(Header);
 550              		.loc 2 65 58 is_stmt 0
 551 02e8 97000000 		call	_ZN15MemoryAllocator8InstanceEv@plt
 551      E7800000 
 552              	.LVL31:
 553 02f0 93051008 		li	a1,129
 554 02f4 97000000 		call	_ZN15MemoryAllocator9mem_allocEm@plt
 554      E7800000 
 555              	.LVL32:
  66:src/Thread.cpp ****     void* stack_top = (char*)stack + 2 * DEFAULT_STACK_SIZE;
 556              		.loc 2 66 5 is_stmt 1
  66:src/Thread.cpp ****     void* stack_top = (char*)stack + 2 * DEFAULT_STACK_SIZE;
 557              		.loc 2 66 11 is_stmt 0
 558 02fc 13098500 		addi	s2,a0,8
 559              	.LVL33:
  67:src/Thread.cpp **** 
 560              		.loc 2 67 5 is_stmt 1
  67:src/Thread.cpp **** 
 561              		.loc 2 67 11 is_stmt 0
GAS LISTING /tmp/ccagHvCd.s 			page 17


 562 0300 B7270000 		li	a5,8192
 563 0304 93878700 		addi	a5,a5,8
 564 0308 B307F500 		add	a5,a0,a5
 565              	.LVL34:
  69:src/Thread.cpp ****     this->body = nullptr;  // C++ nit nema body
 566              		.loc 2 69 5 is_stmt 1
  69:src/Thread.cpp ****     this->body = nullptr;  // C++ nit nema body
 567              		.loc 2 69 16 is_stmt 0
 568 030c 23B80400 		sd	zero,16(s1)
  70:src/Thread.cpp ****     this->arg = nullptr;
 569              		.loc 2 70 5 is_stmt 1
  70:src/Thread.cpp ****     this->arg = nullptr;
 570              		.loc 2 70 16 is_stmt 0
 571 0310 23B80408 		sd	zero,144(s1)
  71:src/Thread.cpp ****     threadId = cnt++;
 572              		.loc 2 71 5 is_stmt 1
  71:src/Thread.cpp ****     threadId = cnt++;
 573              		.loc 2 71 15 is_stmt 0
 574 0314 23BC0408 		sd	zero,152(s1)
  72:src/Thread.cpp **** 
 575              		.loc 2 72 5 is_stmt 1
  72:src/Thread.cpp **** 
 576              		.loc 2 72 19 is_stmt 0
 577 0318 17070000 		lla	a4,.LANCHOR0
 577      13070700 
 578 0320 83260700 		lw	a3,0(a4)
 579 0324 1B861600 		addiw	a2,a3,1
 580 0328 2320C700 		sw	a2,0(a4)
  72:src/Thread.cpp **** 
 581              		.loc 2 72 14
 582 032c 23ACD400 		sw	a3,24(s1)
  74:src/Thread.cpp ****     context.sp = (uint64)stack_top;
 583              		.loc 2 74 5 is_stmt 1
  74:src/Thread.cpp ****     context.sp = (uint64)stack_top;
 584              		.loc 2 74 25 is_stmt 0
 585 0330 B7160000 		li	a3,4096
 586 0334 93868600 		addi	a3,a3,8
 587 0338 3305D500 		add	a0,a0,a3
 588              	.LVL35:
  74:src/Thread.cpp ****     context.sp = (uint64)stack_top;
 589              		.loc 2 74 23
 590 033c 23B4A402 		sd	a0,40(s1)
  75:src/Thread.cpp **** 
 591              		.loc 2 75 5 is_stmt 1
  75:src/Thread.cpp **** 
 592              		.loc 2 75 16 is_stmt 0
 593 0340 23BCF402 		sd	a5,56(s1)
  78:src/Thread.cpp **** 
 594              		.loc 2 78 5 is_stmt 1
  78:src/Thread.cpp **** 
 595              		.loc 2 78 25 is_stmt 0
 596 0344 03350701 		ld	a0,16(a4)
 597              	.LVL36:
  78:src/Thread.cpp **** 
 598              		.loc 2 78 5
 599 0348 63080506 		beqz	a0,.L24
  80:src/Thread.cpp ****     } else {
GAS LISTING /tmp/ccagHvCd.s 			page 18


 600              		.loc 2 80 9 is_stmt 1
  80:src/Thread.cpp ****     } else {
 601              		.loc 2 80 54 is_stmt 0
 602 034c 97000000 		call	_ZN6Thread10getContextEv
 602      E7800000 
 603              	.LVL37:
  80:src/Thread.cpp ****     } else {
 604              		.loc 2 80 58
 605 0354 83378502 		ld	a5,40(a0)
  80:src/Thread.cpp ****     } else {
 606              		.loc 2 80 25
 607 0358 23B4F404 		sd	a5,72(s1)
 608              	.L25:
  86:src/Thread.cpp ****     context.ssp = (uint64)((char*)context.kernelStack + DEFAULT_STACK_SIZE);
 609              		.loc 2 86 5 is_stmt 1
  86:src/Thread.cpp ****     context.ssp = (uint64)((char*)context.kernelStack + DEFAULT_STACK_SIZE);
 610              		.loc 2 86 25 is_stmt 0
 611 035c 23B82403 		sd	s2,48(s1)
  87:src/Thread.cpp ****     context.startedOnce = 0;
 612              		.loc 2 87 5 is_stmt 1
  87:src/Thread.cpp ****     context.startedOnce = 0;
 613              		.loc 2 87 55 is_stmt 0
 614 0360 B7170000 		li	a5,4096
 615 0364 3309F900 		add	s2,s2,a5
 616              	.LVL38:
  87:src/Thread.cpp ****     context.startedOnce = 0;
 617              		.loc 2 87 17
 618 0368 23B02405 		sd	s2,64(s1)
  88:src/Thread.cpp ****     context.wasActive = 0;
 619              		.loc 2 88 5 is_stmt 1
  88:src/Thread.cpp ****     context.wasActive = 0;
 620              		.loc 2 88 25 is_stmt 0
 621 036c 23BC0404 		sd	zero,88(s1)
  89:src/Thread.cpp ****     context.timeSlice = DEFAULT_TIME_SLICE;
 622              		.loc 2 89 5 is_stmt 1
  89:src/Thread.cpp ****     context.timeSlice = DEFAULT_TIME_SLICE;
 623              		.loc 2 89 23 is_stmt 0
 624 0370 23B00406 		sd	zero,96(s1)
  90:src/Thread.cpp ****     context.ra = (uint64)&threadWrapper;
 625              		.loc 2 90 5 is_stmt 1
  90:src/Thread.cpp ****     context.ra = (uint64)&threadWrapper;
 626              		.loc 2 90 23 is_stmt 0
 627 0374 93072000 		li	a5,2
 628 0378 23B4F406 		sd	a5,104(s1)
  91:src/Thread.cpp ****     wrapperArgs.userArgs = this;
 629              		.loc 2 91 5 is_stmt 1
  91:src/Thread.cpp ****     wrapperArgs.userArgs = this;
 630              		.loc 2 91 16 is_stmt 0
 631 037c 97070000 		lla	a5,_ZN6Thread13threadWrapperEv
 631      93870700 
 632 0384 23B8F404 		sd	a5,80(s1)
  92:src/Thread.cpp ****     wrapperArgs.userFunc = this->body = [](void* obj){
 633              		.loc 2 92 5 is_stmt 1
  92:src/Thread.cpp ****     wrapperArgs.userFunc = this->body = [](void* obj){
 634              		.loc 2 92 26 is_stmt 0
 635 0388 23B09408 		sd	s1,128(s1)
  93:src/Thread.cpp ****         static_cast<Thread*>(obj)->run();
GAS LISTING /tmp/ccagHvCd.s 			page 19


 636              		.loc 2 93 5 is_stmt 1
 637              	.LVL39:
  93:src/Thread.cpp ****         static_cast<Thread*>(obj)->run();
 638              		.loc 2 93 39 is_stmt 0
 639 038c 97070000 		lla	a5,_ZZN6ThreadC4EvENUlPvE_4_FUNES0_
 639      93870700 
 640 0394 23B8F408 		sd	a5,144(s1)
  93:src/Thread.cpp ****         static_cast<Thread*>(obj)->run();
 641              		.loc 2 93 26
 642 0398 23BCF406 		sd	a5,120(s1)
  96:src/Thread.cpp **** 
 643              		.loc 2 96 5 is_stmt 1
  96:src/Thread.cpp **** 
 644              		.loc 2 96 28 is_stmt 0
 645 039c 23B80406 		sd	zero,112(s1)
 646              	.LBE15:
 647              	.LBE14:
  98:src/Thread.cpp **** 
 648              		.loc 2 98 1
 649 03a0 83308101 		ld	ra,24(sp)
 650              		.cfi_remember_state
 651              		.cfi_restore 1
 652 03a4 03340101 		ld	s0,16(sp)
 653              		.cfi_restore 8
 654              		.cfi_def_cfa 2, 32
 655 03a8 83348100 		ld	s1,8(sp)
 656              		.cfi_restore 9
 657              	.LVL40:
 658 03ac 03390100 		ld	s2,0(sp)
 659              		.cfi_restore 18
 660              	.LVL41:
 661 03b0 13010102 		addi	sp,sp,32
 662              		.cfi_def_cfa_offset 0
 663 03b4 67800000 		jr	ra
 664              	.LVL42:
 665              	.L24:
 666              		.cfi_restore_state
 667              	.LBB17:
 668              	.LBB16:
  82:src/Thread.cpp ****         context.sstatus &= ~RiscV::SSTATUS_SPP;
 669              		.loc 2 82 9 is_stmt 1
  83:src/Thread.cpp ****         context.sstatus |= RiscV::SSTATUS_SPIE;
 670              		.loc 2 83 9
  84:src/Thread.cpp ****     }
 671              		.loc 2 84 9
  84:src/Thread.cpp ****     }
 672              		.loc 2 84 25 is_stmt 0
 673 03b8 93070002 		li	a5,32
 674              	.LVL43:
 675 03bc 23B4F404 		sd	a5,72(s1)
 676 03c0 6FF0DFF9 		j	.L25
 677              	.LBE16:
 678              	.LBE17:
 679              		.cfi_endproc
 680              	.LFE15:
 682              		.globl	_ZN6ThreadC1Ev
 683              		.set	_ZN6ThreadC1Ev,_ZN6ThreadC2Ev
GAS LISTING /tmp/ccagHvCd.s 			page 20


 684              		.align	2
 685              		.globl	_ZN6Thread18thread_exit_kernelEv
 687              	_ZN6Thread18thread_exit_kernelEv:
 688              	.LFB25:
 165:src/Thread.cpp ****     Thread* oldRunning = Thread::running;
 689              		.loc 2 165 33 is_stmt 1
 690              		.cfi_startproc
 691 03c4 130101FD 		addi	sp,sp,-48
 692              		.cfi_def_cfa_offset 48
 693 03c8 23341102 		sd	ra,40(sp)
 694 03cc 23308102 		sd	s0,32(sp)
 695 03d0 233C9100 		sd	s1,24(sp)
 696 03d4 23382101 		sd	s2,16(sp)
 697 03d8 23343101 		sd	s3,8(sp)
 698              		.cfi_offset 1, -8
 699              		.cfi_offset 8, -16
 700              		.cfi_offset 9, -24
 701              		.cfi_offset 18, -32
 702              		.cfi_offset 19, -40
 703 03dc 13040103 		addi	s0,sp,48
 704              		.cfi_def_cfa 8, 0
 166:src/Thread.cpp ****     //Take the thread out of ThreadManager array
 705              		.loc 2 166 5
 166:src/Thread.cpp ****     //Take the thread out of ThreadManager array
 706              		.loc 2 166 13 is_stmt 0
 707 03e0 17090000 		lla	s2,.LANCHOR0
 707      13090900 
 708 03e8 83390901 		ld	s3,16(s2)
 709              	.LVL44:
 169:src/Thread.cpp ****     if(Thread::running){
 710              		.loc 2 169 5 is_stmt 1
 169:src/Thread.cpp ****     if(Thread::running){
 711              		.loc 2 169 36 is_stmt 0
 712 03ec 17050000 		la	a0,scheduler
 712      03350500 
 713 03f4 97000000 		call	_ZN9Scheduler3getEv@plt
 713      E7800000 
 714              	.LVL45:
 169:src/Thread.cpp ****     if(Thread::running){
 715              		.loc 2 169 21
 716 03fc 2338A900 		sd	a0,16(s2)
 170:src/Thread.cpp ****         if(Thread::running->getContext()->wasActive == 1){
 717              		.loc 2 170 5 is_stmt 1
 718 0400 63060502 		beqz	a0,.L28
 719 0404 93040500 		mv	s1,a0
 171:src/Thread.cpp ****             RiscV::w_last_sstatus();
 720              		.loc 2 171 9
 171:src/Thread.cpp ****             RiscV::w_last_sstatus();
 721              		.loc 2 171 39 is_stmt 0
 722 0408 97000000 		call	_ZN6Thread10getContextEv
 722      E7800000 
 723              	.LVL46:
 171:src/Thread.cpp ****             RiscV::w_last_sstatus();
 724              		.loc 2 171 43
 725 0410 03370504 		ld	a4,64(a0)
 171:src/Thread.cpp ****             RiscV::w_last_sstatus();
 726              		.loc 2 171 9
GAS LISTING /tmp/ccagHvCd.s 			page 21


 727 0414 93071000 		li	a5,1
 728 0418 630AF702 		beq	a4,a5,.L31
 178:src/Thread.cpp ****         }
 729              		.loc 2 178 13 is_stmt 1
 178:src/Thread.cpp ****         }
 730              		.loc 2 178 27 is_stmt 0
 731 041c 93850402 		addi	a1,s1,32
 732 0420 13850902 		addi	a0,s3,32
 733 0424 97000000 		call	context_switch@plt
 733      E7800000 
 734              	.LVL47:
 735              	.L28:
 181:src/Thread.cpp **** }
 736              		.loc 2 181 5 is_stmt 1
 182:src/Thread.cpp **** void Thread::thread_dispatch_kernel() {
 737              		.loc 2 182 1 is_stmt 0
 738 042c 13050000 		li	a0,0
 739 0430 83308102 		ld	ra,40(sp)
 740              		.cfi_remember_state
 741              		.cfi_restore 1
 742 0434 03340102 		ld	s0,32(sp)
 743              		.cfi_restore 8
 744              		.cfi_def_cfa 2, 48
 745 0438 83348101 		ld	s1,24(sp)
 746              		.cfi_restore 9
 747 043c 03390101 		ld	s2,16(sp)
 748              		.cfi_restore 18
 749 0440 83398100 		ld	s3,8(sp)
 750              		.cfi_restore 19
 751              	.LVL48:
 752 0444 13010103 		addi	sp,sp,48
 753              		.cfi_def_cfa_offset 0
 754 0448 67800000 		jr	ra
 755              	.LVL49:
 756              	.L31:
 757              		.cfi_restore_state
 172:src/Thread.cpp ****             RiscV::w_last_sepc();
 758              		.loc 2 172 13 is_stmt 1
 172:src/Thread.cpp ****             RiscV::w_last_sepc();
 759              		.loc 2 172 34 is_stmt 0
 760 044c 97000000 		call	_ZN5RiscV14w_last_sstatusEv@plt
 760      E7800000 
 761              	.LVL50:
 173:src/Thread.cpp ****             restore_context_kernel_mode(&Thread::running->context);
 762              		.loc 2 173 13 is_stmt 1
 173:src/Thread.cpp ****             restore_context_kernel_mode(&Thread::running->context);
 763              		.loc 2 173 31 is_stmt 0
 764 0454 97000000 		call	_ZN5RiscV11w_last_sepcEv@plt
 764      E7800000 
 765              	.LVL51:
 174:src/Thread.cpp ****         }
 766              		.loc 2 174 13 is_stmt 1
 174:src/Thread.cpp ****         }
 767              		.loc 2 174 40 is_stmt 0
 768 045c 17050000 		ld	a0,.LANCHOR0+16
 768      03350500 
 769 0464 13050502 		addi	a0,a0,32
GAS LISTING /tmp/ccagHvCd.s 			page 22


 770 0468 97000000 		call	restore_context_kernel_mode@plt
 770      E7800000 
 771              	.LVL52:
 772 0470 6FF0DFFB 		j	.L28
 773              		.cfi_endproc
 774              	.LFE25:
 776              		.align	2
 777              		.globl	_ZN6Thread14getWrapperArgsEv
 779              	_ZN6Thread14getWrapperArgsEv:
 780              	.LFB32:
 213:src/Thread.cpp **** 
 214:src/Thread.cpp **** ThreadWrapperArgs* Thread::getWrapperArgs() {
 781              		.loc 2 214 45 is_stmt 1
 782              		.cfi_startproc
 783              	.LVL53:
 784 0474 130101FF 		addi	sp,sp,-16
 785              		.cfi_def_cfa_offset 16
 786 0478 23348100 		sd	s0,8(sp)
 787              		.cfi_offset 8, -8
 788 047c 13040101 		addi	s0,sp,16
 789              		.cfi_def_cfa 8, 0
 215:src/Thread.cpp ****     return &this->wrapperArgs;
 790              		.loc 2 215 5
 216:src/Thread.cpp **** }
 791              		.loc 2 216 1 is_stmt 0
 792 0480 13058507 		addi	a0,a0,120
 793              	.LVL54:
 794 0484 03348100 		ld	s0,8(sp)
 795              		.cfi_restore 8
 796              		.cfi_def_cfa 2, 16
 797 0488 13010101 		addi	sp,sp,16
 798              		.cfi_def_cfa_offset 0
 799 048c 67800000 		jr	ra
 800              		.cfi_endproc
 801              	.LFE32:
 803              		.align	2
 804              		.globl	_ZN6Thread13threadWrapperEv
 806              	_ZN6Thread13threadWrapperEv:
 807              	.LFB6:
  16:src/Thread.cpp **** 
 808              		.loc 2 16 30 is_stmt 1
 809              		.cfi_startproc
 810 0490 130101FF 		addi	sp,sp,-16
 811              		.cfi_def_cfa_offset 16
 812 0494 23341100 		sd	ra,8(sp)
 813 0498 23308100 		sd	s0,0(sp)
 814              		.cfi_offset 1, -8
 815              		.cfi_offset 8, -16
 816 049c 13040101 		addi	s0,sp,16
 817              		.cfi_def_cfa 8, 0
  18:src/Thread.cpp ****     ThreadWrapperArgs* wa = Thread::running->getWrapperArgs();
 818              		.loc 2 18 5
  18:src/Thread.cpp ****     ThreadWrapperArgs* wa = Thread::running->getWrapperArgs();
 819              		.loc 2 18 28 is_stmt 0
 820 04a0 97000000 		call	_ZN5RiscV16switchToUserModeEv@plt
 820      E7800000 
 821              	.LVL55:
GAS LISTING /tmp/ccagHvCd.s 			page 23


  19:src/Thread.cpp ****     wa->userFunc(wa->userArgs);
 822              		.loc 2 19 5 is_stmt 1
  19:src/Thread.cpp ****     wa->userFunc(wa->userArgs);
 823              		.loc 2 19 60 is_stmt 0
 824 04a8 17050000 		ld	a0,.LANCHOR0+16
 824      03350500 
 825 04b0 97000000 		call	_ZN6Thread14getWrapperArgsEv
 825      E7800000 
 826              	.LVL56:
  20:src/Thread.cpp ****     thread_exit();
 827              		.loc 2 20 5 is_stmt 1
  20:src/Thread.cpp ****     thread_exit();
 828              		.loc 2 20 9 is_stmt 0
 829 04b8 83370500 		ld	a5,0(a0)
  20:src/Thread.cpp ****     thread_exit();
 830              		.loc 2 20 17
 831 04bc 03358500 		ld	a0,8(a0)
 832              	.LVL57:
 833 04c0 E7800700 		jalr	a5
 834              	.LVL58:
  21:src/Thread.cpp **** 
 835              		.loc 2 21 5 is_stmt 1
  21:src/Thread.cpp **** 
 836              		.loc 2 21 16 is_stmt 0
 837 04c4 97000000 		call	thread_exit@plt
 837      E7800000 
 838              	.LVL59:
  24:src/Thread.cpp **** void Thread::kernelThreadWrapper() {
 839              		.loc 2 24 1
 840 04cc 83308100 		ld	ra,8(sp)
 841              		.cfi_restore 1
 842 04d0 03340100 		ld	s0,0(sp)
 843              		.cfi_restore 8
 844              		.cfi_def_cfa 2, 16
 845 04d4 13010101 		addi	sp,sp,16
 846              		.cfi_def_cfa_offset 0
 847 04d8 67800000 		jr	ra
 848              		.cfi_endproc
 849              	.LFE6:
 851              		.align	2
 852              		.globl	_ZN6Thread19kernelThreadWrapperEv
 854              	_ZN6Thread19kernelThreadWrapperEv:
 855              	.LFB7:
  25:src/Thread.cpp **** 
 856              		.loc 2 25 36 is_stmt 1
 857              		.cfi_startproc
 858 04dc 130101FF 		addi	sp,sp,-16
 859              		.cfi_def_cfa_offset 16
 860 04e0 23341100 		sd	ra,8(sp)
 861 04e4 23308100 		sd	s0,0(sp)
 862              		.cfi_offset 1, -8
 863              		.cfi_offset 8, -16
 864 04e8 13040101 		addi	s0,sp,16
 865              		.cfi_def_cfa 8, 0
  27:src/Thread.cpp **** 
 866              		.loc 2 27 5
  27:src/Thread.cpp **** 
GAS LISTING /tmp/ccagHvCd.s 			page 24


 867              		.loc 2 27 60 is_stmt 0
 868 04ec 17050000 		ld	a0,.LANCHOR0+16
 868      03350500 
 869 04f4 97000000 		call	_ZN6Thread14getWrapperArgsEv
 869      E7800000 
 870              	.LVL60:
  30:src/Thread.cpp **** 
 871              		.loc 2 30 5 is_stmt 1
  30:src/Thread.cpp **** 
 872              		.loc 2 30 9 is_stmt 0
 873 04fc 83370500 		ld	a5,0(a0)
  30:src/Thread.cpp **** 
 874              		.loc 2 30 17
 875 0500 03358500 		ld	a0,8(a0)
 876              	.LVL61:
 877 0504 E7800700 		jalr	a5
 878              	.LVL62:
  33:src/Thread.cpp **** 
 879              		.loc 2 33 5 is_stmt 1
  33:src/Thread.cpp **** 
 880              		.loc 2 33 23 is_stmt 0
 881 0508 97000000 		call	_ZN6Thread18thread_exit_kernelEv
 881      E7800000 
 882              	.LVL63:
  35:src/Thread.cpp **** 
 883              		.loc 2 35 1
 884 0510 83308100 		ld	ra,8(sp)
 885              		.cfi_restore 1
 886 0514 03340100 		ld	s0,0(sp)
 887              		.cfi_restore 8
 888              		.cfi_def_cfa 2, 16
 889 0518 13010101 		addi	sp,sp,16
 890              		.cfi_def_cfa_offset 0
 891 051c 67800000 		jr	ra
 892              		.cfi_endproc
 893              	.LFE7:
 895              		.align	2
 896              		.globl	_ZN6Thread22thread_dispatch_kernelEv
 898              	_ZN6Thread22thread_dispatch_kernelEv:
 899              	.LFB26:
 183:src/Thread.cpp ****     Thread* oldRunning = Thread::running;
 900              		.loc 2 183 39 is_stmt 1
 901              		.cfi_startproc
 902 0520 130101FE 		addi	sp,sp,-32
 903              		.cfi_def_cfa_offset 32
 904 0524 233C1100 		sd	ra,24(sp)
 905 0528 23388100 		sd	s0,16(sp)
 906 052c 23349100 		sd	s1,8(sp)
 907 0530 23302101 		sd	s2,0(sp)
 908              		.cfi_offset 1, -8
 909              		.cfi_offset 8, -16
 910              		.cfi_offset 9, -24
 911              		.cfi_offset 18, -32
 912 0534 13040102 		addi	s0,sp,32
 913              		.cfi_def_cfa 8, 0
 184:src/Thread.cpp ****     if(oldRunning)
 914              		.loc 2 184 5
GAS LISTING /tmp/ccagHvCd.s 			page 25


 184:src/Thread.cpp ****     if(oldRunning)
 915              		.loc 2 184 13 is_stmt 0
 916 0538 17090000 		ld	s2,.LANCHOR0+16
 916      03390900 
 917              	.LVL64:
 185:src/Thread.cpp ****     {
 918              		.loc 2 185 5 is_stmt 1
 919 0540 630C0900 		beqz	s2,.L39
 187:src/Thread.cpp ****     }
 920              		.loc 2 187 9
 187:src/Thread.cpp ****     }
 921              		.loc 2 187 22 is_stmt 0
 922 0544 93050900 		mv	a1,s2
 923 0548 17050000 		la	a0,scheduler
 923      03350500 
 924 0550 97000000 		call	_ZN9Scheduler3putEP6Thread@plt
 924      E7800000 
 925              	.LVL65:
 926              	.L39:
 191:src/Thread.cpp ****     if(Thread::running->getContext()->isKernelThread){
 927              		.loc 2 191 5 is_stmt 1
 191:src/Thread.cpp ****     if(Thread::running->getContext()->isKernelThread){
 928              		.loc 2 191 36 is_stmt 0
 929 0558 17050000 		la	a0,scheduler
 929      03350500 
 930 0560 97000000 		call	_ZN9Scheduler3getEv@plt
 930      E7800000 
 931              	.LVL66:
 932 0568 93040500 		mv	s1,a0
 191:src/Thread.cpp ****     if(Thread::running->getContext()->isKernelThread){
 933              		.loc 2 191 21
 934 056c 97070000 		sd	a0,.LANCHOR0+16,a5
 934      23B0A700 
 192:src/Thread.cpp ****         ThreadWrapperArgs *wa = Thread::running->getWrapperArgs();
 935              		.loc 2 192 5 is_stmt 1
 936              	.LBB18:
 192:src/Thread.cpp ****         ThreadWrapperArgs *wa = Thread::running->getWrapperArgs();
 937              		.loc 2 192 35 is_stmt 0
 938 0574 97000000 		call	_ZN6Thread10getContextEv
 938      E7800000 
 939              	.LVL67:
 192:src/Thread.cpp ****         ThreadWrapperArgs *wa = Thread::running->getWrapperArgs();
 940              		.loc 2 192 39
 941 057c 83370505 		ld	a5,80(a0)
 192:src/Thread.cpp ****         ThreadWrapperArgs *wa = Thread::running->getWrapperArgs();
 942              		.loc 2 192 5
 943 0580 638E0700 		beqz	a5,.L40
 944              	.LBB19:
 193:src/Thread.cpp ****         wa->userFunc(wa->userArgs);
 945              		.loc 2 193 9 is_stmt 1
 193:src/Thread.cpp ****         wa->userFunc(wa->userArgs);
 946              		.loc 2 193 64 is_stmt 0
 947 0584 13850400 		mv	a0,s1
 948 0588 97000000 		call	_ZN6Thread14getWrapperArgsEv
 948      E7800000 
 949              	.LVL68:
 194:src/Thread.cpp ****     }
GAS LISTING /tmp/ccagHvCd.s 			page 26


 950              		.loc 2 194 9 is_stmt 1
 194:src/Thread.cpp ****     }
 951              		.loc 2 194 13 is_stmt 0
 952 0590 83370500 		ld	a5,0(a0)
 194:src/Thread.cpp ****     }
 953              		.loc 2 194 21
 954 0594 03358500 		ld	a0,8(a0)
 955              	.LVL69:
 956 0598 E7800700 		jalr	a5
 957              	.LVL70:
 958              	.L40:
 959              	.LBE19:
 960              	.LBE18:
 196:src/Thread.cpp ****         RiscV::w_last_sstatus();
 961              		.loc 2 196 5 is_stmt 1
 196:src/Thread.cpp ****         RiscV::w_last_sstatus();
 962              		.loc 2 196 35 is_stmt 0
 963 059c 97040000 		ld	s1,.LANCHOR0+16
 963      83B40400 
 964 05a4 13850400 		mv	a0,s1
 965 05a8 97000000 		call	_ZN6Thread10getContextEv
 965      E7800000 
 966              	.LVL71:
 196:src/Thread.cpp ****         RiscV::w_last_sstatus();
 967              		.loc 2 196 39
 968 05b0 03370504 		ld	a4,64(a0)
 196:src/Thread.cpp ****         RiscV::w_last_sstatus();
 969              		.loc 2 196 5
 970 05b4 93071000 		li	a5,1
 971 05b8 630AF702 		beq	a4,a5,.L44
 202:src/Thread.cpp ****         context_switch(&oldRunning->context, &Thread::running->context);
 972              		.loc 2 202 9 is_stmt 1
 202:src/Thread.cpp ****         context_switch(&oldRunning->context, &Thread::running->context);
 973              		.loc 2 202 50 is_stmt 0
 974 05bc 93071000 		li	a5,1
 975 05c0 2330F504 		sd	a5,64(a0)
 203:src/Thread.cpp ****     }
 976              		.loc 2 203 9 is_stmt 1
 203:src/Thread.cpp ****     }
 977              		.loc 2 203 23 is_stmt 0
 978 05c4 93850402 		addi	a1,s1,32
 979 05c8 13050902 		addi	a0,s2,32
 980 05cc 97000000 		call	context_switch@plt
 980      E7800000 
 981              	.LVL72:
 982              	.L38:
 206:src/Thread.cpp **** 
 983              		.loc 2 206 1
 984 05d4 83308101 		ld	ra,24(sp)
 985              		.cfi_remember_state
 986              		.cfi_restore 1
 987 05d8 03340101 		ld	s0,16(sp)
 988              		.cfi_restore 8
 989              		.cfi_def_cfa 2, 32
 990 05dc 83348100 		ld	s1,8(sp)
 991              		.cfi_restore 9
 992 05e0 03390100 		ld	s2,0(sp)
GAS LISTING /tmp/ccagHvCd.s 			page 27


 993              		.cfi_restore 18
 994              	.LVL73:
 995 05e4 13010102 		addi	sp,sp,32
 996              		.cfi_def_cfa_offset 0
 997 05e8 67800000 		jr	ra
 998              	.LVL74:
 999              	.L44:
 1000              		.cfi_restore_state
 197:src/Thread.cpp ****         RiscV::w_last_sepc();
 1001              		.loc 2 197 9 is_stmt 1
 197:src/Thread.cpp ****         RiscV::w_last_sepc();
 1002              		.loc 2 197 30 is_stmt 0
 1003 05ec 97000000 		call	_ZN5RiscV14w_last_sstatusEv@plt
 1003      E7800000 
 1004              	.LVL75:
 198:src/Thread.cpp ****         restore_context_kernel_mode(&Thread::running->context);
 1005              		.loc 2 198 9 is_stmt 1
 198:src/Thread.cpp ****         restore_context_kernel_mode(&Thread::running->context);
 1006              		.loc 2 198 27 is_stmt 0
 1007 05f4 97000000 		call	_ZN5RiscV11w_last_sepcEv@plt
 1007      E7800000 
 1008              	.LVL76:
 199:src/Thread.cpp ****     }
 1009              		.loc 2 199 9 is_stmt 1
 199:src/Thread.cpp ****     }
 1010              		.loc 2 199 36 is_stmt 0
 1011 05fc 17050000 		ld	a0,.LANCHOR0+16
 1011      03350500 
 1012 0604 13050502 		addi	a0,a0,32
 1013 0608 97000000 		call	restore_context_kernel_mode@plt
 1013      E7800000 
 1014              	.LVL77:
 1015 0610 6FF05FFC 		j	.L38
 1016              		.cfi_endproc
 1017              	.LFE26:
 1019              		.align	2
 1020              		.globl	_ZN6ThreadnwEm
 1022              	_ZN6ThreadnwEm:
 1023              	.LFB33:
 217:src/Thread.cpp **** void* Thread::operator new(size_t size){
 1024              		.loc 2 217 40 is_stmt 1
 1025              		.cfi_startproc
 1026              	.LVL78:
 1027 0614 130101FF 		addi	sp,sp,-16
 1028              		.cfi_def_cfa_offset 16
 1029 0618 23341100 		sd	ra,8(sp)
 1030 061c 23308100 		sd	s0,0(sp)
 1031              		.cfi_offset 1, -8
 1032              		.cfi_offset 8, -16
 1033 0620 13040101 		addi	s0,sp,16
 1034              		.cfi_def_cfa 8, 0
 218:src/Thread.cpp **** 
 219:src/Thread.cpp ****     void* mem = (void*)MemoryAllocator::Instance()->getThreadPool().allocate();
 1035              		.loc 2 219 5
 1036              		.loc 2 219 67 is_stmt 0
 1037 0624 97000000 		call	_ZN15MemoryAllocator8InstanceEv@plt
 1037      E7800000 
GAS LISTING /tmp/ccagHvCd.s 			page 28


 1038              	.LVL79:
 1039 062c 97000000 		call	_ZN15MemoryAllocator13getThreadPoolEv@plt
 1039      E7800000 
 1040              	.LVL80:
 1041              		.loc 2 219 77
 1042 0634 97000000 		call	_ZN10ThreadPool8allocateEv@plt
 1042      E7800000 
 1043              	.LVL81:
 220:src/Thread.cpp ****     return mem;
 1044              		.loc 2 220 5 is_stmt 1
 221:src/Thread.cpp **** }
 1045              		.loc 2 221 1 is_stmt 0
 1046 063c 83308100 		ld	ra,8(sp)
 1047              		.cfi_restore 1
 1048 0640 03340100 		ld	s0,0(sp)
 1049              		.cfi_restore 8
 1050              		.cfi_def_cfa 2, 16
 1051 0644 13010101 		addi	sp,sp,16
 1052              		.cfi_def_cfa_offset 0
 1053 0648 67800000 		jr	ra
 1054              		.cfi_endproc
 1055              	.LFE33:
 1057              		.align	2
 1058              		.globl	_ZN6Thread20create_thread_kernelEPjPFvPvES1_S1_
 1060              	_ZN6Thread20create_thread_kernelEPjPFvPvES1_S1_:
 1061              	.LFB20:
 136:src/Thread.cpp ****     if(!handle || !routine || !stack_top)return -1;
 1062              		.loc 2 136 104 is_stmt 1
 1063              		.cfi_startproc
 1064              	.LVL82:
 137:src/Thread.cpp ****     Thread* thread = new Thread(routine, args, stack_top);
 1065              		.loc 2 137 5
 1066 064c 6304050C 		beqz	a0,.L50
 136:src/Thread.cpp ****     if(!handle || !routine || !stack_top)return -1;
 1067              		.loc 2 136 104 is_stmt 0 discriminator 2
 1068 0650 130101FC 		addi	sp,sp,-64
 1069              		.cfi_def_cfa_offset 64
 1070 0654 233C1102 		sd	ra,56(sp)
 1071 0658 23388102 		sd	s0,48(sp)
 1072 065c 23349102 		sd	s1,40(sp)
 1073 0660 23302103 		sd	s2,32(sp)
 1074 0664 233C3101 		sd	s3,24(sp)
 1075 0668 23384101 		sd	s4,16(sp)
 1076 066c 23345101 		sd	s5,8(sp)
 1077              		.cfi_offset 1, -8
 1078              		.cfi_offset 8, -16
 1079              		.cfi_offset 9, -24
 1080              		.cfi_offset 18, -32
 1081              		.cfi_offset 19, -40
 1082              		.cfi_offset 20, -48
 1083              		.cfi_offset 21, -56
 1084 0670 13040104 		addi	s0,sp,64
 1085              		.cfi_def_cfa 8, 0
 1086 0674 13090500 		mv	s2,a0
 1087 0678 93890500 		mv	s3,a1
 1088 067c 930A0600 		mv	s5,a2
 1089 0680 138A0600 		mv	s4,a3
GAS LISTING /tmp/ccagHvCd.s 			page 29


 137:src/Thread.cpp ****     Thread* thread = new Thread(routine, args, stack_top);
 1090              		.loc 2 137 16 discriminator 2
 1091 0684 638C0508 		beqz	a1,.L51
 137:src/Thread.cpp ****     Thread* thread = new Thread(routine, args, stack_top);
 1092              		.loc 2 137 28 discriminator 4
 1093 0688 638E0608 		beqz	a3,.L52
 138:src/Thread.cpp ****     if(!thread) return -2;
 1094              		.loc 2 138 5 is_stmt 1
 138:src/Thread.cpp ****     if(!thread) return -2;
 1095              		.loc 2 138 57 is_stmt 0
 1096 068c 1305000A 		li	a0,160
 1097              	.LVL83:
 1098 0690 97000000 		call	_ZN6ThreadnwEm
 1098      E7800000 
 1099              	.LVL84:
 1100 0698 93040500 		mv	s1,a0
 1101 069c 93060A00 		mv	a3,s4
 1102 06a0 13860A00 		mv	a2,s5
 1103 06a4 93850900 		mv	a1,s3
 1104 06a8 97000000 		call	_ZN6ThreadC1EPFvPvES0_S0_
 1104      E7800000 
 1105              	.LVL85:
 139:src/Thread.cpp ****     *handle =  thread->threadId;
 1106              		.loc 2 139 5 is_stmt 1
 1107 06b0 638E0406 		beqz	s1,.L53
 140:src/Thread.cpp ****     if(!Thread::running){
 1108              		.loc 2 140 5
 140:src/Thread.cpp ****     if(!Thread::running){
 1109              		.loc 2 140 24 is_stmt 0
 1110 06b4 83A78401 		lw	a5,24(s1)
 140:src/Thread.cpp ****     if(!Thread::running){
 1111              		.loc 2 140 13
 1112 06b8 2320F900 		sw	a5,0(s2)
 141:src/Thread.cpp ****         Thread::running = thread;
 1113              		.loc 2 141 5 is_stmt 1
 141:src/Thread.cpp ****         Thread::running = thread;
 1114              		.loc 2 141 8 is_stmt 0
 1115 06bc 97070000 		ld	a5,.LANCHOR0+16
 1115      83B70700 
 141:src/Thread.cpp ****         Thread::running = thread;
 1116              		.loc 2 141 5
 1117 06c4 63800704 		beqz	a5,.L58
 145:src/Thread.cpp **** 
 1118              		.loc 2 145 5 is_stmt 1
 145:src/Thread.cpp **** 
 1119              		.loc 2 145 18 is_stmt 0
 1120 06c8 93850400 		mv	a1,s1
 1121 06cc 17050000 		la	a0,scheduler
 1121      03350500 
 1122 06d4 97000000 		call	_ZN9Scheduler3putEP6Thread@plt
 1122      E7800000 
 1123              	.LVL86:
 148:src/Thread.cpp **** }
 1124              		.loc 2 148 5 is_stmt 1
 148:src/Thread.cpp **** }
 1125              		.loc 2 148 12 is_stmt 0
 1126 06dc 13050000 		li	a0,0
GAS LISTING /tmp/ccagHvCd.s 			page 30


 1127              	.LVL87:
 1128              	.L48:
 149:src/Thread.cpp **** 
 1129              		.loc 2 149 1
 1130 06e0 83308103 		ld	ra,56(sp)
 1131              		.cfi_remember_state
 1132              		.cfi_restore 1
 1133 06e4 03340103 		ld	s0,48(sp)
 1134              		.cfi_restore 8
 1135              		.cfi_def_cfa 2, 64
 1136 06e8 83348102 		ld	s1,40(sp)
 1137              		.cfi_restore 9
 1138 06ec 03390102 		ld	s2,32(sp)
 1139              		.cfi_restore 18
 1140              	.LVL88:
 1141 06f0 83398101 		ld	s3,24(sp)
 1142              		.cfi_restore 19
 1143              	.LVL89:
 1144 06f4 033A0101 		ld	s4,16(sp)
 1145              		.cfi_restore 20
 1146              	.LVL90:
 1147 06f8 833A8100 		ld	s5,8(sp)
 1148              		.cfi_restore 21
 1149              	.LVL91:
 1150 06fc 13010104 		addi	sp,sp,64
 1151              		.cfi_def_cfa_offset 0
 1152 0700 67800000 		jr	ra
 1153              	.LVL92:
 1154              	.L58:
 1155              		.cfi_restore_state
 142:src/Thread.cpp ****         return 0;
 1156              		.loc 2 142 9 is_stmt 1
 142:src/Thread.cpp ****         return 0;
 1157              		.loc 2 142 25 is_stmt 0
 1158 0704 97070000 		sd	s1,.LANCHOR0+16,a5
 1158      23B09700 
 143:src/Thread.cpp ****     }
 1159              		.loc 2 143 9 is_stmt 1
 143:src/Thread.cpp ****     }
 1160              		.loc 2 143 16 is_stmt 0
 1161 070c 13050000 		li	a0,0
 1162 0710 6FF01FFD 		j	.L48
 1163              	.LVL93:
 1164              	.L50:
 1165              		.cfi_def_cfa_register 2
 1166              		.cfi_restore 1
 1167              		.cfi_restore 8
 1168              		.cfi_restore 9
 1169              		.cfi_restore 18
 1170              		.cfi_restore 19
 1171              		.cfi_restore 20
 1172              		.cfi_restore 21
 137:src/Thread.cpp ****     Thread* thread = new Thread(routine, args, stack_top);
 1173              		.loc 2 137 50
 1174 0714 1305F0FF 		li	a0,-1
 1175              	.LVL94:
 149:src/Thread.cpp **** 
GAS LISTING /tmp/ccagHvCd.s 			page 31


 1176              		.loc 2 149 1
 1177 0718 67800000 		ret
 1178              	.LVL95:
 1179              	.L51:
 1180              		.cfi_def_cfa_register 8
 1181              		.cfi_offset 1, -8
 1182              		.cfi_offset 8, -16
 1183              		.cfi_offset 9, -24
 1184              		.cfi_offset 18, -32
 1185              		.cfi_offset 19, -40
 1186              		.cfi_offset 20, -48
 1187              		.cfi_offset 21, -56
 137:src/Thread.cpp ****     Thread* thread = new Thread(routine, args, stack_top);
 1188              		.loc 2 137 50
 1189 071c 1305F0FF 		li	a0,-1
 1190              	.LVL96:
 1191 0720 6FF01FFC 		j	.L48
 1192              	.LVL97:
 1193              	.L52:
 1194 0724 1305F0FF 		li	a0,-1
 1195              	.LVL98:
 1196 0728 6FF09FFB 		j	.L48
 1197              	.LVL99:
 1198              	.L53:
 139:src/Thread.cpp ****     *handle =  thread->threadId;
 1199              		.loc 2 139 25
 1200 072c 1305E0FF 		li	a0,-2
 1201 0730 6FF01FFB 		j	.L48
 1202              		.cfi_endproc
 1203              	.LFE20:
 1205              		.align	2
 1206              		.globl	_ZN6ThreaddlEPv
 1208              	_ZN6ThreaddlEPv:
 1209              	.LFB34:
 222:src/Thread.cpp **** void Thread::operator delete(void* mem )noexcept{
 1210              		.loc 2 222 49 is_stmt 1
 1211              		.cfi_startproc
 1212              		.cfi_personality 0x9b,DW.ref.__gxx_personality_v0
 1213              		.cfi_lsda 0x1b,.LLSDA34
 1214              	.LVL100:
 1215 0734 130101FE 		addi	sp,sp,-32
 1216              		.cfi_def_cfa_offset 32
 1217 0738 233C1100 		sd	ra,24(sp)
 1218 073c 23388100 		sd	s0,16(sp)
 1219 0740 23349100 		sd	s1,8(sp)
 1220              		.cfi_offset 1, -8
 1221              		.cfi_offset 8, -16
 1222              		.cfi_offset 9, -24
 1223 0744 13040102 		addi	s0,sp,32
 1224              		.cfi_def_cfa 8, 0
 1225 0748 93040500 		mv	s1,a0
 223:src/Thread.cpp **** MemoryAllocator::Instance()->getThreadPool().deallocate((Thread*) mem);
 1226              		.loc 2 223 1
 1227              		.loc 2 223 44 is_stmt 0
 1228 074c 97000000 		call	_ZN15MemoryAllocator8InstanceEv@plt
 1228      E7800000 
 1229              	.LVL101:
GAS LISTING /tmp/ccagHvCd.s 			page 32


 1230 0754 97000000 		call	_ZN15MemoryAllocator13getThreadPoolEv@plt
 1230      E7800000 
 1231              	.LVL102:
 1232              		.loc 2 223 56
 1233 075c 93850400 		mv	a1,s1
 1234 0760 97000000 		call	_ZN10ThreadPool10deallocateEP6Thread@plt
 1234      E7800000 
 1235              	.LVL103:
 224:src/Thread.cpp **** }
 1236              		.loc 2 224 1
 1237 0768 83308101 		ld	ra,24(sp)
 1238              		.cfi_restore 1
 1239 076c 03340101 		ld	s0,16(sp)
 1240              		.cfi_restore 8
 1241              		.cfi_def_cfa 2, 32
 1242 0770 83348100 		ld	s1,8(sp)
 1243              		.cfi_restore 9
 1244              	.LVL104:
 1245 0774 13010102 		addi	sp,sp,32
 1246              		.cfi_def_cfa_offset 0
 1247 0778 67800000 		jr	ra
 1248              		.cfi_endproc
 1249              	.LFE34:
 1250              		.globl	__gxx_personality_v0
 1251              		.section	.gcc_except_table,"a",@progbits
 1252              	.LLSDA34:
 1253 0000 FF       		.byte	0xff
 1254 0001 FF       		.byte	0xff
 1255 0002 03       		.byte	0x3
 1256 0003 00       		.byte	0
 1257              		.text
 1259              		.align	2
 1260              		.globl	_ZN6ThreadD0Ev
 1262              	_ZN6ThreadD0Ev:
 1263              	.LFB30:
 208:src/Thread.cpp **** 
 1264              		.loc 2 208 1 is_stmt 1
 1265              		.cfi_startproc
 1266              	.LVL105:
 1267 077c 130101FF 		addi	sp,sp,-16
 1268              		.cfi_def_cfa_offset 16
 1269 0780 23341100 		sd	ra,8(sp)
 1270 0784 23308100 		sd	s0,0(sp)
 1271              		.cfi_offset 1, -8
 1272              		.cfi_offset 8, -16
 1273 0788 13040101 		addi	s0,sp,16
 1274              		.cfi_def_cfa 8, 0
 208:src/Thread.cpp **** 
 1275              		.loc 2 208 19 is_stmt 0
 1276 078c 97000000 		call	_ZN6ThreaddlEPv
 1276      E7800000 
 1277              	.LVL106:
 1278 0794 83308100 		ld	ra,8(sp)
 1279              		.cfi_restore 1
 1280 0798 03340100 		ld	s0,0(sp)
 1281              		.cfi_restore 8
 1282              		.cfi_def_cfa 2, 16
GAS LISTING /tmp/ccagHvCd.s 			page 33


 1283 079c 13010101 		addi	sp,sp,16
 1284              		.cfi_def_cfa_offset 0
 1285 07a0 67800000 		jr	ra
 1286              		.cfi_endproc
 1287              	.LFE30:
 1289              		.align	2
 1290              		.globl	_ZN6Thread8dispatchEv
 1292              	_ZN6Thread8dispatchEv:
 1293              	.LFB35:
 225:src/Thread.cpp **** 
 226:src/Thread.cpp **** void Thread::dispatch(){
 1294              		.loc 2 226 24 is_stmt 1
 1295              		.cfi_startproc
 1296 07a4 130101FF 		addi	sp,sp,-16
 1297              		.cfi_def_cfa_offset 16
 1298 07a8 23341100 		sd	ra,8(sp)
 1299 07ac 23308100 		sd	s0,0(sp)
 1300              		.cfi_offset 1, -8
 1301              		.cfi_offset 8, -16
 1302 07b0 13040101 		addi	s0,sp,16
 1303              		.cfi_def_cfa 8, 0
 227:src/Thread.cpp ****     thread_dispatch();
 1304              		.loc 2 227 5
 1305              		.loc 2 227 20 is_stmt 0
 1306 07b4 97000000 		call	thread_dispatch@plt
 1306      E7800000 
 1307              	.LVL107:
 228:src/Thread.cpp **** }
 1308              		.loc 2 228 1
 1309 07bc 83308100 		ld	ra,8(sp)
 1310              		.cfi_restore 1
 1311 07c0 03340100 		ld	s0,0(sp)
 1312              		.cfi_restore 8
 1313              		.cfi_def_cfa 2, 16
 1314 07c4 13010101 		addi	sp,sp,16
 1315              		.cfi_def_cfa_offset 0
 1316 07c8 67800000 		jr	ra
 1317              		.cfi_endproc
 1318              	.LFE35:
 1320              		.align	2
 1321              		.globl	_ZN6Thread5startEv
 1323              	_ZN6Thread5startEv:
 1324              	.LFB36:
 229:src/Thread.cpp **** 
 230:src/Thread.cpp **** int Thread::start() {
 1325              		.loc 2 230 21 is_stmt 1
 1326              		.cfi_startproc
 1327              	.LVL108:
 1328 07cc 130101FF 		addi	sp,sp,-16
 1329              		.cfi_def_cfa_offset 16
 1330 07d0 23341100 		sd	ra,8(sp)
 1331 07d4 23308100 		sd	s0,0(sp)
 1332              		.cfi_offset 1, -8
 1333              		.cfi_offset 8, -16
 1334 07d8 13040101 		addi	s0,sp,16
 1335              		.cfi_def_cfa 8, 0
 1336 07dc 93050500 		mv	a1,a0
GAS LISTING /tmp/ccagHvCd.s 			page 34


 231:src/Thread.cpp ****     scheduler.put(this);
 1337              		.loc 2 231 5
 1338              		.loc 2 231 18 is_stmt 0
 1339 07e0 17050000 		la	a0,scheduler
 1339      03350500 
 1340              	.LVL109:
 1341 07e8 97000000 		call	_ZN9Scheduler3putEP6Thread@plt
 1341      E7800000 
 1342              	.LVL110:
 232:src/Thread.cpp **** 
 233:src/Thread.cpp ****     if(Thread::running == nullptr) {
 1343              		.loc 2 233 5 is_stmt 1
 1344              		.loc 2 233 24 is_stmt 0
 1345 07f0 97070000 		ld	a5,.LANCHOR0+16
 1345      83B70700 
 1346              		.loc 2 233 5
 1347 07f8 638C0700 		beqz	a5,.L70
 234:src/Thread.cpp ****         Thread::running = scheduler.get();
 235:src/Thread.cpp ****         if(Thread::running == nullptr) return -1;
 236:src/Thread.cpp **** 
 237:src/Thread.cpp ****     }
 238:src/Thread.cpp ****     return 0;
 1348              		.loc 2 238 12
 1349 07fc 13050000 		li	a0,0
 1350              	.L66:
 239:src/Thread.cpp **** }
 1351              		.loc 2 239 1
 1352 0800 83308100 		ld	ra,8(sp)
 1353              		.cfi_remember_state
 1354              		.cfi_restore 1
 1355 0804 03340100 		ld	s0,0(sp)
 1356              		.cfi_restore 8
 1357              		.cfi_def_cfa 2, 16
 1358 0808 13010101 		addi	sp,sp,16
 1359              		.cfi_def_cfa_offset 0
 1360 080c 67800000 		jr	ra
 1361              	.L70:
 1362              		.cfi_restore_state
 234:src/Thread.cpp ****         Thread::running = scheduler.get();
 1363              		.loc 2 234 9 is_stmt 1
 234:src/Thread.cpp ****         Thread::running = scheduler.get();
 1364              		.loc 2 234 40 is_stmt 0
 1365 0810 17050000 		la	a0,scheduler
 1365      03350500 
 1366 0818 97000000 		call	_ZN9Scheduler3getEv@plt
 1366      E7800000 
 1367              	.LVL111:
 234:src/Thread.cpp ****         Thread::running = scheduler.get();
 1368              		.loc 2 234 25
 1369 0820 97070000 		sd	a0,.LANCHOR0+16,a5
 1369      23B0A700 
 235:src/Thread.cpp **** 
 1370              		.loc 2 235 9 is_stmt 1
 1371 0828 63060500 		beqz	a0,.L68
 238:src/Thread.cpp **** }
 1372              		.loc 2 238 12 is_stmt 0
 1373 082c 13050000 		li	a0,0
GAS LISTING /tmp/ccagHvCd.s 			page 35


 1374 0830 6FF01FFD 		j	.L66
 1375              	.L68:
 235:src/Thread.cpp **** 
 1376              		.loc 2 235 48
 1377 0834 1305F0FF 		li	a0,-1
 1378 0838 6FF09FFC 		j	.L66
 1379              		.cfi_endproc
 1380              	.LFE36:
 1382              		.align	2
 1383              		.globl	getRunningThreadContext
 1385              	getRunningThreadContext:
 1386              	.LFB37:
 240:src/Thread.cpp **** extern "C" ThreadContext* getRunningThreadContext(){
 1387              		.loc 2 240 52 is_stmt 1
 1388              		.cfi_startproc
 241:src/Thread.cpp ****     if(Thread::running == nullptr){
 1389              		.loc 2 241 5
 1390              		.loc 2 241 24 is_stmt 0
 1391 083c 17050000 		ld	a0,.LANCHOR0+16
 1391      03350500 
 1392              		.loc 2 241 5
 1393 0844 63060502 		beqz	a0,.L74
 240:src/Thread.cpp **** extern "C" ThreadContext* getRunningThreadContext(){
 1394              		.loc 2 240 52
 1395 0848 130101FF 		addi	sp,sp,-16
 1396              		.cfi_def_cfa_offset 16
 1397 084c 23341100 		sd	ra,8(sp)
 1398 0850 23308100 		sd	s0,0(sp)
 1399              		.cfi_offset 1, -8
 1400              		.cfi_offset 8, -16
 1401 0854 13040101 		addi	s0,sp,16
 1402              		.cfi_def_cfa 8, 0
 242:src/Thread.cpp ****         return nullptr;
 243:src/Thread.cpp ****     }
 244:src/Thread.cpp ****     return Thread::running->getContext();
 1403              		.loc 2 244 5 is_stmt 1
 1404              		.loc 2 244 39 is_stmt 0
 1405 0858 97000000 		call	_ZN6Thread10getContextEv
 1405      E7800000 
 1406              	.LVL112:
 245:src/Thread.cpp **** };
 1407              		.loc 2 245 1
 1408 0860 83308100 		ld	ra,8(sp)
 1409              		.cfi_restore 1
 1410 0864 03340100 		ld	s0,0(sp)
 1411              		.cfi_restore 8
 1412              		.cfi_def_cfa 2, 16
 1413 0868 13010101 		addi	sp,sp,16
 1414              		.cfi_def_cfa_offset 0
 1415 086c 67800000 		jr	ra
 1416              	.L74:
 1417 0870 67800000 		ret
 1418              		.cfi_endproc
 1419              	.LFE37:
 1421              		.align	2
 1422              		.globl	getWaitStatusForRunning
 1424              	getWaitStatusForRunning:
GAS LISTING /tmp/ccagHvCd.s 			page 36


 1425              	.LFB38:
 246:src/Thread.cpp **** 
 247:src/Thread.cpp **** extern "C" int getWaitStatusForRunning(){
 1426              		.loc 2 247 41 is_stmt 1
 1427              		.cfi_startproc
 1428 0874 130101FF 		addi	sp,sp,-16
 1429              		.cfi_def_cfa_offset 16
 1430 0878 23348100 		sd	s0,8(sp)
 1431              		.cfi_offset 8, -8
 1432 087c 13040101 		addi	s0,sp,16
 1433              		.cfi_def_cfa 8, 0
 248:src/Thread.cpp ****     return Thread::running->semWaitStatus;
 1434              		.loc 2 248 5
 249:src/Thread.cpp **** }
 1435              		.loc 2 249 1 is_stmt 0
 1436 0880 97070000 		ld	a5,.LANCHOR0+16
 1436      83B70700 
 1437 0888 03A58700 		lw	a0,8(a5)
 1438 088c 03348100 		ld	s0,8(sp)
 1439              		.cfi_restore 8
 1440              		.cfi_def_cfa 2, 16
 1441 0890 13010101 		addi	sp,sp,16
 1442              		.cfi_def_cfa_offset 0
 1443 0894 67800000 		jr	ra
 1444              		.cfi_endproc
 1445              	.LFE38:
 1447              		.weak	_ZTV6Thread
 1448              		.section	.data.rel.ro.local._ZTV6Thread,"awG",@progbits,_ZTV6Thread,comdat
 1449              		.align	3
 1452              	_ZTV6Thread:
 1453 0000 00000000 		.dword	0
 1453      00000000 
 1454 0008 00000000 		.dword	0
 1454      00000000 
 1455 0010 00000000 		.dword	_ZN6ThreadD1Ev
 1455      00000000 
 1456 0018 00000000 		.dword	_ZN6ThreadD0Ev
 1456      00000000 
 1457 0020 00000000 		.dword	_ZN6Thread3runEv
 1457      00000000 
 1458              		.globl	_ZN6Thread16timeSliceCounterE
 1459              		.globl	_ZN6Thread7runningE
 1460              		.globl	_ZN6Thread3cntE
 1461              		.bss
 1462              		.align	3
 1463              		.set	.LANCHOR0,. + 0
 1466              	_ZN6Thread3cntE:
 1467 0000 00000000 		.zero	4
 1468 0004 00000000 		.zero	4
 1471              	_ZN6Thread16timeSliceCounterE:
 1472 0008 00000000 		.zero	8
 1472      00000000 
 1475              	_ZN6Thread7runningE:
 1476 0010 00000000 		.zero	8
 1476      00000000 
 1477              		.text
 1478              	.Letext0:
GAS LISTING /tmp/ccagHvCd.s 			page 37


 1479              		.file 3 "src/../h/../lib/hw.h"
 1480              		.file 4 "src/../h/memory_structs.h"
 1481              		.file 5 "src/../h/RiscV.hpp"
 1482              		.file 6 "src/../h/ThreadPool.hpp"
 1483              		.file 7 "src/../h/List.hpp"
 1484              		.file 8 "src/../h/SemaphorePool.hpp"
 1485              		.file 9 "src/../h/MemoryAllocator.hpp"
 1486              		.file 10 "src/../h/Scheduler.hpp"
 1487              		.file 11 "src/../h/syscall_c.hpp"
 6526              		.align	3
 6529              	DW.ref.__gxx_personality_v0:
 6530 0000 00000000 		.dword	__gxx_personality_v0
 6530      00000000 
 6531              		.ident	"GCC: (Ubuntu 9.4.0-1ubuntu1~20.04) 9.4.0"
 6532              		.section	.note.GNU-stack,"",@progbits
GAS LISTING /tmp/ccagHvCd.s 			page 38

