GAS LISTING /tmp/ccDiQECJ.s 			page 1


   1              		.file	"buffer_CPP_API.cpp"
   2              		.option pic
   3              		.option norelax
   4              		.text
   5              	.Ltext0:
   6              		.align	2
   7              		.globl	_ZN9BufferCPPC2Ei
   9              	_ZN9BufferCPPC2Ei:
  10              	.LFB8:
  11              		.file 1 "test/buffer_CPP_API.cpp"
   1:test/buffer_CPP_API.cpp **** #include "buffer_CPP_API.hpp"
   2:test/buffer_CPP_API.cpp **** 
   3:test/buffer_CPP_API.cpp **** BufferCPP::BufferCPP(int _cap) : cap(_cap + 1), head(0), tail(0) {
  12              		.loc 1 3 1
  13              		.cfi_startproc
  14              		.cfi_personality 0x9b,DW.ref.__gxx_personality_v0
  15              		.cfi_lsda 0x1b,.LLSDA8
  16              	.LVL0:
  17 0000 130101FD 		addi	sp,sp,-48
  18              		.cfi_def_cfa_offset 48
  19 0004 23341102 		sd	ra,40(sp)
  20 0008 23308102 		sd	s0,32(sp)
  21 000c 233C9100 		sd	s1,24(sp)
  22 0010 23382101 		sd	s2,16(sp)
  23 0014 23343101 		sd	s3,8(sp)
  24              		.cfi_offset 1, -8
  25              		.cfi_offset 8, -16
  26              		.cfi_offset 9, -24
  27              		.cfi_offset 18, -32
  28              		.cfi_offset 19, -40
  29 0018 13040103 		addi	s0,sp,48
  30              		.cfi_def_cfa 8, 0
  31 001c 93040500 		mv	s1,a0
  32 0020 13890500 		mv	s2,a1
  33              	.LBB13:
  34              		.loc 1 3 43 is_stmt 0
  35 0024 9B871500 		addiw	a5,a1,1
  36 0028 1B850700 		sext.w	a0,a5
  37              	.LVL1:
  38              		.loc 1 3 64
  39 002c 23A0F400 		sw	a5,0(s1)
  40 0030 23A80400 		sw	zero,16(s1)
  41 0034 23AA0400 		sw	zero,20(s1)
   4:test/buffer_CPP_API.cpp ****     buffer = (int *)mem_alloc(sizeof(int) * cap);
  42              		.loc 1 4 5 is_stmt 1
  43              		.loc 1 4 30 is_stmt 0
  44 0038 13152500 		slli	a0,a0,2
  45              	.LEHB0:
  46 003c 97000000 		call	mem_alloc@plt
  46      E7800000 
  47              	.LVL2:
  48              		.loc 1 4 12
  49 0044 23B4A400 		sd	a0,8(s1)
   5:test/buffer_CPP_API.cpp ****     itemAvailable = new Semaphore(0);
  50              		.loc 1 5 5 is_stmt 1
  51              		.loc 1 5 36 is_stmt 0
  52 0048 13050002 		li	a0,32
GAS LISTING /tmp/ccDiQECJ.s 			page 2


  53 004c 97000000 		call	_ZN9SemaphorenwEm@plt
  53      E7800000 
  54              	.LVL3:
  55              	.LEHE0:
  56 0054 93090500 		mv	s3,a0
  57 0058 93050000 		li	a1,0
  58              	.LEHB1:
  59 005c 97000000 		call	_ZN9SemaphoreC1Ej@plt
  59      E7800000 
  60              	.LVL4:
  61              	.LEHE1:
  62              		.loc 1 5 19 discriminator 2
  63 0064 23B03403 		sd	s3,32(s1)
   6:test/buffer_CPP_API.cpp ****     spaceAvailable = new Semaphore(_cap);
  64              		.loc 1 6 5 is_stmt 1 discriminator 2
  65              		.loc 1 6 40 is_stmt 0 discriminator 2
  66 0068 13050002 		li	a0,32
  67              	.LEHB2:
  68 006c 97000000 		call	_ZN9SemaphorenwEm@plt
  68      E7800000 
  69              	.LVL5:
  70              	.LEHE2:
  71 0074 93090500 		mv	s3,a0
  72 0078 93050900 		mv	a1,s2
  73              	.LEHB3:
  74 007c 97000000 		call	_ZN9SemaphoreC1Ej@plt
  74      E7800000 
  75              	.LVL6:
  76              	.LEHE3:
  77              		.loc 1 6 20 discriminator 2
  78 0084 23BC3401 		sd	s3,24(s1)
   7:test/buffer_CPP_API.cpp ****     mutexHead = new Semaphore(1);
  79              		.loc 1 7 5 is_stmt 1 discriminator 2
  80              		.loc 1 7 32 is_stmt 0 discriminator 2
  81 0088 13050002 		li	a0,32
  82              	.LEHB4:
  83 008c 97000000 		call	_ZN9SemaphorenwEm@plt
  83      E7800000 
  84              	.LVL7:
  85              	.LEHE4:
  86 0094 13090500 		mv	s2,a0
  87 0098 93051000 		li	a1,1
  88              	.LEHB5:
  89 009c 97000000 		call	_ZN9SemaphoreC1Ej@plt
  89      E7800000 
  90              	.LVL8:
  91              	.LEHE5:
  92              		.loc 1 7 15 discriminator 2
  93 00a4 23B42403 		sd	s2,40(s1)
   8:test/buffer_CPP_API.cpp ****     mutexTail = new Semaphore(1);
  94              		.loc 1 8 5 is_stmt 1 discriminator 2
  95              		.loc 1 8 32 is_stmt 0 discriminator 2
  96 00a8 13050002 		li	a0,32
  97              	.LEHB6:
  98 00ac 97000000 		call	_ZN9SemaphorenwEm@plt
  98      E7800000 
  99              	.LVL9:
GAS LISTING /tmp/ccDiQECJ.s 			page 3


 100              	.LEHE6:
 101 00b4 13090500 		mv	s2,a0
 102 00b8 93051000 		li	a1,1
 103              	.LEHB7:
 104 00bc 97000000 		call	_ZN9SemaphoreC1Ej@plt
 104      E7800000 
 105              	.LVL10:
 106              	.LEHE7:
 107              		.loc 1 8 15 discriminator 2
 108 00c4 23B82403 		sd	s2,48(s1)
 109              	.LBE13:
   9:test/buffer_CPP_API.cpp **** }
 110              		.loc 1 9 1 discriminator 2
 111 00c8 83308102 		ld	ra,40(sp)
 112              		.cfi_remember_state
 113              		.cfi_restore 1
 114 00cc 03340102 		ld	s0,32(sp)
 115              		.cfi_restore 8
 116              		.cfi_def_cfa 2, 48
 117 00d0 83348101 		ld	s1,24(sp)
 118              		.cfi_restore 9
 119              	.LVL11:
 120 00d4 03390101 		ld	s2,16(sp)
 121              		.cfi_restore 18
 122 00d8 83398100 		ld	s3,8(sp)
 123              		.cfi_restore 19
 124 00dc 13010103 		addi	sp,sp,48
 125              		.cfi_def_cfa_offset 0
 126 00e0 67800000 		jr	ra
 127              	.LVL12:
 128              	.L6:
 129              		.cfi_restore_state
 130 00e4 93040500 		mv	s1,a0
 131              	.LVL13:
 132              	.LBB14:
   5:test/buffer_CPP_API.cpp ****     spaceAvailable = new Semaphore(_cap);
 133              		.loc 1 5 36
 134 00e8 13850900 		mv	a0,s3
 135 00ec 97000000 		call	_ZN9SemaphoredlEPv@plt
 135      E7800000 
 136              	.LVL14:
 137 00f4 13850400 		mv	a0,s1
 138              	.LEHB8:
 139 00f8 97000000 		call	_Unwind_Resume@plt
 139      E7800000 
 140              	.LVL15:
 141              	.L7:
 142 0100 93040500 		mv	s1,a0
 143              	.LVL16:
   6:test/buffer_CPP_API.cpp ****     mutexHead = new Semaphore(1);
 144              		.loc 1 6 40
 145 0104 13850900 		mv	a0,s3
 146 0108 97000000 		call	_ZN9SemaphoredlEPv@plt
 146      E7800000 
 147              	.LVL17:
 148 0110 13850400 		mv	a0,s1
 149 0114 97000000 		call	_Unwind_Resume@plt
GAS LISTING /tmp/ccDiQECJ.s 			page 4


 149      E7800000 
 150              	.LVL18:
 151              	.L8:
 152 011c 93040500 		mv	s1,a0
 153              	.LVL19:
   7:test/buffer_CPP_API.cpp ****     mutexTail = new Semaphore(1);
 154              		.loc 1 7 32
 155 0120 13050900 		mv	a0,s2
 156 0124 97000000 		call	_ZN9SemaphoredlEPv@plt
 156      E7800000 
 157              	.LVL20:
 158 012c 13850400 		mv	a0,s1
 159 0130 97000000 		call	_Unwind_Resume@plt
 159      E7800000 
 160              	.LVL21:
 161              	.L9:
 162 0138 93040500 		mv	s1,a0
 163              	.LVL22:
   8:test/buffer_CPP_API.cpp **** }
 164              		.loc 1 8 32
 165 013c 13050900 		mv	a0,s2
 166 0140 97000000 		call	_ZN9SemaphoredlEPv@plt
 166      E7800000 
 167              	.LVL23:
 168 0148 13850400 		mv	a0,s1
 169 014c 97000000 		call	_Unwind_Resume@plt
 169      E7800000 
 170              	.LVL24:
 171              	.LEHE8:
 172              	.LBE14:
 173              		.cfi_endproc
 174              	.LFE8:
 175              		.globl	__gxx_personality_v0
 176              		.section	.gcc_except_table,"a",@progbits
 177              	.LLSDA8:
 178 0000 FF       		.byte	0xff
 179 0001 FF       		.byte	0xff
 180 0002 03       		.byte	0x3
 181 0003 75       		.byte	0x75
 182 0004 00000000 		.4byte	.LEHB0-.LFB8
 183 0008 00000000 		.4byte	.LEHE0-.LEHB0
 184 000c 00000000 		.4byte	0
 185 0010 00       		.byte	0
 186 0011 00000000 		.4byte	.LEHB1-.LFB8
 187 0015 00000000 		.4byte	.LEHE1-.LEHB1
 188 0019 00000000 		.4byte	.L6-.LFB8
 189 001d 00       		.byte	0
 190 001e 00000000 		.4byte	.LEHB2-.LFB8
 191 0022 00000000 		.4byte	.LEHE2-.LEHB2
 192 0026 00000000 		.4byte	0
 193 002a 00       		.byte	0
 194 002b 00000000 		.4byte	.LEHB3-.LFB8
 195 002f 00000000 		.4byte	.LEHE3-.LEHB3
 196 0033 00000000 		.4byte	.L7-.LFB8
 197 0037 00       		.byte	0
 198 0038 00000000 		.4byte	.LEHB4-.LFB8
 199 003c 00000000 		.4byte	.LEHE4-.LEHB4
GAS LISTING /tmp/ccDiQECJ.s 			page 5


 200 0040 00000000 		.4byte	0
 201 0044 00       		.byte	0
 202 0045 00000000 		.4byte	.LEHB5-.LFB8
 203 0049 00000000 		.4byte	.LEHE5-.LEHB5
 204 004d 00000000 		.4byte	.L8-.LFB8
 205 0051 00       		.byte	0
 206 0052 00000000 		.4byte	.LEHB6-.LFB8
 207 0056 00000000 		.4byte	.LEHE6-.LEHB6
 208 005a 00000000 		.4byte	0
 209 005e 00       		.byte	0
 210 005f 00000000 		.4byte	.LEHB7-.LFB8
 211 0063 00000000 		.4byte	.LEHE7-.LEHB7
 212 0067 00000000 		.4byte	.L9-.LFB8
 213 006b 00       		.byte	0
 214 006c 00000000 		.4byte	.LEHB8-.LFB8
 215 0070 00000000 		.4byte	.LEHE8-.LEHB8
 216 0074 00000000 		.4byte	0
 217 0078 00       		.byte	0
 218              		.text
 220              		.globl	_ZN9BufferCPPC1Ei
 221              		.set	_ZN9BufferCPPC1Ei,_ZN9BufferCPPC2Ei
 222              		.align	2
 223              		.globl	_ZN9BufferCPP3putEi
 225              	_ZN9BufferCPP3putEi:
 226              	.LFB13:
  10:test/buffer_CPP_API.cpp **** 
  11:test/buffer_CPP_API.cpp **** BufferCPP::~BufferCPP() {
  12:test/buffer_CPP_API.cpp ****     Console::putc('\n');
  13:test/buffer_CPP_API.cpp ****     printString("Buffer deleted!\n");
  14:test/buffer_CPP_API.cpp ****     while (getCnt()) {
  15:test/buffer_CPP_API.cpp ****         char ch = buffer[head];
  16:test/buffer_CPP_API.cpp ****         Console::putc(ch);
  17:test/buffer_CPP_API.cpp ****         head = (head + 1) % cap;
  18:test/buffer_CPP_API.cpp ****     }
  19:test/buffer_CPP_API.cpp ****     Console::putc('!');
  20:test/buffer_CPP_API.cpp ****     Console::putc('\n');
  21:test/buffer_CPP_API.cpp **** 
  22:test/buffer_CPP_API.cpp ****     mem_free(buffer);
  23:test/buffer_CPP_API.cpp ****     delete itemAvailable;
  24:test/buffer_CPP_API.cpp ****     delete spaceAvailable;
  25:test/buffer_CPP_API.cpp ****     delete mutexTail;
  26:test/buffer_CPP_API.cpp ****     delete mutexHead;
  27:test/buffer_CPP_API.cpp **** 
  28:test/buffer_CPP_API.cpp **** }
  29:test/buffer_CPP_API.cpp **** 
  30:test/buffer_CPP_API.cpp **** void BufferCPP::put(int val) {
 227              		.loc 1 30 30 is_stmt 1
 228              		.cfi_startproc
 229              	.LVL25:
 230 0154 130101FE 		addi	sp,sp,-32
 231              		.cfi_def_cfa_offset 32
 232 0158 233C1100 		sd	ra,24(sp)
 233 015c 23388100 		sd	s0,16(sp)
 234 0160 23349100 		sd	s1,8(sp)
 235 0164 23302101 		sd	s2,0(sp)
 236              		.cfi_offset 1, -8
 237              		.cfi_offset 8, -16
GAS LISTING /tmp/ccDiQECJ.s 			page 6


 238              		.cfi_offset 9, -24
 239              		.cfi_offset 18, -32
 240 0168 13040102 		addi	s0,sp,32
 241              		.cfi_def_cfa 8, 0
 242 016c 93040500 		mv	s1,a0
 243 0170 13890500 		mv	s2,a1
  31:test/buffer_CPP_API.cpp ****     spaceAvailable->wait();
 244              		.loc 1 31 5
 245              		.loc 1 31 25 is_stmt 0
 246 0174 03358501 		ld	a0,24(a0)
 247              	.LVL26:
 248 0178 97000000 		call	_ZN9Semaphore4waitEv@plt
 248      E7800000 
 249              	.LVL27:
  32:test/buffer_CPP_API.cpp **** 
  33:test/buffer_CPP_API.cpp ****     mutexTail->wait();
 250              		.loc 1 33 5 is_stmt 1
 251              		.loc 1 33 20 is_stmt 0
 252 0180 03B50403 		ld	a0,48(s1)
 253 0184 97000000 		call	_ZN9Semaphore4waitEv@plt
 253      E7800000 
 254              	.LVL28:
  34:test/buffer_CPP_API.cpp ****     buffer[tail] = val;
 255              		.loc 1 34 5 is_stmt 1
 256 018c 83B78400 		ld	a5,8(s1)
 257              		.loc 1 34 12 is_stmt 0
 258 0190 03A74401 		lw	a4,20(s1)
 259              		.loc 1 34 16
 260 0194 13172700 		slli	a4,a4,2
 261 0198 B387E700 		add	a5,a5,a4
 262              		.loc 1 34 18
 263 019c 23A02701 		sw	s2,0(a5)
  35:test/buffer_CPP_API.cpp ****     tail = (tail + 1) % cap;
 264              		.loc 1 35 5 is_stmt 1
 265              		.loc 1 35 13 is_stmt 0
 266 01a0 83A74401 		lw	a5,20(s1)
 267              		.loc 1 35 18
 268 01a4 9B871700 		addiw	a5,a5,1
 269              		.loc 1 35 25
 270 01a8 03A70400 		lw	a4,0(s1)
 271              		.loc 1 35 23
 272 01ac BBE7E702 		remw	a5,a5,a4
 273              		.loc 1 35 10
 274 01b0 23AAF400 		sw	a5,20(s1)
  36:test/buffer_CPP_API.cpp ****     mutexTail->signal();
 275              		.loc 1 36 5 is_stmt 1
 276              		.loc 1 36 22 is_stmt 0
 277 01b4 03B50403 		ld	a0,48(s1)
 278 01b8 97000000 		call	_ZN9Semaphore6signalEv@plt
 278      E7800000 
 279              	.LVL29:
  37:test/buffer_CPP_API.cpp **** 
  38:test/buffer_CPP_API.cpp ****     itemAvailable->signal();
 280              		.loc 1 38 5 is_stmt 1
 281              		.loc 1 38 26 is_stmt 0
 282 01c0 03B50402 		ld	a0,32(s1)
 283 01c4 97000000 		call	_ZN9Semaphore6signalEv@plt
GAS LISTING /tmp/ccDiQECJ.s 			page 7


 283      E7800000 
 284              	.LVL30:
  39:test/buffer_CPP_API.cpp **** 
  40:test/buffer_CPP_API.cpp **** }
 285              		.loc 1 40 1
 286 01cc 83308101 		ld	ra,24(sp)
 287              		.cfi_restore 1
 288 01d0 03340101 		ld	s0,16(sp)
 289              		.cfi_restore 8
 290              		.cfi_def_cfa 2, 32
 291 01d4 83348100 		ld	s1,8(sp)
 292              		.cfi_restore 9
 293              	.LVL31:
 294 01d8 03390100 		ld	s2,0(sp)
 295              		.cfi_restore 18
 296 01dc 13010102 		addi	sp,sp,32
 297              		.cfi_def_cfa_offset 0
 298 01e0 67800000 		jr	ra
 299              		.cfi_endproc
 300              	.LFE13:
 302              		.align	2
 303              		.globl	_ZN9BufferCPP3getEv
 305              	_ZN9BufferCPP3getEv:
 306              	.LFB14:
  41:test/buffer_CPP_API.cpp **** 
  42:test/buffer_CPP_API.cpp **** int BufferCPP::get() {
 307              		.loc 1 42 22 is_stmt 1
 308              		.cfi_startproc
 309              	.LVL32:
 310 01e4 130101FE 		addi	sp,sp,-32
 311              		.cfi_def_cfa_offset 32
 312 01e8 233C1100 		sd	ra,24(sp)
 313 01ec 23388100 		sd	s0,16(sp)
 314 01f0 23349100 		sd	s1,8(sp)
 315 01f4 23302101 		sd	s2,0(sp)
 316              		.cfi_offset 1, -8
 317              		.cfi_offset 8, -16
 318              		.cfi_offset 9, -24
 319              		.cfi_offset 18, -32
 320 01f8 13040102 		addi	s0,sp,32
 321              		.cfi_def_cfa 8, 0
 322 01fc 93040500 		mv	s1,a0
  43:test/buffer_CPP_API.cpp ****     itemAvailable->wait();
 323              		.loc 1 43 5
 324              		.loc 1 43 24 is_stmt 0
 325 0200 03350502 		ld	a0,32(a0)
 326              	.LVL33:
 327 0204 97000000 		call	_ZN9Semaphore4waitEv@plt
 327      E7800000 
 328              	.LVL34:
  44:test/buffer_CPP_API.cpp **** 
  45:test/buffer_CPP_API.cpp ****     mutexHead->wait();
 329              		.loc 1 45 5 is_stmt 1
 330              		.loc 1 45 20 is_stmt 0
 331 020c 03B58402 		ld	a0,40(s1)
 332 0210 97000000 		call	_ZN9Semaphore4waitEv@plt
 332      E7800000 
GAS LISTING /tmp/ccDiQECJ.s 			page 8


 333              	.LVL35:
  46:test/buffer_CPP_API.cpp **** 
  47:test/buffer_CPP_API.cpp ****     int ret = buffer[head];
 334              		.loc 1 47 5 is_stmt 1
 335              		.loc 1 47 15 is_stmt 0
 336 0218 03B78400 		ld	a4,8(s1)
 337              		.loc 1 47 22
 338 021c 83A70401 		lw	a5,16(s1)
 339              		.loc 1 47 26
 340 0220 93962700 		slli	a3,a5,2
 341 0224 3307D700 		add	a4,a4,a3
 342              		.loc 1 47 9
 343 0228 03290700 		lw	s2,0(a4)
 344              	.LVL36:
  48:test/buffer_CPP_API.cpp ****     head = (head + 1) % cap;
 345              		.loc 1 48 5 is_stmt 1
 346              		.loc 1 48 18 is_stmt 0
 347 022c 9B871700 		addiw	a5,a5,1
 348              		.loc 1 48 25
 349 0230 03A70400 		lw	a4,0(s1)
 350              		.loc 1 48 23
 351 0234 BBE7E702 		remw	a5,a5,a4
 352              		.loc 1 48 10
 353 0238 23A8F400 		sw	a5,16(s1)
  49:test/buffer_CPP_API.cpp ****     mutexHead->signal();
 354              		.loc 1 49 5 is_stmt 1
 355              		.loc 1 49 22 is_stmt 0
 356 023c 03B58402 		ld	a0,40(s1)
 357 0240 97000000 		call	_ZN9Semaphore6signalEv@plt
 357      E7800000 
 358              	.LVL37:
  50:test/buffer_CPP_API.cpp **** 
  51:test/buffer_CPP_API.cpp ****     spaceAvailable->signal();
 359              		.loc 1 51 5 is_stmt 1
 360              		.loc 1 51 27 is_stmt 0
 361 0248 03B58401 		ld	a0,24(s1)
 362 024c 97000000 		call	_ZN9Semaphore6signalEv@plt
 362      E7800000 
 363              	.LVL38:
  52:test/buffer_CPP_API.cpp **** 
  53:test/buffer_CPP_API.cpp ****     return ret;
 364              		.loc 1 53 5 is_stmt 1
  54:test/buffer_CPP_API.cpp **** }
 365              		.loc 1 54 1 is_stmt 0
 366 0254 13050900 		mv	a0,s2
 367 0258 83308101 		ld	ra,24(sp)
 368              		.cfi_restore 1
 369 025c 03340101 		ld	s0,16(sp)
 370              		.cfi_restore 8
 371              		.cfi_def_cfa 2, 32
 372 0260 83348100 		ld	s1,8(sp)
 373              		.cfi_restore 9
 374              	.LVL39:
 375 0264 03390100 		ld	s2,0(sp)
 376              		.cfi_restore 18
 377              	.LVL40:
 378 0268 13010102 		addi	sp,sp,32
GAS LISTING /tmp/ccDiQECJ.s 			page 9


 379              		.cfi_def_cfa_offset 0
 380 026c 67800000 		jr	ra
 381              		.cfi_endproc
 382              	.LFE14:
 384              		.align	2
 385              		.globl	_ZN9BufferCPP6getCntEv
 387              	_ZN9BufferCPP6getCntEv:
 388              	.LFB15:
  55:test/buffer_CPP_API.cpp **** 
  56:test/buffer_CPP_API.cpp **** int BufferCPP::getCnt() {
 389              		.loc 1 56 25 is_stmt 1
 390              		.cfi_startproc
 391              	.LVL41:
 392 0270 130101FE 		addi	sp,sp,-32
 393              		.cfi_def_cfa_offset 32
 394 0274 233C1100 		sd	ra,24(sp)
 395 0278 23388100 		sd	s0,16(sp)
 396 027c 23349100 		sd	s1,8(sp)
 397 0280 23302101 		sd	s2,0(sp)
 398              		.cfi_offset 1, -8
 399              		.cfi_offset 8, -16
 400              		.cfi_offset 9, -24
 401              		.cfi_offset 18, -32
 402 0284 13040102 		addi	s0,sp,32
 403              		.cfi_def_cfa 8, 0
 404 0288 93040500 		mv	s1,a0
  57:test/buffer_CPP_API.cpp ****     int ret;
 405              		.loc 1 57 5
  58:test/buffer_CPP_API.cpp **** 
  59:test/buffer_CPP_API.cpp ****     mutexHead->wait();
 406              		.loc 1 59 5
 407              		.loc 1 59 20 is_stmt 0
 408 028c 03358502 		ld	a0,40(a0)
 409              	.LVL42:
 410 0290 97000000 		call	_ZN9Semaphore4waitEv@plt
 410      E7800000 
 411              	.LVL43:
  60:test/buffer_CPP_API.cpp ****     mutexTail->wait();
 412              		.loc 1 60 5 is_stmt 1
 413              		.loc 1 60 20 is_stmt 0
 414 0298 03B50403 		ld	a0,48(s1)
 415 029c 97000000 		call	_ZN9Semaphore4waitEv@plt
 415      E7800000 
 416              	.LVL44:
  61:test/buffer_CPP_API.cpp **** 
  62:test/buffer_CPP_API.cpp ****     if (tail >= head) {
 417              		.loc 1 62 5 is_stmt 1
 418              		.loc 1 62 9 is_stmt 0
 419 02a4 83A74401 		lw	a5,20(s1)
 420              		.loc 1 62 17
 421 02a8 03A90401 		lw	s2,16(s1)
 422              		.loc 1 62 5
 423 02ac 63CE2703 		blt	a5,s2,.L17
  63:test/buffer_CPP_API.cpp ****         ret = tail - head;
 424              		.loc 1 63 9 is_stmt 1
 425              		.loc 1 63 13 is_stmt 0
 426 02b0 3B892741 		subw	s2,a5,s2
GAS LISTING /tmp/ccDiQECJ.s 			page 10


 427              	.LVL45:
 428              	.L18:
  64:test/buffer_CPP_API.cpp ****     } else {
  65:test/buffer_CPP_API.cpp ****         ret = cap - head + tail;
  66:test/buffer_CPP_API.cpp ****     }
  67:test/buffer_CPP_API.cpp **** 
  68:test/buffer_CPP_API.cpp ****     mutexTail->signal();
 429              		.loc 1 68 5 is_stmt 1
 430              		.loc 1 68 22 is_stmt 0
 431 02b4 03B50403 		ld	a0,48(s1)
 432 02b8 97000000 		call	_ZN9Semaphore6signalEv@plt
 432      E7800000 
 433              	.LVL46:
  69:test/buffer_CPP_API.cpp ****     mutexHead->signal();
 434              		.loc 1 69 5 is_stmt 1
 435              		.loc 1 69 22 is_stmt 0
 436 02c0 03B58402 		ld	a0,40(s1)
 437 02c4 97000000 		call	_ZN9Semaphore6signalEv@plt
 437      E7800000 
 438              	.LVL47:
  70:test/buffer_CPP_API.cpp **** 
  71:test/buffer_CPP_API.cpp ****     return ret;
 439              		.loc 1 71 5 is_stmt 1
  72:test/buffer_CPP_API.cpp **** }
 440              		.loc 1 72 1 is_stmt 0
 441 02cc 13050900 		mv	a0,s2
 442 02d0 83308101 		ld	ra,24(sp)
 443              		.cfi_remember_state
 444              		.cfi_restore 1
 445 02d4 03340101 		ld	s0,16(sp)
 446              		.cfi_restore 8
 447              		.cfi_def_cfa 2, 32
 448 02d8 83348100 		ld	s1,8(sp)
 449              		.cfi_restore 9
 450              	.LVL48:
 451 02dc 03390100 		ld	s2,0(sp)
 452              		.cfi_restore 18
 453              	.LVL49:
 454 02e0 13010102 		addi	sp,sp,32
 455              		.cfi_def_cfa_offset 0
 456 02e4 67800000 		jr	ra
 457              	.LVL50:
 458              	.L17:
 459              		.cfi_restore_state
  65:test/buffer_CPP_API.cpp ****     }
 460              		.loc 1 65 9 is_stmt 1
  65:test/buffer_CPP_API.cpp ****     }
 461              		.loc 1 65 15 is_stmt 0
 462 02e8 03A70400 		lw	a4,0(s1)
  65:test/buffer_CPP_API.cpp ****     }
 463              		.loc 1 65 19
 464 02ec 3B092741 		subw	s2,a4,s2
  65:test/buffer_CPP_API.cpp ****     }
 465              		.loc 1 65 13
 466 02f0 3B09F900 		addw	s2,s2,a5
 467 02f4 6FF01FFC 		j	.L18
 468              		.cfi_endproc
GAS LISTING /tmp/ccDiQECJ.s 			page 11


 469              	.LFE15:
 471              		.section	.rodata.str1.8,"aMS",@progbits,1
 472              		.align	3
 473              	.LC0:
 474 0000 42756666 		.string	"Buffer deleted!\n"
 474      65722064 
 474      656C6574 
 474      6564210A 
 474      00
 475              		.text
 476              		.align	2
 477              		.globl	_ZN9BufferCPPD2Ev
 479              	_ZN9BufferCPPD2Ev:
 480              	.LFB11:
  11:test/buffer_CPP_API.cpp ****     Console::putc('\n');
 481              		.loc 1 11 1 is_stmt 1
 482              		.cfi_startproc
 483              		.cfi_personality 0x9b,DW.ref.__gxx_personality_v0
 484              		.cfi_lsda 0x1b,.LLSDA11
 485              	.LVL51:
 486 02f8 130101FE 		addi	sp,sp,-32
 487              		.cfi_def_cfa_offset 32
 488 02fc 233C1100 		sd	ra,24(sp)
 489 0300 23388100 		sd	s0,16(sp)
 490 0304 23349100 		sd	s1,8(sp)
 491              		.cfi_offset 1, -8
 492              		.cfi_offset 8, -16
 493              		.cfi_offset 9, -24
 494 0308 13040102 		addi	s0,sp,32
 495              		.cfi_def_cfa 8, 0
 496 030c 93040500 		mv	s1,a0
 497              	.LBB15:
  12:test/buffer_CPP_API.cpp ****     printString("Buffer deleted!\n");
 498              		.loc 1 12 5
 499              	.LVL52:
 500              	.LBB16:
 501              	.LBB17:
 502              		.file 2 "test/../h/Console.hpp"
   1:test/../h/Console.hpp **** //
   2:test/../h/Console.hpp **** // Created by os on 9/13/25.
   3:test/../h/Console.hpp **** //
   4:test/../h/Console.hpp **** 
   5:test/../h/Console.hpp **** #ifndef PROJECT_BASE_CONSOLE_HPP
   6:test/../h/Console.hpp **** #define PROJECT_BASE_CONSOLE_HPP
   7:test/../h/Console.hpp **** #include "../lib/hw.h"
   8:test/../h/Console.hpp **** #include "../lib/console.h"
   9:test/../h/Console.hpp **** 
  10:test/../h/Console.hpp **** class Console {
  11:test/../h/Console.hpp **** public:
  12:test/../h/Console.hpp ****     static void putc(char chr) {
  13:test/../h/Console.hpp ****         __putc(chr);   // poziva funkciju iz console.h
 503              		.loc 2 13 9
 504              		.loc 2 13 15 is_stmt 0
 505 0310 1305A000 		li	a0,10
 506              	.LVL53:
 507 0314 97000000 		call	__putc@plt
 507      E7800000 
GAS LISTING /tmp/ccDiQECJ.s 			page 12


 508              	.LVL54:
 509              	.LBE17:
 510              	.LBE16:
  13:test/buffer_CPP_API.cpp ****     while (getCnt()) {
 511              		.loc 1 13 5 is_stmt 1
  13:test/buffer_CPP_API.cpp ****     while (getCnt()) {
 512              		.loc 1 13 16 is_stmt 0
 513 031c 17050000 		lla	a0,.LC0
 513      13050500 
 514 0324 97000000 		call	_Z11printStringPKc@plt
 514      E7800000 
 515              	.LVL55:
 516              	.L22:
  14:test/buffer_CPP_API.cpp ****         char ch = buffer[head];
 517              		.loc 1 14 5 is_stmt 1
  14:test/buffer_CPP_API.cpp ****         char ch = buffer[head];
 518              		.loc 1 14 19
  14:test/buffer_CPP_API.cpp ****         char ch = buffer[head];
 519              		.loc 1 14 18 is_stmt 0
 520 032c 13850400 		mv	a0,s1
 521 0330 97000000 		call	_ZN9BufferCPP6getCntEv
 521      E7800000 
 522              	.LVL56:
  14:test/buffer_CPP_API.cpp ****         char ch = buffer[head];
 523              		.loc 1 14 19
 524 0338 630C0502 		beqz	a0,.L21
 525              	.LBB18:
  15:test/buffer_CPP_API.cpp ****         Console::putc(ch);
 526              		.loc 1 15 9 is_stmt 1
  15:test/buffer_CPP_API.cpp ****         Console::putc(ch);
 527              		.loc 1 15 19 is_stmt 0
 528 033c 83B78400 		ld	a5,8(s1)
  15:test/buffer_CPP_API.cpp ****         Console::putc(ch);
 529              		.loc 1 15 26
 530 0340 03A70401 		lw	a4,16(s1)
  15:test/buffer_CPP_API.cpp ****         Console::putc(ch);
 531              		.loc 1 15 30
 532 0344 13172700 		slli	a4,a4,2
 533 0348 B387E700 		add	a5,a5,a4
 534              	.LVL57:
  16:test/buffer_CPP_API.cpp ****         head = (head + 1) % cap;
 535              		.loc 1 16 9 is_stmt 1
 536              	.LBB19:
 537              	.LBB20:
 538              		.loc 2 13 9
 539              		.loc 2 13 15 is_stmt 0
 540 034c 03C50700 		lbu	a0,0(a5)
 541 0350 97000000 		call	__putc@plt
 541      E7800000 
 542              	.LVL58:
 543              	.LBE20:
 544              	.LBE19:
  17:test/buffer_CPP_API.cpp ****     }
 545              		.loc 1 17 9 is_stmt 1
  17:test/buffer_CPP_API.cpp ****     }
 546              		.loc 1 17 17 is_stmt 0
 547 0358 83A70401 		lw	a5,16(s1)
GAS LISTING /tmp/ccDiQECJ.s 			page 13


  17:test/buffer_CPP_API.cpp ****     }
 548              		.loc 1 17 22
 549 035c 9B871700 		addiw	a5,a5,1
  17:test/buffer_CPP_API.cpp ****     }
 550              		.loc 1 17 29
 551 0360 03A70400 		lw	a4,0(s1)
  17:test/buffer_CPP_API.cpp ****     }
 552              		.loc 1 17 27
 553 0364 BBE7E702 		remw	a5,a5,a4
  17:test/buffer_CPP_API.cpp ****     }
 554              		.loc 1 17 14
 555 0368 23A8F400 		sw	a5,16(s1)
 556              	.LBE18:
  14:test/buffer_CPP_API.cpp ****         char ch = buffer[head];
 557              		.loc 1 14 5
 558 036c 6FF01FFC 		j	.L22
 559              	.L21:
  19:test/buffer_CPP_API.cpp ****     Console::putc('\n');
 560              		.loc 1 19 5 is_stmt 1
 561              	.LVL59:
 562              	.LBB21:
 563              	.LBB22:
 564              		.loc 2 13 9
 565              		.loc 2 13 15 is_stmt 0
 566 0370 13051002 		li	a0,33
 567 0374 97000000 		call	__putc@plt
 567      E7800000 
 568              	.LVL60:
 569              	.LBE22:
 570              	.LBE21:
  20:test/buffer_CPP_API.cpp **** 
 571              		.loc 1 20 5 is_stmt 1
 572              	.LBB23:
 573              	.LBB24:
 574              		.loc 2 13 9
 575              		.loc 2 13 15 is_stmt 0
 576 037c 1305A000 		li	a0,10
 577 0380 97000000 		call	__putc@plt
 577      E7800000 
 578              	.LVL61:
 579              	.LBE24:
 580              	.LBE23:
  22:test/buffer_CPP_API.cpp ****     delete itemAvailable;
 581              		.loc 1 22 5 is_stmt 1
  22:test/buffer_CPP_API.cpp ****     delete itemAvailable;
 582              		.loc 1 22 13 is_stmt 0
 583 0388 03B58400 		ld	a0,8(s1)
 584 038c 97000000 		call	mem_free@plt
 584      E7800000 
 585              	.LVL62:
  23:test/buffer_CPP_API.cpp ****     delete spaceAvailable;
 586              		.loc 1 23 5 is_stmt 1
  23:test/buffer_CPP_API.cpp ****     delete spaceAvailable;
 587              		.loc 1 23 12 is_stmt 0
 588 0394 03B50402 		ld	a0,32(s1)
  23:test/buffer_CPP_API.cpp ****     delete spaceAvailable;
 589              		.loc 1 23 25
GAS LISTING /tmp/ccDiQECJ.s 			page 14


 590 0398 63080500 		beqz	a0,.L23
  23:test/buffer_CPP_API.cpp ****     delete spaceAvailable;
 591              		.loc 1 23 12 discriminator 1
 592 039c 83370500 		ld	a5,0(a0)
 593 03a0 83B78700 		ld	a5,8(a5)
 594 03a4 E7800700 		jalr	a5
 595              	.LVL63:
 596              	.L23:
  24:test/buffer_CPP_API.cpp ****     delete mutexTail;
 597              		.loc 1 24 5 is_stmt 1
  24:test/buffer_CPP_API.cpp ****     delete mutexTail;
 598              		.loc 1 24 12 is_stmt 0
 599 03a8 03B58401 		ld	a0,24(s1)
  24:test/buffer_CPP_API.cpp ****     delete mutexTail;
 600              		.loc 1 24 26
 601 03ac 63080500 		beqz	a0,.L24
  24:test/buffer_CPP_API.cpp ****     delete mutexTail;
 602              		.loc 1 24 12 discriminator 1
 603 03b0 83370500 		ld	a5,0(a0)
 604 03b4 83B78700 		ld	a5,8(a5)
 605 03b8 E7800700 		jalr	a5
 606              	.LVL64:
 607              	.L24:
  25:test/buffer_CPP_API.cpp ****     delete mutexHead;
 608              		.loc 1 25 5 is_stmt 1
  25:test/buffer_CPP_API.cpp ****     delete mutexHead;
 609              		.loc 1 25 12 is_stmt 0
 610 03bc 03B50403 		ld	a0,48(s1)
  25:test/buffer_CPP_API.cpp ****     delete mutexHead;
 611              		.loc 1 25 21
 612 03c0 63080500 		beqz	a0,.L25
  25:test/buffer_CPP_API.cpp ****     delete mutexHead;
 613              		.loc 1 25 12 discriminator 1
 614 03c4 83370500 		ld	a5,0(a0)
 615 03c8 83B78700 		ld	a5,8(a5)
 616 03cc E7800700 		jalr	a5
 617              	.LVL65:
 618              	.L25:
  26:test/buffer_CPP_API.cpp **** 
 619              		.loc 1 26 5 is_stmt 1
  26:test/buffer_CPP_API.cpp **** 
 620              		.loc 1 26 12 is_stmt 0
 621 03d0 03B58402 		ld	a0,40(s1)
  26:test/buffer_CPP_API.cpp **** 
 622              		.loc 1 26 21
 623 03d4 63080500 		beqz	a0,.L20
  26:test/buffer_CPP_API.cpp **** 
 624              		.loc 1 26 12 discriminator 1
 625 03d8 83370500 		ld	a5,0(a0)
 626 03dc 83B78700 		ld	a5,8(a5)
 627 03e0 E7800700 		jalr	a5
 628              	.LVL66:
 629              	.L20:
 630              	.LBE15:
  28:test/buffer_CPP_API.cpp **** 
 631              		.loc 1 28 1
 632 03e4 83308101 		ld	ra,24(sp)
GAS LISTING /tmp/ccDiQECJ.s 			page 15


 633              		.cfi_restore 1
 634 03e8 03340101 		ld	s0,16(sp)
 635              		.cfi_restore 8
 636              		.cfi_def_cfa 2, 32
 637 03ec 83348100 		ld	s1,8(sp)
 638              		.cfi_restore 9
 639              	.LVL67:
 640 03f0 13010102 		addi	sp,sp,32
 641              		.cfi_def_cfa_offset 0
 642 03f4 67800000 		jr	ra
 643              		.cfi_endproc
 644              	.LFE11:
 645              		.section	.gcc_except_table
 646              	.LLSDA11:
 647 0079 FF       		.byte	0xff
 648 007a FF       		.byte	0xff
 649 007b 03       		.byte	0x3
 650 007c 00       		.byte	0
 651              		.text
 653              		.globl	_ZN9BufferCPPD1Ev
 654              		.set	_ZN9BufferCPPD1Ev,_ZN9BufferCPPD2Ev
 655              	.Letext0:
 656              		.file 3 "test/../h/../lib/hw.h"
 657              		.file 4 "test/../h/Semaphore.hpp"
 658              		.file 5 "test/buffer_CPP_API.hpp"
 659              		.file 6 "test/../h/../lib/console.h"
 660              		.file 7 "test/printing.hpp"
 661              		.file 8 "test/../h/syscall_c.h"
 2685              		.align	3
 2688              	DW.ref.__gxx_personality_v0:
 2689 0000 00000000 		.dword	__gxx_personality_v0
 2689      00000000 
 2690              		.ident	"GCC: (Ubuntu 9.4.0-1ubuntu1~20.04) 9.4.0"
 2691              		.section	.note.GNU-stack,"",@progbits
GAS LISTING /tmp/ccDiQECJ.s 			page 16


DEFINED SYMBOLS
                            *ABS*:0000000000000000 buffer_CPP_API.cpp
     /tmp/ccDiQECJ.s:9      .text:0000000000000000 _ZN9BufferCPPC2Ei
     /tmp/ccDiQECJ.s:13     .text:0000000000000000 .L0 
     /tmp/ccDiQECJ.s:2688   .data.rel.local.DW.ref.__gxx_personality_v0:0000000000000000 DW.ref.__gxx_personality_v0
     /tmp/ccDiQECJ.s:17     .text:0000000000000000 .L0 
     /tmp/ccDiQECJ.s:18     .text:0000000000000004 .L0 
     /tmp/ccDiQECJ.s:24     .text:0000000000000018 .L0 
     /tmp/ccDiQECJ.s:25     .text:0000000000000018 .L0 
     /tmp/ccDiQECJ.s:26     .text:0000000000000018 .L0 
     /tmp/ccDiQECJ.s:27     .text:0000000000000018 .L0 
     /tmp/ccDiQECJ.s:28     .text:0000000000000018 .L0 
     /tmp/ccDiQECJ.s:30     .text:000000000000001c .L0 
     /tmp/ccDiQECJ.s:35     .text:0000000000000024 .L0 
     /tmp/ccDiQECJ.s:39     .text:000000000000002c .L0 
     /tmp/ccDiQECJ.s:43     .text:0000000000000038 .L0 
     /tmp/ccDiQECJ.s:44     .text:0000000000000038 .L0 
     /tmp/ccDiQECJ.s:49     .text:0000000000000044 .L0 
     /tmp/ccDiQECJ.s:51     .text:0000000000000048 .L0 
     /tmp/ccDiQECJ.s:52     .text:0000000000000048 .L0 
     /tmp/ccDiQECJ.s:63     .text:0000000000000064 .L0 
     /tmp/ccDiQECJ.s:65     .text:0000000000000068 .L0 
     /tmp/ccDiQECJ.s:66     .text:0000000000000068 .L0 
     /tmp/ccDiQECJ.s:78     .text:0000000000000084 .L0 
     /tmp/ccDiQECJ.s:80     .text:0000000000000088 .L0 
     /tmp/ccDiQECJ.s:81     .text:0000000000000088 .L0 
     /tmp/ccDiQECJ.s:93     .text:00000000000000a4 .L0 
     /tmp/ccDiQECJ.s:95     .text:00000000000000a8 .L0 
     /tmp/ccDiQECJ.s:96     .text:00000000000000a8 .L0 
     /tmp/ccDiQECJ.s:108    .text:00000000000000c4 .L0 
     /tmp/ccDiQECJ.s:111    .text:00000000000000c8 .L0 
     /tmp/ccDiQECJ.s:112    .text:00000000000000cc .L0 
     /tmp/ccDiQECJ.s:113    .text:00000000000000cc .L0 
     /tmp/ccDiQECJ.s:115    .text:00000000000000d0 .L0 
     /tmp/ccDiQECJ.s:116    .text:00000000000000d0 .L0 
     /tmp/ccDiQECJ.s:118    .text:00000000000000d4 .L0 
     /tmp/ccDiQECJ.s:121    .text:00000000000000d8 .L0 
     /tmp/ccDiQECJ.s:123    .text:00000000000000dc .L0 
     /tmp/ccDiQECJ.s:125    .text:00000000000000e0 .L0 
     /tmp/ccDiQECJ.s:129    .text:00000000000000e4 .L0 
     /tmp/ccDiQECJ.s:134    .text:00000000000000e8 .L0 
     /tmp/ccDiQECJ.s:145    .text:0000000000000104 .L0 
     /tmp/ccDiQECJ.s:155    .text:0000000000000120 .L0 
     /tmp/ccDiQECJ.s:165    .text:000000000000013c .L0 
     /tmp/ccDiQECJ.s:173    .text:0000000000000154 .L0 
     /tmp/ccDiQECJ.s:9      .text:0000000000000000 _ZN9BufferCPPC1Ei
     /tmp/ccDiQECJ.s:225    .text:0000000000000154 _ZN9BufferCPP3putEi
     /tmp/ccDiQECJ.s:228    .text:0000000000000154 .L0 
     /tmp/ccDiQECJ.s:230    .text:0000000000000154 .L0 
     /tmp/ccDiQECJ.s:231    .text:0000000000000158 .L0 
     /tmp/ccDiQECJ.s:236    .text:0000000000000168 .L0 
     /tmp/ccDiQECJ.s:237    .text:0000000000000168 .L0 
     /tmp/ccDiQECJ.s:238    .text:0000000000000168 .L0 
     /tmp/ccDiQECJ.s:239    .text:0000000000000168 .L0 
     /tmp/ccDiQECJ.s:241    .text:000000000000016c .L0 
     /tmp/ccDiQECJ.s:245    .text:0000000000000174 .L0 
     /tmp/ccDiQECJ.s:246    .text:0000000000000174 .L0 
GAS LISTING /tmp/ccDiQECJ.s 			page 17


     /tmp/ccDiQECJ.s:251    .text:0000000000000180 .L0 
     /tmp/ccDiQECJ.s:252    .text:0000000000000180 .L0 
     /tmp/ccDiQECJ.s:256    .text:000000000000018c .L0 
     /tmp/ccDiQECJ.s:258    .text:0000000000000190 .L0 
     /tmp/ccDiQECJ.s:260    .text:0000000000000194 .L0 
     /tmp/ccDiQECJ.s:263    .text:000000000000019c .L0 
     /tmp/ccDiQECJ.s:265    .text:00000000000001a0 .L0 
     /tmp/ccDiQECJ.s:266    .text:00000000000001a0 .L0 
     /tmp/ccDiQECJ.s:268    .text:00000000000001a4 .L0 
     /tmp/ccDiQECJ.s:270    .text:00000000000001a8 .L0 
     /tmp/ccDiQECJ.s:272    .text:00000000000001ac .L0 
     /tmp/ccDiQECJ.s:274    .text:00000000000001b0 .L0 
     /tmp/ccDiQECJ.s:276    .text:00000000000001b4 .L0 
     /tmp/ccDiQECJ.s:277    .text:00000000000001b4 .L0 
     /tmp/ccDiQECJ.s:281    .text:00000000000001c0 .L0 
     /tmp/ccDiQECJ.s:282    .text:00000000000001c0 .L0 
     /tmp/ccDiQECJ.s:286    .text:00000000000001cc .L0 
     /tmp/ccDiQECJ.s:287    .text:00000000000001d0 .L0 
     /tmp/ccDiQECJ.s:289    .text:00000000000001d4 .L0 
     /tmp/ccDiQECJ.s:290    .text:00000000000001d4 .L0 
     /tmp/ccDiQECJ.s:292    .text:00000000000001d8 .L0 
     /tmp/ccDiQECJ.s:295    .text:00000000000001dc .L0 
     /tmp/ccDiQECJ.s:297    .text:00000000000001e0 .L0 
     /tmp/ccDiQECJ.s:299    .text:00000000000001e4 .L0 
     /tmp/ccDiQECJ.s:305    .text:00000000000001e4 _ZN9BufferCPP3getEv
     /tmp/ccDiQECJ.s:308    .text:00000000000001e4 .L0 
     /tmp/ccDiQECJ.s:310    .text:00000000000001e4 .L0 
     /tmp/ccDiQECJ.s:311    .text:00000000000001e8 .L0 
     /tmp/ccDiQECJ.s:316    .text:00000000000001f8 .L0 
     /tmp/ccDiQECJ.s:317    .text:00000000000001f8 .L0 
     /tmp/ccDiQECJ.s:318    .text:00000000000001f8 .L0 
     /tmp/ccDiQECJ.s:319    .text:00000000000001f8 .L0 
     /tmp/ccDiQECJ.s:321    .text:00000000000001fc .L0 
     /tmp/ccDiQECJ.s:324    .text:0000000000000200 .L0 
     /tmp/ccDiQECJ.s:325    .text:0000000000000200 .L0 
     /tmp/ccDiQECJ.s:330    .text:000000000000020c .L0 
     /tmp/ccDiQECJ.s:331    .text:000000000000020c .L0 
     /tmp/ccDiQECJ.s:335    .text:0000000000000218 .L0 
     /tmp/ccDiQECJ.s:336    .text:0000000000000218 .L0 
     /tmp/ccDiQECJ.s:338    .text:000000000000021c .L0 
     /tmp/ccDiQECJ.s:340    .text:0000000000000220 .L0 
     /tmp/ccDiQECJ.s:343    .text:0000000000000228 .L0 
     /tmp/ccDiQECJ.s:346    .text:000000000000022c .L0 
     /tmp/ccDiQECJ.s:347    .text:000000000000022c .L0 
     /tmp/ccDiQECJ.s:349    .text:0000000000000230 .L0 
     /tmp/ccDiQECJ.s:351    .text:0000000000000234 .L0 
     /tmp/ccDiQECJ.s:353    .text:0000000000000238 .L0 
     /tmp/ccDiQECJ.s:355    .text:000000000000023c .L0 
     /tmp/ccDiQECJ.s:356    .text:000000000000023c .L0 
     /tmp/ccDiQECJ.s:360    .text:0000000000000248 .L0 
     /tmp/ccDiQECJ.s:361    .text:0000000000000248 .L0 
     /tmp/ccDiQECJ.s:365    .text:0000000000000254 .L0 
     /tmp/ccDiQECJ.s:366    .text:0000000000000254 .L0 
     /tmp/ccDiQECJ.s:368    .text:000000000000025c .L0 
     /tmp/ccDiQECJ.s:370    .text:0000000000000260 .L0 
     /tmp/ccDiQECJ.s:371    .text:0000000000000260 .L0 
     /tmp/ccDiQECJ.s:373    .text:0000000000000264 .L0 
GAS LISTING /tmp/ccDiQECJ.s 			page 18


     /tmp/ccDiQECJ.s:376    .text:0000000000000268 .L0 
     /tmp/ccDiQECJ.s:379    .text:000000000000026c .L0 
     /tmp/ccDiQECJ.s:381    .text:0000000000000270 .L0 
     /tmp/ccDiQECJ.s:387    .text:0000000000000270 _ZN9BufferCPP6getCntEv
     /tmp/ccDiQECJ.s:390    .text:0000000000000270 .L0 
     /tmp/ccDiQECJ.s:392    .text:0000000000000270 .L0 
     /tmp/ccDiQECJ.s:393    .text:0000000000000274 .L0 
     /tmp/ccDiQECJ.s:398    .text:0000000000000284 .L0 
     /tmp/ccDiQECJ.s:399    .text:0000000000000284 .L0 
     /tmp/ccDiQECJ.s:400    .text:0000000000000284 .L0 
     /tmp/ccDiQECJ.s:401    .text:0000000000000284 .L0 
     /tmp/ccDiQECJ.s:403    .text:0000000000000288 .L0 
     /tmp/ccDiQECJ.s:406    .text:000000000000028c .L0 
     /tmp/ccDiQECJ.s:407    .text:000000000000028c .L0 
     /tmp/ccDiQECJ.s:408    .text:000000000000028c .L0 
     /tmp/ccDiQECJ.s:413    .text:0000000000000298 .L0 
     /tmp/ccDiQECJ.s:414    .text:0000000000000298 .L0 
     /tmp/ccDiQECJ.s:418    .text:00000000000002a4 .L0 
     /tmp/ccDiQECJ.s:419    .text:00000000000002a4 .L0 
     /tmp/ccDiQECJ.s:421    .text:00000000000002a8 .L0 
     /tmp/ccDiQECJ.s:423    .text:00000000000002ac .L0 
     /tmp/ccDiQECJ.s:425    .text:00000000000002b0 .L0 
     /tmp/ccDiQECJ.s:426    .text:00000000000002b0 .L0 
     /tmp/ccDiQECJ.s:430    .text:00000000000002b4 .L0 
     /tmp/ccDiQECJ.s:431    .text:00000000000002b4 .L0 
     /tmp/ccDiQECJ.s:435    .text:00000000000002c0 .L0 
     /tmp/ccDiQECJ.s:436    .text:00000000000002c0 .L0 
     /tmp/ccDiQECJ.s:440    .text:00000000000002cc .L0 
     /tmp/ccDiQECJ.s:441    .text:00000000000002cc .L0 
     /tmp/ccDiQECJ.s:443    .text:00000000000002d4 .L0 
     /tmp/ccDiQECJ.s:444    .text:00000000000002d4 .L0 
     /tmp/ccDiQECJ.s:446    .text:00000000000002d8 .L0 
     /tmp/ccDiQECJ.s:447    .text:00000000000002d8 .L0 
     /tmp/ccDiQECJ.s:449    .text:00000000000002dc .L0 
     /tmp/ccDiQECJ.s:452    .text:00000000000002e0 .L0 
     /tmp/ccDiQECJ.s:455    .text:00000000000002e4 .L0 
     /tmp/ccDiQECJ.s:459    .text:00000000000002e8 .L0 
     /tmp/ccDiQECJ.s:461    .text:00000000000002e8 .L0 
     /tmp/ccDiQECJ.s:462    .text:00000000000002e8 .L0 
     /tmp/ccDiQECJ.s:464    .text:00000000000002ec .L0 
     /tmp/ccDiQECJ.s:466    .text:00000000000002f0 .L0 
     /tmp/ccDiQECJ.s:468    .text:00000000000002f8 .L0 
     /tmp/ccDiQECJ.s:479    .text:00000000000002f8 _ZN9BufferCPPD2Ev
     /tmp/ccDiQECJ.s:482    .text:00000000000002f8 .L0 
     /tmp/ccDiQECJ.s:486    .text:00000000000002f8 .L0 
     /tmp/ccDiQECJ.s:487    .text:00000000000002fc .L0 
     /tmp/ccDiQECJ.s:491    .text:0000000000000308 .L0 
     /tmp/ccDiQECJ.s:492    .text:0000000000000308 .L0 
     /tmp/ccDiQECJ.s:493    .text:0000000000000308 .L0 
     /tmp/ccDiQECJ.s:495    .text:000000000000030c .L0 
     /tmp/ccDiQECJ.s:503    .text:0000000000000310 .L0 
     /tmp/ccDiQECJ.s:504    .text:0000000000000310 .L0 
     /tmp/ccDiQECJ.s:505    .text:0000000000000310 .L0 
     /tmp/ccDiQECJ.s:512    .text:000000000000031c .L0 
     /tmp/ccDiQECJ.s:513    .text:000000000000031c .L0 
     /tmp/ccDiQECJ.s:518    .text:000000000000032c .L0 
     /tmp/ccDiQECJ.s:519    .text:000000000000032c .L0 
GAS LISTING /tmp/ccDiQECJ.s 			page 19


     /tmp/ccDiQECJ.s:520    .text:000000000000032c .L0 
     /tmp/ccDiQECJ.s:524    .text:0000000000000338 .L0 
     /tmp/ccDiQECJ.s:527    .text:000000000000033c .L0 
     /tmp/ccDiQECJ.s:528    .text:000000000000033c .L0 
     /tmp/ccDiQECJ.s:530    .text:0000000000000340 .L0 
     /tmp/ccDiQECJ.s:532    .text:0000000000000344 .L0 
     /tmp/ccDiQECJ.s:538    .text:000000000000034c .L0 
     /tmp/ccDiQECJ.s:539    .text:000000000000034c .L0 
     /tmp/ccDiQECJ.s:540    .text:000000000000034c .L0 
     /tmp/ccDiQECJ.s:546    .text:0000000000000358 .L0 
     /tmp/ccDiQECJ.s:547    .text:0000000000000358 .L0 
     /tmp/ccDiQECJ.s:549    .text:000000000000035c .L0 
     /tmp/ccDiQECJ.s:551    .text:0000000000000360 .L0 
     /tmp/ccDiQECJ.s:553    .text:0000000000000364 .L0 
     /tmp/ccDiQECJ.s:555    .text:0000000000000368 .L0 
     /tmp/ccDiQECJ.s:558    .text:000000000000036c .L0 
     /tmp/ccDiQECJ.s:564    .text:0000000000000370 .L0 
     /tmp/ccDiQECJ.s:565    .text:0000000000000370 .L0 
     /tmp/ccDiQECJ.s:566    .text:0000000000000370 .L0 
     /tmp/ccDiQECJ.s:574    .text:000000000000037c .L0 
     /tmp/ccDiQECJ.s:575    .text:000000000000037c .L0 
     /tmp/ccDiQECJ.s:576    .text:000000000000037c .L0 
     /tmp/ccDiQECJ.s:582    .text:0000000000000388 .L0 
     /tmp/ccDiQECJ.s:583    .text:0000000000000388 .L0 
     /tmp/ccDiQECJ.s:587    .text:0000000000000394 .L0 
     /tmp/ccDiQECJ.s:588    .text:0000000000000394 .L0 
     /tmp/ccDiQECJ.s:590    .text:0000000000000398 .L0 
     /tmp/ccDiQECJ.s:592    .text:000000000000039c .L0 
     /tmp/ccDiQECJ.s:598    .text:00000000000003a8 .L0 
     /tmp/ccDiQECJ.s:599    .text:00000000000003a8 .L0 
     /tmp/ccDiQECJ.s:601    .text:00000000000003ac .L0 
     /tmp/ccDiQECJ.s:603    .text:00000000000003b0 .L0 
     /tmp/ccDiQECJ.s:609    .text:00000000000003bc .L0 
     /tmp/ccDiQECJ.s:610    .text:00000000000003bc .L0 
     /tmp/ccDiQECJ.s:612    .text:00000000000003c0 .L0 
     /tmp/ccDiQECJ.s:614    .text:00000000000003c4 .L0 
     /tmp/ccDiQECJ.s:620    .text:00000000000003d0 .L0 
     /tmp/ccDiQECJ.s:621    .text:00000000000003d0 .L0 
     /tmp/ccDiQECJ.s:623    .text:00000000000003d4 .L0 
     /tmp/ccDiQECJ.s:625    .text:00000000000003d8 .L0 
     /tmp/ccDiQECJ.s:632    .text:00000000000003e4 .L0 
     /tmp/ccDiQECJ.s:633    .text:00000000000003e8 .L0 
     /tmp/ccDiQECJ.s:635    .text:00000000000003ec .L0 
     /tmp/ccDiQECJ.s:636    .text:00000000000003ec .L0 
     /tmp/ccDiQECJ.s:638    .text:00000000000003f0 .L0 
     /tmp/ccDiQECJ.s:641    .text:00000000000003f4 .L0 
     /tmp/ccDiQECJ.s:643    .text:00000000000003f8 .L0 
     /tmp/ccDiQECJ.s:479    .text:00000000000002f8 _ZN9BufferCPPD1Ev
     /tmp/ccDiQECJ.s:662    .text:00000000000003f8 .L0 
     /tmp/ccDiQECJ.s:473    .rodata.str1.8:0000000000000000 .LC0
     /tmp/ccDiQECJ.s:513    .text:000000000000031c .L0 
     /tmp/ccDiQECJ.s:458    .text:00000000000002e8 .L17
     /tmp/ccDiQECJ.s:428    .text:00000000000002b4 .L18
     /tmp/ccDiQECJ.s:559    .text:0000000000000370 .L21
     /tmp/ccDiQECJ.s:516    .text:000000000000032c .L22
     /tmp/ccDiQECJ.s:596    .text:00000000000003a8 .L23
     /tmp/ccDiQECJ.s:607    .text:00000000000003bc .L24
GAS LISTING /tmp/ccDiQECJ.s 			page 20


     /tmp/ccDiQECJ.s:618    .text:00000000000003d0 .L25
     /tmp/ccDiQECJ.s:629    .text:00000000000003e4 .L20
     /tmp/ccDiQECJ.s:45     .text:000000000000003c .LEHB0
     /tmp/ccDiQECJ.s:10     .text:0000000000000000 .LFB8
     /tmp/ccDiQECJ.s:55     .text:0000000000000054 .LEHE0
     /tmp/ccDiQECJ.s:58     .text:000000000000005c .LEHB1
     /tmp/ccDiQECJ.s:61     .text:0000000000000064 .LEHE1
     /tmp/ccDiQECJ.s:128    .text:00000000000000e4 .L6
     /tmp/ccDiQECJ.s:67     .text:000000000000006c .LEHB2
     /tmp/ccDiQECJ.s:70     .text:0000000000000074 .LEHE2
     /tmp/ccDiQECJ.s:73     .text:000000000000007c .LEHB3
     /tmp/ccDiQECJ.s:76     .text:0000000000000084 .LEHE3
     /tmp/ccDiQECJ.s:141    .text:0000000000000100 .L7
     /tmp/ccDiQECJ.s:82     .text:000000000000008c .LEHB4
     /tmp/ccDiQECJ.s:85     .text:0000000000000094 .LEHE4
     /tmp/ccDiQECJ.s:88     .text:000000000000009c .LEHB5
     /tmp/ccDiQECJ.s:91     .text:00000000000000a4 .LEHE5
     /tmp/ccDiQECJ.s:151    .text:000000000000011c .L8
     /tmp/ccDiQECJ.s:97     .text:00000000000000ac .LEHB6
     /tmp/ccDiQECJ.s:100    .text:00000000000000b4 .LEHE6
     /tmp/ccDiQECJ.s:103    .text:00000000000000bc .LEHB7
     /tmp/ccDiQECJ.s:106    .text:00000000000000c4 .LEHE7
     /tmp/ccDiQECJ.s:161    .text:0000000000000138 .L9
     /tmp/ccDiQECJ.s:138    .text:00000000000000f8 .LEHB8
     /tmp/ccDiQECJ.s:171    .text:0000000000000154 .LEHE8
     /tmp/ccDiQECJ.s:1563   .debug_abbrev:0000000000000000 .Ldebug_abbrev0
     /tmp/ccDiQECJ.s:2660   .debug_str:0000000000000316 .LASF55
     /tmp/ccDiQECJ.s:2608   .debug_str:00000000000001c2 .LASF56
     /tmp/ccDiQECJ.s:2586   .debug_str:0000000000000116 .LASF57
     /tmp/ccDiQECJ.s:5      .text:0000000000000000 .Ltext0
     /tmp/ccDiQECJ.s:655    .text:00000000000003f8 .Letext0
     /tmp/ccDiQECJ.s:2544   .debug_line:0000000000000000 .Ldebug_line0
     /tmp/ccDiQECJ.s:2592   .debug_str:000000000000015a .LASF0
     /tmp/ccDiQECJ.s:2602   .debug_str:00000000000001a3 .LASF1
     /tmp/ccDiQECJ.s:2640   .debug_str:000000000000029f .LASF2
     /tmp/ccDiQECJ.s:2642   .debug_str:00000000000002ad .LASF4
     /tmp/ccDiQECJ.s:2596   .debug_str:000000000000016c .LASF3
     /tmp/ccDiQECJ.s:2552   .debug_str:0000000000000024 .LASF5
     /tmp/ccDiQECJ.s:2626   .debug_str:000000000000022c .LASF6
     /tmp/ccDiQECJ.s:2600   .debug_str:0000000000000190 .LASF7
     /tmp/ccDiQECJ.s:2564   .debug_str:000000000000007b .LASF8
     /tmp/ccDiQECJ.s:2584   .debug_str:0000000000000106 .LASF9
     /tmp/ccDiQECJ.s:2590   .debug_str:000000000000014c .LASF10
     /tmp/ccDiQECJ.s:2560   .debug_str:0000000000000057 .LASF11
     /tmp/ccDiQECJ.s:2578   .debug_str:00000000000000de .LASF12
     /tmp/ccDiQECJ.s:2566   .debug_str:0000000000000089 .LASF13
     /tmp/ccDiQECJ.s:2558   .debug_str:0000000000000047 .LASF14
     /tmp/ccDiQECJ.s:2652   .debug_str:00000000000002f5 .LASF15
     /tmp/ccDiQECJ.s:2574   .debug_str:00000000000000ba .LASF16
     /tmp/ccDiQECJ.s:2644   .debug_str:00000000000002b4 .LASF17
     /tmp/ccDiQECJ.s:2606   .debug_str:00000000000001bd .LASF18
     /tmp/ccDiQECJ.s:2668   .debug_str:00000000000003fa .LASF58
     /tmp/ccDiQECJ.s:2562   .debug_str:0000000000000066 .LASF19
     /tmp/ccDiQECJ.s:2570   .debug_str:00000000000000ac .LASF21
     /tmp/ccDiQECJ.s:2554   .debug_str:000000000000002b .LASF20
     /tmp/ccDiQECJ.s:2654   .debug_str:0000000000000301 .LASF22
     /tmp/ccDiQECJ.s:2632   .debug_str:000000000000025d .LASF23
GAS LISTING /tmp/ccDiQECJ.s 			page 21


     /tmp/ccDiQECJ.s:2680   .debug_str:0000000000000457 .LASF24
     /tmp/ccDiQECJ.s:2670   .debug_str:0000000000000404 .LASF25
     /tmp/ccDiQECJ.s:2548   .debug_str:000000000000000a .LASF26
     /tmp/ccDiQECJ.s:2572   .debug_str:00000000000000b1 .LASF27
     /tmp/ccDiQECJ.s:2576   .debug_str:00000000000000d0 .LASF28
     /tmp/ccDiQECJ.s:2624   .debug_str:0000000000000220 .LASF29
     /tmp/ccDiQECJ.s:2616   .debug_str:00000000000001f5 .LASF59
     /tmp/ccDiQECJ.s:2610   .debug_str:00000000000001da .LASF31
     /tmp/ccDiQECJ.s:2612   .debug_str:00000000000001e2 .LASF60
     /tmp/ccDiQECJ.s:2672   .debug_str:0000000000000417 .LASF61
     /tmp/ccDiQECJ.s:2594   .debug_str:0000000000000167 .LASF62
     /tmp/ccDiQECJ.s:2568   .debug_str:0000000000000099 .LASF63
     /tmp/ccDiQECJ.s:2658   .debug_str:0000000000000311 .LASF30
     /tmp/ccDiQECJ.s:2664   .debug_str:00000000000003e1 .LASF32
     /tmp/ccDiQECJ.s:2662   .debug_str:00000000000003da .LASF33
     /tmp/ccDiQECJ.s:2646   .debug_str:00000000000002ca .LASF34
     /tmp/ccDiQECJ.s:2622   .debug_str:000000000000021b .LASF35
     /tmp/ccDiQECJ.s:2666   .debug_str:00000000000003eb .LASF36
     /tmp/ccDiQECJ.s:2614   .debug_str:00000000000001e7 .LASF37
     /tmp/ccDiQECJ.s:2546   .debug_str:0000000000000000 .LASF38
     /tmp/ccDiQECJ.s:2620   .debug_str:0000000000000211 .LASF39
     /tmp/ccDiQECJ.s:2598   .debug_str:000000000000017e .LASF41
     /tmp/ccDiQECJ.s:2628   .debug_str:000000000000023f .LASF40
     /tmp/ccDiQECJ.s:2678   .debug_str:0000000000000445 .LASF42
     /tmp/ccDiQECJ.s:2650   .debug_str:00000000000002e1 .LASF64
     /tmp/ccDiQECJ.s:2582   .debug_str:00000000000000f2 .LASF65
     /tmp/ccDiQECJ.s:2634   .debug_str:000000000000026f .LASF43
     /tmp/ccDiQECJ.s:2636   .debug_str:0000000000000276 .LASF44
     /tmp/ccDiQECJ.s:388    .text:0000000000000270 .LFB15
     /tmp/ccDiQECJ.s:469    .text:00000000000002f8 .LFE15
     /tmp/ccDiQECJ.s:2580   .debug_str:00000000000000ed .LASF45
     /tmp/ccDiQECJ.s:2314   .debug_loc:0000000000000000 .LLST6
     /tmp/ccDiQECJ.s:2336   .debug_loc:000000000000005f .LLST7
     /tmp/ccDiQECJ.s:411    .text:0000000000000298 .LVL43
     /tmp/ccDiQECJ.s:416    .text:00000000000002a4 .LVL44
     /tmp/ccDiQECJ.s:433    .text:00000000000002c0 .LVL46
     /tmp/ccDiQECJ.s:438    .text:00000000000002cc .LVL47
     /tmp/ccDiQECJ.s:306    .text:00000000000001e4 .LFB14
     /tmp/ccDiQECJ.s:382    .text:0000000000000270 .LFE14
     /tmp/ccDiQECJ.s:2343   .debug_loc:0000000000000082 .LLST4
     /tmp/ccDiQECJ.s:2361   .debug_loc:00000000000000ce .LLST5
     /tmp/ccDiQECJ.s:328    .text:000000000000020c .LVL34
     /tmp/ccDiQECJ.s:333    .text:0000000000000218 .LVL35
     /tmp/ccDiQECJ.s:358    .text:0000000000000248 .LVL37
     /tmp/ccDiQECJ.s:363    .text:0000000000000254 .LVL38
     /tmp/ccDiQECJ.s:226    .text:0000000000000154 .LFB13
     /tmp/ccDiQECJ.s:300    .text:00000000000001e4 .LFE13
     /tmp/ccDiQECJ.s:2372   .debug_loc:0000000000000104 .LLST2
     /tmp/ccDiQECJ.s:2390   .debug_loc:0000000000000150 .LLST3
     /tmp/ccDiQECJ.s:249    .text:0000000000000180 .LVL27
     /tmp/ccDiQECJ.s:254    .text:000000000000018c .LVL28
     /tmp/ccDiQECJ.s:279    .text:00000000000001c0 .LVL29
     /tmp/ccDiQECJ.s:284    .text:00000000000001cc .LVL30
     /tmp/ccDiQECJ.s:2550   .debug_str:000000000000001a .LASF46
     /tmp/ccDiQECJ.s:2638   .debug_str:000000000000028d .LASF47
     /tmp/ccDiQECJ.s:480    .text:00000000000002f8 .LFB11
     /tmp/ccDiQECJ.s:644    .text:00000000000003f8 .LFE11
GAS LISTING /tmp/ccDiQECJ.s 			page 22


     /tmp/ccDiQECJ.s:2404   .debug_loc:0000000000000189 .LLST8
     /tmp/ccDiQECJ.s:500    .text:0000000000000310 .LBB16
     /tmp/ccDiQECJ.s:510    .text:000000000000031c .LBE16
     /tmp/ccDiQECJ.s:2422   .debug_loc:00000000000001d5 .LLST9
     /tmp/ccDiQECJ.s:508    .text:000000000000031c .LVL54
     /tmp/ccDiQECJ.s:525    .text:000000000000033c .LBB18
     /tmp/ccDiQECJ.s:556    .text:000000000000036c .LBE18
     /tmp/ccDiQECJ.s:2430   .debug_loc:00000000000001f9 .LLST10
     /tmp/ccDiQECJ.s:536    .text:000000000000034c .LBB19
     /tmp/ccDiQECJ.s:544    .text:0000000000000358 .LBE19
     /tmp/ccDiQECJ.s:542    .text:0000000000000358 .LVL58
     /tmp/ccDiQECJ.s:562    .text:0000000000000370 .LBB21
     /tmp/ccDiQECJ.s:570    .text:000000000000037c .LBE21
     /tmp/ccDiQECJ.s:2438   .debug_loc:000000000000021d .LLST12
     /tmp/ccDiQECJ.s:568    .text:000000000000037c .LVL60
     /tmp/ccDiQECJ.s:572    .text:000000000000037c .LBB23
     /tmp/ccDiQECJ.s:580    .text:0000000000000388 .LBE23
     /tmp/ccDiQECJ.s:2447   .debug_loc:0000000000000242 .LLST13
     /tmp/ccDiQECJ.s:578    .text:0000000000000388 .LVL61
     /tmp/ccDiQECJ.s:515    .text:000000000000032c .LVL55
     /tmp/ccDiQECJ.s:522    .text:0000000000000338 .LVL56
     /tmp/ccDiQECJ.s:585    .text:0000000000000394 .LVL62
     /tmp/ccDiQECJ.s:2556   .debug_str:0000000000000042 .LASF49
     /tmp/ccDiQECJ.s:2648   .debug_str:00000000000002cf .LASF48
     /tmp/ccDiQECJ.s:174    .text:0000000000000154 .LFE8
     /tmp/ccDiQECJ.s:2455   .debug_loc:0000000000000266 .LLST0
     /tmp/ccDiQECJ.s:2517   .debug_loc:0000000000000356 .LLST1
     /tmp/ccDiQECJ.s:47     .text:0000000000000044 .LVL2
     /tmp/ccDiQECJ.s:54     .text:0000000000000054 .LVL3
     /tmp/ccDiQECJ.s:60     .text:0000000000000064 .LVL4
     /tmp/ccDiQECJ.s:69     .text:0000000000000074 .LVL5
     /tmp/ccDiQECJ.s:75     .text:0000000000000084 .LVL6
     /tmp/ccDiQECJ.s:84     .text:0000000000000094 .LVL7
     /tmp/ccDiQECJ.s:90     .text:00000000000000a4 .LVL8
     /tmp/ccDiQECJ.s:99     .text:00000000000000b4 .LVL9
     /tmp/ccDiQECJ.s:105    .text:00000000000000c4 .LVL10
     /tmp/ccDiQECJ.s:136    .text:00000000000000f4 .LVL14
     /tmp/ccDiQECJ.s:140    .text:0000000000000100 .LVL15
     /tmp/ccDiQECJ.s:147    .text:0000000000000110 .LVL17
     /tmp/ccDiQECJ.s:150    .text:000000000000011c .LVL18
     /tmp/ccDiQECJ.s:157    .text:000000000000012c .LVL20
     /tmp/ccDiQECJ.s:160    .text:0000000000000138 .LVL21
     /tmp/ccDiQECJ.s:167    .text:0000000000000148 .LVL23
     /tmp/ccDiQECJ.s:170    .text:0000000000000154 .LVL24
     /tmp/ccDiQECJ.s:2604   .debug_str:00000000000001b6 .LASF50
     /tmp/ccDiQECJ.s:2630   .debug_str:000000000000024a .LASF51
     /tmp/ccDiQECJ.s:2674   .debug_str:000000000000042a .LASF52
     /tmp/ccDiQECJ.s:2656   .debug_str:0000000000000308 .LASF53
     /tmp/ccDiQECJ.s:2618   .debug_str:0000000000000207 .LASF54
     /tmp/ccDiQECJ.s:2676   .debug_str:0000000000000436 .LASF66
     /tmp/ccDiQECJ.s:2588   .debug_str:0000000000000134 .LASF67
     /tmp/ccDiQECJ.s:391    .text:0000000000000270 .LVL41
     /tmp/ccDiQECJ.s:409    .text:0000000000000290 .LVL42
     /tmp/ccDiQECJ.s:450    .text:00000000000002dc .LVL48
     /tmp/ccDiQECJ.s:457    .text:00000000000002e8 .LVL50
     /tmp/ccDiQECJ.s:427    .text:00000000000002b4 .LVL45
     /tmp/ccDiQECJ.s:453    .text:00000000000002e0 .LVL49
GAS LISTING /tmp/ccDiQECJ.s 			page 23


     /tmp/ccDiQECJ.s:309    .text:00000000000001e4 .LVL32
     /tmp/ccDiQECJ.s:326    .text:0000000000000204 .LVL33
     /tmp/ccDiQECJ.s:374    .text:0000000000000264 .LVL39
     /tmp/ccDiQECJ.s:344    .text:000000000000022c .LVL36
     /tmp/ccDiQECJ.s:377    .text:0000000000000268 .LVL40
     /tmp/ccDiQECJ.s:229    .text:0000000000000154 .LVL25
     /tmp/ccDiQECJ.s:247    .text:0000000000000178 .LVL26
     /tmp/ccDiQECJ.s:293    .text:00000000000001d8 .LVL31
     /tmp/ccDiQECJ.s:485    .text:00000000000002f8 .LVL51
     /tmp/ccDiQECJ.s:506    .text:0000000000000314 .LVL53
     /tmp/ccDiQECJ.s:639    .text:00000000000003f0 .LVL67
     /tmp/ccDiQECJ.s:499    .text:0000000000000310 .LVL52
     /tmp/ccDiQECJ.s:534    .text:000000000000034c .LVL57
     /tmp/ccDiQECJ.s:561    .text:0000000000000370 .LVL59
     /tmp/ccDiQECJ.s:16     .text:0000000000000000 .LVL0
     /tmp/ccDiQECJ.s:37     .text:000000000000002c .LVL1
     /tmp/ccDiQECJ.s:119    .text:00000000000000d4 .LVL11
     /tmp/ccDiQECJ.s:127    .text:00000000000000e4 .LVL12
     /tmp/ccDiQECJ.s:131    .text:00000000000000e8 .LVL13
     /tmp/ccDiQECJ.s:143    .text:0000000000000104 .LVL16
     /tmp/ccDiQECJ.s:153    .text:0000000000000120 .LVL19
     /tmp/ccDiQECJ.s:163    .text:000000000000013c .LVL22
     /tmp/ccDiQECJ.s:663    .debug_info:0000000000000000 .Ldebug_info0
     /tmp/ccDiQECJ.s:177    .gcc_except_table:0000000000000000 .LLSDA8
     /tmp/ccDiQECJ.s:646    .gcc_except_table:0000000000000079 .LLSDA11

UNDEFINED SYMBOLS
mem_alloc
_ZN9SemaphorenwEm
_ZN9SemaphoreC1Ej
_ZN9SemaphoredlEPv
_Unwind_Resume
__gxx_personality_v0
_ZN9Semaphore4waitEv
_ZN9Semaphore6signalEv
__putc
_Z11printStringPKc
mem_free
