GAS LISTING /tmp/ccejt4gE.s 			page 1


   1              		.file	"ConsumerProducer_CPP_API_test.cpp"
   2              		.option pic
   3              		.option norelax
   4              		.text
   5              	.Ltext0:
   6              		.section	.text._ZN8Consumer3runEv,"axG",@progbits,_ZN8Consumer3runEv,comdat
   7              		.align	2
   8              		.weak	_ZN8Consumer3runEv
  10              	_ZN8Consumer3runEv:
  11              	.LFB18:
  12              		.file 1 "test/ConsumerProducer_CPP_API_test.cpp"
   1:test/ConsumerProducer_CPP_API_test.cpp **** #include "../h/syscall_cpp.hpp"
   2:test/ConsumerProducer_CPP_API_test.cpp **** 
   3:test/ConsumerProducer_CPP_API_test.cpp **** #include "buffer_CPP_API.hpp"
   4:test/ConsumerProducer_CPP_API_test.cpp **** #include "printing.hpp"
   5:test/ConsumerProducer_CPP_API_test.cpp **** 
   6:test/ConsumerProducer_CPP_API_test.cpp **** 
   7:test/ConsumerProducer_CPP_API_test.cpp **** static Semaphore *waitForAll;
   8:test/ConsumerProducer_CPP_API_test.cpp **** 
   9:test/ConsumerProducer_CPP_API_test.cpp **** struct thread_data {
  10:test/ConsumerProducer_CPP_API_test.cpp ****     int id;
  11:test/ConsumerProducer_CPP_API_test.cpp ****     BufferCPP *buffer;
  12:test/ConsumerProducer_CPP_API_test.cpp ****     Semaphore *sem;
  13:test/ConsumerProducer_CPP_API_test.cpp **** };
  14:test/ConsumerProducer_CPP_API_test.cpp **** 
  15:test/ConsumerProducer_CPP_API_test.cpp **** static volatile int threadEnd = 0;
  16:test/ConsumerProducer_CPP_API_test.cpp **** 
  17:test/ConsumerProducer_CPP_API_test.cpp **** class ProducerKeyborad : public Thread {
  18:test/ConsumerProducer_CPP_API_test.cpp ****     thread_data *td;
  19:test/ConsumerProducer_CPP_API_test.cpp **** public:
  20:test/ConsumerProducer_CPP_API_test.cpp ****     ProducerKeyborad(thread_data *_td) : Thread(), td(_td) {}
  21:test/ConsumerProducer_CPP_API_test.cpp **** 
  22:test/ConsumerProducer_CPP_API_test.cpp ****     void run() override {
  23:test/ConsumerProducer_CPP_API_test.cpp ****         int key;
  24:test/ConsumerProducer_CPP_API_test.cpp ****         int i = 0;
  25:test/ConsumerProducer_CPP_API_test.cpp ****         while ((key = getc()) != 0x1b) {
  26:test/ConsumerProducer_CPP_API_test.cpp ****             td->buffer->put(key);
  27:test/ConsumerProducer_CPP_API_test.cpp ****             i++;
  28:test/ConsumerProducer_CPP_API_test.cpp ****         }
  29:test/ConsumerProducer_CPP_API_test.cpp **** 
  30:test/ConsumerProducer_CPP_API_test.cpp ****         threadEnd = 1;
  31:test/ConsumerProducer_CPP_API_test.cpp ****         td->buffer->put('!');
  32:test/ConsumerProducer_CPP_API_test.cpp **** 
  33:test/ConsumerProducer_CPP_API_test.cpp ****         td->sem->signal();
  34:test/ConsumerProducer_CPP_API_test.cpp ****     }
  35:test/ConsumerProducer_CPP_API_test.cpp **** };
  36:test/ConsumerProducer_CPP_API_test.cpp **** 
  37:test/ConsumerProducer_CPP_API_test.cpp **** class Producer : public Thread {
  38:test/ConsumerProducer_CPP_API_test.cpp ****     thread_data *td;
  39:test/ConsumerProducer_CPP_API_test.cpp **** public:
  40:test/ConsumerProducer_CPP_API_test.cpp ****     Producer(thread_data *_td) : Thread(), td(_td) {}
  41:test/ConsumerProducer_CPP_API_test.cpp **** 
  42:test/ConsumerProducer_CPP_API_test.cpp ****     void run() override {
  43:test/ConsumerProducer_CPP_API_test.cpp ****         int i = 0;
  44:test/ConsumerProducer_CPP_API_test.cpp ****         while (!threadEnd) {
  45:test/ConsumerProducer_CPP_API_test.cpp ****             td->buffer->put(td->id + '0');
  46:test/ConsumerProducer_CPP_API_test.cpp ****             i++;
GAS LISTING /tmp/ccejt4gE.s 			page 2


  47:test/ConsumerProducer_CPP_API_test.cpp ****             //Thread::sleep((i + td->id) % 5);
  48:test/ConsumerProducer_CPP_API_test.cpp ****         }
  49:test/ConsumerProducer_CPP_API_test.cpp **** 
  50:test/ConsumerProducer_CPP_API_test.cpp ****         td->sem->signal();
  51:test/ConsumerProducer_CPP_API_test.cpp ****     }
  52:test/ConsumerProducer_CPP_API_test.cpp **** };
  53:test/ConsumerProducer_CPP_API_test.cpp **** 
  54:test/ConsumerProducer_CPP_API_test.cpp **** class Consumer : public Thread {
  55:test/ConsumerProducer_CPP_API_test.cpp ****     thread_data *td;
  56:test/ConsumerProducer_CPP_API_test.cpp **** public:
  57:test/ConsumerProducer_CPP_API_test.cpp ****     Consumer(thread_data *_td) : Thread(), td(_td) {}
  58:test/ConsumerProducer_CPP_API_test.cpp **** 
  59:test/ConsumerProducer_CPP_API_test.cpp ****     void run() override {
  13              		.loc 1 59 10
  14              		.cfi_startproc
  15              	.LVL0:
  16 0000 130101FD 		addi	sp,sp,-48
  17              		.cfi_def_cfa_offset 48
  18 0004 23341102 		sd	ra,40(sp)
  19 0008 23308102 		sd	s0,32(sp)
  20 000c 233C9100 		sd	s1,24(sp)
  21 0010 23382101 		sd	s2,16(sp)
  22 0014 23343101 		sd	s3,8(sp)
  23              		.cfi_offset 1, -8
  24              		.cfi_offset 8, -16
  25              		.cfi_offset 9, -24
  26              		.cfi_offset 18, -32
  27              		.cfi_offset 19, -40
  28 0018 13040103 		addi	s0,sp,48
  29              		.cfi_def_cfa 8, 0
  30 001c 13090500 		mv	s2,a0
  60:test/ConsumerProducer_CPP_API_test.cpp ****         int i = 0;
  31              		.loc 1 60 9
  32              	.LVL1:
  33              		.loc 1 60 13 is_stmt 0
  34 0020 93090000 		li	s3,0
  35 0024 6F000001 		j	.L2
  36              	.LVL2:
  37              	.L7:
  38              	.LBB31:
  61:test/ConsumerProducer_CPP_API_test.cpp ****         while (!threadEnd) {
  62:test/ConsumerProducer_CPP_API_test.cpp ****             int key = td->buffer->get();
  63:test/ConsumerProducer_CPP_API_test.cpp ****             i++;
  64:test/ConsumerProducer_CPP_API_test.cpp **** 
  65:test/ConsumerProducer_CPP_API_test.cpp ****             Console::putc(key);
  66:test/ConsumerProducer_CPP_API_test.cpp **** 
  67:test/ConsumerProducer_CPP_API_test.cpp ****             if (i % 80 == 0) {
  68:test/ConsumerProducer_CPP_API_test.cpp ****                 Console::putc('\n');
  39              		.loc 1 68 17 is_stmt 1
  40              	.LBB32:
  41              	.LBB33:
  42              		.file 2 "test/../h/Console.hpp"
   1:test/../h/Console.hpp **** //
   2:test/../h/Console.hpp **** // Created by os on 9/13/25.
   3:test/../h/Console.hpp **** //
   4:test/../h/Console.hpp **** 
   5:test/../h/Console.hpp **** #ifndef PROJECT_BASE_CONSOLE_HPP
GAS LISTING /tmp/ccejt4gE.s 			page 3


   6:test/../h/Console.hpp **** #define PROJECT_BASE_CONSOLE_HPP
   7:test/../h/Console.hpp **** #include "../lib/hw.h"
   8:test/../h/Console.hpp **** #include "../lib/console.h"
   9:test/../h/Console.hpp **** 
  10:test/../h/Console.hpp **** class Console {
  11:test/../h/Console.hpp **** public:
  12:test/../h/Console.hpp ****     static void putc(char chr) {
  13:test/../h/Console.hpp ****         __putc(chr);   // poziva funkciju iz console.h
  43              		.loc 2 13 9
  44              		.loc 2 13 15 is_stmt 0
  45 0028 1305A000 		li	a0,10
  46 002c 97000000 		call	__putc@plt
  46      E7800000 
  47              	.LVL3:
  48              	.L2:
  49              	.LBE33:
  50              	.LBE32:
  51              	.LBE31:
  61:test/ConsumerProducer_CPP_API_test.cpp ****         while (!threadEnd) {
  52              		.loc 1 61 9 is_stmt 1
  61:test/ConsumerProducer_CPP_API_test.cpp ****         while (!threadEnd) {
  53              		.loc 1 61 16
  54 0034 97070000 		lw	a5,.LANCHOR0
  54      83A70700 
  55 003c 639A0704 		bnez	a5,.L3
  56              	.LBB36:
  62:test/ConsumerProducer_CPP_API_test.cpp ****             i++;
  57              		.loc 1 62 13
  62:test/ConsumerProducer_CPP_API_test.cpp ****             i++;
  58              		.loc 1 62 23 is_stmt 0
  59 0040 83378908 		ld	a5,136(s2)
  62:test/ConsumerProducer_CPP_API_test.cpp ****             i++;
  60              		.loc 1 62 38
  61 0044 03B58700 		ld	a0,8(a5)
  62 0048 97000000 		call	_ZN9BufferCPP3getEv@plt
  62      E7800000 
  63              	.LVL4:
  63:test/ConsumerProducer_CPP_API_test.cpp **** 
  64              		.loc 1 63 13 is_stmt 1
  63:test/ConsumerProducer_CPP_API_test.cpp **** 
  65              		.loc 1 63 14 is_stmt 0
  66 0050 9B841900 		addiw	s1,s3,1
  67 0054 9B890400 		sext.w	s3,s1
  68              	.LVL5:
  65:test/ConsumerProducer_CPP_API_test.cpp **** 
  69              		.loc 1 65 13 is_stmt 1
  70              	.LBB34:
  71              	.LBB35:
  72              		.loc 2 13 9
  73              		.loc 2 13 15 is_stmt 0
  74 0058 1375F50F 		andi	a0,a0,0xff
  75              	.LVL6:
  76 005c 97000000 		call	__putc@plt
  76      E7800000 
  77              	.LVL7:
  78              	.LBE35:
  79              	.LBE34:
GAS LISTING /tmp/ccejt4gE.s 			page 4


  67:test/ConsumerProducer_CPP_API_test.cpp ****                 Console::putc('\n');
  80              		.loc 1 67 13 is_stmt 1
  67:test/ConsumerProducer_CPP_API_test.cpp ****                 Console::putc('\n');
  81              		.loc 1 67 19 is_stmt 0
  82 0064 93070005 		li	a5,80
  83 0068 BBE4F402 		remw	s1,s1,a5
  84              	.LVL8:
  67:test/ConsumerProducer_CPP_API_test.cpp ****                 Console::putc('\n');
  85              		.loc 1 67 13
  86 006c E39404FC 		bnez	s1,.L2
  87 0070 6FF09FFB 		j	.L7
  88              	.L8:
  89              	.LBE36:
  90              	.LBB37:
  69:test/ConsumerProducer_CPP_API_test.cpp ****             }
  70:test/ConsumerProducer_CPP_API_test.cpp ****         }
  71:test/ConsumerProducer_CPP_API_test.cpp **** 
  72:test/ConsumerProducer_CPP_API_test.cpp ****         while (td->buffer->getCnt() > 0) {
  73:test/ConsumerProducer_CPP_API_test.cpp ****             int key = td->buffer->get();
  91              		.loc 1 73 13 is_stmt 1
  92              		.loc 1 73 23 is_stmt 0
  93 0074 83378908 		ld	a5,136(s2)
  94              		.loc 1 73 38
  95 0078 03B58700 		ld	a0,8(a5)
  96 007c 97000000 		call	_ZN9BufferCPP3getEv@plt
  96      E7800000 
  97              	.LVL9:
  74:test/ConsumerProducer_CPP_API_test.cpp ****             Console::putc(key);
  98              		.loc 1 74 13 is_stmt 1
  99              	.LBB38:
 100              	.LBB39:
 101              		.loc 2 13 9
 102              		.loc 2 13 15 is_stmt 0
 103 0084 1375F50F 		andi	a0,a0,0xff
 104              	.LVL10:
 105 0088 97000000 		call	__putc@plt
 105      E7800000 
 106              	.LVL11:
 107              	.L3:
 108              	.LBE39:
 109              	.LBE38:
 110              	.LBE37:
  72:test/ConsumerProducer_CPP_API_test.cpp ****             int key = td->buffer->get();
 111              		.loc 1 72 9 is_stmt 1
  72:test/ConsumerProducer_CPP_API_test.cpp ****             int key = td->buffer->get();
 112              		.loc 1 72 37
  72:test/ConsumerProducer_CPP_API_test.cpp ****             int key = td->buffer->get();
 113              		.loc 1 72 16 is_stmt 0
 114 0090 83378908 		ld	a5,136(s2)
  72:test/ConsumerProducer_CPP_API_test.cpp ****             int key = td->buffer->get();
 115              		.loc 1 72 34
 116 0094 03B58700 		ld	a0,8(a5)
 117 0098 97000000 		call	_ZN9BufferCPP6getCntEv@plt
 117      E7800000 
 118              	.LVL12:
  72:test/ConsumerProducer_CPP_API_test.cpp ****             int key = td->buffer->get();
 119              		.loc 1 72 37
GAS LISTING /tmp/ccejt4gE.s 			page 5


 120 00a0 E34AA0FC 		bgtz	a0,.L8
  75:test/ConsumerProducer_CPP_API_test.cpp ****         }
  76:test/ConsumerProducer_CPP_API_test.cpp **** 
  77:test/ConsumerProducer_CPP_API_test.cpp ****         td->sem->signal();
 121              		.loc 1 77 9 is_stmt 1
 122 00a4 83378908 		ld	a5,136(s2)
 123              		.loc 1 77 24 is_stmt 0
 124 00a8 03B50701 		ld	a0,16(a5)
 125 00ac 97000000 		call	_ZN9Semaphore6signalEv@plt
 125      E7800000 
 126              	.LVL13:
  78:test/ConsumerProducer_CPP_API_test.cpp ****     }
 127              		.loc 1 78 5
 128 00b4 83308102 		ld	ra,40(sp)
 129              		.cfi_restore 1
 130 00b8 03340102 		ld	s0,32(sp)
 131              		.cfi_restore 8
 132              		.cfi_def_cfa 2, 48
 133 00bc 83348101 		ld	s1,24(sp)
 134              		.cfi_restore 9
 135 00c0 03390101 		ld	s2,16(sp)
 136              		.cfi_restore 18
 137              	.LVL14:
 138 00c4 83398100 		ld	s3,8(sp)
 139              		.cfi_restore 19
 140              	.LVL15:
 141 00c8 13010103 		addi	sp,sp,48
 142              		.cfi_def_cfa_offset 0
 143 00cc 67800000 		jr	ra
 144              		.cfi_endproc
 145              	.LFE18:
 147              		.section	.text._ZN8ConsumerD2Ev,"axG",@progbits,_ZN8ConsumerD5Ev,comdat
 148              		.align	2
 149              		.weak	_ZN8ConsumerD2Ev
 151              	_ZN8ConsumerD2Ev:
 152              	.LFB21:
  54:test/ConsumerProducer_CPP_API_test.cpp ****     thread_data *td;
 153              		.loc 1 54 7 is_stmt 1
 154              		.cfi_startproc
 155              	.LVL16:
 156 0000 130101FF 		addi	sp,sp,-16
 157              		.cfi_def_cfa_offset 16
 158 0004 23341100 		sd	ra,8(sp)
 159 0008 23308100 		sd	s0,0(sp)
 160              		.cfi_offset 1, -8
 161              		.cfi_offset 8, -16
 162 000c 13040101 		addi	s0,sp,16
 163              		.cfi_def_cfa 8, 0
 164              	.LBB40:
  54:test/ConsumerProducer_CPP_API_test.cpp ****     thread_data *td;
 165              		.loc 1 54 7 is_stmt 0
 166 0010 97070000 		lla	a5,_ZTV8Consumer+16
 166      93870700 
 167 0018 2330F500 		sd	a5,0(a0)
 168 001c 97000000 		call	_ZN6ThreadD2Ev@plt
 168      E7800000 
 169              	.LVL17:
GAS LISTING /tmp/ccejt4gE.s 			page 6


 170              	.LBE40:
 171 0024 83308100 		ld	ra,8(sp)
 172              		.cfi_restore 1
 173 0028 03340100 		ld	s0,0(sp)
 174              		.cfi_restore 8
 175              		.cfi_def_cfa 2, 16
 176 002c 13010101 		addi	sp,sp,16
 177              		.cfi_def_cfa_offset 0
 178 0030 67800000 		jr	ra
 179              		.cfi_endproc
 180              	.LFE21:
 182              		.weak	_ZN8ConsumerD1Ev
 183              		.set	_ZN8ConsumerD1Ev,_ZN8ConsumerD2Ev
 184              		.section	.text._ZN8ConsumerD0Ev,"axG",@progbits,_ZN8ConsumerD5Ev,comdat
 185              		.align	2
 186              		.weak	_ZN8ConsumerD0Ev
 188              	_ZN8ConsumerD0Ev:
 189              	.LFB23:
  54:test/ConsumerProducer_CPP_API_test.cpp ****     thread_data *td;
 190              		.loc 1 54 7 is_stmt 1
 191              		.cfi_startproc
 192              	.LVL18:
 193 0000 130101FE 		addi	sp,sp,-32
 194              		.cfi_def_cfa_offset 32
 195 0004 233C1100 		sd	ra,24(sp)
 196 0008 23388100 		sd	s0,16(sp)
 197 000c 23349100 		sd	s1,8(sp)
 198              		.cfi_offset 1, -8
 199              		.cfi_offset 8, -16
 200              		.cfi_offset 9, -24
 201 0010 13040102 		addi	s0,sp,32
 202              		.cfi_def_cfa 8, 0
 203 0014 93040500 		mv	s1,a0
 204              	.LVL19:
 205              	.LBB41:
 206              	.LBB42:
  54:test/ConsumerProducer_CPP_API_test.cpp ****     thread_data *td;
 207              		.loc 1 54 7 is_stmt 0
 208 0018 97070000 		lla	a5,_ZTV8Consumer+16
 208      93870700 
 209 0020 2330F500 		sd	a5,0(a0)
 210 0024 97000000 		call	_ZN6ThreadD2Ev@plt
 210      E7800000 
 211              	.LVL20:
 212              	.LBE42:
 213              	.LBE41:
 214 002c 13850400 		mv	a0,s1
 215 0030 97000000 		call	_ZN6ThreaddlEPv@plt
 215      E7800000 
 216              	.LVL21:
 217 0038 83308101 		ld	ra,24(sp)
 218              		.cfi_restore 1
 219 003c 03340101 		ld	s0,16(sp)
 220              		.cfi_restore 8
 221              		.cfi_def_cfa 2, 32
 222 0040 83348100 		ld	s1,8(sp)
 223              		.cfi_restore 9
GAS LISTING /tmp/ccejt4gE.s 			page 7


 224              	.LVL22:
 225 0044 13010102 		addi	sp,sp,32
 226              		.cfi_def_cfa_offset 0
 227 0048 67800000 		jr	ra
 228              		.cfi_endproc
 229              	.LFE23:
 231              		.section	.text._ZN16ProducerKeyboradD2Ev,"axG",@progbits,_ZN16ProducerKeyboradD5Ev,comdat
 232              		.align	2
 233              		.weak	_ZN16ProducerKeyboradD2Ev
 235              	_ZN16ProducerKeyboradD2Ev:
 236              	.LFB29:
  17:test/ConsumerProducer_CPP_API_test.cpp ****     thread_data *td;
 237              		.loc 1 17 7 is_stmt 1
 238              		.cfi_startproc
 239              	.LVL23:
 240 0000 130101FF 		addi	sp,sp,-16
 241              		.cfi_def_cfa_offset 16
 242 0004 23341100 		sd	ra,8(sp)
 243 0008 23308100 		sd	s0,0(sp)
 244              		.cfi_offset 1, -8
 245              		.cfi_offset 8, -16
 246 000c 13040101 		addi	s0,sp,16
 247              		.cfi_def_cfa 8, 0
 248              	.LBB43:
  17:test/ConsumerProducer_CPP_API_test.cpp ****     thread_data *td;
 249              		.loc 1 17 7 is_stmt 0
 250 0010 97070000 		lla	a5,_ZTV16ProducerKeyborad+16
 250      93870700 
 251 0018 2330F500 		sd	a5,0(a0)
 252 001c 97000000 		call	_ZN6ThreadD2Ev@plt
 252      E7800000 
 253              	.LVL24:
 254              	.LBE43:
 255 0024 83308100 		ld	ra,8(sp)
 256              		.cfi_restore 1
 257 0028 03340100 		ld	s0,0(sp)
 258              		.cfi_restore 8
 259              		.cfi_def_cfa 2, 16
 260 002c 13010101 		addi	sp,sp,16
 261              		.cfi_def_cfa_offset 0
 262 0030 67800000 		jr	ra
 263              		.cfi_endproc
 264              	.LFE29:
 266              		.weak	_ZN16ProducerKeyboradD1Ev
 267              		.set	_ZN16ProducerKeyboradD1Ev,_ZN16ProducerKeyboradD2Ev
 268              		.section	.text._ZN16ProducerKeyboradD0Ev,"axG",@progbits,_ZN16ProducerKeyboradD5Ev,comdat
 269              		.align	2
 270              		.weak	_ZN16ProducerKeyboradD0Ev
 272              	_ZN16ProducerKeyboradD0Ev:
 273              	.LFB31:
  17:test/ConsumerProducer_CPP_API_test.cpp ****     thread_data *td;
 274              		.loc 1 17 7 is_stmt 1
 275              		.cfi_startproc
 276              	.LVL25:
 277 0000 130101FE 		addi	sp,sp,-32
 278              		.cfi_def_cfa_offset 32
 279 0004 233C1100 		sd	ra,24(sp)
GAS LISTING /tmp/ccejt4gE.s 			page 8


 280 0008 23388100 		sd	s0,16(sp)
 281 000c 23349100 		sd	s1,8(sp)
 282              		.cfi_offset 1, -8
 283              		.cfi_offset 8, -16
 284              		.cfi_offset 9, -24
 285 0010 13040102 		addi	s0,sp,32
 286              		.cfi_def_cfa 8, 0
 287 0014 93040500 		mv	s1,a0
 288              	.LVL26:
 289              	.LBB44:
 290              	.LBB45:
  17:test/ConsumerProducer_CPP_API_test.cpp ****     thread_data *td;
 291              		.loc 1 17 7 is_stmt 0
 292 0018 97070000 		lla	a5,_ZTV16ProducerKeyborad+16
 292      93870700 
 293 0020 2330F500 		sd	a5,0(a0)
 294 0024 97000000 		call	_ZN6ThreadD2Ev@plt
 294      E7800000 
 295              	.LVL27:
 296              	.LBE45:
 297              	.LBE44:
 298 002c 13850400 		mv	a0,s1
 299 0030 97000000 		call	_ZN6ThreaddlEPv@plt
 299      E7800000 
 300              	.LVL28:
 301 0038 83308101 		ld	ra,24(sp)
 302              		.cfi_restore 1
 303 003c 03340101 		ld	s0,16(sp)
 304              		.cfi_restore 8
 305              		.cfi_def_cfa 2, 32
 306 0040 83348100 		ld	s1,8(sp)
 307              		.cfi_restore 9
 308              	.LVL29:
 309 0044 13010102 		addi	sp,sp,32
 310              		.cfi_def_cfa_offset 0
 311 0048 67800000 		jr	ra
 312              		.cfi_endproc
 313              	.LFE31:
 315              		.section	.text._ZN8ProducerD2Ev,"axG",@progbits,_ZN8ProducerD5Ev,comdat
 316              		.align	2
 317              		.weak	_ZN8ProducerD2Ev
 319              	_ZN8ProducerD2Ev:
 320              	.LFB25:
  37:test/ConsumerProducer_CPP_API_test.cpp ****     thread_data *td;
 321              		.loc 1 37 7 is_stmt 1
 322              		.cfi_startproc
 323              	.LVL30:
 324 0000 130101FF 		addi	sp,sp,-16
 325              		.cfi_def_cfa_offset 16
 326 0004 23341100 		sd	ra,8(sp)
 327 0008 23308100 		sd	s0,0(sp)
 328              		.cfi_offset 1, -8
 329              		.cfi_offset 8, -16
 330 000c 13040101 		addi	s0,sp,16
 331              		.cfi_def_cfa 8, 0
 332              	.LBB46:
  37:test/ConsumerProducer_CPP_API_test.cpp ****     thread_data *td;
GAS LISTING /tmp/ccejt4gE.s 			page 9


 333              		.loc 1 37 7 is_stmt 0
 334 0010 97070000 		lla	a5,_ZTV8Producer+16
 334      93870700 
 335 0018 2330F500 		sd	a5,0(a0)
 336 001c 97000000 		call	_ZN6ThreadD2Ev@plt
 336      E7800000 
 337              	.LVL31:
 338              	.LBE46:
 339 0024 83308100 		ld	ra,8(sp)
 340              		.cfi_restore 1
 341 0028 03340100 		ld	s0,0(sp)
 342              		.cfi_restore 8
 343              		.cfi_def_cfa 2, 16
 344 002c 13010101 		addi	sp,sp,16
 345              		.cfi_def_cfa_offset 0
 346 0030 67800000 		jr	ra
 347              		.cfi_endproc
 348              	.LFE25:
 350              		.weak	_ZN8ProducerD1Ev
 351              		.set	_ZN8ProducerD1Ev,_ZN8ProducerD2Ev
 352              		.section	.text._ZN8ProducerD0Ev,"axG",@progbits,_ZN8ProducerD5Ev,comdat
 353              		.align	2
 354              		.weak	_ZN8ProducerD0Ev
 356              	_ZN8ProducerD0Ev:
 357              	.LFB27:
  37:test/ConsumerProducer_CPP_API_test.cpp ****     thread_data *td;
 358              		.loc 1 37 7 is_stmt 1
 359              		.cfi_startproc
 360              	.LVL32:
 361 0000 130101FE 		addi	sp,sp,-32
 362              		.cfi_def_cfa_offset 32
 363 0004 233C1100 		sd	ra,24(sp)
 364 0008 23388100 		sd	s0,16(sp)
 365 000c 23349100 		sd	s1,8(sp)
 366              		.cfi_offset 1, -8
 367              		.cfi_offset 8, -16
 368              		.cfi_offset 9, -24
 369 0010 13040102 		addi	s0,sp,32
 370              		.cfi_def_cfa 8, 0
 371 0014 93040500 		mv	s1,a0
 372              	.LVL33:
 373              	.LBB47:
 374              	.LBB48:
  37:test/ConsumerProducer_CPP_API_test.cpp ****     thread_data *td;
 375              		.loc 1 37 7 is_stmt 0
 376 0018 97070000 		lla	a5,_ZTV8Producer+16
 376      93870700 
 377 0020 2330F500 		sd	a5,0(a0)
 378 0024 97000000 		call	_ZN6ThreadD2Ev@plt
 378      E7800000 
 379              	.LVL34:
 380              	.LBE48:
 381              	.LBE47:
 382 002c 13850400 		mv	a0,s1
 383 0030 97000000 		call	_ZN6ThreaddlEPv@plt
 383      E7800000 
 384              	.LVL35:
GAS LISTING /tmp/ccejt4gE.s 			page 10


 385 0038 83308101 		ld	ra,24(sp)
 386              		.cfi_restore 1
 387 003c 03340101 		ld	s0,16(sp)
 388              		.cfi_restore 8
 389              		.cfi_def_cfa 2, 32
 390 0040 83348100 		ld	s1,8(sp)
 391              		.cfi_restore 9
 392              	.LVL36:
 393 0044 13010102 		addi	sp,sp,32
 394              		.cfi_def_cfa_offset 0
 395 0048 67800000 		jr	ra
 396              		.cfi_endproc
 397              	.LFE27:
 399              		.section	.text._ZN16ProducerKeyborad3runEv,"axG",@progbits,_ZN16ProducerKeyborad3runEv,comdat
 400              		.align	2
 401              		.weak	_ZN16ProducerKeyborad3runEv
 403              	_ZN16ProducerKeyborad3runEv:
 404              	.LFB10:
  22:test/ConsumerProducer_CPP_API_test.cpp ****         int key;
 405              		.loc 1 22 10 is_stmt 1
 406              		.cfi_startproc
 407              	.LVL37:
 408 0000 130101FE 		addi	sp,sp,-32
 409              		.cfi_def_cfa_offset 32
 410 0004 233C1100 		sd	ra,24(sp)
 411 0008 23388100 		sd	s0,16(sp)
 412 000c 23349100 		sd	s1,8(sp)
 413              		.cfi_offset 1, -8
 414              		.cfi_offset 8, -16
 415              		.cfi_offset 9, -24
 416 0010 13040102 		addi	s0,sp,32
 417              		.cfi_def_cfa 8, 0
 418 0014 93040500 		mv	s1,a0
  23:test/ConsumerProducer_CPP_API_test.cpp ****         int i = 0;
 419              		.loc 1 23 9
  24:test/ConsumerProducer_CPP_API_test.cpp ****         while ((key = getc()) != 0x1b) {
 420              		.loc 1 24 9
 421              	.LVL38:
 422              	.L23:
  25:test/ConsumerProducer_CPP_API_test.cpp ****             td->buffer->put(key);
 423              		.loc 1 25 9
  25:test/ConsumerProducer_CPP_API_test.cpp ****             td->buffer->put(key);
 424              		.loc 1 25 31
  25:test/ConsumerProducer_CPP_API_test.cpp ****             td->buffer->put(key);
 425              		.loc 1 25 27 is_stmt 0
 426 0018 97000000 		call	getc@plt
 426      E7800000 
 427              	.LVL39:
  25:test/ConsumerProducer_CPP_API_test.cpp ****             td->buffer->put(key);
 428              		.loc 1 25 21
 429 0020 9B050500 		sext.w	a1,a0
 430              	.LVL40:
  25:test/ConsumerProducer_CPP_API_test.cpp ****             td->buffer->put(key);
 431              		.loc 1 25 31
 432 0024 9307B001 		li	a5,27
 433 0028 638CF500 		beq	a1,a5,.L22
  26:test/ConsumerProducer_CPP_API_test.cpp ****             i++;
GAS LISTING /tmp/ccejt4gE.s 			page 11


 434              		.loc 1 26 13 is_stmt 1
 435 002c 83B78408 		ld	a5,136(s1)
  26:test/ConsumerProducer_CPP_API_test.cpp ****             i++;
 436              		.loc 1 26 28 is_stmt 0
 437 0030 03B58700 		ld	a0,8(a5)
 438 0034 97000000 		call	_ZN9BufferCPP3putEi@plt
 438      E7800000 
 439              	.LVL41:
  27:test/ConsumerProducer_CPP_API_test.cpp ****         }
 440              		.loc 1 27 13 is_stmt 1
  25:test/ConsumerProducer_CPP_API_test.cpp ****             td->buffer->put(key);
 441              		.loc 1 25 9 is_stmt 0
 442 003c 6FF0DFFD 		j	.L23
 443              	.LVL42:
 444              	.L22:
  30:test/ConsumerProducer_CPP_API_test.cpp ****         td->buffer->put('!');
 445              		.loc 1 30 9 is_stmt 1
  30:test/ConsumerProducer_CPP_API_test.cpp ****         td->buffer->put('!');
 446              		.loc 1 30 19 is_stmt 0
 447 0040 93071000 		li	a5,1
 448 0044 17070000 		sw	a5,.LANCHOR0,a4
 448      2320F700 
  31:test/ConsumerProducer_CPP_API_test.cpp **** 
 449              		.loc 1 31 9 is_stmt 1
 450 004c 83B78408 		ld	a5,136(s1)
  31:test/ConsumerProducer_CPP_API_test.cpp **** 
 451              		.loc 1 31 24 is_stmt 0
 452 0050 93051002 		li	a1,33
 453              	.LVL43:
 454 0054 03B58700 		ld	a0,8(a5)
 455              	.LVL44:
 456 0058 97000000 		call	_ZN9BufferCPP3putEi@plt
 456      E7800000 
 457              	.LVL45:
  33:test/ConsumerProducer_CPP_API_test.cpp ****     }
 458              		.loc 1 33 9 is_stmt 1
 459 0060 83B78408 		ld	a5,136(s1)
  33:test/ConsumerProducer_CPP_API_test.cpp ****     }
 460              		.loc 1 33 24 is_stmt 0
 461 0064 03B50701 		ld	a0,16(a5)
 462 0068 97000000 		call	_ZN9Semaphore6signalEv@plt
 462      E7800000 
 463              	.LVL46:
  34:test/ConsumerProducer_CPP_API_test.cpp **** };
 464              		.loc 1 34 5
 465 0070 83308101 		ld	ra,24(sp)
 466              		.cfi_restore 1
 467 0074 03340101 		ld	s0,16(sp)
 468              		.cfi_restore 8
 469              		.cfi_def_cfa 2, 32
 470 0078 83348100 		ld	s1,8(sp)
 471              		.cfi_restore 9
 472              	.LVL47:
 473 007c 13010102 		addi	sp,sp,32
 474              		.cfi_def_cfa_offset 0
 475 0080 67800000 		jr	ra
 476              		.cfi_endproc
GAS LISTING /tmp/ccejt4gE.s 			page 12


 477              	.LFE10:
 479              		.section	.text._ZN8Producer3runEv,"axG",@progbits,_ZN8Producer3runEv,comdat
 480              		.align	2
 481              		.weak	_ZN8Producer3runEv
 483              	_ZN8Producer3runEv:
 484              	.LFB14:
  42:test/ConsumerProducer_CPP_API_test.cpp ****         int i = 0;
 485              		.loc 1 42 10 is_stmt 1
 486              		.cfi_startproc
 487              	.LVL48:
 488 0000 130101FE 		addi	sp,sp,-32
 489              		.cfi_def_cfa_offset 32
 490 0004 233C1100 		sd	ra,24(sp)
 491 0008 23388100 		sd	s0,16(sp)
 492 000c 23349100 		sd	s1,8(sp)
 493              		.cfi_offset 1, -8
 494              		.cfi_offset 8, -16
 495              		.cfi_offset 9, -24
 496 0010 13040102 		addi	s0,sp,32
 497              		.cfi_def_cfa 8, 0
 498 0014 93040500 		mv	s1,a0
  43:test/ConsumerProducer_CPP_API_test.cpp ****         while (!threadEnd) {
 499              		.loc 1 43 9
 500              	.LVL49:
 501              	.L27:
  44:test/ConsumerProducer_CPP_API_test.cpp ****             td->buffer->put(td->id + '0');
 502              		.loc 1 44 9
  44:test/ConsumerProducer_CPP_API_test.cpp ****             td->buffer->put(td->id + '0');
 503              		.loc 1 44 16
 504 0018 97070000 		lw	a5,.LANCHOR0
 504      83A70700 
 505 0020 63900702 		bnez	a5,.L26
  45:test/ConsumerProducer_CPP_API_test.cpp ****             i++;
 506              		.loc 1 45 13
 507 0024 83B78408 		ld	a5,136(s1)
  45:test/ConsumerProducer_CPP_API_test.cpp ****             i++;
 508              		.loc 1 45 33 is_stmt 0
 509 0028 83A50700 		lw	a1,0(a5)
  45:test/ConsumerProducer_CPP_API_test.cpp ****             i++;
 510              		.loc 1 45 28
 511 002c 9B850503 		addiw	a1,a1,48
 512 0030 03B58700 		ld	a0,8(a5)
 513 0034 97000000 		call	_ZN9BufferCPP3putEi@plt
 513      E7800000 
 514              	.LVL50:
  46:test/ConsumerProducer_CPP_API_test.cpp ****             //Thread::sleep((i + td->id) % 5);
 515              		.loc 1 46 13 is_stmt 1
  44:test/ConsumerProducer_CPP_API_test.cpp ****             td->buffer->put(td->id + '0');
 516              		.loc 1 44 9 is_stmt 0
 517 003c 6FF0DFFD 		j	.L27
 518              	.L26:
  50:test/ConsumerProducer_CPP_API_test.cpp ****     }
 519              		.loc 1 50 9 is_stmt 1
 520 0040 83B78408 		ld	a5,136(s1)
  50:test/ConsumerProducer_CPP_API_test.cpp ****     }
 521              		.loc 1 50 24 is_stmt 0
 522 0044 03B50701 		ld	a0,16(a5)
GAS LISTING /tmp/ccejt4gE.s 			page 13


 523 0048 97000000 		call	_ZN9Semaphore6signalEv@plt
 523      E7800000 
 524              	.LVL51:
  51:test/ConsumerProducer_CPP_API_test.cpp **** };
 525              		.loc 1 51 5
 526 0050 83308101 		ld	ra,24(sp)
 527              		.cfi_restore 1
 528 0054 03340101 		ld	s0,16(sp)
 529              		.cfi_restore 8
 530              		.cfi_def_cfa 2, 32
 531 0058 83348100 		ld	s1,8(sp)
 532              		.cfi_restore 9
 533              	.LVL52:
 534 005c 13010102 		addi	sp,sp,32
 535              		.cfi_def_cfa_offset 0
 536 0060 67800000 		jr	ra
 537              		.cfi_endproc
 538              	.LFE14:
 540              		.section	.rodata.str1.8,"aMS",@progbits,1
 541              		.align	3
 542              	.LC0:
 543 0000 556E6573 		.string	"Unesite broj proizvodjaca?\n"
 543      69746520 
 543      62726F6A 
 543      2070726F 
 543      697A766F 
 544 001c 00000000 		.align	3
 545              	.LC1:
 546 0020 556E6573 		.string	"Unesite velicinu bafera?\n"
 546      69746520 
 546      76656C69 
 546      63696E75 
 546      20626166 
 547 003a 00000000 		.align	3
 547      0000
 548              	.LC2:
 549 0040 42726F6A 		.string	"Broj proizvodjaca "
 549      2070726F 
 549      697A766F 
 549      646A6163 
 549      612000
 550 0053 00000000 		.align	3
 550      00
 551              	.LC3:
 552 0058 20692076 		.string	" i velicina bafera "
 552      656C6963 
 552      696E6120 
 552      62616665 
 552      72612000 
 553 006c 00000000 		.align	3
 554              	.LC4:
 555 0070 2E0A00   		.string	".\n"
 556 0073 00000000 		.align	3
 556      00
 557              	.LC5:
 558 0078 42726F6A 		.string	"Broj proizvodjaca ne sme biti manji od velicine bafera!\n"
 558      2070726F 
GAS LISTING /tmp/ccejt4gE.s 			page 14


 558      697A766F 
 558      646A6163 
 558      61206E65 
 559 00b1 00000000 		.align	3
 559      000000
 560              	.LC6:
 561 00b8 42726F6A 		.string	"Broj proizvodjaca mora biti veci od nula!\n"
 561      2070726F 
 561      697A766F 
 561      646A6163 
 561      61206D6F 
 562              		.text
 563              		.align	2
 564              		.globl	_Z20testConsumerProducerv
 566              	_Z20testConsumerProducerv:
 567              	.LFB19:
  79:test/ConsumerProducer_CPP_API_test.cpp **** };
  80:test/ConsumerProducer_CPP_API_test.cpp **** 
  81:test/ConsumerProducer_CPP_API_test.cpp **** void testConsumerProducer() {
 568              		.loc 1 81 29 is_stmt 1
 569              		.cfi_startproc
 570              		.cfi_personality 0x9b,DW.ref.__gxx_personality_v0
 571              		.cfi_lsda 0x1b,.LLSDA19
 572 0000 130101F8 		addi	sp,sp,-128
 573              		.cfi_def_cfa_offset 128
 574 0004 233C1106 		sd	ra,120(sp)
 575 0008 23388106 		sd	s0,112(sp)
 576 000c 23349106 		sd	s1,104(sp)
 577 0010 23302107 		sd	s2,96(sp)
 578 0014 233C3105 		sd	s3,88(sp)
 579 0018 23384105 		sd	s4,80(sp)
 580 001c 23345105 		sd	s5,72(sp)
 581 0020 23306105 		sd	s6,64(sp)
 582 0024 233C7103 		sd	s7,56(sp)
 583 0028 23388103 		sd	s8,48(sp)
 584 002c 23349103 		sd	s9,40(sp)
 585              		.cfi_offset 1, -8
 586              		.cfi_offset 8, -16
 587              		.cfi_offset 9, -24
 588              		.cfi_offset 18, -32
 589              		.cfi_offset 19, -40
 590              		.cfi_offset 20, -48
 591              		.cfi_offset 21, -56
 592              		.cfi_offset 22, -64
 593              		.cfi_offset 23, -72
 594              		.cfi_offset 24, -80
 595              		.cfi_offset 25, -88
 596 0030 13040108 		addi	s0,sp,128
 597              		.cfi_def_cfa 8, 0
  82:test/ConsumerProducer_CPP_API_test.cpp ****     char input[30];
  83:test/ConsumerProducer_CPP_API_test.cpp ****     int n, threadNum;
  84:test/ConsumerProducer_CPP_API_test.cpp **** 
  85:test/ConsumerProducer_CPP_API_test.cpp ****     printString("Unesite broj proizvodjaca?\n");
  86:test/ConsumerProducer_CPP_API_test.cpp ****     getString(input, 30);
  87:test/ConsumerProducer_CPP_API_test.cpp ****     threadNum = stringToInt(input);
  88:test/ConsumerProducer_CPP_API_test.cpp **** 
  89:test/ConsumerProducer_CPP_API_test.cpp ****     printString("Unesite velicinu bafera?\n");
GAS LISTING /tmp/ccejt4gE.s 			page 15


  90:test/ConsumerProducer_CPP_API_test.cpp ****     getString(input, 30);
  91:test/ConsumerProducer_CPP_API_test.cpp ****     n = stringToInt(input);
  92:test/ConsumerProducer_CPP_API_test.cpp **** 
  93:test/ConsumerProducer_CPP_API_test.cpp ****     printString("Broj proizvodjaca ");
  94:test/ConsumerProducer_CPP_API_test.cpp ****     printInt(threadNum);
  95:test/ConsumerProducer_CPP_API_test.cpp ****     printString(" i velicina bafera ");
  96:test/ConsumerProducer_CPP_API_test.cpp ****     printInt(n);
  97:test/ConsumerProducer_CPP_API_test.cpp ****     printString(".\n");
  98:test/ConsumerProducer_CPP_API_test.cpp **** 
  99:test/ConsumerProducer_CPP_API_test.cpp ****     if (threadNum > n) {
 100:test/ConsumerProducer_CPP_API_test.cpp ****         printString("Broj proizvodjaca ne sme biti manji od velicine bafera!\n");
 101:test/ConsumerProducer_CPP_API_test.cpp ****         return;
 102:test/ConsumerProducer_CPP_API_test.cpp ****     } else if (threadNum < 1) {
 103:test/ConsumerProducer_CPP_API_test.cpp ****         printString("Broj proizvodjaca mora biti veci od nula!\n");
 104:test/ConsumerProducer_CPP_API_test.cpp ****         return;
 105:test/ConsumerProducer_CPP_API_test.cpp ****     }
 106:test/ConsumerProducer_CPP_API_test.cpp **** 
 107:test/ConsumerProducer_CPP_API_test.cpp ****     BufferCPP *buffer = new BufferCPP(n);
 108:test/ConsumerProducer_CPP_API_test.cpp **** 
 109:test/ConsumerProducer_CPP_API_test.cpp ****     waitForAll = new Semaphore(0);
 110:test/ConsumerProducer_CPP_API_test.cpp ****     Thread *producers[threadNum];
 111:test/ConsumerProducer_CPP_API_test.cpp ****     thread_data threadData[threadNum + 1];
 112:test/ConsumerProducer_CPP_API_test.cpp **** 
 113:test/ConsumerProducer_CPP_API_test.cpp ****     threadData[threadNum].id = threadNum;
 114:test/ConsumerProducer_CPP_API_test.cpp ****     threadData[threadNum].buffer = buffer;
 115:test/ConsumerProducer_CPP_API_test.cpp ****     threadData[threadNum].sem = waitForAll;
 116:test/ConsumerProducer_CPP_API_test.cpp ****     Thread *consumer = new Consumer(&threadData[threadNum]);
 117:test/ConsumerProducer_CPP_API_test.cpp ****     consumer->start();
 118:test/ConsumerProducer_CPP_API_test.cpp **** 
 119:test/ConsumerProducer_CPP_API_test.cpp ****     threadData[0].id = 0;
 120:test/ConsumerProducer_CPP_API_test.cpp ****     threadData[0].buffer = buffer;
 121:test/ConsumerProducer_CPP_API_test.cpp ****     threadData[0].sem = waitForAll;
 122:test/ConsumerProducer_CPP_API_test.cpp ****     producers[0] = new ProducerKeyborad(&threadData[0]);
 123:test/ConsumerProducer_CPP_API_test.cpp ****     producers[0]->start();
 124:test/ConsumerProducer_CPP_API_test.cpp **** 
 125:test/ConsumerProducer_CPP_API_test.cpp ****     for (int i = 1; i < threadNum; i++) {
 126:test/ConsumerProducer_CPP_API_test.cpp ****         threadData[i].id = i;
 127:test/ConsumerProducer_CPP_API_test.cpp ****         threadData[i].buffer = buffer;
 128:test/ConsumerProducer_CPP_API_test.cpp ****         threadData[i].sem = waitForAll;
 129:test/ConsumerProducer_CPP_API_test.cpp **** 
 130:test/ConsumerProducer_CPP_API_test.cpp ****         producers[i] = new Producer(&threadData[i]);
 131:test/ConsumerProducer_CPP_API_test.cpp ****         producers[i]->start();
 132:test/ConsumerProducer_CPP_API_test.cpp **** 
 133:test/ConsumerProducer_CPP_API_test.cpp ****     }
 134:test/ConsumerProducer_CPP_API_test.cpp **** 
 135:test/ConsumerProducer_CPP_API_test.cpp ****     Thread::dispatch();
 136:test/ConsumerProducer_CPP_API_test.cpp **** 
 137:test/ConsumerProducer_CPP_API_test.cpp ****     for (int i = 0; i <= threadNum; i++) {
 138:test/ConsumerProducer_CPP_API_test.cpp ****         waitForAll->wait();
 139:test/ConsumerProducer_CPP_API_test.cpp ****     }
 140:test/ConsumerProducer_CPP_API_test.cpp **** 
 141:test/ConsumerProducer_CPP_API_test.cpp ****     delete waitForAll;
 142:test/ConsumerProducer_CPP_API_test.cpp ****     for (int i = 0; i < threadNum; i++) {
 143:test/ConsumerProducer_CPP_API_test.cpp ****         delete producers[i];
 144:test/ConsumerProducer_CPP_API_test.cpp ****     }
 145:test/ConsumerProducer_CPP_API_test.cpp ****     delete consumer;
 146:test/ConsumerProducer_CPP_API_test.cpp ****     delete buffer;
GAS LISTING /tmp/ccejt4gE.s 			page 16


 598              		.loc 1 146 18 is_stmt 0
 599 0034 130C0100 		mv	s8,sp
  82:test/ConsumerProducer_CPP_API_test.cpp ****     char input[30];
 600              		.loc 1 82 5 is_stmt 1
  83:test/ConsumerProducer_CPP_API_test.cpp **** 
 601              		.loc 1 83 5
  85:test/ConsumerProducer_CPP_API_test.cpp ****     getString(input, 30);
 602              		.loc 1 85 5
  85:test/ConsumerProducer_CPP_API_test.cpp ****     getString(input, 30);
 603              		.loc 1 85 16 is_stmt 0
 604 0038 17050000 		lla	a0,.LC0
 604      13050500 
 605              	.LEHB0:
 606 0040 97000000 		call	_Z11printStringPKc@plt
 606      E7800000 
 607              	.LVL53:
  86:test/ConsumerProducer_CPP_API_test.cpp ****     threadNum = stringToInt(input);
 608              		.loc 1 86 5 is_stmt 1
  86:test/ConsumerProducer_CPP_API_test.cpp ****     threadNum = stringToInt(input);
 609              		.loc 1 86 14 is_stmt 0
 610 0048 9305E001 		li	a1,30
 611 004c 930404F8 		addi	s1,s0,-128
 612 0050 13850400 		mv	a0,s1
 613 0054 97000000 		call	_Z9getStringPci@plt
 613      E7800000 
 614              	.LVL54:
  87:test/ConsumerProducer_CPP_API_test.cpp **** 
 615              		.loc 1 87 5 is_stmt 1
  87:test/ConsumerProducer_CPP_API_test.cpp **** 
 616              		.loc 1 87 28 is_stmt 0
 617 005c 13850400 		mv	a0,s1
 618 0060 97000000 		call	_Z11stringToIntPKc@plt
 618      E7800000 
 619              	.LVL55:
 620 0068 93090500 		mv	s3,a0
 621              	.LVL56:
  89:test/ConsumerProducer_CPP_API_test.cpp ****     getString(input, 30);
 622              		.loc 1 89 5 is_stmt 1
  89:test/ConsumerProducer_CPP_API_test.cpp ****     getString(input, 30);
 623              		.loc 1 89 16 is_stmt 0
 624 006c 17050000 		lla	a0,.LC1
 624      13050500 
 625 0074 97000000 		call	_Z11printStringPKc@plt
 625      E7800000 
 626              	.LVL57:
  90:test/ConsumerProducer_CPP_API_test.cpp ****     n = stringToInt(input);
 627              		.loc 1 90 5 is_stmt 1
  90:test/ConsumerProducer_CPP_API_test.cpp ****     n = stringToInt(input);
 628              		.loc 1 90 14 is_stmt 0
 629 007c 9305E001 		li	a1,30
 630 0080 13850400 		mv	a0,s1
 631 0084 97000000 		call	_Z9getStringPci@plt
 631      E7800000 
 632              	.LVL58:
  91:test/ConsumerProducer_CPP_API_test.cpp **** 
 633              		.loc 1 91 5 is_stmt 1
  91:test/ConsumerProducer_CPP_API_test.cpp **** 
GAS LISTING /tmp/ccejt4gE.s 			page 17


 634              		.loc 1 91 20 is_stmt 0
 635 008c 13850400 		mv	a0,s1
 636 0090 97000000 		call	_Z11stringToIntPKc@plt
 636      E7800000 
 637              	.LVL59:
 638 0098 93040500 		mv	s1,a0
 639              	.LVL60:
  93:test/ConsumerProducer_CPP_API_test.cpp ****     printInt(threadNum);
 640              		.loc 1 93 5 is_stmt 1
  93:test/ConsumerProducer_CPP_API_test.cpp ****     printInt(threadNum);
 641              		.loc 1 93 16 is_stmt 0
 642 009c 17050000 		lla	a0,.LC2
 642      13050500 
 643 00a4 97000000 		call	_Z11printStringPKc@plt
 643      E7800000 
 644              	.LVL61:
  94:test/ConsumerProducer_CPP_API_test.cpp ****     printString(" i velicina bafera ");
 645              		.loc 1 94 5 is_stmt 1
  94:test/ConsumerProducer_CPP_API_test.cpp ****     printString(" i velicina bafera ");
 646              		.loc 1 94 13 is_stmt 0
 647 00ac 13060000 		li	a2,0
 648 00b0 9305A000 		li	a1,10
 649 00b4 13850900 		mv	a0,s3
 650 00b8 97000000 		call	_Z8printIntiii@plt
 650      E7800000 
 651              	.LVL62:
  95:test/ConsumerProducer_CPP_API_test.cpp ****     printInt(n);
 652              		.loc 1 95 5 is_stmt 1
  95:test/ConsumerProducer_CPP_API_test.cpp ****     printInt(n);
 653              		.loc 1 95 16 is_stmt 0
 654 00c0 17050000 		lla	a0,.LC3
 654      13050500 
 655 00c8 97000000 		call	_Z11printStringPKc@plt
 655      E7800000 
 656              	.LVL63:
  96:test/ConsumerProducer_CPP_API_test.cpp ****     printString(".\n");
 657              		.loc 1 96 5 is_stmt 1
  96:test/ConsumerProducer_CPP_API_test.cpp ****     printString(".\n");
 658              		.loc 1 96 13 is_stmt 0
 659 00d0 13060000 		li	a2,0
 660 00d4 9305A000 		li	a1,10
 661 00d8 13850400 		mv	a0,s1
 662 00dc 97000000 		call	_Z8printIntiii@plt
 662      E7800000 
 663              	.LVL64:
  97:test/ConsumerProducer_CPP_API_test.cpp **** 
 664              		.loc 1 97 5 is_stmt 1
  97:test/ConsumerProducer_CPP_API_test.cpp **** 
 665              		.loc 1 97 16 is_stmt 0
 666 00e4 17050000 		lla	a0,.LC4
 666      13050500 
 667 00ec 97000000 		call	_Z11printStringPKc@plt
 667      E7800000 
 668              	.LVL65:
  99:test/ConsumerProducer_CPP_API_test.cpp ****         printString("Broj proizvodjaca ne sme biti manji od velicine bafera!\n");
 669              		.loc 1 99 5 is_stmt 1
 670 00f4 63C43403 		bgt	s3,s1,.L55
GAS LISTING /tmp/ccejt4gE.s 			page 18


 102:test/ConsumerProducer_CPP_API_test.cpp ****         printString("Broj proizvodjaca mora biti veci od nula!\n");
 671              		.loc 1 102 12
 672 00f8 635C3003 		blez	s3,.L56
 107:test/ConsumerProducer_CPP_API_test.cpp **** 
 673              		.loc 1 107 5
 107:test/ConsumerProducer_CPP_API_test.cpp **** 
 674              		.loc 1 107 40 is_stmt 0
 675 00fc 13058003 		li	a0,56
 676 0100 97000000 		call	_Znwm@plt
 676      E7800000 
 677              	.LVL66:
 678              	.LEHE0:
 679 0108 930A0500 		mv	s5,a0
 680 010c 93850400 		mv	a1,s1
 681              	.LEHB1:
 682 0110 97000000 		call	_ZN9BufferCPPC1Ei@plt
 682      E7800000 
 683              	.LVL67:
 684              	.LEHE1:
 685 0118 6F000003 		j	.L57
 686              	.L55:
 100:test/ConsumerProducer_CPP_API_test.cpp ****         return;
 687              		.loc 1 100 9 is_stmt 1
 100:test/ConsumerProducer_CPP_API_test.cpp ****         return;
 688              		.loc 1 100 20 is_stmt 0
 689 011c 17050000 		lla	a0,.LC5
 689      13050500 
 690              	.LEHB2:
 691 0124 97000000 		call	_Z11printStringPKc@plt
 691      E7800000 
 692              	.LVL68:
 101:test/ConsumerProducer_CPP_API_test.cpp ****     } else if (threadNum < 1) {
 693              		.loc 1 101 9 is_stmt 1
 694 012c 6F004001 		j	.L31
 695              	.L56:
 103:test/ConsumerProducer_CPP_API_test.cpp ****         return;
 696              		.loc 1 103 9
 103:test/ConsumerProducer_CPP_API_test.cpp ****         return;
 697              		.loc 1 103 20 is_stmt 0
 698 0130 17050000 		lla	a0,.LC6
 698      13050500 
 699 0138 97000000 		call	_Z11printStringPKc@plt
 699      E7800000 
 700              	.LVL69:
 104:test/ConsumerProducer_CPP_API_test.cpp ****     }
 701              		.loc 1 104 9 is_stmt 1
 702              	.L31:
 703 0140 13010C00 		mv	sp,s8
 704 0144 6F004021 		j	.L29
 705              	.L57:
 706              	.LVL70:
 109:test/ConsumerProducer_CPP_API_test.cpp ****     Thread *producers[threadNum];
 707              		.loc 1 109 5 discriminator 3
 109:test/ConsumerProducer_CPP_API_test.cpp ****     Thread *producers[threadNum];
 708              		.loc 1 109 33 is_stmt 0 discriminator 3
 709 0148 13050002 		li	a0,32
 710 014c 97000000 		call	_ZN9SemaphorenwEm@plt
GAS LISTING /tmp/ccejt4gE.s 			page 19


 710      E7800000 
 711              	.LVL71:
 712              	.LEHE2:
 713 0154 13090500 		mv	s2,a0
 714 0158 93050000 		li	a1,0
 715              	.LEHB3:
 716 015c 97000000 		call	_ZN9SemaphoreC1Ej@plt
 716      E7800000 
 717              	.LVL72:
 718              	.LEHE3:
 109:test/ConsumerProducer_CPP_API_test.cpp ****     Thread *producers[threadNum];
 719              		.loc 1 109 16 discriminator 3
 720 0164 97070000 		sd	s2,.LANCHOR0+8,a5
 720      23B02701 
 110:test/ConsumerProducer_CPP_API_test.cpp ****     thread_data threadData[threadNum + 1];
 721              		.loc 1 110 5 is_stmt 1 discriminator 3
 722              	.LVL73:
 110:test/ConsumerProducer_CPP_API_test.cpp ****     thread_data threadData[threadNum + 1];
 723              		.loc 1 110 13 is_stmt 0 discriminator 3
 724 016c 93973900 		slli	a5,s3,3
 725 0170 9387F700 		addi	a5,a5,15
 726 0174 93F707FF 		andi	a5,a5,-16
 727 0178 3301F140 		sub	sp,sp,a5
 728 017c 130A0100 		mv	s4,sp
 729              	.LVL74:
 111:test/ConsumerProducer_CPP_API_test.cpp **** 
 730              		.loc 1 111 5 is_stmt 1 discriminator 3
 111:test/ConsumerProducer_CPP_API_test.cpp **** 
 731              		.loc 1 111 38 is_stmt 0 discriminator 3
 732 0180 1B871900 		addiw	a4,s3,1
 733              	.LVL75:
 111:test/ConsumerProducer_CPP_API_test.cpp **** 
 734              		.loc 1 111 17 discriminator 3
 735 0184 93171700 		slli	a5,a4,1
 736 0188 B387E700 		add	a5,a5,a4
 737 018c 93973700 		slli	a5,a5,3
 738 0190 9387F700 		addi	a5,a5,15
 739 0194 93F707FF 		andi	a5,a5,-16
 740 0198 3301F140 		sub	sp,sp,a5
 741              	.LVL76:
 742 019c 130B0100 		mv	s6,sp
 743              	.LVL77:
 113:test/ConsumerProducer_CPP_API_test.cpp ****     threadData[threadNum].buffer = buffer;
 744              		.loc 1 113 5 is_stmt 1 discriminator 3
 113:test/ConsumerProducer_CPP_API_test.cpp ****     threadData[threadNum].buffer = buffer;
 745              		.loc 1 113 30 is_stmt 0 discriminator 3
 746 01a0 93941900 		slli	s1,s3,1
 747              	.LVL78:
 748 01a4 B3843401 		add	s1,s1,s3
 749 01a8 93943400 		slli	s1,s1,3
 750 01ac B3049B00 		add	s1,s6,s1
 751 01b0 23A03401 		sw	s3,0(s1)
 114:test/ConsumerProducer_CPP_API_test.cpp ****     threadData[threadNum].sem = waitForAll;
 752              		.loc 1 114 5 is_stmt 1 discriminator 3
 114:test/ConsumerProducer_CPP_API_test.cpp ****     threadData[threadNum].sem = waitForAll;
 753              		.loc 1 114 34 is_stmt 0 discriminator 3
 754 01b4 23B45401 		sd	s5,8(s1)
GAS LISTING /tmp/ccejt4gE.s 			page 20


 115:test/ConsumerProducer_CPP_API_test.cpp ****     Thread *consumer = new Consumer(&threadData[threadNum]);
 755              		.loc 1 115 5 is_stmt 1 discriminator 3
 115:test/ConsumerProducer_CPP_API_test.cpp ****     Thread *consumer = new Consumer(&threadData[threadNum]);
 756              		.loc 1 115 31 is_stmt 0 discriminator 3
 757 01b8 23B82401 		sd	s2,16(s1)
 116:test/ConsumerProducer_CPP_API_test.cpp ****     consumer->start();
 758              		.loc 1 116 5 is_stmt 1 discriminator 3
 116:test/ConsumerProducer_CPP_API_test.cpp ****     consumer->start();
 759              		.loc 1 116 59 is_stmt 0 discriminator 3
 760 01bc 13050009 		li	a0,144
 761              	.LEHB4:
 762 01c0 97000000 		call	_ZN6ThreadnwEm@plt
 762      E7800000 
 763              	.LVL79:
 764              	.LEHE4:
 765 01c8 930B0500 		mv	s7,a0
 766              	.LVL80:
 767              	.LEHB5:
 768              	.LBB49:
 769              	.LBB50:
  57:test/ConsumerProducer_CPP_API_test.cpp **** 
 770              		.loc 1 57 50 discriminator 3
 771 01cc 97000000 		call	_ZN6ThreadC2Ev@plt
 771      E7800000 
 772              	.LVL81:
 773              	.LEHE5:
  57:test/ConsumerProducer_CPP_API_test.cpp **** 
 774              		.loc 1 57 50
 775 01d4 97070000 		lla	a5,_ZTV8Consumer+16
 775      93870700 
 776 01dc 23B0FB00 		sd	a5,0(s7)
 777 01e0 23B49B08 		sd	s1,136(s7)
 778              	.LVL82:
 779              	.LBE50:
 780              	.LBE49:
 117:test/ConsumerProducer_CPP_API_test.cpp **** 
 781              		.loc 1 117 5 is_stmt 1
 117:test/ConsumerProducer_CPP_API_test.cpp **** 
 782              		.loc 1 117 20 is_stmt 0
 783 01e4 13850B00 		mv	a0,s7
 784              	.LEHB6:
 785 01e8 97000000 		call	_ZN6Thread5startEv@plt
 785      E7800000 
 786              	.LVL83:
 119:test/ConsumerProducer_CPP_API_test.cpp ****     threadData[0].buffer = buffer;
 787              		.loc 1 119 5 is_stmt 1
 119:test/ConsumerProducer_CPP_API_test.cpp ****     threadData[0].buffer = buffer;
 788              		.loc 1 119 22 is_stmt 0
 789 01f0 23200B00 		sw	zero,0(s6)
 120:test/ConsumerProducer_CPP_API_test.cpp ****     threadData[0].sem = waitForAll;
 790              		.loc 1 120 5 is_stmt 1
 120:test/ConsumerProducer_CPP_API_test.cpp ****     threadData[0].sem = waitForAll;
 791              		.loc 1 120 26 is_stmt 0
 792 01f4 23345B01 		sd	s5,8(s6)
 121:test/ConsumerProducer_CPP_API_test.cpp ****     producers[0] = new ProducerKeyborad(&threadData[0]);
 793              		.loc 1 121 5 is_stmt 1
 121:test/ConsumerProducer_CPP_API_test.cpp ****     producers[0] = new ProducerKeyborad(&threadData[0]);
GAS LISTING /tmp/ccejt4gE.s 			page 21


 794              		.loc 1 121 23 is_stmt 0
 795 01f8 97070000 		ld	a5,.LANCHOR0+8
 795      83B70700 
 796 0200 2338FB00 		sd	a5,16(s6)
 122:test/ConsumerProducer_CPP_API_test.cpp ****     producers[0]->start();
 797              		.loc 1 122 5 is_stmt 1
 122:test/ConsumerProducer_CPP_API_test.cpp ****     producers[0]->start();
 798              		.loc 1 122 55 is_stmt 0
 799 0204 13050009 		li	a0,144
 800 0208 97000000 		call	_ZN6ThreadnwEm@plt
 800      E7800000 
 801              	.LVL84:
 802              	.LEHE6:
 803 0210 93040500 		mv	s1,a0
 804              	.LVL85:
 805              	.LEHB7:
 806              	.LBB51:
 807              	.LBB52:
  20:test/ConsumerProducer_CPP_API_test.cpp **** 
 808              		.loc 1 20 58
 809 0214 97000000 		call	_ZN6ThreadC2Ev@plt
 809      E7800000 
 810              	.LVL86:
 811              	.LEHE7:
 812 021c 97070000 		lla	a5,_ZTV16ProducerKeyborad+16
 812      93870700 
 813 0224 23B0F400 		sd	a5,0(s1)
 814 0228 23B46409 		sd	s6,136(s1)
 815              	.LVL87:
 816              	.LBE52:
 817              	.LBE51:
 122:test/ConsumerProducer_CPP_API_test.cpp ****     producers[0]->start();
 818              		.loc 1 122 18
 819 022c 23309A00 		sd	s1,0(s4)
 123:test/ConsumerProducer_CPP_API_test.cpp **** 
 820              		.loc 1 123 5 is_stmt 1
 123:test/ConsumerProducer_CPP_API_test.cpp **** 
 821              		.loc 1 123 24 is_stmt 0
 822 0230 13850400 		mv	a0,s1
 823              	.LEHB8:
 824 0234 97000000 		call	_ZN6Thread5startEv@plt
 824      E7800000 
 825              	.LVL88:
 826              	.LBB53:
 125:test/ConsumerProducer_CPP_API_test.cpp ****         threadData[i].id = i;
 827              		.loc 1 125 14
 828 023c 13091000 		li	s2,1
 829 0240 6F000003 		j	.L34
 830              	.LVL89:
 831              	.L58:
 832              	.LBB54:
 833              	.LBB55:
  40:test/ConsumerProducer_CPP_API_test.cpp **** 
 834              		.loc 1 40 50
 835 0244 97070000 		lla	a5,_ZTV8Producer+16
 835      93870700 
 836 024c 23B0FC00 		sd	a5,0(s9)
GAS LISTING /tmp/ccejt4gE.s 			page 22


 837 0250 23B49C08 		sd	s1,136(s9)
 838              	.LVL90:
 839              	.LBE55:
 840              	.LBE54:
 130:test/ConsumerProducer_CPP_API_test.cpp ****         producers[i]->start();
 841              		.loc 1 130 22
 842 0254 93173900 		slli	a5,s2,3
 843 0258 B307FA00 		add	a5,s4,a5
 844 025c 23B09701 		sd	s9,0(a5)
 131:test/ConsumerProducer_CPP_API_test.cpp **** 
 845              		.loc 1 131 9 is_stmt 1
 131:test/ConsumerProducer_CPP_API_test.cpp **** 
 846              		.loc 1 131 28 is_stmt 0
 847 0260 13850C00 		mv	a0,s9
 848 0264 97000000 		call	_ZN6Thread5startEv@plt
 848      E7800000 
 849              	.LVL91:
 125:test/ConsumerProducer_CPP_API_test.cpp ****         threadData[i].id = i;
 850              		.loc 1 125 5 is_stmt 1
 851 026c 1B091900 		addiw	s2,s2,1
 852              	.LVL92:
 853              	.L34:
 125:test/ConsumerProducer_CPP_API_test.cpp ****         threadData[i].id = i;
 854              		.loc 1 125 23 discriminator 1
 855 0270 63523905 		bge	s2,s3,.L33
 126:test/ConsumerProducer_CPP_API_test.cpp ****         threadData[i].buffer = buffer;
 856              		.loc 1 126 9
 126:test/ConsumerProducer_CPP_API_test.cpp ****         threadData[i].buffer = buffer;
 857              		.loc 1 126 26 is_stmt 0
 858 0274 93141900 		slli	s1,s2,1
 859 0278 B3842401 		add	s1,s1,s2
 860 027c 93943400 		slli	s1,s1,3
 861 0280 B3049B00 		add	s1,s6,s1
 862 0284 23A02401 		sw	s2,0(s1)
 127:test/ConsumerProducer_CPP_API_test.cpp ****         threadData[i].sem = waitForAll;
 863              		.loc 1 127 9 is_stmt 1
 127:test/ConsumerProducer_CPP_API_test.cpp ****         threadData[i].sem = waitForAll;
 864              		.loc 1 127 30 is_stmt 0
 865 0288 23B45401 		sd	s5,8(s1)
 128:test/ConsumerProducer_CPP_API_test.cpp **** 
 866              		.loc 1 128 9 is_stmt 1
 128:test/ConsumerProducer_CPP_API_test.cpp **** 
 867              		.loc 1 128 27 is_stmt 0
 868 028c 97070000 		ld	a5,.LANCHOR0+8
 868      83B70700 
 869 0294 23B8F400 		sd	a5,16(s1)
 130:test/ConsumerProducer_CPP_API_test.cpp ****         producers[i]->start();
 870              		.loc 1 130 9 is_stmt 1
 130:test/ConsumerProducer_CPP_API_test.cpp ****         producers[i]->start();
 871              		.loc 1 130 51 is_stmt 0
 872 0298 13050009 		li	a0,144
 873 029c 97000000 		call	_ZN6ThreadnwEm@plt
 873      E7800000 
 874              	.LVL93:
 875              	.LEHE8:
 876 02a4 930C0500 		mv	s9,a0
 877              	.LVL94:
GAS LISTING /tmp/ccejt4gE.s 			page 23


 878              	.LEHB9:
 879              	.LBB57:
 880              	.LBB56:
  40:test/ConsumerProducer_CPP_API_test.cpp **** 
 881              		.loc 1 40 50
 882 02a8 97000000 		call	_ZN6ThreadC2Ev@plt
 882      E7800000 
 883              	.LVL95:
 884              	.LEHE9:
 885 02b0 6FF05FF9 		j	.L58
 886              	.LVL96:
 887              	.L33:
 888              	.LBE56:
 889              	.LBE57:
 890              	.LBE53:
 135:test/ConsumerProducer_CPP_API_test.cpp **** 
 891              		.loc 1 135 5 is_stmt 1
 892              	.LEHB10:
 135:test/ConsumerProducer_CPP_API_test.cpp **** 
 893              		.loc 1 135 21 is_stmt 0
 894 02b4 97000000 		call	_ZN6Thread8dispatchEv@plt
 894      E7800000 
 895              	.LVL97:
 896              	.LBB58:
 137:test/ConsumerProducer_CPP_API_test.cpp ****         waitForAll->wait();
 897              		.loc 1 137 14
 898 02bc 93040000 		li	s1,0
 899              	.L36:
 900              	.LVL98:
 137:test/ConsumerProducer_CPP_API_test.cpp ****         waitForAll->wait();
 901              		.loc 1 137 23 is_stmt 1 discriminator 1
 902 02c0 63CE9900 		bgt	s1,s3,.L35
 138:test/ConsumerProducer_CPP_API_test.cpp ****     }
 903              		.loc 1 138 9
 138:test/ConsumerProducer_CPP_API_test.cpp ****     }
 904              		.loc 1 138 25 is_stmt 0
 905 02c4 17050000 		ld	a0,.LANCHOR0+8
 905      03350500 
 906 02cc 97000000 		call	_ZN9Semaphore4waitEv@plt
 906      E7800000 
 907              	.LVL99:
 137:test/ConsumerProducer_CPP_API_test.cpp ****         waitForAll->wait();
 908              		.loc 1 137 5 is_stmt 1
 909 02d4 9B841400 		addiw	s1,s1,1
 910              	.LVL100:
 911 02d8 6FF09FFE 		j	.L36
 912              	.LVL101:
 913              	.L35:
 914              	.LBE58:
 141:test/ConsumerProducer_CPP_API_test.cpp ****     for (int i = 0; i < threadNum; i++) {
 915              		.loc 1 141 5
 141:test/ConsumerProducer_CPP_API_test.cpp ****     for (int i = 0; i < threadNum; i++) {
 916              		.loc 1 141 12 is_stmt 0
 917 02dc 17050000 		ld	a0,.LANCHOR0+8
 917      03350500 
 141:test/ConsumerProducer_CPP_API_test.cpp ****     for (int i = 0; i < threadNum; i++) {
 918              		.loc 1 141 22
GAS LISTING /tmp/ccejt4gE.s 			page 24


 919 02e4 63080500 		beqz	a0,.L37
 141:test/ConsumerProducer_CPP_API_test.cpp ****     for (int i = 0; i < threadNum; i++) {
 920              		.loc 1 141 12 discriminator 1
 921 02e8 83370500 		ld	a5,0(a0)
 922 02ec 83B78700 		ld	a5,8(a5)
 923 02f0 E7800700 		jalr	a5
 924              	.LVL102:
 925              	.L37:
 926              	.LBB59:
 137:test/ConsumerProducer_CPP_API_test.cpp ****         waitForAll->wait();
 927              		.loc 1 137 14 discriminator 1
 928 02f4 93040000 		li	s1,0
 929              	.LVL103:
 930 02f8 6F008000 		j	.L40
 931              	.LVL104:
 932              	.L39:
 933              	.LBE59:
 934              	.LBB60:
 142:test/ConsumerProducer_CPP_API_test.cpp ****         delete producers[i];
 935              		.loc 1 142 5 is_stmt 1 discriminator 2
 936 02fc 9B841400 		addiw	s1,s1,1
 937              	.LVL105:
 938              	.L40:
 142:test/ConsumerProducer_CPP_API_test.cpp ****         delete producers[i];
 939              		.loc 1 142 23 discriminator 1
 940 0300 63D23403 		bge	s1,s3,.L38
 143:test/ConsumerProducer_CPP_API_test.cpp ****     }
 941              		.loc 1 143 9
 143:test/ConsumerProducer_CPP_API_test.cpp ****     }
 942              		.loc 1 143 27 is_stmt 0
 943 0304 93973400 		slli	a5,s1,3
 944 0308 B307FA00 		add	a5,s4,a5
 945 030c 03B50700 		ld	a0,0(a5)
 143:test/ConsumerProducer_CPP_API_test.cpp ****     }
 946              		.loc 1 143 28
 947 0310 E30605FE 		beqz	a0,.L39
 143:test/ConsumerProducer_CPP_API_test.cpp ****     }
 948              		.loc 1 143 27 discriminator 1
 949 0314 83370500 		ld	a5,0(a0)
 950 0318 83B78700 		ld	a5,8(a5)
 951 031c E7800700 		jalr	a5
 952              	.LVL106:
 953 0320 6FF0DFFD 		j	.L39
 954              	.L38:
 955              	.LBE60:
 145:test/ConsumerProducer_CPP_API_test.cpp ****     delete buffer;
 956              		.loc 1 145 5 is_stmt 1
 145:test/ConsumerProducer_CPP_API_test.cpp ****     delete buffer;
 957              		.loc 1 145 20 is_stmt 0
 958 0324 638A0B00 		beqz	s7,.L41
 145:test/ConsumerProducer_CPP_API_test.cpp ****     delete buffer;
 959              		.loc 1 145 12 discriminator 1
 960 0328 83B70B00 		ld	a5,0(s7)
 961 032c 83B78700 		ld	a5,8(a5)
 962 0330 13850B00 		mv	a0,s7
 963 0334 E7800700 		jalr	a5
 964              	.LVL107:
GAS LISTING /tmp/ccejt4gE.s 			page 25


 965              	.L41:
 966              		.loc 1 146 5 is_stmt 1
 967              		.loc 1 146 18 is_stmt 0
 968 0338 638E0A00 		beqz	s5,.L42
 969              		.loc 1 146 12 discriminator 1
 970 033c 13850A00 		mv	a0,s5
 971 0340 97000000 		call	_ZN9BufferCPPD1Ev@plt
 971      E7800000 
 972              	.LVL108:
 973 0348 13850A00 		mv	a0,s5
 974 034c 97000000 		call	_ZdlPv@plt
 974      E7800000 
 975              	.LVL109:
 976              	.L42:
 977 0354 13010C00 		mv	sp,s8
 978              	.LVL110:
 979              	.L29:
 147:test/ConsumerProducer_CPP_API_test.cpp **** }
 980              		.loc 1 147 1
 981 0358 130104F8 		addi	sp,s0,-128
 982              		.cfi_remember_state
 983              		.cfi_def_cfa 2, 128
 984 035c 83308107 		ld	ra,120(sp)
 985              		.cfi_restore 1
 986 0360 03340107 		ld	s0,112(sp)
 987              		.cfi_restore 8
 988 0364 83348106 		ld	s1,104(sp)
 989              		.cfi_restore 9
 990 0368 03390106 		ld	s2,96(sp)
 991              		.cfi_restore 18
 992 036c 83398105 		ld	s3,88(sp)
 993              		.cfi_restore 19
 994              	.LVL111:
 995 0370 033A0105 		ld	s4,80(sp)
 996              		.cfi_restore 20
 997 0374 833A8104 		ld	s5,72(sp)
 998              		.cfi_restore 21
 999 0378 033B0104 		ld	s6,64(sp)
 1000              		.cfi_restore 22
 1001 037c 833B8103 		ld	s7,56(sp)
 1002              		.cfi_restore 23
 1003 0380 033C0103 		ld	s8,48(sp)
 1004              		.cfi_restore 24
 1005 0384 833C8102 		ld	s9,40(sp)
 1006              		.cfi_restore 25
 1007 0388 13010108 		addi	sp,sp,128
 1008              		.cfi_def_cfa_offset 0
 1009 038c 67800000 		jr	ra
 1010              	.LVL112:
 1011              	.L49:
 1012              		.cfi_restore_state
 1013 0390 93040500 		mv	s1,a0
 1014              	.LVL113:
 107:test/ConsumerProducer_CPP_API_test.cpp **** 
 1015              		.loc 1 107 40
 1016 0394 13850A00 		mv	a0,s5
 1017 0398 97000000 		call	_ZdlPv@plt
GAS LISTING /tmp/ccejt4gE.s 			page 26


 1017      E7800000 
 1018              	.LVL114:
 1019 03a0 13850400 		mv	a0,s1
 1020 03a4 97000000 		call	_Unwind_Resume@plt
 1020      E7800000 
 1021              	.LVL115:
 1022              	.L50:
 1023 03ac 93040500 		mv	s1,a0
 1024              	.LVL116:
 109:test/ConsumerProducer_CPP_API_test.cpp ****     Thread *producers[threadNum];
 1025              		.loc 1 109 33
 1026 03b0 13050900 		mv	a0,s2
 1027 03b4 97000000 		call	_ZN9SemaphoredlEPv@plt
 1027      E7800000 
 1028              	.LVL117:
 1029 03bc 13850400 		mv	a0,s1
 1030 03c0 97000000 		call	_Unwind_Resume@plt
 1030      E7800000 
 1031              	.LVL118:
 1032              	.L51:
 1033 03c8 93040500 		mv	s1,a0
 1034              	.LVL119:
 116:test/ConsumerProducer_CPP_API_test.cpp ****     consumer->start();
 1035              		.loc 1 116 59
 1036 03cc 13850B00 		mv	a0,s7
 1037 03d0 97000000 		call	_ZN6ThreaddlEPv@plt
 1037      E7800000 
 1038              	.LVL120:
 1039 03d8 13850400 		mv	a0,s1
 1040 03dc 97000000 		call	_Unwind_Resume@plt
 1040      E7800000 
 1041              	.LVL121:
 1042              	.L52:
 1043 03e4 13090500 		mv	s2,a0
 122:test/ConsumerProducer_CPP_API_test.cpp ****     producers[0]->start();
 1044              		.loc 1 122 55
 1045 03e8 13850400 		mv	a0,s1
 1046 03ec 97000000 		call	_ZN6ThreaddlEPv@plt
 1046      E7800000 
 1047              	.LVL122:
 1048 03f4 13050900 		mv	a0,s2
 1049 03f8 97000000 		call	_Unwind_Resume@plt
 1049      E7800000 
 1050              	.LVL123:
 1051              	.L53:
 1052 0400 93040500 		mv	s1,a0
 1053              	.LVL124:
 1054              	.LBB61:
 130:test/ConsumerProducer_CPP_API_test.cpp ****         producers[i]->start();
 1055              		.loc 1 130 51
 1056 0404 13850C00 		mv	a0,s9
 1057 0408 97000000 		call	_ZN6ThreaddlEPv@plt
 1057      E7800000 
 1058              	.LVL125:
 1059 0410 13850400 		mv	a0,s1
 1060 0414 97000000 		call	_Unwind_Resume@plt
 1060      E7800000 
GAS LISTING /tmp/ccejt4gE.s 			page 27


 1061              	.LVL126:
 1062              	.LEHE10:
 1063              	.LBE61:
 1064              		.cfi_endproc
 1065              	.LFE19:
 1066              		.globl	__gxx_personality_v0
 1067              		.section	.gcc_except_table,"a",@progbits
 1068              	.LLSDA19:
 1069 0000 FF       		.byte	0xff
 1070 0001 FF       		.byte	0xff
 1071 0002 03       		.byte	0x3
 1072 0003 8F01     		.byte	0x8f,0x1
 1073 0005 00000000 		.4byte	.LEHB0-.LFB19
 1074 0009 00000000 		.4byte	.LEHE0-.LEHB0
 1075 000d 00000000 		.4byte	0
 1076 0011 00       		.byte	0
 1077 0012 00000000 		.4byte	.LEHB1-.LFB19
 1078 0016 00000000 		.4byte	.LEHE1-.LEHB1
 1079 001a 00000000 		.4byte	.L49-.LFB19
 1080 001e 00       		.byte	0
 1081 001f 00000000 		.4byte	.LEHB2-.LFB19
 1082 0023 00000000 		.4byte	.LEHE2-.LEHB2
 1083 0027 00000000 		.4byte	0
 1084 002b 00       		.byte	0
 1085 002c 00000000 		.4byte	.LEHB3-.LFB19
 1086 0030 00000000 		.4byte	.LEHE3-.LEHB3
 1087 0034 00000000 		.4byte	.L50-.LFB19
 1088 0038 00       		.byte	0
 1089 0039 00000000 		.4byte	.LEHB4-.LFB19
 1090 003d 00000000 		.4byte	.LEHE4-.LEHB4
 1091 0041 00000000 		.4byte	0
 1092 0045 00       		.byte	0
 1093 0046 00000000 		.4byte	.LEHB5-.LFB19
 1094 004a 00000000 		.4byte	.LEHE5-.LEHB5
 1095 004e 00000000 		.4byte	.L51-.LFB19
 1096 0052 00       		.byte	0
 1097 0053 00000000 		.4byte	.LEHB6-.LFB19
 1098 0057 00000000 		.4byte	.LEHE6-.LEHB6
 1099 005b 00000000 		.4byte	0
 1100 005f 00       		.byte	0
 1101 0060 00000000 		.4byte	.LEHB7-.LFB19
 1102 0064 00000000 		.4byte	.LEHE7-.LEHB7
 1103 0068 00000000 		.4byte	.L52-.LFB19
 1104 006c 00       		.byte	0
 1105 006d 00000000 		.4byte	.LEHB8-.LFB19
 1106 0071 00000000 		.4byte	.LEHE8-.LEHB8
 1107 0075 00000000 		.4byte	0
 1108 0079 00       		.byte	0
 1109 007a 00000000 		.4byte	.LEHB9-.LFB19
 1110 007e 00000000 		.4byte	.LEHE9-.LEHB9
 1111 0082 00000000 		.4byte	.L53-.LFB19
 1112 0086 00       		.byte	0
 1113 0087 00000000 		.4byte	.LEHB10-.LFB19
 1114 008b 00000000 		.4byte	.LEHE10-.LEHB10
 1115 008f 00000000 		.4byte	0
 1116 0093 00       		.byte	0
 1117              		.text
GAS LISTING /tmp/ccejt4gE.s 			page 28


 1119              		.weak	_ZTV16ProducerKeyborad
 1120              		.section	.data.rel.ro.local._ZTV16ProducerKeyborad,"awG",@progbits,_ZTV16ProducerKeyborad,comdat
 1121              		.align	3
 1124              	_ZTV16ProducerKeyborad:
 1125 0000 00000000 		.dword	0
 1125      00000000 
 1126 0008 00000000 		.dword	0
 1126      00000000 
 1127 0010 00000000 		.dword	_ZN16ProducerKeyboradD1Ev
 1127      00000000 
 1128 0018 00000000 		.dword	_ZN16ProducerKeyboradD0Ev
 1128      00000000 
 1129 0020 00000000 		.dword	_ZN16ProducerKeyborad3runEv
 1129      00000000 
 1130              		.weak	_ZTV8Producer
 1131              		.section	.data.rel.ro.local._ZTV8Producer,"awG",@progbits,_ZTV8Producer,comdat
 1132              		.align	3
 1135              	_ZTV8Producer:
 1136 0000 00000000 		.dword	0
 1136      00000000 
 1137 0008 00000000 		.dword	0
 1137      00000000 
 1138 0010 00000000 		.dword	_ZN8ProducerD1Ev
 1138      00000000 
 1139 0018 00000000 		.dword	_ZN8ProducerD0Ev
 1139      00000000 
 1140 0020 00000000 		.dword	_ZN8Producer3runEv
 1140      00000000 
 1141              		.weak	_ZTV8Consumer
 1142              		.section	.data.rel.ro.local._ZTV8Consumer,"awG",@progbits,_ZTV8Consumer,comdat
 1143              		.align	3
 1146              	_ZTV8Consumer:
 1147 0000 00000000 		.dword	0
 1147      00000000 
 1148 0008 00000000 		.dword	0
 1148      00000000 
 1149 0010 00000000 		.dword	_ZN8ConsumerD1Ev
 1149      00000000 
 1150 0018 00000000 		.dword	_ZN8ConsumerD0Ev
 1150      00000000 
 1151 0020 00000000 		.dword	_ZN8Consumer3runEv
 1151      00000000 
 1152              		.bss
 1153              		.align	3
 1154              		.set	.LANCHOR0,. + 0
 1157              	_ZL9threadEnd:
 1158 0000 00000000 		.zero	4
 1159 0004 00000000 		.zero	4
 1162              	_ZL10waitForAll:
 1163 0008 00000000 		.zero	8
 1163      00000000 
 1164              		.text
 1165              	.Letext0:
 1166              		.file 3 "test/../h/../lib/hw.h"
 1167              		.file 4 "test/../h/Thread.hpp"
 1168              		.file 5 "test/../h/Semaphore.hpp"
 1169              		.file 6 "test/buffer_CPP_API.hpp"
GAS LISTING /tmp/ccejt4gE.s 			page 29


 1170              		.file 7 "test/printing.hpp"
 1171              		.file 8 "test/../h/syscall_c.h"
 1172              		.file 9 "test/../h/../lib/console.h"
 4912              		.align	3
 4915              	DW.ref.__gxx_personality_v0:
 4916 0000 00000000 		.dword	__gxx_personality_v0
 4916      00000000 
 4917              		.ident	"GCC: (Ubuntu 9.4.0-1ubuntu1~20.04) 9.4.0"
 4918              		.section	.note.GNU-stack,"",@progbits
GAS LISTING /tmp/ccejt4gE.s 			page 30

