GAS LISTING /tmp/ccvQZ6Lf.s 			page 1


   1              		.file	"ConsumerProducer_CPP_Sync_API_test.cpp"
   2              		.option pic
   3              		.option norelax
   4              		.text
   5              	.Ltext0:
   6              		.section	.text._ZN12ConsumerSyncD2Ev,"axG",@progbits,_ZN12ConsumerSyncD5Ev,comdat
   7              		.align	2
   8              		.weak	_ZN12ConsumerSyncD2Ev
  10              	_ZN12ConsumerSyncD2Ev:
  11              	.LFB24:
  12              		.file 1 "test/ConsumerProducer_CPP_Sync_API_test.cpp"
   1:test/ConsumerProducer_CPP_Sync_API_test.cpp **** #include "../h/syscall_cpp.hpp"
   2:test/ConsumerProducer_CPP_Sync_API_test.cpp **** 
   3:test/ConsumerProducer_CPP_Sync_API_test.cpp **** #include "buffer_CPP_API.hpp"
   4:test/ConsumerProducer_CPP_Sync_API_test.cpp **** 
   5:test/ConsumerProducer_CPP_Sync_API_test.cpp **** static Semaphore* waitForAll;
   6:test/ConsumerProducer_CPP_Sync_API_test.cpp **** 
   7:test/ConsumerProducer_CPP_Sync_API_test.cpp **** struct thread_data {
   8:test/ConsumerProducer_CPP_Sync_API_test.cpp ****     int id;
   9:test/ConsumerProducer_CPP_Sync_API_test.cpp ****     BufferCPP *buffer;
  10:test/ConsumerProducer_CPP_Sync_API_test.cpp ****     Semaphore* wait;
  11:test/ConsumerProducer_CPP_Sync_API_test.cpp **** };
  12:test/ConsumerProducer_CPP_Sync_API_test.cpp **** 
  13:test/ConsumerProducer_CPP_Sync_API_test.cpp **** static volatile int threadEnd = 0;
  14:test/ConsumerProducer_CPP_Sync_API_test.cpp **** 
  15:test/ConsumerProducer_CPP_Sync_API_test.cpp **** class ProducerKeyboard:public Thread {
  16:test/ConsumerProducer_CPP_Sync_API_test.cpp ****     thread_data* td;
  17:test/ConsumerProducer_CPP_Sync_API_test.cpp ****     void producerKeyboard(void *arg);
  18:test/ConsumerProducer_CPP_Sync_API_test.cpp **** public:
  19:test/ConsumerProducer_CPP_Sync_API_test.cpp ****     ProducerKeyboard(thread_data* _td):Thread(), td(_td) {}
  20:test/ConsumerProducer_CPP_Sync_API_test.cpp **** 
  21:test/ConsumerProducer_CPP_Sync_API_test.cpp ****     void run() override {
  22:test/ConsumerProducer_CPP_Sync_API_test.cpp ****         producerKeyboard(td);
  23:test/ConsumerProducer_CPP_Sync_API_test.cpp ****     }
  24:test/ConsumerProducer_CPP_Sync_API_test.cpp **** };
  25:test/ConsumerProducer_CPP_Sync_API_test.cpp **** 
  26:test/ConsumerProducer_CPP_Sync_API_test.cpp **** void ProducerKeyboard::producerKeyboard(void *arg) {
  27:test/ConsumerProducer_CPP_Sync_API_test.cpp ****     struct thread_data *data = (struct thread_data *) arg;
  28:test/ConsumerProducer_CPP_Sync_API_test.cpp **** 
  29:test/ConsumerProducer_CPP_Sync_API_test.cpp ****     int key;
  30:test/ConsumerProducer_CPP_Sync_API_test.cpp ****     int i = 0;
  31:test/ConsumerProducer_CPP_Sync_API_test.cpp ****     while ((key = getc()) != 0x1b) {
  32:test/ConsumerProducer_CPP_Sync_API_test.cpp ****         data->buffer->put(key);
  33:test/ConsumerProducer_CPP_Sync_API_test.cpp ****         i++;
  34:test/ConsumerProducer_CPP_Sync_API_test.cpp **** 
  35:test/ConsumerProducer_CPP_Sync_API_test.cpp ****         if (i % (10 * data->id) == 0) {
  36:test/ConsumerProducer_CPP_Sync_API_test.cpp ****             Thread::dispatch();
  37:test/ConsumerProducer_CPP_Sync_API_test.cpp ****         }
  38:test/ConsumerProducer_CPP_Sync_API_test.cpp ****     }
  39:test/ConsumerProducer_CPP_Sync_API_test.cpp **** 
  40:test/ConsumerProducer_CPP_Sync_API_test.cpp ****     threadEnd = 1;
  41:test/ConsumerProducer_CPP_Sync_API_test.cpp ****     td->buffer->put('!');
  42:test/ConsumerProducer_CPP_Sync_API_test.cpp **** 
  43:test/ConsumerProducer_CPP_Sync_API_test.cpp ****     data->wait->signal();
  44:test/ConsumerProducer_CPP_Sync_API_test.cpp **** }
  45:test/ConsumerProducer_CPP_Sync_API_test.cpp **** 
  46:test/ConsumerProducer_CPP_Sync_API_test.cpp **** class ProducerSync:public Thread {
GAS LISTING /tmp/ccvQZ6Lf.s 			page 2


  47:test/ConsumerProducer_CPP_Sync_API_test.cpp ****     thread_data* td;
  48:test/ConsumerProducer_CPP_Sync_API_test.cpp ****     void producer(void *arg);
  49:test/ConsumerProducer_CPP_Sync_API_test.cpp **** public:
  50:test/ConsumerProducer_CPP_Sync_API_test.cpp ****     ProducerSync(thread_data* _td):Thread(), td(_td) {}
  51:test/ConsumerProducer_CPP_Sync_API_test.cpp **** 
  52:test/ConsumerProducer_CPP_Sync_API_test.cpp ****     void run() override {
  53:test/ConsumerProducer_CPP_Sync_API_test.cpp ****         producer(td);
  54:test/ConsumerProducer_CPP_Sync_API_test.cpp ****     }
  55:test/ConsumerProducer_CPP_Sync_API_test.cpp **** };
  56:test/ConsumerProducer_CPP_Sync_API_test.cpp **** 
  57:test/ConsumerProducer_CPP_Sync_API_test.cpp **** void ProducerSync::producer(void *arg) {
  58:test/ConsumerProducer_CPP_Sync_API_test.cpp ****     struct thread_data *data = (struct thread_data *) arg;
  59:test/ConsumerProducer_CPP_Sync_API_test.cpp **** 
  60:test/ConsumerProducer_CPP_Sync_API_test.cpp ****     int i = 0;
  61:test/ConsumerProducer_CPP_Sync_API_test.cpp ****     while (!threadEnd) {
  62:test/ConsumerProducer_CPP_Sync_API_test.cpp ****         data->buffer->put(data->id + '0');
  63:test/ConsumerProducer_CPP_Sync_API_test.cpp ****         i++;
  64:test/ConsumerProducer_CPP_Sync_API_test.cpp **** 
  65:test/ConsumerProducer_CPP_Sync_API_test.cpp ****         if (i % (10 * data->id) == 0) {
  66:test/ConsumerProducer_CPP_Sync_API_test.cpp ****             Thread::dispatch();
  67:test/ConsumerProducer_CPP_Sync_API_test.cpp ****         }
  68:test/ConsumerProducer_CPP_Sync_API_test.cpp ****     }
  69:test/ConsumerProducer_CPP_Sync_API_test.cpp **** 
  70:test/ConsumerProducer_CPP_Sync_API_test.cpp ****     data->wait->signal();
  71:test/ConsumerProducer_CPP_Sync_API_test.cpp **** }
  72:test/ConsumerProducer_CPP_Sync_API_test.cpp **** 
  73:test/ConsumerProducer_CPP_Sync_API_test.cpp **** class ConsumerSync:public Thread {
  13              		.loc 1 73 7
  14              		.cfi_startproc
  15              	.LVL0:
  16 0000 130101FF 		addi	sp,sp,-16
  17              		.cfi_def_cfa_offset 16
  18 0004 23341100 		sd	ra,8(sp)
  19 0008 23308100 		sd	s0,0(sp)
  20              		.cfi_offset 1, -8
  21              		.cfi_offset 8, -16
  22 000c 13040101 		addi	s0,sp,16
  23              		.cfi_def_cfa 8, 0
  24              	.LBB27:
  25              		.loc 1 73 7 is_stmt 0
  26 0010 97070000 		lla	a5,_ZTV12ConsumerSync+16
  26      93870700 
  27 0018 2330F500 		sd	a5,0(a0)
  28 001c 97000000 		call	_ZN6ThreadD2Ev@plt
  28      E7800000 
  29              	.LVL1:
  30              	.LBE27:
  31 0024 83308100 		ld	ra,8(sp)
  32              		.cfi_restore 1
  33 0028 03340100 		ld	s0,0(sp)
  34              		.cfi_restore 8
  35              		.cfi_def_cfa 2, 16
  36 002c 13010101 		addi	sp,sp,16
  37              		.cfi_def_cfa_offset 0
  38 0030 67800000 		jr	ra
  39              		.cfi_endproc
  40              	.LFE24:
GAS LISTING /tmp/ccvQZ6Lf.s 			page 3


  42              		.weak	_ZN12ConsumerSyncD1Ev
  43              		.set	_ZN12ConsumerSyncD1Ev,_ZN12ConsumerSyncD2Ev
  44              		.section	.text._ZN12ConsumerSyncD0Ev,"axG",@progbits,_ZN12ConsumerSyncD5Ev,comdat
  45              		.align	2
  46              		.weak	_ZN12ConsumerSyncD0Ev
  48              	_ZN12ConsumerSyncD0Ev:
  49              	.LFB26:
  50              		.loc 1 73 7 is_stmt 1
  51              		.cfi_startproc
  52              	.LVL2:
  53 0000 130101FE 		addi	sp,sp,-32
  54              		.cfi_def_cfa_offset 32
  55 0004 233C1100 		sd	ra,24(sp)
  56 0008 23388100 		sd	s0,16(sp)
  57 000c 23349100 		sd	s1,8(sp)
  58              		.cfi_offset 1, -8
  59              		.cfi_offset 8, -16
  60              		.cfi_offset 9, -24
  61 0010 13040102 		addi	s0,sp,32
  62              		.cfi_def_cfa 8, 0
  63 0014 93040500 		mv	s1,a0
  64              	.LVL3:
  65              	.LBB28:
  66              	.LBB29:
  67              		.loc 1 73 7 is_stmt 0
  68 0018 97070000 		lla	a5,_ZTV12ConsumerSync+16
  68      93870700 
  69 0020 2330F500 		sd	a5,0(a0)
  70 0024 97000000 		call	_ZN6ThreadD2Ev@plt
  70      E7800000 
  71              	.LVL4:
  72              	.LBE29:
  73              	.LBE28:
  74 002c 13850400 		mv	a0,s1
  75 0030 97000000 		call	_ZN6ThreaddlEPv@plt
  75      E7800000 
  76              	.LVL5:
  77 0038 83308101 		ld	ra,24(sp)
  78              		.cfi_restore 1
  79 003c 03340101 		ld	s0,16(sp)
  80              		.cfi_restore 8
  81              		.cfi_def_cfa 2, 32
  82 0040 83348100 		ld	s1,8(sp)
  83              		.cfi_restore 9
  84              	.LVL6:
  85 0044 13010102 		addi	sp,sp,32
  86              		.cfi_def_cfa_offset 0
  87 0048 67800000 		jr	ra
  88              		.cfi_endproc
  89              	.LFE26:
  91              		.section	.text._ZN12ProducerSyncD2Ev,"axG",@progbits,_ZN12ProducerSyncD5Ev,comdat
  92              		.align	2
  93              		.weak	_ZN12ProducerSyncD2Ev
  95              	_ZN12ProducerSyncD2Ev:
  96              	.LFB28:
  46:test/ConsumerProducer_CPP_Sync_API_test.cpp ****     thread_data* td;
  97              		.loc 1 46 7 is_stmt 1
GAS LISTING /tmp/ccvQZ6Lf.s 			page 4


  98              		.cfi_startproc
  99              	.LVL7:
 100 0000 130101FF 		addi	sp,sp,-16
 101              		.cfi_def_cfa_offset 16
 102 0004 23341100 		sd	ra,8(sp)
 103 0008 23308100 		sd	s0,0(sp)
 104              		.cfi_offset 1, -8
 105              		.cfi_offset 8, -16
 106 000c 13040101 		addi	s0,sp,16
 107              		.cfi_def_cfa 8, 0
 108              	.LBB30:
  46:test/ConsumerProducer_CPP_Sync_API_test.cpp ****     thread_data* td;
 109              		.loc 1 46 7 is_stmt 0
 110 0010 97070000 		lla	a5,_ZTV12ProducerSync+16
 110      93870700 
 111 0018 2330F500 		sd	a5,0(a0)
 112 001c 97000000 		call	_ZN6ThreadD2Ev@plt
 112      E7800000 
 113              	.LVL8:
 114              	.LBE30:
 115 0024 83308100 		ld	ra,8(sp)
 116              		.cfi_restore 1
 117 0028 03340100 		ld	s0,0(sp)
 118              		.cfi_restore 8
 119              		.cfi_def_cfa 2, 16
 120 002c 13010101 		addi	sp,sp,16
 121              		.cfi_def_cfa_offset 0
 122 0030 67800000 		jr	ra
 123              		.cfi_endproc
 124              	.LFE28:
 126              		.weak	_ZN12ProducerSyncD1Ev
 127              		.set	_ZN12ProducerSyncD1Ev,_ZN12ProducerSyncD2Ev
 128              		.section	.text._ZN12ProducerSyncD0Ev,"axG",@progbits,_ZN12ProducerSyncD5Ev,comdat
 129              		.align	2
 130              		.weak	_ZN12ProducerSyncD0Ev
 132              	_ZN12ProducerSyncD0Ev:
 133              	.LFB30:
  46:test/ConsumerProducer_CPP_Sync_API_test.cpp ****     thread_data* td;
 134              		.loc 1 46 7 is_stmt 1
 135              		.cfi_startproc
 136              	.LVL9:
 137 0000 130101FE 		addi	sp,sp,-32
 138              		.cfi_def_cfa_offset 32
 139 0004 233C1100 		sd	ra,24(sp)
 140 0008 23388100 		sd	s0,16(sp)
 141 000c 23349100 		sd	s1,8(sp)
 142              		.cfi_offset 1, -8
 143              		.cfi_offset 8, -16
 144              		.cfi_offset 9, -24
 145 0010 13040102 		addi	s0,sp,32
 146              		.cfi_def_cfa 8, 0
 147 0014 93040500 		mv	s1,a0
 148              	.LVL10:
 149              	.LBB31:
 150              	.LBB32:
  46:test/ConsumerProducer_CPP_Sync_API_test.cpp ****     thread_data* td;
 151              		.loc 1 46 7 is_stmt 0
GAS LISTING /tmp/ccvQZ6Lf.s 			page 5


 152 0018 97070000 		lla	a5,_ZTV12ProducerSync+16
 152      93870700 
 153 0020 2330F500 		sd	a5,0(a0)
 154 0024 97000000 		call	_ZN6ThreadD2Ev@plt
 154      E7800000 
 155              	.LVL11:
 156              	.LBE32:
 157              	.LBE31:
 158 002c 13850400 		mv	a0,s1
 159 0030 97000000 		call	_ZN6ThreaddlEPv@plt
 159      E7800000 
 160              	.LVL12:
 161 0038 83308101 		ld	ra,24(sp)
 162              		.cfi_restore 1
 163 003c 03340101 		ld	s0,16(sp)
 164              		.cfi_restore 8
 165              		.cfi_def_cfa 2, 32
 166 0040 83348100 		ld	s1,8(sp)
 167              		.cfi_restore 9
 168              	.LVL13:
 169 0044 13010102 		addi	sp,sp,32
 170              		.cfi_def_cfa_offset 0
 171 0048 67800000 		jr	ra
 172              		.cfi_endproc
 173              	.LFE30:
 175              		.section	.text._ZN16ProducerKeyboardD2Ev,"axG",@progbits,_ZN16ProducerKeyboardD5Ev,comdat
 176              		.align	2
 177              		.weak	_ZN16ProducerKeyboardD2Ev
 179              	_ZN16ProducerKeyboardD2Ev:
 180              	.LFB32:
  15:test/ConsumerProducer_CPP_Sync_API_test.cpp ****     thread_data* td;
 181              		.loc 1 15 7 is_stmt 1
 182              		.cfi_startproc
 183              	.LVL14:
 184 0000 130101FF 		addi	sp,sp,-16
 185              		.cfi_def_cfa_offset 16
 186 0004 23341100 		sd	ra,8(sp)
 187 0008 23308100 		sd	s0,0(sp)
 188              		.cfi_offset 1, -8
 189              		.cfi_offset 8, -16
 190 000c 13040101 		addi	s0,sp,16
 191              		.cfi_def_cfa 8, 0
 192              	.LBB33:
  15:test/ConsumerProducer_CPP_Sync_API_test.cpp ****     thread_data* td;
 193              		.loc 1 15 7 is_stmt 0
 194 0010 97070000 		lla	a5,_ZTV16ProducerKeyboard+16
 194      93870700 
 195 0018 2330F500 		sd	a5,0(a0)
 196 001c 97000000 		call	_ZN6ThreadD2Ev@plt
 196      E7800000 
 197              	.LVL15:
 198              	.LBE33:
 199 0024 83308100 		ld	ra,8(sp)
 200              		.cfi_restore 1
 201 0028 03340100 		ld	s0,0(sp)
 202              		.cfi_restore 8
 203              		.cfi_def_cfa 2, 16
GAS LISTING /tmp/ccvQZ6Lf.s 			page 6


 204 002c 13010101 		addi	sp,sp,16
 205              		.cfi_def_cfa_offset 0
 206 0030 67800000 		jr	ra
 207              		.cfi_endproc
 208              	.LFE32:
 210              		.weak	_ZN16ProducerKeyboardD1Ev
 211              		.set	_ZN16ProducerKeyboardD1Ev,_ZN16ProducerKeyboardD2Ev
 212              		.section	.text._ZN16ProducerKeyboardD0Ev,"axG",@progbits,_ZN16ProducerKeyboardD5Ev,comdat
 213              		.align	2
 214              		.weak	_ZN16ProducerKeyboardD0Ev
 216              	_ZN16ProducerKeyboardD0Ev:
 217              	.LFB34:
  15:test/ConsumerProducer_CPP_Sync_API_test.cpp ****     thread_data* td;
 218              		.loc 1 15 7 is_stmt 1
 219              		.cfi_startproc
 220              	.LVL16:
 221 0000 130101FE 		addi	sp,sp,-32
 222              		.cfi_def_cfa_offset 32
 223 0004 233C1100 		sd	ra,24(sp)
 224 0008 23388100 		sd	s0,16(sp)
 225 000c 23349100 		sd	s1,8(sp)
 226              		.cfi_offset 1, -8
 227              		.cfi_offset 8, -16
 228              		.cfi_offset 9, -24
 229 0010 13040102 		addi	s0,sp,32
 230              		.cfi_def_cfa 8, 0
 231 0014 93040500 		mv	s1,a0
 232              	.LVL17:
 233              	.LBB34:
 234              	.LBB35:
  15:test/ConsumerProducer_CPP_Sync_API_test.cpp ****     thread_data* td;
 235              		.loc 1 15 7 is_stmt 0
 236 0018 97070000 		lla	a5,_ZTV16ProducerKeyboard+16
 236      93870700 
 237 0020 2330F500 		sd	a5,0(a0)
 238 0024 97000000 		call	_ZN6ThreadD2Ev@plt
 238      E7800000 
 239              	.LVL18:
 240              	.LBE35:
 241              	.LBE34:
 242 002c 13850400 		mv	a0,s1
 243 0030 97000000 		call	_ZN6ThreaddlEPv@plt
 243      E7800000 
 244              	.LVL19:
 245 0038 83308101 		ld	ra,24(sp)
 246              		.cfi_restore 1
 247 003c 03340101 		ld	s0,16(sp)
 248              		.cfi_restore 8
 249              		.cfi_def_cfa 2, 32
 250 0040 83348100 		ld	s1,8(sp)
 251              		.cfi_restore 9
 252              	.LVL20:
 253 0044 13010102 		addi	sp,sp,32
 254              		.cfi_def_cfa_offset 0
 255 0048 67800000 		jr	ra
 256              		.cfi_endproc
 257              	.LFE34:
GAS LISTING /tmp/ccvQZ6Lf.s 			page 7


 259              		.text
 260              		.align	2
 261              		.globl	_ZN16ProducerKeyboard16producerKeyboardEPv
 263              	_ZN16ProducerKeyboard16producerKeyboardEPv:
 264              	.LFB11:
  26:test/ConsumerProducer_CPP_Sync_API_test.cpp ****     struct thread_data *data = (struct thread_data *) arg;
 265              		.loc 1 26 52 is_stmt 1
 266              		.cfi_startproc
 267              	.LVL21:
 268 0000 130101FD 		addi	sp,sp,-48
 269              		.cfi_def_cfa_offset 48
 270 0004 23341102 		sd	ra,40(sp)
 271 0008 23308102 		sd	s0,32(sp)
 272 000c 233C9100 		sd	s1,24(sp)
 273 0010 23382101 		sd	s2,16(sp)
 274 0014 23343101 		sd	s3,8(sp)
 275              		.cfi_offset 1, -8
 276              		.cfi_offset 8, -16
 277              		.cfi_offset 9, -24
 278              		.cfi_offset 18, -32
 279              		.cfi_offset 19, -40
 280 0018 13040103 		addi	s0,sp,48
 281              		.cfi_def_cfa 8, 0
 282 001c 93090500 		mv	s3,a0
 283 0020 93840500 		mv	s1,a1
  27:test/ConsumerProducer_CPP_Sync_API_test.cpp **** 
 284              		.loc 1 27 5
 285              	.LVL22:
  29:test/ConsumerProducer_CPP_Sync_API_test.cpp ****     int i = 0;
 286              		.loc 1 29 5
  30:test/ConsumerProducer_CPP_Sync_API_test.cpp ****     while ((key = getc()) != 0x1b) {
 287              		.loc 1 30 5
  30:test/ConsumerProducer_CPP_Sync_API_test.cpp ****     while ((key = getc()) != 0x1b) {
 288              		.loc 1 30 9 is_stmt 0
 289 0024 13090000 		li	s2,0
 290 0028 6F00C000 		j	.L14
 291              	.LVL23:
 292              	.L18:
  36:test/ConsumerProducer_CPP_Sync_API_test.cpp ****         }
 293              		.loc 1 36 13 is_stmt 1
  36:test/ConsumerProducer_CPP_Sync_API_test.cpp ****         }
 294              		.loc 1 36 29 is_stmt 0
 295 002c 97000000 		call	_ZN6Thread8dispatchEv@plt
 295      E7800000 
 296              	.LVL24:
 297              	.L14:
  31:test/ConsumerProducer_CPP_Sync_API_test.cpp ****         data->buffer->put(key);
 298              		.loc 1 31 5 is_stmt 1
  31:test/ConsumerProducer_CPP_Sync_API_test.cpp ****         data->buffer->put(key);
 299              		.loc 1 31 27
  31:test/ConsumerProducer_CPP_Sync_API_test.cpp ****         data->buffer->put(key);
 300              		.loc 1 31 23 is_stmt 0
 301 0034 97000000 		call	getc@plt
 301      E7800000 
 302              	.LVL25:
  31:test/ConsumerProducer_CPP_Sync_API_test.cpp ****         data->buffer->put(key);
 303              		.loc 1 31 17
GAS LISTING /tmp/ccvQZ6Lf.s 			page 8


 304 003c 9B050500 		sext.w	a1,a0
 305              	.LVL26:
  31:test/ConsumerProducer_CPP_Sync_API_test.cpp ****         data->buffer->put(key);
 306              		.loc 1 31 27
 307 0040 9307B001 		li	a5,27
 308 0044 638AF502 		beq	a1,a5,.L15
  32:test/ConsumerProducer_CPP_Sync_API_test.cpp ****         i++;
 309              		.loc 1 32 9 is_stmt 1
  32:test/ConsumerProducer_CPP_Sync_API_test.cpp ****         i++;
 310              		.loc 1 32 26 is_stmt 0
 311 0048 03B58400 		ld	a0,8(s1)
 312 004c 97000000 		call	_ZN9BufferCPP3putEi@plt
 312      E7800000 
 313              	.LVL27:
  33:test/ConsumerProducer_CPP_Sync_API_test.cpp **** 
 314              		.loc 1 33 9 is_stmt 1
  33:test/ConsumerProducer_CPP_Sync_API_test.cpp **** 
 315              		.loc 1 33 10 is_stmt 0
 316 0054 1B071900 		addiw	a4,s2,1
 317 0058 1B090700 		sext.w	s2,a4
 318              	.LVL28:
  35:test/ConsumerProducer_CPP_Sync_API_test.cpp ****             Thread::dispatch();
 319              		.loc 1 35 9 is_stmt 1
  35:test/ConsumerProducer_CPP_Sync_API_test.cpp ****             Thread::dispatch();
 320              		.loc 1 35 29 is_stmt 0
 321 005c 83A60400 		lw	a3,0(s1)
  35:test/ConsumerProducer_CPP_Sync_API_test.cpp ****             Thread::dispatch();
 322              		.loc 1 35 21
 323 0060 9B972600 		slliw	a5,a3,2
 324 0064 BB87D700 		addw	a5,a5,a3
 325 0068 9B971700 		slliw	a5,a5,1
  35:test/ConsumerProducer_CPP_Sync_API_test.cpp ****             Thread::dispatch();
 326              		.loc 1 35 15
 327 006c BB67F702 		remw	a5,a4,a5
  35:test/ConsumerProducer_CPP_Sync_API_test.cpp ****             Thread::dispatch();
 328              		.loc 1 35 9
 329 0070 E39207FC 		bnez	a5,.L14
 330 0074 6FF09FFB 		j	.L18
 331              	.LVL29:
 332              	.L15:
  40:test/ConsumerProducer_CPP_Sync_API_test.cpp ****     td->buffer->put('!');
 333              		.loc 1 40 5 is_stmt 1
  40:test/ConsumerProducer_CPP_Sync_API_test.cpp ****     td->buffer->put('!');
 334              		.loc 1 40 15 is_stmt 0
 335 0078 93071000 		li	a5,1
 336 007c 17070000 		sw	a5,.LANCHOR0,a4
 336      2320F700 
  41:test/ConsumerProducer_CPP_Sync_API_test.cpp **** 
 337              		.loc 1 41 5 is_stmt 1
 338 0084 83B78908 		ld	a5,136(s3)
  41:test/ConsumerProducer_CPP_Sync_API_test.cpp **** 
 339              		.loc 1 41 20 is_stmt 0
 340 0088 93051002 		li	a1,33
 341              	.LVL30:
 342 008c 03B58700 		ld	a0,8(a5)
 343              	.LVL31:
 344 0090 97000000 		call	_ZN9BufferCPP3putEi@plt
GAS LISTING /tmp/ccvQZ6Lf.s 			page 9


 344      E7800000 
 345              	.LVL32:
  43:test/ConsumerProducer_CPP_Sync_API_test.cpp **** }
 346              		.loc 1 43 5 is_stmt 1
  43:test/ConsumerProducer_CPP_Sync_API_test.cpp **** }
 347              		.loc 1 43 23 is_stmt 0
 348 0098 03B50401 		ld	a0,16(s1)
 349 009c 97000000 		call	_ZN9Semaphore6signalEv@plt
 349      E7800000 
 350              	.LVL33:
  44:test/ConsumerProducer_CPP_Sync_API_test.cpp **** 
 351              		.loc 1 44 1
 352 00a4 83308102 		ld	ra,40(sp)
 353              		.cfi_restore 1
 354 00a8 03340102 		ld	s0,32(sp)
 355              		.cfi_restore 8
 356              		.cfi_def_cfa 2, 48
 357 00ac 83348101 		ld	s1,24(sp)
 358              		.cfi_restore 9
 359              	.LVL34:
 360 00b0 03390101 		ld	s2,16(sp)
 361              		.cfi_restore 18
 362              	.LVL35:
 363 00b4 83398100 		ld	s3,8(sp)
 364              		.cfi_restore 19
 365              	.LVL36:
 366 00b8 13010103 		addi	sp,sp,48
 367              		.cfi_def_cfa_offset 0
 368 00bc 67800000 		jr	ra
 369              		.cfi_endproc
 370              	.LFE11:
 372              		.section	.text._ZN16ProducerKeyboard3runEv,"axG",@progbits,_ZN16ProducerKeyboard3runEv,comdat
 373              		.align	2
 374              		.weak	_ZN16ProducerKeyboard3runEv
 376              	_ZN16ProducerKeyboard3runEv:
 377              	.LFB10:
  21:test/ConsumerProducer_CPP_Sync_API_test.cpp ****         producerKeyboard(td);
 378              		.loc 1 21 10 is_stmt 1
 379              		.cfi_startproc
 380              	.LVL37:
 381 0000 130101FF 		addi	sp,sp,-16
 382              		.cfi_def_cfa_offset 16
 383 0004 23341100 		sd	ra,8(sp)
 384 0008 23308100 		sd	s0,0(sp)
 385              		.cfi_offset 1, -8
 386              		.cfi_offset 8, -16
 387 000c 13040101 		addi	s0,sp,16
 388              		.cfi_def_cfa 8, 0
  22:test/ConsumerProducer_CPP_Sync_API_test.cpp ****     }
 389              		.loc 1 22 9
  22:test/ConsumerProducer_CPP_Sync_API_test.cpp ****     }
 390              		.loc 1 22 25 is_stmt 0
 391 0010 83358508 		ld	a1,136(a0)
 392 0014 97000000 		call	_ZN16ProducerKeyboard16producerKeyboardEPv
 392      E7800000 
 393              	.LVL38:
  23:test/ConsumerProducer_CPP_Sync_API_test.cpp **** };
GAS LISTING /tmp/ccvQZ6Lf.s 			page 10


 394              		.loc 1 23 5
 395 001c 83308100 		ld	ra,8(sp)
 396              		.cfi_restore 1
 397 0020 03340100 		ld	s0,0(sp)
 398              		.cfi_restore 8
 399              		.cfi_def_cfa 2, 16
 400 0024 13010101 		addi	sp,sp,16
 401              		.cfi_def_cfa_offset 0
 402 0028 67800000 		jr	ra
 403              		.cfi_endproc
 404              	.LFE10:
 406              		.text
 407              		.align	2
 408              		.globl	_ZN12ProducerSync8producerEPv
 410              	_ZN12ProducerSync8producerEPv:
 411              	.LFB16:
  57:test/ConsumerProducer_CPP_Sync_API_test.cpp ****     struct thread_data *data = (struct thread_data *) arg;
 412              		.loc 1 57 40 is_stmt 1
 413              		.cfi_startproc
 414              	.LVL39:
 415 00c0 130101FE 		addi	sp,sp,-32
 416              		.cfi_def_cfa_offset 32
 417 00c4 233C1100 		sd	ra,24(sp)
 418 00c8 23388100 		sd	s0,16(sp)
 419 00cc 23349100 		sd	s1,8(sp)
 420 00d0 23302101 		sd	s2,0(sp)
 421              		.cfi_offset 1, -8
 422              		.cfi_offset 8, -16
 423              		.cfi_offset 9, -24
 424              		.cfi_offset 18, -32
 425 00d4 13040102 		addi	s0,sp,32
 426              		.cfi_def_cfa 8, 0
 427 00d8 93840500 		mv	s1,a1
  58:test/ConsumerProducer_CPP_Sync_API_test.cpp **** 
 428              		.loc 1 58 5
 429              	.LVL40:
  60:test/ConsumerProducer_CPP_Sync_API_test.cpp ****     while (!threadEnd) {
 430              		.loc 1 60 5
  60:test/ConsumerProducer_CPP_Sync_API_test.cpp ****     while (!threadEnd) {
 431              		.loc 1 60 9 is_stmt 0
 432 00dc 13090000 		li	s2,0
 433 00e0 6F00C000 		j	.L22
 434              	.LVL41:
 435              	.L26:
  66:test/ConsumerProducer_CPP_Sync_API_test.cpp ****         }
 436              		.loc 1 66 13 is_stmt 1
  66:test/ConsumerProducer_CPP_Sync_API_test.cpp ****         }
 437              		.loc 1 66 29 is_stmt 0
 438 00e4 97000000 		call	_ZN6Thread8dispatchEv@plt
 438      E7800000 
 439              	.LVL42:
 440              	.L22:
  61:test/ConsumerProducer_CPP_Sync_API_test.cpp ****         data->buffer->put(data->id + '0');
 441              		.loc 1 61 5 is_stmt 1
  61:test/ConsumerProducer_CPP_Sync_API_test.cpp ****         data->buffer->put(data->id + '0');
 442              		.loc 1 61 12
 443 00ec 97070000 		lw	a5,.LANCHOR0
GAS LISTING /tmp/ccvQZ6Lf.s 			page 11


 443      83A70700 
 444 00f4 639E0702 		bnez	a5,.L23
  62:test/ConsumerProducer_CPP_Sync_API_test.cpp ****         i++;
 445              		.loc 1 62 9
  62:test/ConsumerProducer_CPP_Sync_API_test.cpp ****         i++;
 446              		.loc 1 62 33 is_stmt 0
 447 00f8 83A50400 		lw	a1,0(s1)
  62:test/ConsumerProducer_CPP_Sync_API_test.cpp ****         i++;
 448              		.loc 1 62 26
 449 00fc 9B850503 		addiw	a1,a1,48
 450 0100 03B58400 		ld	a0,8(s1)
 451 0104 97000000 		call	_ZN9BufferCPP3putEi@plt
 451      E7800000 
 452              	.LVL43:
  63:test/ConsumerProducer_CPP_Sync_API_test.cpp **** 
 453              		.loc 1 63 9 is_stmt 1
  63:test/ConsumerProducer_CPP_Sync_API_test.cpp **** 
 454              		.loc 1 63 10 is_stmt 0
 455 010c 1B071900 		addiw	a4,s2,1
 456 0110 1B090700 		sext.w	s2,a4
 457              	.LVL44:
  65:test/ConsumerProducer_CPP_Sync_API_test.cpp ****             Thread::dispatch();
 458              		.loc 1 65 9 is_stmt 1
  65:test/ConsumerProducer_CPP_Sync_API_test.cpp ****             Thread::dispatch();
 459              		.loc 1 65 29 is_stmt 0
 460 0114 83A60400 		lw	a3,0(s1)
  65:test/ConsumerProducer_CPP_Sync_API_test.cpp ****             Thread::dispatch();
 461              		.loc 1 65 21
 462 0118 9B972600 		slliw	a5,a3,2
 463 011c BB87D700 		addw	a5,a5,a3
 464 0120 9B971700 		slliw	a5,a5,1
  65:test/ConsumerProducer_CPP_Sync_API_test.cpp ****             Thread::dispatch();
 465              		.loc 1 65 15
 466 0124 BB67F702 		remw	a5,a4,a5
  65:test/ConsumerProducer_CPP_Sync_API_test.cpp ****             Thread::dispatch();
 467              		.loc 1 65 9
 468 0128 E39207FC 		bnez	a5,.L22
 469 012c 6FF09FFB 		j	.L26
 470              	.LVL45:
 471              	.L23:
  70:test/ConsumerProducer_CPP_Sync_API_test.cpp **** }
 472              		.loc 1 70 5 is_stmt 1
  70:test/ConsumerProducer_CPP_Sync_API_test.cpp **** }
 473              		.loc 1 70 23 is_stmt 0
 474 0130 03B50401 		ld	a0,16(s1)
 475 0134 97000000 		call	_ZN9Semaphore6signalEv@plt
 475      E7800000 
 476              	.LVL46:
  71:test/ConsumerProducer_CPP_Sync_API_test.cpp **** 
 477              		.loc 1 71 1
 478 013c 83308101 		ld	ra,24(sp)
 479              		.cfi_restore 1
 480 0140 03340101 		ld	s0,16(sp)
 481              		.cfi_restore 8
 482              		.cfi_def_cfa 2, 32
 483 0144 83348100 		ld	s1,8(sp)
 484              		.cfi_restore 9
GAS LISTING /tmp/ccvQZ6Lf.s 			page 12


 485              	.LVL47:
 486 0148 03390100 		ld	s2,0(sp)
 487              		.cfi_restore 18
 488              	.LVL48:
 489 014c 13010102 		addi	sp,sp,32
 490              		.cfi_def_cfa_offset 0
 491 0150 67800000 		jr	ra
 492              		.cfi_endproc
 493              	.LFE16:
 495              		.section	.text._ZN12ProducerSync3runEv,"axG",@progbits,_ZN12ProducerSync3runEv,comdat
 496              		.align	2
 497              		.weak	_ZN12ProducerSync3runEv
 499              	_ZN12ProducerSync3runEv:
 500              	.LFB15:
  52:test/ConsumerProducer_CPP_Sync_API_test.cpp ****         producer(td);
 501              		.loc 1 52 10 is_stmt 1
 502              		.cfi_startproc
 503              	.LVL49:
 504 0000 130101FF 		addi	sp,sp,-16
 505              		.cfi_def_cfa_offset 16
 506 0004 23341100 		sd	ra,8(sp)
 507 0008 23308100 		sd	s0,0(sp)
 508              		.cfi_offset 1, -8
 509              		.cfi_offset 8, -16
 510 000c 13040101 		addi	s0,sp,16
 511              		.cfi_def_cfa 8, 0
  53:test/ConsumerProducer_CPP_Sync_API_test.cpp ****     }
 512              		.loc 1 53 9
  53:test/ConsumerProducer_CPP_Sync_API_test.cpp ****     }
 513              		.loc 1 53 17 is_stmt 0
 514 0010 83358508 		ld	a1,136(a0)
 515 0014 97000000 		call	_ZN12ProducerSync8producerEPv
 515      E7800000 
 516              	.LVL50:
  54:test/ConsumerProducer_CPP_Sync_API_test.cpp **** };
 517              		.loc 1 54 5
 518 001c 83308100 		ld	ra,8(sp)
 519              		.cfi_restore 1
 520 0020 03340100 		ld	s0,0(sp)
 521              		.cfi_restore 8
 522              		.cfi_def_cfa 2, 16
 523 0024 13010101 		addi	sp,sp,16
 524              		.cfi_def_cfa_offset 0
 525 0028 67800000 		jr	ra
 526              		.cfi_endproc
 527              	.LFE15:
 529              		.text
 530              		.align	2
 531              		.globl	_ZN12ConsumerSync8consumerEPv
 533              	_ZN12ConsumerSync8consumerEPv:
 534              	.LFB21:
  74:test/ConsumerProducer_CPP_Sync_API_test.cpp ****     thread_data* td;
  75:test/ConsumerProducer_CPP_Sync_API_test.cpp ****     void consumer(void *arg);
  76:test/ConsumerProducer_CPP_Sync_API_test.cpp **** public:
  77:test/ConsumerProducer_CPP_Sync_API_test.cpp ****     ConsumerSync(thread_data* _td):Thread(), td(_td) {}
  78:test/ConsumerProducer_CPP_Sync_API_test.cpp **** 
  79:test/ConsumerProducer_CPP_Sync_API_test.cpp ****     void run() override {
GAS LISTING /tmp/ccvQZ6Lf.s 			page 13


  80:test/ConsumerProducer_CPP_Sync_API_test.cpp ****         consumer(td);
  81:test/ConsumerProducer_CPP_Sync_API_test.cpp ****     }
  82:test/ConsumerProducer_CPP_Sync_API_test.cpp **** };
  83:test/ConsumerProducer_CPP_Sync_API_test.cpp **** 
  84:test/ConsumerProducer_CPP_Sync_API_test.cpp **** void ConsumerSync::consumer(void *arg) {
 535              		.loc 1 84 40 is_stmt 1
 536              		.cfi_startproc
 537              	.LVL51:
 538 0154 130101FD 		addi	sp,sp,-48
 539              		.cfi_def_cfa_offset 48
 540 0158 23341102 		sd	ra,40(sp)
 541 015c 23308102 		sd	s0,32(sp)
 542 0160 233C9100 		sd	s1,24(sp)
 543 0164 23382101 		sd	s2,16(sp)
 544 0168 23343101 		sd	s3,8(sp)
 545 016c 23304101 		sd	s4,0(sp)
 546              		.cfi_offset 1, -8
 547              		.cfi_offset 8, -16
 548              		.cfi_offset 9, -24
 549              		.cfi_offset 18, -32
 550              		.cfi_offset 19, -40
 551              		.cfi_offset 20, -48
 552 0170 13040103 		addi	s0,sp,48
 553              		.cfi_def_cfa 8, 0
 554 0174 93090500 		mv	s3,a0
 555 0178 13890500 		mv	s2,a1
  85:test/ConsumerProducer_CPP_Sync_API_test.cpp ****     struct thread_data *data = (struct thread_data *) arg;
 556              		.loc 1 85 5
 557              	.LVL52:
  86:test/ConsumerProducer_CPP_Sync_API_test.cpp **** 
  87:test/ConsumerProducer_CPP_Sync_API_test.cpp ****     int i = 0;
 558              		.loc 1 87 5
 559              		.loc 1 87 9 is_stmt 0
 560 017c 130A0000 		li	s4,0
 561 0180 6F00C001 		j	.L30
 562              	.LVL53:
 563              	.L36:
 564              	.LBB36:
  88:test/ConsumerProducer_CPP_Sync_API_test.cpp ****     while (!threadEnd) {
  89:test/ConsumerProducer_CPP_Sync_API_test.cpp ****         int key = data->buffer->get();
  90:test/ConsumerProducer_CPP_Sync_API_test.cpp ****         i++;
  91:test/ConsumerProducer_CPP_Sync_API_test.cpp **** 
  92:test/ConsumerProducer_CPP_Sync_API_test.cpp ****         putc(key);
  93:test/ConsumerProducer_CPP_Sync_API_test.cpp **** 
  94:test/ConsumerProducer_CPP_Sync_API_test.cpp ****         if (i % (5 * data->id) == 0) {
  95:test/ConsumerProducer_CPP_Sync_API_test.cpp ****             Thread::dispatch();
 565              		.loc 1 95 13 is_stmt 1
 566              		.loc 1 95 29 is_stmt 0
 567 0184 97000000 		call	_ZN6Thread8dispatchEv@plt
 567      E7800000 
 568              	.LVL54:
 569 018c 6F000005 		j	.L32
 570              	.LVL55:
 571              	.L37:
  96:test/ConsumerProducer_CPP_Sync_API_test.cpp ****         }
  97:test/ConsumerProducer_CPP_Sync_API_test.cpp **** 
  98:test/ConsumerProducer_CPP_Sync_API_test.cpp ****         if (i % 80 == 0) {
GAS LISTING /tmp/ccvQZ6Lf.s 			page 14


  99:test/ConsumerProducer_CPP_Sync_API_test.cpp ****             putc('\n');
 572              		.loc 1 99 13 is_stmt 1
 573              		.loc 1 99 17 is_stmt 0
 574 0190 1305A000 		li	a0,10
 575 0194 97000000 		call	putc@plt
 575      E7800000 
 576              	.LVL56:
 577              	.L30:
 578              	.LBE36:
  88:test/ConsumerProducer_CPP_Sync_API_test.cpp ****     while (!threadEnd) {
 579              		.loc 1 88 5 is_stmt 1
  88:test/ConsumerProducer_CPP_Sync_API_test.cpp ****     while (!threadEnd) {
 580              		.loc 1 88 12
 581 019c 97070000 		lw	a5,.LANCHOR0
 581      83A70700 
 582 01a4 63920706 		bnez	a5,.L31
 583              	.LBB37:
  89:test/ConsumerProducer_CPP_Sync_API_test.cpp ****         i++;
 584              		.loc 1 89 9
  89:test/ConsumerProducer_CPP_Sync_API_test.cpp ****         i++;
 585              		.loc 1 89 36 is_stmt 0
 586 01a8 03358900 		ld	a0,8(s2)
 587 01ac 97000000 		call	_ZN9BufferCPP3getEv@plt
 587      E7800000 
 588              	.LVL57:
  90:test/ConsumerProducer_CPP_Sync_API_test.cpp **** 
 589              		.loc 1 90 9 is_stmt 1
  90:test/ConsumerProducer_CPP_Sync_API_test.cpp **** 
 590              		.loc 1 90 10 is_stmt 0
 591 01b4 9B041A00 		addiw	s1,s4,1
 592 01b8 1B8A0400 		sext.w	s4,s1
 593              	.LVL58:
  92:test/ConsumerProducer_CPP_Sync_API_test.cpp **** 
 594              		.loc 1 92 9 is_stmt 1
  92:test/ConsumerProducer_CPP_Sync_API_test.cpp **** 
 595              		.loc 1 92 13 is_stmt 0
 596 01bc 1375F50F 		andi	a0,a0,0xff
 597              	.LVL59:
 598 01c0 97000000 		call	putc@plt
 598      E7800000 
 599              	.LVL60:
  94:test/ConsumerProducer_CPP_Sync_API_test.cpp ****             Thread::dispatch();
 600              		.loc 1 94 9 is_stmt 1
  94:test/ConsumerProducer_CPP_Sync_API_test.cpp ****             Thread::dispatch();
 601              		.loc 1 94 28 is_stmt 0
 602 01c8 03270900 		lw	a4,0(s2)
  94:test/ConsumerProducer_CPP_Sync_API_test.cpp ****             Thread::dispatch();
 603              		.loc 1 94 20
 604 01cc 9B172700 		slliw	a5,a4,2
 605 01d0 BB87E700 		addw	a5,a5,a4
  94:test/ConsumerProducer_CPP_Sync_API_test.cpp ****             Thread::dispatch();
 606              		.loc 1 94 15
 607 01d4 BBE7F402 		remw	a5,s1,a5
  94:test/ConsumerProducer_CPP_Sync_API_test.cpp ****             Thread::dispatch();
 608              		.loc 1 94 9
 609 01d8 E38607FA 		beqz	a5,.L36
 610              	.L32:
GAS LISTING /tmp/ccvQZ6Lf.s 			page 15


  98:test/ConsumerProducer_CPP_Sync_API_test.cpp ****             putc('\n');
 611              		.loc 1 98 9 is_stmt 1
  98:test/ConsumerProducer_CPP_Sync_API_test.cpp ****             putc('\n');
 612              		.loc 1 98 15 is_stmt 0
 613 01dc 93070005 		li	a5,80
 614 01e0 BBE4F402 		remw	s1,s1,a5
 615              	.LVL61:
  98:test/ConsumerProducer_CPP_Sync_API_test.cpp ****             putc('\n');
 616              		.loc 1 98 9
 617 01e4 E39C04FA 		bnez	s1,.L30
 618 01e8 6FF09FFA 		j	.L37
 619              	.L38:
 620              	.LBE37:
 621              	.LBB38:
 100:test/ConsumerProducer_CPP_Sync_API_test.cpp ****         }
 101:test/ConsumerProducer_CPP_Sync_API_test.cpp ****     }
 102:test/ConsumerProducer_CPP_Sync_API_test.cpp **** 
 103:test/ConsumerProducer_CPP_Sync_API_test.cpp **** 
 104:test/ConsumerProducer_CPP_Sync_API_test.cpp ****     while (td->buffer->getCnt() > 0) {
 105:test/ConsumerProducer_CPP_Sync_API_test.cpp ****         int key = td->buffer->get();
 622              		.loc 1 105 9 is_stmt 1
 623              		.loc 1 105 19 is_stmt 0
 624 01ec 83B78908 		ld	a5,136(s3)
 625              		.loc 1 105 34
 626 01f0 03B58700 		ld	a0,8(a5)
 627 01f4 97000000 		call	_ZN9BufferCPP3getEv@plt
 627      E7800000 
 628              	.LVL62:
 106:test/ConsumerProducer_CPP_Sync_API_test.cpp ****         Console::putc(key);
 629              		.loc 1 106 9 is_stmt 1
 630              	.LBB39:
 631              	.LBB40:
 632              		.file 2 "test/../h/Console.hpp"
   1:test/../h/Console.hpp **** //
   2:test/../h/Console.hpp **** // Created by os on 9/13/25.
   3:test/../h/Console.hpp **** //
   4:test/../h/Console.hpp **** 
   5:test/../h/Console.hpp **** #ifndef PROJECT_BASE_CONSOLE_HPP
   6:test/../h/Console.hpp **** #define PROJECT_BASE_CONSOLE_HPP
   7:test/../h/Console.hpp **** #include "../lib/hw.h"
   8:test/../h/Console.hpp **** #include "../lib/console.h"
   9:test/../h/Console.hpp **** 
  10:test/../h/Console.hpp **** class Console {
  11:test/../h/Console.hpp **** public:
  12:test/../h/Console.hpp ****     static void putc(char chr) {
  13:test/../h/Console.hpp ****         __putc(chr);   // poziva funkciju iz console.h
 633              		.loc 2 13 9
 634              		.loc 2 13 15 is_stmt 0
 635 01fc 1375F50F 		andi	a0,a0,0xff
 636              	.LVL63:
 637 0200 97000000 		call	__putc@plt
 637      E7800000 
 638              	.LVL64:
 639              	.L31:
 640              	.LBE40:
 641              	.LBE39:
 642              	.LBE38:
GAS LISTING /tmp/ccvQZ6Lf.s 			page 16


 104:test/ConsumerProducer_CPP_Sync_API_test.cpp ****         int key = td->buffer->get();
 643              		.loc 1 104 5 is_stmt 1
 104:test/ConsumerProducer_CPP_Sync_API_test.cpp ****         int key = td->buffer->get();
 644              		.loc 1 104 33
 104:test/ConsumerProducer_CPP_Sync_API_test.cpp ****         int key = td->buffer->get();
 645              		.loc 1 104 12 is_stmt 0
 646 0208 83B78908 		ld	a5,136(s3)
 104:test/ConsumerProducer_CPP_Sync_API_test.cpp ****         int key = td->buffer->get();
 647              		.loc 1 104 30
 648 020c 03B58700 		ld	a0,8(a5)
 649 0210 97000000 		call	_ZN9BufferCPP6getCntEv@plt
 649      E7800000 
 650              	.LVL65:
 104:test/ConsumerProducer_CPP_Sync_API_test.cpp ****         int key = td->buffer->get();
 651              		.loc 1 104 33
 652 0218 E34AA0FC 		bgtz	a0,.L38
 107:test/ConsumerProducer_CPP_Sync_API_test.cpp ****     }
 108:test/ConsumerProducer_CPP_Sync_API_test.cpp **** 
 109:test/ConsumerProducer_CPP_Sync_API_test.cpp ****     data->wait->signal();
 653              		.loc 1 109 5 is_stmt 1
 654              		.loc 1 109 23 is_stmt 0
 655 021c 03350901 		ld	a0,16(s2)
 656 0220 97000000 		call	_ZN9Semaphore6signalEv@plt
 656      E7800000 
 657              	.LVL66:
 110:test/ConsumerProducer_CPP_Sync_API_test.cpp **** }
 658              		.loc 1 110 1
 659 0228 83308102 		ld	ra,40(sp)
 660              		.cfi_restore 1
 661 022c 03340102 		ld	s0,32(sp)
 662              		.cfi_restore 8
 663              		.cfi_def_cfa 2, 48
 664 0230 83348101 		ld	s1,24(sp)
 665              		.cfi_restore 9
 666 0234 03390101 		ld	s2,16(sp)
 667              		.cfi_restore 18
 668              	.LVL67:
 669 0238 83398100 		ld	s3,8(sp)
 670              		.cfi_restore 19
 671              	.LVL68:
 672 023c 033A0100 		ld	s4,0(sp)
 673              		.cfi_restore 20
 674              	.LVL69:
 675 0240 13010103 		addi	sp,sp,48
 676              		.cfi_def_cfa_offset 0
 677 0244 67800000 		jr	ra
 678              		.cfi_endproc
 679              	.LFE21:
 681              		.section	.text._ZN12ConsumerSync3runEv,"axG",@progbits,_ZN12ConsumerSync3runEv,comdat
 682              		.align	2
 683              		.weak	_ZN12ConsumerSync3runEv
 685              	_ZN12ConsumerSync3runEv:
 686              	.LFB20:
  79:test/ConsumerProducer_CPP_Sync_API_test.cpp ****         consumer(td);
 687              		.loc 1 79 10 is_stmt 1
 688              		.cfi_startproc
 689              	.LVL70:
GAS LISTING /tmp/ccvQZ6Lf.s 			page 17


 690 0000 130101FF 		addi	sp,sp,-16
 691              		.cfi_def_cfa_offset 16
 692 0004 23341100 		sd	ra,8(sp)
 693 0008 23308100 		sd	s0,0(sp)
 694              		.cfi_offset 1, -8
 695              		.cfi_offset 8, -16
 696 000c 13040101 		addi	s0,sp,16
 697              		.cfi_def_cfa 8, 0
  80:test/ConsumerProducer_CPP_Sync_API_test.cpp ****     }
 698              		.loc 1 80 9
  80:test/ConsumerProducer_CPP_Sync_API_test.cpp ****     }
 699              		.loc 1 80 17 is_stmt 0
 700 0010 83358508 		ld	a1,136(a0)
 701 0014 97000000 		call	_ZN12ConsumerSync8consumerEPv
 701      E7800000 
 702              	.LVL71:
  81:test/ConsumerProducer_CPP_Sync_API_test.cpp **** };
 703              		.loc 1 81 5
 704 001c 83308100 		ld	ra,8(sp)
 705              		.cfi_restore 1
 706 0020 03340100 		ld	s0,0(sp)
 707              		.cfi_restore 8
 708              		.cfi_def_cfa 2, 16
 709 0024 13010101 		addi	sp,sp,16
 710              		.cfi_def_cfa_offset 0
 711 0028 67800000 		jr	ra
 712              		.cfi_endproc
 713              	.LFE20:
 715              		.section	.rodata.str1.8,"aMS",@progbits,1
 716              		.align	3
 717              	.LC0:
 718 0000 556E6573 		.string	"Unesite broj proizvodjaca?\n"
 718      69746520 
 718      62726F6A 
 718      2070726F 
 718      697A766F 
 719 001c 00000000 		.align	3
 720              	.LC1:
 721 0020 556E6573 		.string	"Unesite velicinu bafera?\n"
 721      69746520 
 721      76656C69 
 721      63696E75 
 721      20626166 
 722 003a 00000000 		.align	3
 722      0000
 723              	.LC2:
 724 0040 42726F6A 		.string	"Broj proizvodjaca "
 724      2070726F 
 724      697A766F 
 724      646A6163 
 724      612000
 725 0053 00000000 		.align	3
 725      00
 726              	.LC3:
 727 0058 20692076 		.string	" i velicina bafera "
 727      656C6963 
 727      696E6120 
GAS LISTING /tmp/ccvQZ6Lf.s 			page 18


 727      62616665 
 727      72612000 
 728 006c 00000000 		.align	3
 729              	.LC4:
 730 0070 2E0A00   		.string	".\n"
 731 0073 00000000 		.align	3
 731      00
 732              	.LC5:
 733 0078 42726F6A 		.string	"Broj proizvodjaca ne sme biti manji od velicine bafera!\n"
 733      2070726F 
 733      697A766F 
 733      646A6163 
 733      61206E65 
 734 00b1 00000000 		.align	3
 734      000000
 735              	.LC6:
 736 00b8 42726F6A 		.string	"Broj proizvodjaca mora biti veci od nula!\n"
 736      2070726F 
 736      697A766F 
 736      646A6163 
 736      61206D6F 
 737              		.text
 738              		.align	2
 739              		.globl	_Z29producerConsumer_CPP_Sync_APIv
 741              	_Z29producerConsumer_CPP_Sync_APIv:
 742              	.LFB22:
 111:test/ConsumerProducer_CPP_Sync_API_test.cpp **** 
 112:test/ConsumerProducer_CPP_Sync_API_test.cpp **** void producerConsumer_CPP_Sync_API() {
 743              		.loc 1 112 38 is_stmt 1
 744              		.cfi_startproc
 745              		.cfi_personality 0x9b,DW.ref.__gxx_personality_v0
 746              		.cfi_lsda 0x1b,.LLSDA22
 747 0248 130101F8 		addi	sp,sp,-128
 748              		.cfi_def_cfa_offset 128
 749 024c 233C1106 		sd	ra,120(sp)
 750 0250 23388106 		sd	s0,112(sp)
 751 0254 23349106 		sd	s1,104(sp)
 752 0258 23302107 		sd	s2,96(sp)
 753 025c 233C3105 		sd	s3,88(sp)
 754 0260 23384105 		sd	s4,80(sp)
 755 0264 23345105 		sd	s5,72(sp)
 756 0268 23306105 		sd	s6,64(sp)
 757 026c 233C7103 		sd	s7,56(sp)
 758 0270 23388103 		sd	s8,48(sp)
 759 0274 23349103 		sd	s9,40(sp)
 760              		.cfi_offset 1, -8
 761              		.cfi_offset 8, -16
 762              		.cfi_offset 9, -24
 763              		.cfi_offset 18, -32
 764              		.cfi_offset 19, -40
 765              		.cfi_offset 20, -48
 766              		.cfi_offset 21, -56
 767              		.cfi_offset 22, -64
 768              		.cfi_offset 23, -72
 769              		.cfi_offset 24, -80
 770              		.cfi_offset 25, -88
 771 0278 13040108 		addi	s0,sp,128
GAS LISTING /tmp/ccvQZ6Lf.s 			page 19


 772              		.cfi_def_cfa 8, 0
 113:test/ConsumerProducer_CPP_Sync_API_test.cpp ****     char input[30];
 114:test/ConsumerProducer_CPP_Sync_API_test.cpp ****     int n, threadNum;
 115:test/ConsumerProducer_CPP_Sync_API_test.cpp **** 
 116:test/ConsumerProducer_CPP_Sync_API_test.cpp ****     printString("Unesite broj proizvodjaca?\n");
 117:test/ConsumerProducer_CPP_Sync_API_test.cpp ****     getString(input, 30);
 118:test/ConsumerProducer_CPP_Sync_API_test.cpp ****     threadNum = stringToInt(input);
 119:test/ConsumerProducer_CPP_Sync_API_test.cpp **** 
 120:test/ConsumerProducer_CPP_Sync_API_test.cpp ****     printString("Unesite velicinu bafera?\n");
 121:test/ConsumerProducer_CPP_Sync_API_test.cpp ****     getString(input, 30);
 122:test/ConsumerProducer_CPP_Sync_API_test.cpp ****     n = stringToInt(input);
 123:test/ConsumerProducer_CPP_Sync_API_test.cpp **** 
 124:test/ConsumerProducer_CPP_Sync_API_test.cpp ****     printString("Broj proizvodjaca "); printInt(threadNum);
 125:test/ConsumerProducer_CPP_Sync_API_test.cpp ****     printString(" i velicina bafera "); printInt(n);
 126:test/ConsumerProducer_CPP_Sync_API_test.cpp ****     printString(".\n");
 127:test/ConsumerProducer_CPP_Sync_API_test.cpp **** 
 128:test/ConsumerProducer_CPP_Sync_API_test.cpp ****     if(threadNum > n) {
 129:test/ConsumerProducer_CPP_Sync_API_test.cpp ****         printString("Broj proizvodjaca ne sme biti manji od velicine bafera!\n");
 130:test/ConsumerProducer_CPP_Sync_API_test.cpp ****         return;
 131:test/ConsumerProducer_CPP_Sync_API_test.cpp ****     } else if (threadNum < 1) {
 132:test/ConsumerProducer_CPP_Sync_API_test.cpp ****         printString("Broj proizvodjaca mora biti veci od nula!\n");
 133:test/ConsumerProducer_CPP_Sync_API_test.cpp ****         return;
 134:test/ConsumerProducer_CPP_Sync_API_test.cpp ****     }
 135:test/ConsumerProducer_CPP_Sync_API_test.cpp **** 
 136:test/ConsumerProducer_CPP_Sync_API_test.cpp ****     BufferCPP *buffer = new BufferCPP(n);
 137:test/ConsumerProducer_CPP_Sync_API_test.cpp **** 
 138:test/ConsumerProducer_CPP_Sync_API_test.cpp ****     waitForAll = new Semaphore(0);
 139:test/ConsumerProducer_CPP_Sync_API_test.cpp **** 
 140:test/ConsumerProducer_CPP_Sync_API_test.cpp ****     Thread* threads[threadNum];
 141:test/ConsumerProducer_CPP_Sync_API_test.cpp ****     Thread* consumerThread;
 142:test/ConsumerProducer_CPP_Sync_API_test.cpp **** 
 143:test/ConsumerProducer_CPP_Sync_API_test.cpp ****     struct thread_data data[threadNum + 1];
 144:test/ConsumerProducer_CPP_Sync_API_test.cpp **** 
 145:test/ConsumerProducer_CPP_Sync_API_test.cpp ****     data[threadNum].id = threadNum;
 146:test/ConsumerProducer_CPP_Sync_API_test.cpp ****     data[threadNum].buffer = buffer;
 147:test/ConsumerProducer_CPP_Sync_API_test.cpp ****     data[threadNum].wait = waitForAll;
 148:test/ConsumerProducer_CPP_Sync_API_test.cpp ****     consumerThread = new ConsumerSync(data+threadNum);
 149:test/ConsumerProducer_CPP_Sync_API_test.cpp ****     consumerThread->start();
 150:test/ConsumerProducer_CPP_Sync_API_test.cpp **** 
 151:test/ConsumerProducer_CPP_Sync_API_test.cpp ****     for (int i = 0; i < threadNum; i++) {
 152:test/ConsumerProducer_CPP_Sync_API_test.cpp ****         data[i].id = i;
 153:test/ConsumerProducer_CPP_Sync_API_test.cpp ****         data[i].buffer = buffer;
 154:test/ConsumerProducer_CPP_Sync_API_test.cpp ****         data[i].wait = waitForAll;
 155:test/ConsumerProducer_CPP_Sync_API_test.cpp **** 
 156:test/ConsumerProducer_CPP_Sync_API_test.cpp ****         if(i>0) {
 157:test/ConsumerProducer_CPP_Sync_API_test.cpp ****             threads[i] = new ProducerSync(data+i);
 158:test/ConsumerProducer_CPP_Sync_API_test.cpp ****         } else {
 159:test/ConsumerProducer_CPP_Sync_API_test.cpp ****             threads[i] = new ProducerKeyboard(data+i);
 160:test/ConsumerProducer_CPP_Sync_API_test.cpp ****         }
 161:test/ConsumerProducer_CPP_Sync_API_test.cpp **** 
 162:test/ConsumerProducer_CPP_Sync_API_test.cpp ****         threads[i]->start();
 163:test/ConsumerProducer_CPP_Sync_API_test.cpp ****     }
 164:test/ConsumerProducer_CPP_Sync_API_test.cpp **** 
 165:test/ConsumerProducer_CPP_Sync_API_test.cpp ****     Thread::dispatch();
 166:test/ConsumerProducer_CPP_Sync_API_test.cpp **** 
 167:test/ConsumerProducer_CPP_Sync_API_test.cpp ****     for (int i = 0; i <= threadNum; i++) {
 168:test/ConsumerProducer_CPP_Sync_API_test.cpp ****         waitForAll->wait();
GAS LISTING /tmp/ccvQZ6Lf.s 			page 20


 169:test/ConsumerProducer_CPP_Sync_API_test.cpp ****     }
 170:test/ConsumerProducer_CPP_Sync_API_test.cpp **** 
 171:test/ConsumerProducer_CPP_Sync_API_test.cpp ****     for (int i = 0; i < threadNum; i++) {
 172:test/ConsumerProducer_CPP_Sync_API_test.cpp ****         delete threads[i];
 173:test/ConsumerProducer_CPP_Sync_API_test.cpp ****     }
 174:test/ConsumerProducer_CPP_Sync_API_test.cpp ****     delete consumerThread;
 175:test/ConsumerProducer_CPP_Sync_API_test.cpp ****     delete waitForAll;
 176:test/ConsumerProducer_CPP_Sync_API_test.cpp ****     delete buffer;
 773              		.loc 1 176 18 is_stmt 0
 774 027c 930B0100 		mv	s7,sp
 113:test/ConsumerProducer_CPP_Sync_API_test.cpp ****     char input[30];
 775              		.loc 1 113 5 is_stmt 1
 114:test/ConsumerProducer_CPP_Sync_API_test.cpp **** 
 776              		.loc 1 114 5
 116:test/ConsumerProducer_CPP_Sync_API_test.cpp ****     getString(input, 30);
 777              		.loc 1 116 5
 116:test/ConsumerProducer_CPP_Sync_API_test.cpp ****     getString(input, 30);
 778              		.loc 1 116 16 is_stmt 0
 779 0280 17050000 		lla	a0,.LC0
 779      13050500 
 780              	.LEHB0:
 781 0288 97000000 		call	_Z11printStringPKc@plt
 781      E7800000 
 782              	.LVL72:
 117:test/ConsumerProducer_CPP_Sync_API_test.cpp ****     threadNum = stringToInt(input);
 783              		.loc 1 117 5 is_stmt 1
 117:test/ConsumerProducer_CPP_Sync_API_test.cpp ****     threadNum = stringToInt(input);
 784              		.loc 1 117 14 is_stmt 0
 785 0290 9305E001 		li	a1,30
 786 0294 930404F8 		addi	s1,s0,-128
 787 0298 13850400 		mv	a0,s1
 788 029c 97000000 		call	_Z9getStringPci@plt
 788      E7800000 
 789              	.LVL73:
 118:test/ConsumerProducer_CPP_Sync_API_test.cpp **** 
 790              		.loc 1 118 5 is_stmt 1
 118:test/ConsumerProducer_CPP_Sync_API_test.cpp **** 
 791              		.loc 1 118 28 is_stmt 0
 792 02a4 13850400 		mv	a0,s1
 793 02a8 97000000 		call	_Z11stringToIntPKc@plt
 793      E7800000 
 794              	.LVL74:
 795 02b0 13090500 		mv	s2,a0
 796              	.LVL75:
 120:test/ConsumerProducer_CPP_Sync_API_test.cpp ****     getString(input, 30);
 797              		.loc 1 120 5 is_stmt 1
 120:test/ConsumerProducer_CPP_Sync_API_test.cpp ****     getString(input, 30);
 798              		.loc 1 120 16 is_stmt 0
 799 02b4 17050000 		lla	a0,.LC1
 799      13050500 
 800 02bc 97000000 		call	_Z11printStringPKc@plt
 800      E7800000 
 801              	.LVL76:
 121:test/ConsumerProducer_CPP_Sync_API_test.cpp ****     n = stringToInt(input);
 802              		.loc 1 121 5 is_stmt 1
 121:test/ConsumerProducer_CPP_Sync_API_test.cpp ****     n = stringToInt(input);
 803              		.loc 1 121 14 is_stmt 0
GAS LISTING /tmp/ccvQZ6Lf.s 			page 21


 804 02c4 9305E001 		li	a1,30
 805 02c8 13850400 		mv	a0,s1
 806 02cc 97000000 		call	_Z9getStringPci@plt
 806      E7800000 
 807              	.LVL77:
 122:test/ConsumerProducer_CPP_Sync_API_test.cpp **** 
 808              		.loc 1 122 5 is_stmt 1
 122:test/ConsumerProducer_CPP_Sync_API_test.cpp **** 
 809              		.loc 1 122 20 is_stmt 0
 810 02d4 13850400 		mv	a0,s1
 811 02d8 97000000 		call	_Z11stringToIntPKc@plt
 811      E7800000 
 812              	.LVL78:
 813 02e0 93040500 		mv	s1,a0
 814              	.LVL79:
 124:test/ConsumerProducer_CPP_Sync_API_test.cpp ****     printString(" i velicina bafera "); printInt(n);
 815              		.loc 1 124 5 is_stmt 1
 124:test/ConsumerProducer_CPP_Sync_API_test.cpp ****     printString(" i velicina bafera "); printInt(n);
 816              		.loc 1 124 16 is_stmt 0
 817 02e4 17050000 		lla	a0,.LC2
 817      13050500 
 818 02ec 97000000 		call	_Z11printStringPKc@plt
 818      E7800000 
 819              	.LVL80:
 124:test/ConsumerProducer_CPP_Sync_API_test.cpp ****     printString(" i velicina bafera "); printInt(n);
 820              		.loc 1 124 40 is_stmt 1
 124:test/ConsumerProducer_CPP_Sync_API_test.cpp ****     printString(" i velicina bafera "); printInt(n);
 821              		.loc 1 124 48 is_stmt 0
 822 02f4 13060000 		li	a2,0
 823 02f8 9305A000 		li	a1,10
 824 02fc 13050900 		mv	a0,s2
 825 0300 97000000 		call	_Z8printIntiii@plt
 825      E7800000 
 826              	.LVL81:
 125:test/ConsumerProducer_CPP_Sync_API_test.cpp ****     printString(".\n");
 827              		.loc 1 125 5 is_stmt 1
 125:test/ConsumerProducer_CPP_Sync_API_test.cpp ****     printString(".\n");
 828              		.loc 1 125 16 is_stmt 0
 829 0308 17050000 		lla	a0,.LC3
 829      13050500 
 830 0310 97000000 		call	_Z11printStringPKc@plt
 830      E7800000 
 831              	.LVL82:
 125:test/ConsumerProducer_CPP_Sync_API_test.cpp ****     printString(".\n");
 832              		.loc 1 125 41 is_stmt 1
 125:test/ConsumerProducer_CPP_Sync_API_test.cpp ****     printString(".\n");
 833              		.loc 1 125 49 is_stmt 0
 834 0318 13060000 		li	a2,0
 835 031c 9305A000 		li	a1,10
 836 0320 13850400 		mv	a0,s1
 837 0324 97000000 		call	_Z8printIntiii@plt
 837      E7800000 
 838              	.LVL83:
 126:test/ConsumerProducer_CPP_Sync_API_test.cpp **** 
 839              		.loc 1 126 5 is_stmt 1
 126:test/ConsumerProducer_CPP_Sync_API_test.cpp **** 
 840              		.loc 1 126 16 is_stmt 0
GAS LISTING /tmp/ccvQZ6Lf.s 			page 22


 841 032c 17050000 		lla	a0,.LC4
 841      13050500 
 842 0334 97000000 		call	_Z11printStringPKc@plt
 842      E7800000 
 843              	.LVL84:
 128:test/ConsumerProducer_CPP_Sync_API_test.cpp ****         printString("Broj proizvodjaca ne sme biti manji od velicine bafera!\n");
 844              		.loc 1 128 5 is_stmt 1
 845 033c 63C42403 		bgt	s2,s1,.L69
 131:test/ConsumerProducer_CPP_Sync_API_test.cpp ****         printString("Broj proizvodjaca mora biti veci od nula!\n");
 846              		.loc 1 131 12
 847 0340 635C2003 		blez	s2,.L70
 136:test/ConsumerProducer_CPP_Sync_API_test.cpp **** 
 848              		.loc 1 136 5
 136:test/ConsumerProducer_CPP_Sync_API_test.cpp **** 
 849              		.loc 1 136 40 is_stmt 0
 850 0344 13058003 		li	a0,56
 851 0348 97000000 		call	_Znwm@plt
 851      E7800000 
 852              	.LVL85:
 853              	.LEHE0:
 854 0350 930A0500 		mv	s5,a0
 855 0354 93850400 		mv	a1,s1
 856              	.LEHB1:
 857 0358 97000000 		call	_ZN9BufferCPPC1Ei@plt
 857      E7800000 
 858              	.LVL86:
 859              	.LEHE1:
 860 0360 6F000003 		j	.L71
 861              	.L69:
 129:test/ConsumerProducer_CPP_Sync_API_test.cpp ****         return;
 862              		.loc 1 129 9 is_stmt 1
 129:test/ConsumerProducer_CPP_Sync_API_test.cpp ****         return;
 863              		.loc 1 129 20 is_stmt 0
 864 0364 17050000 		lla	a0,.LC5
 864      13050500 
 865              	.LEHB2:
 866 036c 97000000 		call	_Z11printStringPKc@plt
 866      E7800000 
 867              	.LVL87:
 130:test/ConsumerProducer_CPP_Sync_API_test.cpp ****     } else if (threadNum < 1) {
 868              		.loc 1 130 9 is_stmt 1
 869 0374 6F004001 		j	.L43
 870              	.L70:
 132:test/ConsumerProducer_CPP_Sync_API_test.cpp ****         return;
 871              		.loc 1 132 9
 132:test/ConsumerProducer_CPP_Sync_API_test.cpp ****         return;
 872              		.loc 1 132 20 is_stmt 0
 873 0378 17050000 		lla	a0,.LC6
 873      13050500 
 874 0380 97000000 		call	_Z11printStringPKc@plt
 874      E7800000 
 875              	.LVL88:
 133:test/ConsumerProducer_CPP_Sync_API_test.cpp ****     }
 876              		.loc 1 133 9 is_stmt 1
 877              	.L43:
 878 0388 13810B00 		mv	sp,s7
 879 038c 6F008023 		j	.L41
GAS LISTING /tmp/ccvQZ6Lf.s 			page 23


 880              	.L71:
 881              	.LVL89:
 138:test/ConsumerProducer_CPP_Sync_API_test.cpp **** 
 882              		.loc 1 138 5 discriminator 3
 138:test/ConsumerProducer_CPP_Sync_API_test.cpp **** 
 883              		.loc 1 138 33 is_stmt 0 discriminator 3
 884 0390 13050002 		li	a0,32
 885 0394 97000000 		call	_ZN9SemaphorenwEm@plt
 885      E7800000 
 886              	.LVL90:
 887              	.LEHE2:
 888 039c 93040500 		mv	s1,a0
 889              	.LVL91:
 890 03a0 93050000 		li	a1,0
 891              	.LEHB3:
 892 03a4 97000000 		call	_ZN9SemaphoreC1Ej@plt
 892      E7800000 
 893              	.LVL92:
 894              	.LEHE3:
 138:test/ConsumerProducer_CPP_Sync_API_test.cpp **** 
 895              		.loc 1 138 16 discriminator 3
 896 03ac 97070000 		sd	s1,.LANCHOR0+8,a5
 896      23B09700 
 140:test/ConsumerProducer_CPP_Sync_API_test.cpp ****     Thread* consumerThread;
 897              		.loc 1 140 5 is_stmt 1 discriminator 3
 898              	.LVL93:
 140:test/ConsumerProducer_CPP_Sync_API_test.cpp ****     Thread* consumerThread;
 899              		.loc 1 140 13 is_stmt 0 discriminator 3
 900 03b4 93173900 		slli	a5,s2,3
 901 03b8 9387F700 		addi	a5,a5,15
 902 03bc 93F707FF 		andi	a5,a5,-16
 903 03c0 3301F140 		sub	sp,sp,a5
 904 03c4 93090100 		mv	s3,sp
 905              	.LVL94:
 141:test/ConsumerProducer_CPP_Sync_API_test.cpp **** 
 906              		.loc 1 141 5 is_stmt 1 discriminator 3
 143:test/ConsumerProducer_CPP_Sync_API_test.cpp **** 
 907              		.loc 1 143 5 discriminator 3
 143:test/ConsumerProducer_CPP_Sync_API_test.cpp **** 
 908              		.loc 1 143 39 is_stmt 0 discriminator 3
 909 03c8 1B071900 		addiw	a4,s2,1
 910              	.LVL95:
 143:test/ConsumerProducer_CPP_Sync_API_test.cpp **** 
 911              		.loc 1 143 24 discriminator 3
 912 03cc 93171700 		slli	a5,a4,1
 913 03d0 B387E700 		add	a5,a5,a4
 914 03d4 93973700 		slli	a5,a5,3
 915 03d8 9387F700 		addi	a5,a5,15
 916 03dc 93F707FF 		andi	a5,a5,-16
 917 03e0 3301F140 		sub	sp,sp,a5
 918              	.LVL96:
 919 03e4 130A0100 		mv	s4,sp
 920              	.LVL97:
 145:test/ConsumerProducer_CPP_Sync_API_test.cpp ****     data[threadNum].buffer = buffer;
 921              		.loc 1 145 5 is_stmt 1 discriminator 3
 145:test/ConsumerProducer_CPP_Sync_API_test.cpp ****     data[threadNum].buffer = buffer;
 922              		.loc 1 145 24 is_stmt 0 discriminator 3
GAS LISTING /tmp/ccvQZ6Lf.s 			page 24


 923 03e8 131C1900 		slli	s8,s2,1
 924 03ec B3072C01 		add	a5,s8,s2
 925 03f0 93973700 		slli	a5,a5,3
 926 03f4 B307FA00 		add	a5,s4,a5
 927 03f8 23A02701 		sw	s2,0(a5)
 146:test/ConsumerProducer_CPP_Sync_API_test.cpp ****     data[threadNum].wait = waitForAll;
 928              		.loc 1 146 5 is_stmt 1 discriminator 3
 146:test/ConsumerProducer_CPP_Sync_API_test.cpp ****     data[threadNum].wait = waitForAll;
 929              		.loc 1 146 28 is_stmt 0 discriminator 3
 930 03fc 23B45701 		sd	s5,8(a5)
 147:test/ConsumerProducer_CPP_Sync_API_test.cpp ****     consumerThread = new ConsumerSync(data+threadNum);
 931              		.loc 1 147 5 is_stmt 1 discriminator 3
 147:test/ConsumerProducer_CPP_Sync_API_test.cpp ****     consumerThread = new ConsumerSync(data+threadNum);
 932              		.loc 1 147 26 is_stmt 0 discriminator 3
 933 0400 23B89700 		sd	s1,16(a5)
 148:test/ConsumerProducer_CPP_Sync_API_test.cpp ****     consumerThread->start();
 934              		.loc 1 148 5 is_stmt 1 discriminator 3
 148:test/ConsumerProducer_CPP_Sync_API_test.cpp ****     consumerThread->start();
 935              		.loc 1 148 53 is_stmt 0 discriminator 3
 936 0404 13050009 		li	a0,144
 937              	.LEHB4:
 938 0408 97000000 		call	_ZN6ThreadnwEm@plt
 938      E7800000 
 939              	.LVL98:
 940              	.LEHE4:
 941 0410 130B0500 		mv	s6,a0
 148:test/ConsumerProducer_CPP_Sync_API_test.cpp ****     consumerThread->start();
 942              		.loc 1 148 43 discriminator 3
 943 0414 330C2C01 		add	s8,s8,s2
 944 0418 131C3C00 		slli	s8,s8,3
 148:test/ConsumerProducer_CPP_Sync_API_test.cpp ****     consumerThread->start();
 945              		.loc 1 148 53 discriminator 3
 946 041c 330C8A01 		add	s8,s4,s8
 947              	.LVL99:
 948              	.LEHB5:
 949              	.LBB41:
 950              	.LBB42:
  77:test/ConsumerProducer_CPP_Sync_API_test.cpp **** 
 951              		.loc 1 77 52 discriminator 3
 952 0420 97000000 		call	_ZN6ThreadC2Ev@plt
 952      E7800000 
 953              	.LVL100:
 954              	.LEHE5:
  77:test/ConsumerProducer_CPP_Sync_API_test.cpp **** 
 955              		.loc 1 77 52
 956 0428 97070000 		lla	a5,_ZTV12ConsumerSync+16
 956      93870700 
 957 0430 2330FB00 		sd	a5,0(s6)
 958 0434 23348B09 		sd	s8,136(s6)
 959              	.LVL101:
 960              	.LBE42:
 961              	.LBE41:
 149:test/ConsumerProducer_CPP_Sync_API_test.cpp **** 
 962              		.loc 1 149 5 is_stmt 1
 149:test/ConsumerProducer_CPP_Sync_API_test.cpp **** 
 963              		.loc 1 149 26 is_stmt 0
 964 0438 13050B00 		mv	a0,s6
GAS LISTING /tmp/ccvQZ6Lf.s 			page 25


 965              	.LEHB6:
 966 043c 97000000 		call	_ZN6Thread5startEv@plt
 966      E7800000 
 967              	.LVL102:
 968              	.LBB43:
 151:test/ConsumerProducer_CPP_Sync_API_test.cpp ****         data[i].id = i;
 969              		.loc 1 151 14
 970 0444 93040000 		li	s1,0
 971 0448 6F008003 		j	.L48
 972              	.LVL103:
 973              	.L72:
 974              	.LBB44:
 975              	.LBB45:
  50:test/ConsumerProducer_CPP_Sync_API_test.cpp **** 
 976              		.loc 1 50 52
 977 044c 97070000 		lla	a5,_ZTV12ProducerSync+16
 977      93870700 
 978 0454 23B0FC00 		sd	a5,0(s9)
 979 0458 23B48C09 		sd	s8,136(s9)
 980              	.LVL104:
 981              	.LBE45:
 982              	.LBE44:
 157:test/ConsumerProducer_CPP_Sync_API_test.cpp ****         } else {
 983              		.loc 1 157 24
 984 045c 93973400 		slli	a5,s1,3
 985 0460 B387F900 		add	a5,s3,a5
 986 0464 23B09701 		sd	s9,0(a5)
 987              	.L47:
 162:test/ConsumerProducer_CPP_Sync_API_test.cpp ****     }
 988              		.loc 1 162 9 is_stmt 1
 162:test/ConsumerProducer_CPP_Sync_API_test.cpp ****     }
 989              		.loc 1 162 18 is_stmt 0
 990 0468 93973400 		slli	a5,s1,3
 991 046c B387F900 		add	a5,s3,a5
 162:test/ConsumerProducer_CPP_Sync_API_test.cpp ****     }
 992              		.loc 1 162 26
 993 0470 03B50700 		ld	a0,0(a5)
 994 0474 97000000 		call	_ZN6Thread5startEv@plt
 994      E7800000 
 995              	.LVL105:
 151:test/ConsumerProducer_CPP_Sync_API_test.cpp ****         data[i].id = i;
 996              		.loc 1 151 5 is_stmt 1
 997 047c 9B841400 		addiw	s1,s1,1
 998              	.LVL106:
 999              	.L48:
 151:test/ConsumerProducer_CPP_Sync_API_test.cpp ****         data[i].id = i;
 1000              		.loc 1 151 23 discriminator 1
 1001 0480 63D0240B 		bge	s1,s2,.L45
 152:test/ConsumerProducer_CPP_Sync_API_test.cpp ****         data[i].buffer = buffer;
 1002              		.loc 1 152 9
 152:test/ConsumerProducer_CPP_Sync_API_test.cpp ****         data[i].buffer = buffer;
 1003              		.loc 1 152 20 is_stmt 0
 1004 0484 93971400 		slli	a5,s1,1
 1005 0488 B3879700 		add	a5,a5,s1
 1006 048c 93973700 		slli	a5,a5,3
 1007 0490 B307FA00 		add	a5,s4,a5
 1008 0494 23A09700 		sw	s1,0(a5)
GAS LISTING /tmp/ccvQZ6Lf.s 			page 26


 153:test/ConsumerProducer_CPP_Sync_API_test.cpp ****         data[i].wait = waitForAll;
 1009              		.loc 1 153 9 is_stmt 1
 153:test/ConsumerProducer_CPP_Sync_API_test.cpp ****         data[i].wait = waitForAll;
 1010              		.loc 1 153 24 is_stmt 0
 1011 0498 23B45701 		sd	s5,8(a5)
 154:test/ConsumerProducer_CPP_Sync_API_test.cpp **** 
 1012              		.loc 1 154 9 is_stmt 1
 154:test/ConsumerProducer_CPP_Sync_API_test.cpp **** 
 1013              		.loc 1 154 22 is_stmt 0
 1014 049c 17070000 		ld	a4,.LANCHOR0+8
 1014      03370700 
 1015 04a4 23B8E700 		sd	a4,16(a5)
 156:test/ConsumerProducer_CPP_Sync_API_test.cpp ****             threads[i] = new ProducerSync(data+i);
 1016              		.loc 1 156 9 is_stmt 1
 1017 04a8 63589002 		blez	s1,.L46
 157:test/ConsumerProducer_CPP_Sync_API_test.cpp ****         } else {
 1018              		.loc 1 157 13
 157:test/ConsumerProducer_CPP_Sync_API_test.cpp ****         } else {
 1019              		.loc 1 157 49 is_stmt 0
 1020 04ac 13050009 		li	a0,144
 1021 04b0 97000000 		call	_ZN6ThreadnwEm@plt
 1021      E7800000 
 1022              	.LVL107:
 1023              	.LEHE6:
 1024 04b8 930C0500 		mv	s9,a0
 157:test/ConsumerProducer_CPP_Sync_API_test.cpp ****         } else {
 1025              		.loc 1 157 47
 1026 04bc 139C1400 		slli	s8,s1,1
 1027 04c0 330C9C00 		add	s8,s8,s1
 1028 04c4 131C3C00 		slli	s8,s8,3
 157:test/ConsumerProducer_CPP_Sync_API_test.cpp ****         } else {
 1029              		.loc 1 157 49
 1030 04c8 330C8A01 		add	s8,s4,s8
 1031              	.LVL108:
 1032              	.LEHB7:
 1033              	.LBB47:
 1034              	.LBB46:
  50:test/ConsumerProducer_CPP_Sync_API_test.cpp **** 
 1035              		.loc 1 50 52
 1036 04cc 97000000 		call	_ZN6ThreadC2Ev@plt
 1036      E7800000 
 1037              	.LVL109:
 1038              	.LEHE7:
 1039 04d4 6FF09FF7 		j	.L72
 1040              	.LVL110:
 1041              	.L46:
 1042              	.LBE46:
 1043              	.LBE47:
 159:test/ConsumerProducer_CPP_Sync_API_test.cpp ****         }
 1044              		.loc 1 159 13 is_stmt 1
 159:test/ConsumerProducer_CPP_Sync_API_test.cpp ****         }
 1045              		.loc 1 159 53 is_stmt 0
 1046 04d8 13050009 		li	a0,144
 1047              	.LEHB8:
 1048 04dc 97000000 		call	_ZN6ThreadnwEm@plt
 1048      E7800000 
 1049              	.LVL111:
GAS LISTING /tmp/ccvQZ6Lf.s 			page 27


 1050              	.LEHE8:
 1051 04e4 930C0500 		mv	s9,a0
 159:test/ConsumerProducer_CPP_Sync_API_test.cpp ****         }
 1052              		.loc 1 159 51
 1053 04e8 139C1400 		slli	s8,s1,1
 1054 04ec 330C9C00 		add	s8,s8,s1
 1055 04f0 131C3C00 		slli	s8,s8,3
 159:test/ConsumerProducer_CPP_Sync_API_test.cpp ****         }
 1056              		.loc 1 159 53
 1057 04f4 330C8A01 		add	s8,s4,s8
 1058              	.LVL112:
 1059              	.LEHB9:
 1060              	.LBB48:
 1061              	.LBB49:
  19:test/ConsumerProducer_CPP_Sync_API_test.cpp **** 
 1062              		.loc 1 19 56
 1063 04f8 97000000 		call	_ZN6ThreadC2Ev@plt
 1063      E7800000 
 1064              	.LVL113:
 1065              	.LEHE9:
 1066 0500 97070000 		lla	a5,_ZTV16ProducerKeyboard+16
 1066      93870700 
 1067 0508 23B0FC00 		sd	a5,0(s9)
 1068 050c 23B48C09 		sd	s8,136(s9)
 1069              	.LVL114:
 1070              	.LBE49:
 1071              	.LBE48:
 159:test/ConsumerProducer_CPP_Sync_API_test.cpp ****         }
 1072              		.loc 1 159 24
 1073 0510 93973400 		slli	a5,s1,3
 1074 0514 B387F900 		add	a5,s3,a5
 1075 0518 23B09701 		sd	s9,0(a5)
 1076 051c 6FF0DFF4 		j	.L47
 1077              	.L45:
 1078              	.LBE43:
 165:test/ConsumerProducer_CPP_Sync_API_test.cpp **** 
 1079              		.loc 1 165 5 is_stmt 1
 1080              	.LEHB10:
 165:test/ConsumerProducer_CPP_Sync_API_test.cpp **** 
 1081              		.loc 1 165 21 is_stmt 0
 1082 0520 97000000 		call	_ZN6Thread8dispatchEv@plt
 1082      E7800000 
 1083              	.LVL115:
 1084              	.LBB50:
 167:test/ConsumerProducer_CPP_Sync_API_test.cpp ****         waitForAll->wait();
 1085              		.loc 1 167 14
 1086 0528 93040000 		li	s1,0
 1087              	.LVL116:
 1088              	.L50:
 167:test/ConsumerProducer_CPP_Sync_API_test.cpp ****         waitForAll->wait();
 1089              		.loc 1 167 23 is_stmt 1 discriminator 1
 1090 052c 634E9900 		bgt	s1,s2,.L62
 168:test/ConsumerProducer_CPP_Sync_API_test.cpp ****     }
 1091              		.loc 1 168 9
 168:test/ConsumerProducer_CPP_Sync_API_test.cpp ****     }
 1092              		.loc 1 168 25 is_stmt 0
 1093 0530 17050000 		ld	a0,.LANCHOR0+8
GAS LISTING /tmp/ccvQZ6Lf.s 			page 28


 1093      03350500 
 1094 0538 97000000 		call	_ZN9Semaphore4waitEv@plt
 1094      E7800000 
 1095              	.LVL117:
 167:test/ConsumerProducer_CPP_Sync_API_test.cpp ****         waitForAll->wait();
 1096              		.loc 1 167 5 is_stmt 1
 1097 0540 9B841400 		addiw	s1,s1,1
 1098              	.LVL118:
 1099 0544 6FF09FFE 		j	.L50
 1100              	.LVL119:
 1101              	.L62:
 1102              	.LBE50:
 1103              	.LBB51:
 171:test/ConsumerProducer_CPP_Sync_API_test.cpp ****         delete threads[i];
 1104              		.loc 1 171 14 is_stmt 0
 1105 0548 93040000 		li	s1,0
 1106              	.LVL120:
 1107 054c 6F008000 		j	.L49
 1108              	.LVL121:
 1109              	.L52:
 171:test/ConsumerProducer_CPP_Sync_API_test.cpp ****         delete threads[i];
 1110              		.loc 1 171 5 is_stmt 1 discriminator 2
 1111 0550 9B841400 		addiw	s1,s1,1
 1112              	.LVL122:
 1113              	.L49:
 171:test/ConsumerProducer_CPP_Sync_API_test.cpp ****         delete threads[i];
 1114              		.loc 1 171 23 discriminator 1
 1115 0554 63D22403 		bge	s1,s2,.L51
 172:test/ConsumerProducer_CPP_Sync_API_test.cpp ****     }
 1116              		.loc 1 172 9
 172:test/ConsumerProducer_CPP_Sync_API_test.cpp ****     }
 1117              		.loc 1 172 25 is_stmt 0
 1118 0558 93973400 		slli	a5,s1,3
 1119 055c B387F900 		add	a5,s3,a5
 1120 0560 03B50700 		ld	a0,0(a5)
 172:test/ConsumerProducer_CPP_Sync_API_test.cpp ****     }
 1121              		.loc 1 172 26
 1122 0564 E30605FE 		beqz	a0,.L52
 172:test/ConsumerProducer_CPP_Sync_API_test.cpp ****     }
 1123              		.loc 1 172 25 discriminator 1
 1124 0568 83370500 		ld	a5,0(a0)
 1125 056c 83B78700 		ld	a5,8(a5)
 1126 0570 E7800700 		jalr	a5
 1127              	.LVL123:
 1128 0574 6FF0DFFD 		j	.L52
 1129              	.L51:
 1130              	.LBE51:
 174:test/ConsumerProducer_CPP_Sync_API_test.cpp ****     delete waitForAll;
 1131              		.loc 1 174 5 is_stmt 1
 174:test/ConsumerProducer_CPP_Sync_API_test.cpp ****     delete waitForAll;
 1132              		.loc 1 174 26 is_stmt 0
 1133 0578 630A0B00 		beqz	s6,.L53
 174:test/ConsumerProducer_CPP_Sync_API_test.cpp ****     delete waitForAll;
 1134              		.loc 1 174 12 discriminator 1
 1135 057c 83370B00 		ld	a5,0(s6)
 1136 0580 83B78700 		ld	a5,8(a5)
 1137 0584 13050B00 		mv	a0,s6
GAS LISTING /tmp/ccvQZ6Lf.s 			page 29


 1138 0588 E7800700 		jalr	a5
 1139              	.LVL124:
 1140              	.L53:
 175:test/ConsumerProducer_CPP_Sync_API_test.cpp ****     delete buffer;
 1141              		.loc 1 175 5 is_stmt 1
 175:test/ConsumerProducer_CPP_Sync_API_test.cpp ****     delete buffer;
 1142              		.loc 1 175 12 is_stmt 0
 1143 058c 17050000 		ld	a0,.LANCHOR0+8
 1143      03350500 
 175:test/ConsumerProducer_CPP_Sync_API_test.cpp ****     delete buffer;
 1144              		.loc 1 175 22
 1145 0594 63080500 		beqz	a0,.L54
 175:test/ConsumerProducer_CPP_Sync_API_test.cpp ****     delete buffer;
 1146              		.loc 1 175 12 discriminator 1
 1147 0598 83370500 		ld	a5,0(a0)
 1148 059c 83B78700 		ld	a5,8(a5)
 1149 05a0 E7800700 		jalr	a5
 1150              	.LVL125:
 1151              	.L54:
 1152              		.loc 1 176 5 is_stmt 1
 1153              		.loc 1 176 18 is_stmt 0
 1154 05a4 638E0A00 		beqz	s5,.L55
 1155              		.loc 1 176 12 discriminator 1
 1156 05a8 13850A00 		mv	a0,s5
 1157 05ac 97000000 		call	_ZN9BufferCPPD1Ev@plt
 1157      E7800000 
 1158              	.LVL126:
 1159 05b4 13850A00 		mv	a0,s5
 1160 05b8 97000000 		call	_ZdlPv@plt
 1160      E7800000 
 1161              	.LVL127:
 1162              	.L55:
 1163 05c0 13810B00 		mv	sp,s7
 1164              	.LVL128:
 1165              	.L41:
 177:test/ConsumerProducer_CPP_Sync_API_test.cpp **** 
 178:test/ConsumerProducer_CPP_Sync_API_test.cpp **** }
 1166              		.loc 1 178 1
 1167 05c4 130104F8 		addi	sp,s0,-128
 1168              		.cfi_remember_state
 1169              		.cfi_def_cfa 2, 128
 1170 05c8 83308107 		ld	ra,120(sp)
 1171              		.cfi_restore 1
 1172 05cc 03340107 		ld	s0,112(sp)
 1173              		.cfi_restore 8
 1174 05d0 83348106 		ld	s1,104(sp)
 1175              		.cfi_restore 9
 1176 05d4 03390106 		ld	s2,96(sp)
 1177              		.cfi_restore 18
 1178              	.LVL129:
 1179 05d8 83398105 		ld	s3,88(sp)
 1180              		.cfi_restore 19
 1181 05dc 033A0105 		ld	s4,80(sp)
 1182              		.cfi_restore 20
 1183 05e0 833A8104 		ld	s5,72(sp)
 1184              		.cfi_restore 21
 1185 05e4 033B0104 		ld	s6,64(sp)
GAS LISTING /tmp/ccvQZ6Lf.s 			page 30


 1186              		.cfi_restore 22
 1187 05e8 833B8103 		ld	s7,56(sp)
 1188              		.cfi_restore 23
 1189 05ec 033C0103 		ld	s8,48(sp)
 1190              		.cfi_restore 24
 1191 05f0 833C8102 		ld	s9,40(sp)
 1192              		.cfi_restore 25
 1193 05f4 13010108 		addi	sp,sp,128
 1194              		.cfi_def_cfa_offset 0
 1195 05f8 67800000 		jr	ra
 1196              	.LVL130:
 1197              	.L63:
 1198              		.cfi_restore_state
 1199 05fc 93040500 		mv	s1,a0
 1200              	.LVL131:
 136:test/ConsumerProducer_CPP_Sync_API_test.cpp **** 
 1201              		.loc 1 136 40
 1202 0600 13850A00 		mv	a0,s5
 1203 0604 97000000 		call	_ZdlPv@plt
 1203      E7800000 
 1204              	.LVL132:
 1205 060c 13850400 		mv	a0,s1
 1206 0610 97000000 		call	_Unwind_Resume@plt
 1206      E7800000 
 1207              	.LVL133:
 1208              	.L64:
 1209 0618 13090500 		mv	s2,a0
 1210              	.LVL134:
 138:test/ConsumerProducer_CPP_Sync_API_test.cpp **** 
 1211              		.loc 1 138 33
 1212 061c 13850400 		mv	a0,s1
 1213 0620 97000000 		call	_ZN9SemaphoredlEPv@plt
 1213      E7800000 
 1214              	.LVL135:
 1215 0628 13050900 		mv	a0,s2
 1216 062c 97000000 		call	_Unwind_Resume@plt
 1216      E7800000 
 1217              	.LVL136:
 1218              	.L65:
 1219 0634 93040500 		mv	s1,a0
 148:test/ConsumerProducer_CPP_Sync_API_test.cpp ****     consumerThread->start();
 1220              		.loc 1 148 53
 1221 0638 13050B00 		mv	a0,s6
 1222 063c 97000000 		call	_ZN6ThreaddlEPv@plt
 1222      E7800000 
 1223              	.LVL137:
 1224 0644 13850400 		mv	a0,s1
 1225 0648 97000000 		call	_Unwind_Resume@plt
 1225      E7800000 
 1226              	.LVL138:
 1227              	.L66:
 1228 0650 93040500 		mv	s1,a0
 1229              	.LVL139:
 1230              	.LBB52:
 157:test/ConsumerProducer_CPP_Sync_API_test.cpp ****         } else {
 1231              		.loc 1 157 49
 1232 0654 13850C00 		mv	a0,s9
GAS LISTING /tmp/ccvQZ6Lf.s 			page 31


 1233 0658 97000000 		call	_ZN6ThreaddlEPv@plt
 1233      E7800000 
 1234              	.LVL140:
 1235 0660 13850400 		mv	a0,s1
 1236 0664 97000000 		call	_Unwind_Resume@plt
 1236      E7800000 
 1237              	.LVL141:
 1238              	.L67:
 1239 066c 93040500 		mv	s1,a0
 1240              	.LVL142:
 159:test/ConsumerProducer_CPP_Sync_API_test.cpp ****         }
 1241              		.loc 1 159 53
 1242 0670 13850C00 		mv	a0,s9
 1243 0674 97000000 		call	_ZN6ThreaddlEPv@plt
 1243      E7800000 
 1244              	.LVL143:
 1245 067c 13850400 		mv	a0,s1
 1246 0680 97000000 		call	_Unwind_Resume@plt
 1246      E7800000 
 1247              	.LVL144:
 1248              	.LEHE10:
 1249              	.LBE52:
 1250              		.cfi_endproc
 1251              	.LFE22:
 1252              		.globl	__gxx_personality_v0
 1253              		.section	.gcc_except_table,"a",@progbits
 1254              	.LLSDA22:
 1255 0000 FF       		.byte	0xff
 1256 0001 FF       		.byte	0xff
 1257 0002 03       		.byte	0x3
 1258 0003 8F01     		.byte	0x8f,0x1
 1259 0005 00000000 		.4byte	.LEHB0-.LFB22
 1260 0009 00000000 		.4byte	.LEHE0-.LEHB0
 1261 000d 00000000 		.4byte	0
 1262 0011 00       		.byte	0
 1263 0012 00000000 		.4byte	.LEHB1-.LFB22
 1264 0016 00000000 		.4byte	.LEHE1-.LEHB1
 1265 001a 00000000 		.4byte	.L63-.LFB22
 1266 001e 00       		.byte	0
 1267 001f 00000000 		.4byte	.LEHB2-.LFB22
 1268 0023 00000000 		.4byte	.LEHE2-.LEHB2
 1269 0027 00000000 		.4byte	0
 1270 002b 00       		.byte	0
 1271 002c 00000000 		.4byte	.LEHB3-.LFB22
 1272 0030 00000000 		.4byte	.LEHE3-.LEHB3
 1273 0034 00000000 		.4byte	.L64-.LFB22
 1274 0038 00       		.byte	0
 1275 0039 00000000 		.4byte	.LEHB4-.LFB22
 1276 003d 00000000 		.4byte	.LEHE4-.LEHB4
 1277 0041 00000000 		.4byte	0
 1278 0045 00       		.byte	0
 1279 0046 00000000 		.4byte	.LEHB5-.LFB22
 1280 004a 00000000 		.4byte	.LEHE5-.LEHB5
 1281 004e 00000000 		.4byte	.L65-.LFB22
 1282 0052 00       		.byte	0
 1283 0053 00000000 		.4byte	.LEHB6-.LFB22
 1284 0057 00000000 		.4byte	.LEHE6-.LEHB6
GAS LISTING /tmp/ccvQZ6Lf.s 			page 32


 1285 005b 00000000 		.4byte	0
 1286 005f 00       		.byte	0
 1287 0060 00000000 		.4byte	.LEHB7-.LFB22
 1288 0064 00000000 		.4byte	.LEHE7-.LEHB7
 1289 0068 00000000 		.4byte	.L66-.LFB22
 1290 006c 00       		.byte	0
 1291 006d 00000000 		.4byte	.LEHB8-.LFB22
 1292 0071 00000000 		.4byte	.LEHE8-.LEHB8
 1293 0075 00000000 		.4byte	0
 1294 0079 00       		.byte	0
 1295 007a 00000000 		.4byte	.LEHB9-.LFB22
 1296 007e 00000000 		.4byte	.LEHE9-.LEHB9
 1297 0082 00000000 		.4byte	.L67-.LFB22
 1298 0086 00       		.byte	0
 1299 0087 00000000 		.4byte	.LEHB10-.LFB22
 1300 008b 00000000 		.4byte	.LEHE10-.LEHB10
 1301 008f 00000000 		.4byte	0
 1302 0093 00       		.byte	0
 1303              		.text
 1305              		.weak	_ZTV16ProducerKeyboard
 1306              		.section	.data.rel.ro.local._ZTV16ProducerKeyboard,"awG",@progbits,_ZTV16ProducerKeyboard,comdat
 1307              		.align	3
 1310              	_ZTV16ProducerKeyboard:
 1311 0000 00000000 		.dword	0
 1311      00000000 
 1312 0008 00000000 		.dword	0
 1312      00000000 
 1313 0010 00000000 		.dword	_ZN16ProducerKeyboardD1Ev
 1313      00000000 
 1314 0018 00000000 		.dword	_ZN16ProducerKeyboardD0Ev
 1314      00000000 
 1315 0020 00000000 		.dword	_ZN16ProducerKeyboard3runEv
 1315      00000000 
 1316              		.weak	_ZTV12ProducerSync
 1317              		.section	.data.rel.ro.local._ZTV12ProducerSync,"awG",@progbits,_ZTV12ProducerSync,comdat
 1318              		.align	3
 1321              	_ZTV12ProducerSync:
 1322 0000 00000000 		.dword	0
 1322      00000000 
 1323 0008 00000000 		.dword	0
 1323      00000000 
 1324 0010 00000000 		.dword	_ZN12ProducerSyncD1Ev
 1324      00000000 
 1325 0018 00000000 		.dword	_ZN12ProducerSyncD0Ev
 1325      00000000 
 1326 0020 00000000 		.dword	_ZN12ProducerSync3runEv
 1326      00000000 
 1327              		.weak	_ZTV12ConsumerSync
 1328              		.section	.data.rel.ro.local._ZTV12ConsumerSync,"awG",@progbits,_ZTV12ConsumerSync,comdat
 1329              		.align	3
 1332              	_ZTV12ConsumerSync:
 1333 0000 00000000 		.dword	0
 1333      00000000 
 1334 0008 00000000 		.dword	0
 1334      00000000 
 1335 0010 00000000 		.dword	_ZN12ConsumerSyncD1Ev
 1335      00000000 
GAS LISTING /tmp/ccvQZ6Lf.s 			page 33


 1336 0018 00000000 		.dword	_ZN12ConsumerSyncD0Ev
 1336      00000000 
 1337 0020 00000000 		.dword	_ZN12ConsumerSync3runEv
 1337      00000000 
 1338              		.bss
 1339              		.align	3
 1340              		.set	.LANCHOR0,. + 0
 1343              	_ZL9threadEnd:
 1344 0000 00000000 		.zero	4
 1345 0004 00000000 		.zero	4
 1348              	_ZL10waitForAll:
 1349 0008 00000000 		.zero	8
 1349      00000000 
 1350              		.text
 1351              	.Letext0:
 1352              		.file 3 "test/../h/../lib/hw.h"
 1353              		.file 4 "test/../h/Thread.hpp"
 1354              		.file 5 "test/../h/Semaphore.hpp"
 1355              		.file 6 "test/buffer_CPP_API.hpp"
 1356              		.file 7 "test/printing.hpp"
 1357              		.file 8 "test/../h/syscall_c.h"
 1358              		.file 9 "test/../h/../lib/console.h"
 5426              		.align	3
 5429              	DW.ref.__gxx_personality_v0:
 5430 0000 00000000 		.dword	__gxx_personality_v0
 5430      00000000 
 5431              		.ident	"GCC: (Ubuntu 9.4.0-1ubuntu1~20.04) 9.4.0"
 5432              		.section	.note.GNU-stack,"",@progbits
GAS LISTING /tmp/ccvQZ6Lf.s 			page 34


DEFINED SYMBOLS
                            *ABS*:0000000000000000 ConsumerProducer_CPP_Sync_API_test.cpp
     /tmp/ccvQZ6Lf.s:10     .text._ZN12ConsumerSyncD2Ev:0000000000000000 _ZN12ConsumerSyncD2Ev
     /tmp/ccvQZ6Lf.s:14     .text._ZN12ConsumerSyncD2Ev:0000000000000000 .L0 
     /tmp/ccvQZ6Lf.s:16     .text._ZN12ConsumerSyncD2Ev:0000000000000000 .L0 
     /tmp/ccvQZ6Lf.s:17     .text._ZN12ConsumerSyncD2Ev:0000000000000004 .L0 
     /tmp/ccvQZ6Lf.s:20     .text._ZN12ConsumerSyncD2Ev:000000000000000c .L0 
     /tmp/ccvQZ6Lf.s:21     .text._ZN12ConsumerSyncD2Ev:000000000000000c .L0 
     /tmp/ccvQZ6Lf.s:23     .text._ZN12ConsumerSyncD2Ev:0000000000000010 .L0 
     /tmp/ccvQZ6Lf.s:1332   .data.rel.ro.local._ZTV12ConsumerSync:0000000000000000 _ZTV12ConsumerSync
     /tmp/ccvQZ6Lf.s:26     .text._ZN12ConsumerSyncD2Ev:0000000000000010 .L0 
     /tmp/ccvQZ6Lf.s:32     .text._ZN12ConsumerSyncD2Ev:0000000000000028 .L0 
     /tmp/ccvQZ6Lf.s:34     .text._ZN12ConsumerSyncD2Ev:000000000000002c .L0 
     /tmp/ccvQZ6Lf.s:35     .text._ZN12ConsumerSyncD2Ev:000000000000002c .L0 
     /tmp/ccvQZ6Lf.s:37     .text._ZN12ConsumerSyncD2Ev:0000000000000030 .L0 
     /tmp/ccvQZ6Lf.s:39     .text._ZN12ConsumerSyncD2Ev:0000000000000034 .L0 
     /tmp/ccvQZ6Lf.s:10     .text._ZN12ConsumerSyncD2Ev:0000000000000000 _ZN12ConsumerSyncD1Ev
     /tmp/ccvQZ6Lf.s:48     .text._ZN12ConsumerSyncD0Ev:0000000000000000 _ZN12ConsumerSyncD0Ev
     /tmp/ccvQZ6Lf.s:51     .text._ZN12ConsumerSyncD0Ev:0000000000000000 .L0 
     /tmp/ccvQZ6Lf.s:53     .text._ZN12ConsumerSyncD0Ev:0000000000000000 .L0 
     /tmp/ccvQZ6Lf.s:54     .text._ZN12ConsumerSyncD0Ev:0000000000000004 .L0 
     /tmp/ccvQZ6Lf.s:58     .text._ZN12ConsumerSyncD0Ev:0000000000000010 .L0 
     /tmp/ccvQZ6Lf.s:59     .text._ZN12ConsumerSyncD0Ev:0000000000000010 .L0 
     /tmp/ccvQZ6Lf.s:60     .text._ZN12ConsumerSyncD0Ev:0000000000000010 .L0 
     /tmp/ccvQZ6Lf.s:62     .text._ZN12ConsumerSyncD0Ev:0000000000000014 .L0 
     /tmp/ccvQZ6Lf.s:68     .text._ZN12ConsumerSyncD0Ev:0000000000000018 .L0 
     /tmp/ccvQZ6Lf.s:78     .text._ZN12ConsumerSyncD0Ev:000000000000003c .L0 
     /tmp/ccvQZ6Lf.s:80     .text._ZN12ConsumerSyncD0Ev:0000000000000040 .L0 
     /tmp/ccvQZ6Lf.s:81     .text._ZN12ConsumerSyncD0Ev:0000000000000040 .L0 
     /tmp/ccvQZ6Lf.s:83     .text._ZN12ConsumerSyncD0Ev:0000000000000044 .L0 
     /tmp/ccvQZ6Lf.s:86     .text._ZN12ConsumerSyncD0Ev:0000000000000048 .L0 
     /tmp/ccvQZ6Lf.s:88     .text._ZN12ConsumerSyncD0Ev:000000000000004c .L0 
     /tmp/ccvQZ6Lf.s:95     .text._ZN12ProducerSyncD2Ev:0000000000000000 _ZN12ProducerSyncD2Ev
     /tmp/ccvQZ6Lf.s:98     .text._ZN12ProducerSyncD2Ev:0000000000000000 .L0 
     /tmp/ccvQZ6Lf.s:100    .text._ZN12ProducerSyncD2Ev:0000000000000000 .L0 
     /tmp/ccvQZ6Lf.s:101    .text._ZN12ProducerSyncD2Ev:0000000000000004 .L0 
     /tmp/ccvQZ6Lf.s:104    .text._ZN12ProducerSyncD2Ev:000000000000000c .L0 
     /tmp/ccvQZ6Lf.s:105    .text._ZN12ProducerSyncD2Ev:000000000000000c .L0 
     /tmp/ccvQZ6Lf.s:107    .text._ZN12ProducerSyncD2Ev:0000000000000010 .L0 
     /tmp/ccvQZ6Lf.s:1321   .data.rel.ro.local._ZTV12ProducerSync:0000000000000000 _ZTV12ProducerSync
     /tmp/ccvQZ6Lf.s:110    .text._ZN12ProducerSyncD2Ev:0000000000000010 .L0 
     /tmp/ccvQZ6Lf.s:116    .text._ZN12ProducerSyncD2Ev:0000000000000028 .L0 
     /tmp/ccvQZ6Lf.s:118    .text._ZN12ProducerSyncD2Ev:000000000000002c .L0 
     /tmp/ccvQZ6Lf.s:119    .text._ZN12ProducerSyncD2Ev:000000000000002c .L0 
     /tmp/ccvQZ6Lf.s:121    .text._ZN12ProducerSyncD2Ev:0000000000000030 .L0 
     /tmp/ccvQZ6Lf.s:123    .text._ZN12ProducerSyncD2Ev:0000000000000034 .L0 
     /tmp/ccvQZ6Lf.s:95     .text._ZN12ProducerSyncD2Ev:0000000000000000 _ZN12ProducerSyncD1Ev
     /tmp/ccvQZ6Lf.s:132    .text._ZN12ProducerSyncD0Ev:0000000000000000 _ZN12ProducerSyncD0Ev
     /tmp/ccvQZ6Lf.s:135    .text._ZN12ProducerSyncD0Ev:0000000000000000 .L0 
     /tmp/ccvQZ6Lf.s:137    .text._ZN12ProducerSyncD0Ev:0000000000000000 .L0 
     /tmp/ccvQZ6Lf.s:138    .text._ZN12ProducerSyncD0Ev:0000000000000004 .L0 
     /tmp/ccvQZ6Lf.s:142    .text._ZN12ProducerSyncD0Ev:0000000000000010 .L0 
     /tmp/ccvQZ6Lf.s:143    .text._ZN12ProducerSyncD0Ev:0000000000000010 .L0 
     /tmp/ccvQZ6Lf.s:144    .text._ZN12ProducerSyncD0Ev:0000000000000010 .L0 
     /tmp/ccvQZ6Lf.s:146    .text._ZN12ProducerSyncD0Ev:0000000000000014 .L0 
     /tmp/ccvQZ6Lf.s:152    .text._ZN12ProducerSyncD0Ev:0000000000000018 .L0 
     /tmp/ccvQZ6Lf.s:162    .text._ZN12ProducerSyncD0Ev:000000000000003c .L0 
GAS LISTING /tmp/ccvQZ6Lf.s 			page 35


     /tmp/ccvQZ6Lf.s:164    .text._ZN12ProducerSyncD0Ev:0000000000000040 .L0 
     /tmp/ccvQZ6Lf.s:165    .text._ZN12ProducerSyncD0Ev:0000000000000040 .L0 
     /tmp/ccvQZ6Lf.s:167    .text._ZN12ProducerSyncD0Ev:0000000000000044 .L0 
     /tmp/ccvQZ6Lf.s:170    .text._ZN12ProducerSyncD0Ev:0000000000000048 .L0 
     /tmp/ccvQZ6Lf.s:172    .text._ZN12ProducerSyncD0Ev:000000000000004c .L0 
     /tmp/ccvQZ6Lf.s:179    .text._ZN16ProducerKeyboardD2Ev:0000000000000000 _ZN16ProducerKeyboardD2Ev
     /tmp/ccvQZ6Lf.s:182    .text._ZN16ProducerKeyboardD2Ev:0000000000000000 .L0 
     /tmp/ccvQZ6Lf.s:184    .text._ZN16ProducerKeyboardD2Ev:0000000000000000 .L0 
     /tmp/ccvQZ6Lf.s:185    .text._ZN16ProducerKeyboardD2Ev:0000000000000004 .L0 
     /tmp/ccvQZ6Lf.s:188    .text._ZN16ProducerKeyboardD2Ev:000000000000000c .L0 
     /tmp/ccvQZ6Lf.s:189    .text._ZN16ProducerKeyboardD2Ev:000000000000000c .L0 
     /tmp/ccvQZ6Lf.s:191    .text._ZN16ProducerKeyboardD2Ev:0000000000000010 .L0 
     /tmp/ccvQZ6Lf.s:1310   .data.rel.ro.local._ZTV16ProducerKeyboard:0000000000000000 _ZTV16ProducerKeyboard
     /tmp/ccvQZ6Lf.s:194    .text._ZN16ProducerKeyboardD2Ev:0000000000000010 .L0 
     /tmp/ccvQZ6Lf.s:200    .text._ZN16ProducerKeyboardD2Ev:0000000000000028 .L0 
     /tmp/ccvQZ6Lf.s:202    .text._ZN16ProducerKeyboardD2Ev:000000000000002c .L0 
     /tmp/ccvQZ6Lf.s:203    .text._ZN16ProducerKeyboardD2Ev:000000000000002c .L0 
     /tmp/ccvQZ6Lf.s:205    .text._ZN16ProducerKeyboardD2Ev:0000000000000030 .L0 
     /tmp/ccvQZ6Lf.s:207    .text._ZN16ProducerKeyboardD2Ev:0000000000000034 .L0 
     /tmp/ccvQZ6Lf.s:179    .text._ZN16ProducerKeyboardD2Ev:0000000000000000 _ZN16ProducerKeyboardD1Ev
     /tmp/ccvQZ6Lf.s:216    .text._ZN16ProducerKeyboardD0Ev:0000000000000000 _ZN16ProducerKeyboardD0Ev
     /tmp/ccvQZ6Lf.s:219    .text._ZN16ProducerKeyboardD0Ev:0000000000000000 .L0 
     /tmp/ccvQZ6Lf.s:221    .text._ZN16ProducerKeyboardD0Ev:0000000000000000 .L0 
     /tmp/ccvQZ6Lf.s:222    .text._ZN16ProducerKeyboardD0Ev:0000000000000004 .L0 
     /tmp/ccvQZ6Lf.s:226    .text._ZN16ProducerKeyboardD0Ev:0000000000000010 .L0 
     /tmp/ccvQZ6Lf.s:227    .text._ZN16ProducerKeyboardD0Ev:0000000000000010 .L0 
     /tmp/ccvQZ6Lf.s:228    .text._ZN16ProducerKeyboardD0Ev:0000000000000010 .L0 
     /tmp/ccvQZ6Lf.s:230    .text._ZN16ProducerKeyboardD0Ev:0000000000000014 .L0 
     /tmp/ccvQZ6Lf.s:236    .text._ZN16ProducerKeyboardD0Ev:0000000000000018 .L0 
     /tmp/ccvQZ6Lf.s:246    .text._ZN16ProducerKeyboardD0Ev:000000000000003c .L0 
     /tmp/ccvQZ6Lf.s:248    .text._ZN16ProducerKeyboardD0Ev:0000000000000040 .L0 
     /tmp/ccvQZ6Lf.s:249    .text._ZN16ProducerKeyboardD0Ev:0000000000000040 .L0 
     /tmp/ccvQZ6Lf.s:251    .text._ZN16ProducerKeyboardD0Ev:0000000000000044 .L0 
     /tmp/ccvQZ6Lf.s:254    .text._ZN16ProducerKeyboardD0Ev:0000000000000048 .L0 
     /tmp/ccvQZ6Lf.s:256    .text._ZN16ProducerKeyboardD0Ev:000000000000004c .L0 
     /tmp/ccvQZ6Lf.s:263    .text:0000000000000000 _ZN16ProducerKeyboard16producerKeyboardEPv
     /tmp/ccvQZ6Lf.s:266    .text:0000000000000000 .L0 
     /tmp/ccvQZ6Lf.s:268    .text:0000000000000000 .L0 
     /tmp/ccvQZ6Lf.s:269    .text:0000000000000004 .L0 
     /tmp/ccvQZ6Lf.s:275    .text:0000000000000018 .L0 
     /tmp/ccvQZ6Lf.s:276    .text:0000000000000018 .L0 
     /tmp/ccvQZ6Lf.s:277    .text:0000000000000018 .L0 
     /tmp/ccvQZ6Lf.s:278    .text:0000000000000018 .L0 
     /tmp/ccvQZ6Lf.s:279    .text:0000000000000018 .L0 
     /tmp/ccvQZ6Lf.s:281    .text:000000000000001c .L0 
     /tmp/ccvQZ6Lf.s:286    .text:0000000000000024 .L0 
     /tmp/ccvQZ6Lf.s:287    .text:0000000000000024 .L0 
     /tmp/ccvQZ6Lf.s:288    .text:0000000000000024 .L0 
     /tmp/ccvQZ6Lf.s:289    .text:0000000000000024 .L0 
     /tmp/ccvQZ6Lf.s:294    .text:000000000000002c .L0 
     /tmp/ccvQZ6Lf.s:295    .text:000000000000002c .L0 
     /tmp/ccvQZ6Lf.s:299    .text:0000000000000034 .L0 
     /tmp/ccvQZ6Lf.s:300    .text:0000000000000034 .L0 
     /tmp/ccvQZ6Lf.s:301    .text:0000000000000034 .L0 
     /tmp/ccvQZ6Lf.s:304    .text:000000000000003c .L0 
     /tmp/ccvQZ6Lf.s:307    .text:0000000000000040 .L0 
     /tmp/ccvQZ6Lf.s:310    .text:0000000000000048 .L0 
GAS LISTING /tmp/ccvQZ6Lf.s 			page 36


     /tmp/ccvQZ6Lf.s:311    .text:0000000000000048 .L0 
     /tmp/ccvQZ6Lf.s:315    .text:0000000000000054 .L0 
     /tmp/ccvQZ6Lf.s:316    .text:0000000000000054 .L0 
     /tmp/ccvQZ6Lf.s:320    .text:000000000000005c .L0 
     /tmp/ccvQZ6Lf.s:321    .text:000000000000005c .L0 
     /tmp/ccvQZ6Lf.s:323    .text:0000000000000060 .L0 
     /tmp/ccvQZ6Lf.s:327    .text:000000000000006c .L0 
     /tmp/ccvQZ6Lf.s:329    .text:0000000000000070 .L0 
     /tmp/ccvQZ6Lf.s:334    .text:0000000000000078 .L0 
     /tmp/ccvQZ6Lf.s:335    .text:0000000000000078 .L0 
     /tmp/ccvQZ6Lf.s:338    .text:0000000000000084 .L0 
     /tmp/ccvQZ6Lf.s:340    .text:0000000000000088 .L0 
     /tmp/ccvQZ6Lf.s:347    .text:0000000000000098 .L0 
     /tmp/ccvQZ6Lf.s:348    .text:0000000000000098 .L0 
     /tmp/ccvQZ6Lf.s:352    .text:00000000000000a4 .L0 
     /tmp/ccvQZ6Lf.s:353    .text:00000000000000a8 .L0 
     /tmp/ccvQZ6Lf.s:355    .text:00000000000000ac .L0 
     /tmp/ccvQZ6Lf.s:356    .text:00000000000000ac .L0 
     /tmp/ccvQZ6Lf.s:358    .text:00000000000000b0 .L0 
     /tmp/ccvQZ6Lf.s:361    .text:00000000000000b4 .L0 
     /tmp/ccvQZ6Lf.s:364    .text:00000000000000b8 .L0 
     /tmp/ccvQZ6Lf.s:367    .text:00000000000000bc .L0 
     /tmp/ccvQZ6Lf.s:369    .text:00000000000000c0 .L0 
     /tmp/ccvQZ6Lf.s:376    .text._ZN16ProducerKeyboard3runEv:0000000000000000 _ZN16ProducerKeyboard3runEv
     /tmp/ccvQZ6Lf.s:379    .text._ZN16ProducerKeyboard3runEv:0000000000000000 .L0 
     /tmp/ccvQZ6Lf.s:381    .text._ZN16ProducerKeyboard3runEv:0000000000000000 .L0 
     /tmp/ccvQZ6Lf.s:382    .text._ZN16ProducerKeyboard3runEv:0000000000000004 .L0 
     /tmp/ccvQZ6Lf.s:385    .text._ZN16ProducerKeyboard3runEv:000000000000000c .L0 
     /tmp/ccvQZ6Lf.s:386    .text._ZN16ProducerKeyboard3runEv:000000000000000c .L0 
     /tmp/ccvQZ6Lf.s:388    .text._ZN16ProducerKeyboard3runEv:0000000000000010 .L0 
     /tmp/ccvQZ6Lf.s:390    .text._ZN16ProducerKeyboard3runEv:0000000000000010 .L0 
     /tmp/ccvQZ6Lf.s:391    .text._ZN16ProducerKeyboard3runEv:0000000000000010 .L0 
     /tmp/ccvQZ6Lf.s:395    .text._ZN16ProducerKeyboard3runEv:000000000000001c .L0 
     /tmp/ccvQZ6Lf.s:396    .text._ZN16ProducerKeyboard3runEv:0000000000000020 .L0 
     /tmp/ccvQZ6Lf.s:398    .text._ZN16ProducerKeyboard3runEv:0000000000000024 .L0 
     /tmp/ccvQZ6Lf.s:399    .text._ZN16ProducerKeyboard3runEv:0000000000000024 .L0 
     /tmp/ccvQZ6Lf.s:401    .text._ZN16ProducerKeyboard3runEv:0000000000000028 .L0 
     /tmp/ccvQZ6Lf.s:403    .text._ZN16ProducerKeyboard3runEv:000000000000002c .L0 
     /tmp/ccvQZ6Lf.s:410    .text:00000000000000c0 _ZN12ProducerSync8producerEPv
     /tmp/ccvQZ6Lf.s:413    .text:00000000000000c0 .L0 
     /tmp/ccvQZ6Lf.s:415    .text:00000000000000c0 .L0 
     /tmp/ccvQZ6Lf.s:416    .text:00000000000000c4 .L0 
     /tmp/ccvQZ6Lf.s:421    .text:00000000000000d4 .L0 
     /tmp/ccvQZ6Lf.s:422    .text:00000000000000d4 .L0 
     /tmp/ccvQZ6Lf.s:423    .text:00000000000000d4 .L0 
     /tmp/ccvQZ6Lf.s:424    .text:00000000000000d4 .L0 
     /tmp/ccvQZ6Lf.s:426    .text:00000000000000d8 .L0 
     /tmp/ccvQZ6Lf.s:430    .text:00000000000000dc .L0 
     /tmp/ccvQZ6Lf.s:431    .text:00000000000000dc .L0 
     /tmp/ccvQZ6Lf.s:432    .text:00000000000000dc .L0 
     /tmp/ccvQZ6Lf.s:437    .text:00000000000000e4 .L0 
     /tmp/ccvQZ6Lf.s:438    .text:00000000000000e4 .L0 
     /tmp/ccvQZ6Lf.s:442    .text:00000000000000ec .L0 
     /tmp/ccvQZ6Lf.s:443    .text:00000000000000ec .L0 
     /tmp/ccvQZ6Lf.s:446    .text:00000000000000f8 .L0 
     /tmp/ccvQZ6Lf.s:447    .text:00000000000000f8 .L0 
     /tmp/ccvQZ6Lf.s:449    .text:00000000000000fc .L0 
GAS LISTING /tmp/ccvQZ6Lf.s 			page 37


     /tmp/ccvQZ6Lf.s:454    .text:000000000000010c .L0 
     /tmp/ccvQZ6Lf.s:455    .text:000000000000010c .L0 
     /tmp/ccvQZ6Lf.s:459    .text:0000000000000114 .L0 
     /tmp/ccvQZ6Lf.s:460    .text:0000000000000114 .L0 
     /tmp/ccvQZ6Lf.s:462    .text:0000000000000118 .L0 
     /tmp/ccvQZ6Lf.s:466    .text:0000000000000124 .L0 
     /tmp/ccvQZ6Lf.s:468    .text:0000000000000128 .L0 
     /tmp/ccvQZ6Lf.s:473    .text:0000000000000130 .L0 
     /tmp/ccvQZ6Lf.s:474    .text:0000000000000130 .L0 
     /tmp/ccvQZ6Lf.s:478    .text:000000000000013c .L0 
     /tmp/ccvQZ6Lf.s:479    .text:0000000000000140 .L0 
     /tmp/ccvQZ6Lf.s:481    .text:0000000000000144 .L0 
     /tmp/ccvQZ6Lf.s:482    .text:0000000000000144 .L0 
     /tmp/ccvQZ6Lf.s:484    .text:0000000000000148 .L0 
     /tmp/ccvQZ6Lf.s:487    .text:000000000000014c .L0 
     /tmp/ccvQZ6Lf.s:490    .text:0000000000000150 .L0 
     /tmp/ccvQZ6Lf.s:492    .text:0000000000000154 .L0 
     /tmp/ccvQZ6Lf.s:499    .text._ZN12ProducerSync3runEv:0000000000000000 _ZN12ProducerSync3runEv
     /tmp/ccvQZ6Lf.s:502    .text._ZN12ProducerSync3runEv:0000000000000000 .L0 
     /tmp/ccvQZ6Lf.s:504    .text._ZN12ProducerSync3runEv:0000000000000000 .L0 
     /tmp/ccvQZ6Lf.s:505    .text._ZN12ProducerSync3runEv:0000000000000004 .L0 
     /tmp/ccvQZ6Lf.s:508    .text._ZN12ProducerSync3runEv:000000000000000c .L0 
     /tmp/ccvQZ6Lf.s:509    .text._ZN12ProducerSync3runEv:000000000000000c .L0 
     /tmp/ccvQZ6Lf.s:511    .text._ZN12ProducerSync3runEv:0000000000000010 .L0 
     /tmp/ccvQZ6Lf.s:513    .text._ZN12ProducerSync3runEv:0000000000000010 .L0 
     /tmp/ccvQZ6Lf.s:514    .text._ZN12ProducerSync3runEv:0000000000000010 .L0 
     /tmp/ccvQZ6Lf.s:518    .text._ZN12ProducerSync3runEv:000000000000001c .L0 
     /tmp/ccvQZ6Lf.s:519    .text._ZN12ProducerSync3runEv:0000000000000020 .L0 
     /tmp/ccvQZ6Lf.s:521    .text._ZN12ProducerSync3runEv:0000000000000024 .L0 
     /tmp/ccvQZ6Lf.s:522    .text._ZN12ProducerSync3runEv:0000000000000024 .L0 
     /tmp/ccvQZ6Lf.s:524    .text._ZN12ProducerSync3runEv:0000000000000028 .L0 
     /tmp/ccvQZ6Lf.s:526    .text._ZN12ProducerSync3runEv:000000000000002c .L0 
     /tmp/ccvQZ6Lf.s:533    .text:0000000000000154 _ZN12ConsumerSync8consumerEPv
     /tmp/ccvQZ6Lf.s:536    .text:0000000000000154 .L0 
     /tmp/ccvQZ6Lf.s:538    .text:0000000000000154 .L0 
     /tmp/ccvQZ6Lf.s:539    .text:0000000000000158 .L0 
     /tmp/ccvQZ6Lf.s:546    .text:0000000000000170 .L0 
     /tmp/ccvQZ6Lf.s:547    .text:0000000000000170 .L0 
     /tmp/ccvQZ6Lf.s:548    .text:0000000000000170 .L0 
     /tmp/ccvQZ6Lf.s:549    .text:0000000000000170 .L0 
     /tmp/ccvQZ6Lf.s:550    .text:0000000000000170 .L0 
     /tmp/ccvQZ6Lf.s:551    .text:0000000000000170 .L0 
     /tmp/ccvQZ6Lf.s:553    .text:0000000000000174 .L0 
     /tmp/ccvQZ6Lf.s:558    .text:000000000000017c .L0 
     /tmp/ccvQZ6Lf.s:559    .text:000000000000017c .L0 
     /tmp/ccvQZ6Lf.s:560    .text:000000000000017c .L0 
     /tmp/ccvQZ6Lf.s:566    .text:0000000000000184 .L0 
     /tmp/ccvQZ6Lf.s:567    .text:0000000000000184 .L0 
     /tmp/ccvQZ6Lf.s:573    .text:0000000000000190 .L0 
     /tmp/ccvQZ6Lf.s:574    .text:0000000000000190 .L0 
     /tmp/ccvQZ6Lf.s:580    .text:000000000000019c .L0 
     /tmp/ccvQZ6Lf.s:581    .text:000000000000019c .L0 
     /tmp/ccvQZ6Lf.s:585    .text:00000000000001a8 .L0 
     /tmp/ccvQZ6Lf.s:586    .text:00000000000001a8 .L0 
     /tmp/ccvQZ6Lf.s:590    .text:00000000000001b4 .L0 
     /tmp/ccvQZ6Lf.s:591    .text:00000000000001b4 .L0 
     /tmp/ccvQZ6Lf.s:595    .text:00000000000001bc .L0 
GAS LISTING /tmp/ccvQZ6Lf.s 			page 38


     /tmp/ccvQZ6Lf.s:596    .text:00000000000001bc .L0 
     /tmp/ccvQZ6Lf.s:601    .text:00000000000001c8 .L0 
     /tmp/ccvQZ6Lf.s:602    .text:00000000000001c8 .L0 
     /tmp/ccvQZ6Lf.s:604    .text:00000000000001cc .L0 
     /tmp/ccvQZ6Lf.s:607    .text:00000000000001d4 .L0 
     /tmp/ccvQZ6Lf.s:609    .text:00000000000001d8 .L0 
     /tmp/ccvQZ6Lf.s:612    .text:00000000000001dc .L0 
     /tmp/ccvQZ6Lf.s:613    .text:00000000000001dc .L0 
     /tmp/ccvQZ6Lf.s:617    .text:00000000000001e4 .L0 
     /tmp/ccvQZ6Lf.s:623    .text:00000000000001ec .L0 
     /tmp/ccvQZ6Lf.s:624    .text:00000000000001ec .L0 
     /tmp/ccvQZ6Lf.s:626    .text:00000000000001f0 .L0 
     /tmp/ccvQZ6Lf.s:633    .text:00000000000001fc .L0 
     /tmp/ccvQZ6Lf.s:634    .text:00000000000001fc .L0 
     /tmp/ccvQZ6Lf.s:635    .text:00000000000001fc .L0 
     /tmp/ccvQZ6Lf.s:644    .text:0000000000000208 .L0 
     /tmp/ccvQZ6Lf.s:645    .text:0000000000000208 .L0 
     /tmp/ccvQZ6Lf.s:646    .text:0000000000000208 .L0 
     /tmp/ccvQZ6Lf.s:648    .text:000000000000020c .L0 
     /tmp/ccvQZ6Lf.s:652    .text:0000000000000218 .L0 
     /tmp/ccvQZ6Lf.s:654    .text:000000000000021c .L0 
     /tmp/ccvQZ6Lf.s:655    .text:000000000000021c .L0 
     /tmp/ccvQZ6Lf.s:659    .text:0000000000000228 .L0 
     /tmp/ccvQZ6Lf.s:660    .text:000000000000022c .L0 
     /tmp/ccvQZ6Lf.s:662    .text:0000000000000230 .L0 
     /tmp/ccvQZ6Lf.s:663    .text:0000000000000230 .L0 
     /tmp/ccvQZ6Lf.s:665    .text:0000000000000234 .L0 
     /tmp/ccvQZ6Lf.s:667    .text:0000000000000238 .L0 
     /tmp/ccvQZ6Lf.s:670    .text:000000000000023c .L0 
     /tmp/ccvQZ6Lf.s:673    .text:0000000000000240 .L0 
     /tmp/ccvQZ6Lf.s:676    .text:0000000000000244 .L0 
     /tmp/ccvQZ6Lf.s:678    .text:0000000000000248 .L0 
     /tmp/ccvQZ6Lf.s:685    .text._ZN12ConsumerSync3runEv:0000000000000000 _ZN12ConsumerSync3runEv
     /tmp/ccvQZ6Lf.s:688    .text._ZN12ConsumerSync3runEv:0000000000000000 .L0 
     /tmp/ccvQZ6Lf.s:690    .text._ZN12ConsumerSync3runEv:0000000000000000 .L0 
     /tmp/ccvQZ6Lf.s:691    .text._ZN12ConsumerSync3runEv:0000000000000004 .L0 
     /tmp/ccvQZ6Lf.s:694    .text._ZN12ConsumerSync3runEv:000000000000000c .L0 
     /tmp/ccvQZ6Lf.s:695    .text._ZN12ConsumerSync3runEv:000000000000000c .L0 
     /tmp/ccvQZ6Lf.s:697    .text._ZN12ConsumerSync3runEv:0000000000000010 .L0 
     /tmp/ccvQZ6Lf.s:699    .text._ZN12ConsumerSync3runEv:0000000000000010 .L0 
     /tmp/ccvQZ6Lf.s:700    .text._ZN12ConsumerSync3runEv:0000000000000010 .L0 
     /tmp/ccvQZ6Lf.s:704    .text._ZN12ConsumerSync3runEv:000000000000001c .L0 
     /tmp/ccvQZ6Lf.s:705    .text._ZN12ConsumerSync3runEv:0000000000000020 .L0 
     /tmp/ccvQZ6Lf.s:707    .text._ZN12ConsumerSync3runEv:0000000000000024 .L0 
     /tmp/ccvQZ6Lf.s:708    .text._ZN12ConsumerSync3runEv:0000000000000024 .L0 
     /tmp/ccvQZ6Lf.s:710    .text._ZN12ConsumerSync3runEv:0000000000000028 .L0 
     /tmp/ccvQZ6Lf.s:712    .text._ZN12ConsumerSync3runEv:000000000000002c .L0 
     /tmp/ccvQZ6Lf.s:741    .text:0000000000000248 _Z29producerConsumer_CPP_Sync_APIv
     /tmp/ccvQZ6Lf.s:744    .text:0000000000000248 .L0 
     /tmp/ccvQZ6Lf.s:5429   .data.rel.local.DW.ref.__gxx_personality_v0:0000000000000000 DW.ref.__gxx_personality_v0
     /tmp/ccvQZ6Lf.s:747    .text:0000000000000248 .L0 
     /tmp/ccvQZ6Lf.s:748    .text:000000000000024c .L0 
     /tmp/ccvQZ6Lf.s:760    .text:0000000000000278 .L0 
     /tmp/ccvQZ6Lf.s:761    .text:0000000000000278 .L0 
     /tmp/ccvQZ6Lf.s:762    .text:0000000000000278 .L0 
     /tmp/ccvQZ6Lf.s:763    .text:0000000000000278 .L0 
     /tmp/ccvQZ6Lf.s:764    .text:0000000000000278 .L0 
GAS LISTING /tmp/ccvQZ6Lf.s 			page 39


     /tmp/ccvQZ6Lf.s:765    .text:0000000000000278 .L0 
     /tmp/ccvQZ6Lf.s:766    .text:0000000000000278 .L0 
     /tmp/ccvQZ6Lf.s:767    .text:0000000000000278 .L0 
     /tmp/ccvQZ6Lf.s:768    .text:0000000000000278 .L0 
     /tmp/ccvQZ6Lf.s:769    .text:0000000000000278 .L0 
     /tmp/ccvQZ6Lf.s:770    .text:0000000000000278 .L0 
     /tmp/ccvQZ6Lf.s:772    .text:000000000000027c .L0 
     /tmp/ccvQZ6Lf.s:774    .text:000000000000027c .L0 
     /tmp/ccvQZ6Lf.s:776    .text:0000000000000280 .L0 
     /tmp/ccvQZ6Lf.s:777    .text:0000000000000280 .L0 
     /tmp/ccvQZ6Lf.s:778    .text:0000000000000280 .L0 
     /tmp/ccvQZ6Lf.s:779    .text:0000000000000280 .L0 
     /tmp/ccvQZ6Lf.s:784    .text:0000000000000290 .L0 
     /tmp/ccvQZ6Lf.s:785    .text:0000000000000290 .L0 
     /tmp/ccvQZ6Lf.s:791    .text:00000000000002a4 .L0 
     /tmp/ccvQZ6Lf.s:792    .text:00000000000002a4 .L0 
     /tmp/ccvQZ6Lf.s:798    .text:00000000000002b4 .L0 
     /tmp/ccvQZ6Lf.s:799    .text:00000000000002b4 .L0 
     /tmp/ccvQZ6Lf.s:803    .text:00000000000002c4 .L0 
     /tmp/ccvQZ6Lf.s:804    .text:00000000000002c4 .L0 
     /tmp/ccvQZ6Lf.s:809    .text:00000000000002d4 .L0 
     /tmp/ccvQZ6Lf.s:810    .text:00000000000002d4 .L0 
     /tmp/ccvQZ6Lf.s:816    .text:00000000000002e4 .L0 
     /tmp/ccvQZ6Lf.s:817    .text:00000000000002e4 .L0 
     /tmp/ccvQZ6Lf.s:821    .text:00000000000002f4 .L0 
     /tmp/ccvQZ6Lf.s:822    .text:00000000000002f4 .L0 
     /tmp/ccvQZ6Lf.s:828    .text:0000000000000308 .L0 
     /tmp/ccvQZ6Lf.s:829    .text:0000000000000308 .L0 
     /tmp/ccvQZ6Lf.s:833    .text:0000000000000318 .L0 
     /tmp/ccvQZ6Lf.s:834    .text:0000000000000318 .L0 
     /tmp/ccvQZ6Lf.s:840    .text:000000000000032c .L0 
     /tmp/ccvQZ6Lf.s:841    .text:000000000000032c .L0 
     /tmp/ccvQZ6Lf.s:845    .text:000000000000033c .L0 
     /tmp/ccvQZ6Lf.s:847    .text:0000000000000340 .L0 
     /tmp/ccvQZ6Lf.s:849    .text:0000000000000344 .L0 
     /tmp/ccvQZ6Lf.s:850    .text:0000000000000344 .L0 
     /tmp/ccvQZ6Lf.s:863    .text:0000000000000364 .L0 
     /tmp/ccvQZ6Lf.s:864    .text:0000000000000364 .L0 
     /tmp/ccvQZ6Lf.s:869    .text:0000000000000374 .L0 
     /tmp/ccvQZ6Lf.s:872    .text:0000000000000378 .L0 
     /tmp/ccvQZ6Lf.s:873    .text:0000000000000378 .L0 
     /tmp/ccvQZ6Lf.s:878    .text:0000000000000388 .L0 
     /tmp/ccvQZ6Lf.s:883    .text:0000000000000390 .L0 
     /tmp/ccvQZ6Lf.s:884    .text:0000000000000390 .L0 
     /tmp/ccvQZ6Lf.s:896    .text:00000000000003ac .L0 
     /tmp/ccvQZ6Lf.s:899    .text:00000000000003b4 .L0 
     /tmp/ccvQZ6Lf.s:900    .text:00000000000003b4 .L0 
     /tmp/ccvQZ6Lf.s:907    .text:00000000000003c8 .L0 
     /tmp/ccvQZ6Lf.s:908    .text:00000000000003c8 .L0 
     /tmp/ccvQZ6Lf.s:909    .text:00000000000003c8 .L0 
     /tmp/ccvQZ6Lf.s:912    .text:00000000000003cc .L0 
     /tmp/ccvQZ6Lf.s:922    .text:00000000000003e8 .L0 
     /tmp/ccvQZ6Lf.s:923    .text:00000000000003e8 .L0 
     /tmp/ccvQZ6Lf.s:929    .text:00000000000003fc .L0 
     /tmp/ccvQZ6Lf.s:930    .text:00000000000003fc .L0 
     /tmp/ccvQZ6Lf.s:932    .text:0000000000000400 .L0 
     /tmp/ccvQZ6Lf.s:933    .text:0000000000000400 .L0 
GAS LISTING /tmp/ccvQZ6Lf.s 			page 40


     /tmp/ccvQZ6Lf.s:935    .text:0000000000000404 .L0 
     /tmp/ccvQZ6Lf.s:936    .text:0000000000000404 .L0 
     /tmp/ccvQZ6Lf.s:943    .text:0000000000000414 .L0 
     /tmp/ccvQZ6Lf.s:946    .text:000000000000041c .L0 
     /tmp/ccvQZ6Lf.s:952    .text:0000000000000420 .L0 
     /tmp/ccvQZ6Lf.s:956    .text:0000000000000428 .L0 
     /tmp/ccvQZ6Lf.s:963    .text:0000000000000438 .L0 
     /tmp/ccvQZ6Lf.s:964    .text:0000000000000438 .L0 
     /tmp/ccvQZ6Lf.s:970    .text:0000000000000444 .L0 
     /tmp/ccvQZ6Lf.s:977    .text:000000000000044c .L0 
     /tmp/ccvQZ6Lf.s:984    .text:000000000000045c .L0 
     /tmp/ccvQZ6Lf.s:989    .text:0000000000000468 .L0 
     /tmp/ccvQZ6Lf.s:990    .text:0000000000000468 .L0 
     /tmp/ccvQZ6Lf.s:993    .text:0000000000000470 .L0 
     /tmp/ccvQZ6Lf.s:997    .text:000000000000047c .L0 
     /tmp/ccvQZ6Lf.s:1001   .text:0000000000000480 .L0 
     /tmp/ccvQZ6Lf.s:1003   .text:0000000000000484 .L0 
     /tmp/ccvQZ6Lf.s:1004   .text:0000000000000484 .L0 
     /tmp/ccvQZ6Lf.s:1010   .text:0000000000000498 .L0 
     /tmp/ccvQZ6Lf.s:1011   .text:0000000000000498 .L0 
     /tmp/ccvQZ6Lf.s:1013   .text:000000000000049c .L0 
     /tmp/ccvQZ6Lf.s:1014   .text:000000000000049c .L0 
     /tmp/ccvQZ6Lf.s:1017   .text:00000000000004a8 .L0 
     /tmp/ccvQZ6Lf.s:1019   .text:00000000000004ac .L0 
     /tmp/ccvQZ6Lf.s:1020   .text:00000000000004ac .L0 
     /tmp/ccvQZ6Lf.s:1026   .text:00000000000004bc .L0 
     /tmp/ccvQZ6Lf.s:1030   .text:00000000000004c8 .L0 
     /tmp/ccvQZ6Lf.s:1036   .text:00000000000004cc .L0 
     /tmp/ccvQZ6Lf.s:1045   .text:00000000000004d8 .L0 
     /tmp/ccvQZ6Lf.s:1046   .text:00000000000004d8 .L0 
     /tmp/ccvQZ6Lf.s:1053   .text:00000000000004e8 .L0 
     /tmp/ccvQZ6Lf.s:1057   .text:00000000000004f4 .L0 
     /tmp/ccvQZ6Lf.s:1063   .text:00000000000004f8 .L0 
     /tmp/ccvQZ6Lf.s:1073   .text:0000000000000510 .L0 
     /tmp/ccvQZ6Lf.s:1081   .text:0000000000000520 .L0 
     /tmp/ccvQZ6Lf.s:1082   .text:0000000000000520 .L0 
     /tmp/ccvQZ6Lf.s:1086   .text:0000000000000528 .L0 
     /tmp/ccvQZ6Lf.s:1090   .text:000000000000052c .L0 
     /tmp/ccvQZ6Lf.s:1092   .text:0000000000000530 .L0 
     /tmp/ccvQZ6Lf.s:1093   .text:0000000000000530 .L0 
     /tmp/ccvQZ6Lf.s:1097   .text:0000000000000540 .L0 
     /tmp/ccvQZ6Lf.s:1105   .text:0000000000000548 .L0 
     /tmp/ccvQZ6Lf.s:1111   .text:0000000000000550 .L0 
     /tmp/ccvQZ6Lf.s:1115   .text:0000000000000554 .L0 
     /tmp/ccvQZ6Lf.s:1117   .text:0000000000000558 .L0 
     /tmp/ccvQZ6Lf.s:1118   .text:0000000000000558 .L0 
     /tmp/ccvQZ6Lf.s:1122   .text:0000000000000564 .L0 
     /tmp/ccvQZ6Lf.s:1124   .text:0000000000000568 .L0 
     /tmp/ccvQZ6Lf.s:1132   .text:0000000000000578 .L0 
     /tmp/ccvQZ6Lf.s:1133   .text:0000000000000578 .L0 
     /tmp/ccvQZ6Lf.s:1135   .text:000000000000057c .L0 
     /tmp/ccvQZ6Lf.s:1142   .text:000000000000058c .L0 
     /tmp/ccvQZ6Lf.s:1143   .text:000000000000058c .L0 
     /tmp/ccvQZ6Lf.s:1145   .text:0000000000000594 .L0 
     /tmp/ccvQZ6Lf.s:1147   .text:0000000000000598 .L0 
     /tmp/ccvQZ6Lf.s:1153   .text:00000000000005a4 .L0 
     /tmp/ccvQZ6Lf.s:1154   .text:00000000000005a4 .L0 
GAS LISTING /tmp/ccvQZ6Lf.s 			page 41


     /tmp/ccvQZ6Lf.s:1156   .text:00000000000005a8 .L0 
     /tmp/ccvQZ6Lf.s:1167   .text:00000000000005c4 .L0 
     /tmp/ccvQZ6Lf.s:1168   .text:00000000000005c8 .L0 
     /tmp/ccvQZ6Lf.s:1169   .text:00000000000005c8 .L0 
     /tmp/ccvQZ6Lf.s:1171   .text:00000000000005cc .L0 
     /tmp/ccvQZ6Lf.s:1173   .text:00000000000005d0 .L0 
     /tmp/ccvQZ6Lf.s:1175   .text:00000000000005d4 .L0 
     /tmp/ccvQZ6Lf.s:1177   .text:00000000000005d8 .L0 
     /tmp/ccvQZ6Lf.s:1180   .text:00000000000005dc .L0 
     /tmp/ccvQZ6Lf.s:1182   .text:00000000000005e0 .L0 
     /tmp/ccvQZ6Lf.s:1184   .text:00000000000005e4 .L0 
     /tmp/ccvQZ6Lf.s:1186   .text:00000000000005e8 .L0 
     /tmp/ccvQZ6Lf.s:1188   .text:00000000000005ec .L0 
     /tmp/ccvQZ6Lf.s:1190   .text:00000000000005f0 .L0 
     /tmp/ccvQZ6Lf.s:1192   .text:00000000000005f4 .L0 
     /tmp/ccvQZ6Lf.s:1194   .text:00000000000005f8 .L0 
     /tmp/ccvQZ6Lf.s:1198   .text:00000000000005fc .L0 
     /tmp/ccvQZ6Lf.s:1202   .text:0000000000000600 .L0 
     /tmp/ccvQZ6Lf.s:1212   .text:000000000000061c .L0 
     /tmp/ccvQZ6Lf.s:1221   .text:0000000000000638 .L0 
     /tmp/ccvQZ6Lf.s:1232   .text:0000000000000654 .L0 
     /tmp/ccvQZ6Lf.s:1242   .text:0000000000000670 .L0 
     /tmp/ccvQZ6Lf.s:1250   .text:0000000000000688 .L0 
     /tmp/ccvQZ6Lf.s:1340   .bss:0000000000000000 .LANCHOR0
     /tmp/ccvQZ6Lf.s:1343   .bss:0000000000000000 _ZL9threadEnd
     /tmp/ccvQZ6Lf.s:1348   .bss:0000000000000008 _ZL10waitForAll
     /tmp/ccvQZ6Lf.s:44     .text._ZN12ConsumerSyncD2Ev:0000000000000034 .L0 
     /tmp/ccvQZ6Lf.s:91     .text._ZN12ConsumerSyncD0Ev:000000000000004c .L0 
     /tmp/ccvQZ6Lf.s:128    .text._ZN12ProducerSyncD2Ev:0000000000000034 .L0 
     /tmp/ccvQZ6Lf.s:175    .text._ZN12ProducerSyncD0Ev:000000000000004c .L0 
     /tmp/ccvQZ6Lf.s:212    .text._ZN16ProducerKeyboardD2Ev:0000000000000034 .L0 
     /tmp/ccvQZ6Lf.s:259    .text._ZN16ProducerKeyboardD0Ev:000000000000004c .L0 
     /tmp/ccvQZ6Lf.s:1359   .text:0000000000000688 .L0 
     /tmp/ccvQZ6Lf.s:406    .text._ZN16ProducerKeyboard3runEv:000000000000002c .L0 
     /tmp/ccvQZ6Lf.s:529    .text._ZN12ProducerSync3runEv:000000000000002c .L0 
     /tmp/ccvQZ6Lf.s:715    .text._ZN12ConsumerSync3runEv:000000000000002c .L0 
     /tmp/ccvQZ6Lf.s:336    .text:000000000000007c .L0 
     /tmp/ccvQZ6Lf.s:443    .text:00000000000000ec .L0 
     /tmp/ccvQZ6Lf.s:581    .text:000000000000019c .L0 
     /tmp/ccvQZ6Lf.s:717    .rodata.str1.8:0000000000000000 .LC0
     /tmp/ccvQZ6Lf.s:779    .text:0000000000000280 .L0 
     /tmp/ccvQZ6Lf.s:720    .rodata.str1.8:0000000000000020 .LC1
     /tmp/ccvQZ6Lf.s:799    .text:00000000000002b4 .L0 
     /tmp/ccvQZ6Lf.s:723    .rodata.str1.8:0000000000000040 .LC2
     /tmp/ccvQZ6Lf.s:817    .text:00000000000002e4 .L0 
     /tmp/ccvQZ6Lf.s:726    .rodata.str1.8:0000000000000058 .LC3
     /tmp/ccvQZ6Lf.s:829    .text:0000000000000308 .L0 
     /tmp/ccvQZ6Lf.s:729    .rodata.str1.8:0000000000000070 .LC4
     /tmp/ccvQZ6Lf.s:841    .text:000000000000032c .L0 
     /tmp/ccvQZ6Lf.s:732    .rodata.str1.8:0000000000000078 .LC5
     /tmp/ccvQZ6Lf.s:864    .text:0000000000000364 .L0 
     /tmp/ccvQZ6Lf.s:735    .rodata.str1.8:00000000000000b8 .LC6
     /tmp/ccvQZ6Lf.s:873    .text:0000000000000378 .L0 
     /tmp/ccvQZ6Lf.s:896    .text:00000000000003ac .L0 
     /tmp/ccvQZ6Lf.s:956    .text:0000000000000428 .L0 
     /tmp/ccvQZ6Lf.s:977    .text:000000000000044c .L0 
     /tmp/ccvQZ6Lf.s:1014   .text:000000000000049c .L0 
GAS LISTING /tmp/ccvQZ6Lf.s 			page 42


     /tmp/ccvQZ6Lf.s:1066   .text:0000000000000500 .L0 
     /tmp/ccvQZ6Lf.s:1093   .text:0000000000000530 .L0 
     /tmp/ccvQZ6Lf.s:1143   .text:000000000000058c .L0 
     /tmp/ccvQZ6Lf.s:297    .text:0000000000000034 .L14
     /tmp/ccvQZ6Lf.s:332    .text:0000000000000078 .L15
     /tmp/ccvQZ6Lf.s:292    .text:000000000000002c .L18
     /tmp/ccvQZ6Lf.s:440    .text:00000000000000ec .L22
     /tmp/ccvQZ6Lf.s:471    .text:0000000000000130 .L23
     /tmp/ccvQZ6Lf.s:435    .text:00000000000000e4 .L26
     /tmp/ccvQZ6Lf.s:577    .text:000000000000019c .L30
     /tmp/ccvQZ6Lf.s:610    .text:00000000000001dc .L32
     /tmp/ccvQZ6Lf.s:639    .text:0000000000000208 .L31
     /tmp/ccvQZ6Lf.s:563    .text:0000000000000184 .L36
     /tmp/ccvQZ6Lf.s:571    .text:0000000000000190 .L37
     /tmp/ccvQZ6Lf.s:619    .text:00000000000001ec .L38
     /tmp/ccvQZ6Lf.s:861    .text:0000000000000364 .L69
     /tmp/ccvQZ6Lf.s:870    .text:0000000000000378 .L70
     /tmp/ccvQZ6Lf.s:880    .text:0000000000000390 .L71
     /tmp/ccvQZ6Lf.s:877    .text:0000000000000388 .L43
     /tmp/ccvQZ6Lf.s:1165   .text:00000000000005c4 .L41
     /tmp/ccvQZ6Lf.s:999    .text:0000000000000480 .L48
     /tmp/ccvQZ6Lf.s:1077   .text:0000000000000520 .L45
     /tmp/ccvQZ6Lf.s:1041   .text:00000000000004d8 .L46
     /tmp/ccvQZ6Lf.s:973    .text:000000000000044c .L72
     /tmp/ccvQZ6Lf.s:987    .text:0000000000000468 .L47
     /tmp/ccvQZ6Lf.s:1101   .text:0000000000000548 .L62
     /tmp/ccvQZ6Lf.s:1088   .text:000000000000052c .L50
     /tmp/ccvQZ6Lf.s:1113   .text:0000000000000554 .L49
     /tmp/ccvQZ6Lf.s:1129   .text:0000000000000578 .L51
     /tmp/ccvQZ6Lf.s:1109   .text:0000000000000550 .L52
     /tmp/ccvQZ6Lf.s:1140   .text:000000000000058c .L53
     /tmp/ccvQZ6Lf.s:1151   .text:00000000000005a4 .L54
     /tmp/ccvQZ6Lf.s:1162   .text:00000000000005c0 .L55
     /tmp/ccvQZ6Lf.s:26     .text._ZN12ConsumerSyncD2Ev:0000000000000010 .L0 
     /tmp/ccvQZ6Lf.s:68     .text._ZN12ConsumerSyncD0Ev:0000000000000018 .L0 
     /tmp/ccvQZ6Lf.s:110    .text._ZN12ProducerSyncD2Ev:0000000000000010 .L0 
     /tmp/ccvQZ6Lf.s:152    .text._ZN12ProducerSyncD0Ev:0000000000000018 .L0 
     /tmp/ccvQZ6Lf.s:194    .text._ZN16ProducerKeyboardD2Ev:0000000000000010 .L0 
     /tmp/ccvQZ6Lf.s:236    .text._ZN16ProducerKeyboardD0Ev:0000000000000018 .L0 
     /tmp/ccvQZ6Lf.s:780    .text:0000000000000288 .LEHB0
     /tmp/ccvQZ6Lf.s:742    .text:0000000000000248 .LFB22
     /tmp/ccvQZ6Lf.s:853    .text:0000000000000350 .LEHE0
     /tmp/ccvQZ6Lf.s:856    .text:0000000000000358 .LEHB1
     /tmp/ccvQZ6Lf.s:859    .text:0000000000000360 .LEHE1
     /tmp/ccvQZ6Lf.s:1197   .text:00000000000005fc .L63
     /tmp/ccvQZ6Lf.s:865    .text:000000000000036c .LEHB2
     /tmp/ccvQZ6Lf.s:887    .text:000000000000039c .LEHE2
     /tmp/ccvQZ6Lf.s:891    .text:00000000000003a4 .LEHB3
     /tmp/ccvQZ6Lf.s:894    .text:00000000000003ac .LEHE3
     /tmp/ccvQZ6Lf.s:1208   .text:0000000000000618 .L64
     /tmp/ccvQZ6Lf.s:937    .text:0000000000000408 .LEHB4
     /tmp/ccvQZ6Lf.s:940    .text:0000000000000410 .LEHE4
     /tmp/ccvQZ6Lf.s:948    .text:0000000000000420 .LEHB5
     /tmp/ccvQZ6Lf.s:954    .text:0000000000000428 .LEHE5
     /tmp/ccvQZ6Lf.s:1218   .text:0000000000000634 .L65
     /tmp/ccvQZ6Lf.s:965    .text:000000000000043c .LEHB6
     /tmp/ccvQZ6Lf.s:1023   .text:00000000000004b8 .LEHE6
GAS LISTING /tmp/ccvQZ6Lf.s 			page 43


     /tmp/ccvQZ6Lf.s:1032   .text:00000000000004cc .LEHB7
     /tmp/ccvQZ6Lf.s:1038   .text:00000000000004d4 .LEHE7
     /tmp/ccvQZ6Lf.s:1227   .text:0000000000000650 .L66
     /tmp/ccvQZ6Lf.s:1047   .text:00000000000004dc .LEHB8
     /tmp/ccvQZ6Lf.s:1050   .text:00000000000004e4 .LEHE8
     /tmp/ccvQZ6Lf.s:1059   .text:00000000000004f8 .LEHB9
     /tmp/ccvQZ6Lf.s:1065   .text:0000000000000500 .LEHE9
     /tmp/ccvQZ6Lf.s:1238   .text:000000000000066c .L67
     /tmp/ccvQZ6Lf.s:1080   .text:0000000000000520 .LEHB10
     /tmp/ccvQZ6Lf.s:1248   .text:0000000000000688 .LEHE10
     /tmp/ccvQZ6Lf.s:3414   .debug_abbrev:0000000000000000 .Ldebug_abbrev0
     /tmp/ccvQZ6Lf.s:5375   .debug_str:00000000000006c1 .LASF113
     /tmp/ccvQZ6Lf.s:5373   .debug_str:0000000000000695 .LASF114
     /tmp/ccvQZ6Lf.s:5251   .debug_str:000000000000029a .LASF115
     /tmp/ccvQZ6Lf.s:5131   .debug_ranges:0000000000000000 .Ldebug_ranges0
     /tmp/ccvQZ6Lf.s:5173   .debug_line:0000000000000000 .Ldebug_line0
     /tmp/ccvQZ6Lf.s:5259   .debug_str:00000000000002e5 .LASF0
     /tmp/ccvQZ6Lf.s:5273   .debug_str:0000000000000342 .LASF1
     /tmp/ccvQZ6Lf.s:5349   .debug_str:00000000000005dd .LASF2
     /tmp/ccvQZ6Lf.s:5353   .debug_str:0000000000000609 .LASF4
     /tmp/ccvQZ6Lf.s:5265   .debug_str:0000000000000306 .LASF3
     /tmp/ccvQZ6Lf.s:5185   .debug_str:0000000000000047 .LASF5
     /tmp/ccvQZ6Lf.s:5321   .debug_str:00000000000004d4 .LASF6
     /tmp/ccvQZ6Lf.s:5269   .debug_str:000000000000032a .LASF7
     /tmp/ccvQZ6Lf.s:5205   .debug_str:0000000000000115 .LASF8
     /tmp/ccvQZ6Lf.s:5249   .debug_str:000000000000028a .LASF9
     /tmp/ccvQZ6Lf.s:5255   .debug_str:00000000000002d0 .LASF10
     /tmp/ccvQZ6Lf.s:5197   .debug_str:00000000000000cc .LASF11
     /tmp/ccvQZ6Lf.s:5243   .debug_str:0000000000000262 .LASF12
     /tmp/ccvQZ6Lf.s:5209   .debug_str:0000000000000146 .LASF13
     /tmp/ccvQZ6Lf.s:5195   .debug_str:00000000000000bc .LASF14
     /tmp/ccvQZ6Lf.s:5367   .debug_str:000000000000067d .LASF15
     /tmp/ccvQZ6Lf.s:5231   .debug_str:000000000000020a .LASF16
     /tmp/ccvQZ6Lf.s:5361   .debug_str:000000000000064e .LASF17
     /tmp/ccvQZ6Lf.s:5257   .debug_str:00000000000002de .LASF27
     /tmp/ccvQZ6Lf.s:5387   .debug_str:00000000000007d6 .LASF18
     /tmp/ccvQZ6Lf.s:5179   .debug_str:000000000000001a .LASF20
     /tmp/ccvQZ6Lf.s:5181   .debug_str:000000000000002a .LASF19
     /tmp/ccvQZ6Lf.s:5415   .debug_str:00000000000008c9 .LASF21
     /tmp/ccvQZ6Lf.s:5225   .debug_str:00000000000001dc .LASF22
     /tmp/ccvQZ6Lf.s:5421   .debug_str:00000000000008ef .LASF23
     /tmp/ccvQZ6Lf.s:5319   .debug_str:00000000000004be .LASF24
     /tmp/ccvQZ6Lf.s:5221   .debug_str:00000000000001ce .LASF25
     /tmp/ccvQZ6Lf.s:5283   .debug_str:00000000000003a4 .LASF26
     /tmp/ccvQZ6Lf.s:5391   .debug_str:00000000000007ec .LASF28
     /tmp/ccvQZ6Lf.s:5201   .debug_str:00000000000000e7 .LASF29
     /tmp/ccvQZ6Lf.s:5223   .debug_str:00000000000001d7 .LASF30
     /tmp/ccvQZ6Lf.s:5329   .debug_str:000000000000051b .LASF31
     /tmp/ccvQZ6Lf.s:5213   .debug_str:0000000000000164 .LASF32
     /tmp/ccvQZ6Lf.s:5381   .debug_str:00000000000007a6 .LASF33
     /tmp/ccvQZ6Lf.s:5369   .debug_str:0000000000000689 .LASF34
     /tmp/ccvQZ6Lf.s:5227   .debug_str:00000000000001eb .LASF35
     /tmp/ccvQZ6Lf.s:5237   .debug_str:0000000000000235 .LASF36
     /tmp/ccvQZ6Lf.s:5309   .debug_str:000000000000046a .LASF37
     /tmp/ccvQZ6Lf.s:5293   .debug_str:00000000000003e0 .LASF116
     /tmp/ccvQZ6Lf.s:5287   .debug_str:00000000000003c5 .LASF39
     /tmp/ccvQZ6Lf.s:5289   .debug_str:00000000000003cd .LASF58
GAS LISTING /tmp/ccvQZ6Lf.s 			page 44


     /tmp/ccvQZ6Lf.s:5409   .debug_str:0000000000000894 .LASF60
     /tmp/ccvQZ6Lf.s:5263   .debug_str:0000000000000301 .LASF112
     /tmp/ccvQZ6Lf.s:5217   .debug_str:0000000000000190 .LASF117
     /tmp/ccvQZ6Lf.s:5371   .debug_str:0000000000000690 .LASF38
     /tmp/ccvQZ6Lf.s:5383   .debug_str:00000000000007bd .LASF40
     /tmp/ccvQZ6Lf.s:5379   .debug_str:000000000000079f .LASF41
     /tmp/ccvQZ6Lf.s:5363   .debug_str:0000000000000664 .LASF42
     /tmp/ccvQZ6Lf.s:5303   .debug_str:0000000000000441 .LASF43
     /tmp/ccvQZ6Lf.s:5385   .debug_str:00000000000007c7 .LASF44
     /tmp/ccvQZ6Lf.s:5291   .debug_str:00000000000003d2 .LASF45
     /tmp/ccvQZ6Lf.s:5177   .debug_str:0000000000000010 .LASF46
     /tmp/ccvQZ6Lf.s:5301   .debug_str:0000000000000437 .LASF47
     /tmp/ccvQZ6Lf.s:5267   .debug_str:0000000000000318 .LASF49
     /tmp/ccvQZ6Lf.s:5323   .debug_str:00000000000004e7 .LASF48
     /tmp/ccvQZ6Lf.s:5419   .debug_str:00000000000008dd .LASF50
     /tmp/ccvQZ6Lf.s:5365   .debug_str:0000000000000669 .LASF118
     /tmp/ccvQZ6Lf.s:5247   .debug_str:0000000000000276 .LASF119
     /tmp/ccvQZ6Lf.s:5343   .debug_str:00000000000005ad .LASF51
     /tmp/ccvQZ6Lf.s:5345   .debug_str:00000000000005b4 .LASF52
     /tmp/ccvQZ6Lf.s:5295   .debug_str:00000000000003f2 .LASF53
     /tmp/ccvQZ6Lf.s:5199   .debug_str:00000000000000db .LASF120
     /tmp/ccvQZ6Lf.s:5341   .debug_str:00000000000005a3 .LASF54
     /tmp/ccvQZ6Lf.s:5279   .debug_str:0000000000000390 .LASF55
     /tmp/ccvQZ6Lf.s:5277   .debug_str:0000000000000378 .LASF56
     /tmp/ccvQZ6Lf.s:5215   .debug_str:0000000000000177 .LASF57
     /tmp/ccvQZ6Lf.s:5403   .debug_str:000000000000086b .LASF59
     /tmp/ccvQZ6Lf.s:5351   .debug_str:00000000000005eb .LASF61
     /tmp/ccvQZ6Lf.s:5275   .debug_str:0000000000000355 .LASF62
     /tmp/ccvQZ6Lf.s:5359   .debug_str:0000000000000636 .LASF70
     /tmp/ccvQZ6Lf.s:5211   .debug_str:0000000000000156 .LASF63
     /tmp/ccvQZ6Lf.s:5239   .debug_str:0000000000000243 .LASF73
     /tmp/ccvQZ6Lf.s:5313   .debug_str:0000000000000499 .LASF64
     /tmp/ccvQZ6Lf.s:5189   .debug_str:000000000000005a .LASF65
     /tmp/ccvQZ6Lf.s:5203   .debug_str:00000000000000fc .LASF66
     /tmp/ccvQZ6Lf.s:5339   .debug_str:000000000000059a .LASF67
     /tmp/ccvQZ6Lf.s:5335   .debug_str:0000000000000560 .LASF68
     /tmp/ccvQZ6Lf.s:5193   .debug_str:0000000000000099 .LASF69
     /tmp/ccvQZ6Lf.s:5401   .debug_str:0000000000000853 .LASF71
     /tmp/ccvQZ6Lf.s:5417   .debug_str:00000000000008cf .LASF72
     /tmp/ccvQZ6Lf.s:5229   .debug_str:00000000000001f4 .LASF74
     /tmp/ccvQZ6Lf.s:5317   .debug_str:00000000000004ad .LASF75
     /tmp/ccvQZ6Lf.s:5337   .debug_str:000000000000057e .LASF76
     /tmp/ccvQZ6Lf.s:5333   .debug_str:0000000000000543 .LASF77
     /tmp/ccvQZ6Lf.s:5393   .debug_str:00000000000007f6 .LASF78
     /tmp/ccvQZ6Lf.s:5219   .debug_str:00000000000001a3 .LASF79
     /tmp/ccvQZ6Lf.s:5191   .debug_str:0000000000000072 .LASF80
     /tmp/ccvQZ6Lf.s:5285   .debug_str:00000000000003a9 .LASF81
     /tmp/ccvQZ6Lf.s:5347   .debug_str:00000000000005cb .LASF82
     /tmp/ccvQZ6Lf.s:5377   .debug_str:0000000000000785 .LASF83
     /tmp/ccvQZ6Lf.s:5245   .debug_str:0000000000000271 .LASF84
     /tmp/ccvQZ6Lf.s:5183   .debug_str:000000000000003d .LASF85
     /tmp/ccvQZ6Lf.s:5307   .debug_str:0000000000000450 .LASF86
     /tmp/ccvQZ6Lf.s:217    .text._ZN16ProducerKeyboardD0Ev:0000000000000000 .LFB34
     /tmp/ccvQZ6Lf.s:257    .text._ZN16ProducerKeyboardD0Ev:000000000000004c .LFE34
     /tmp/ccvQZ6Lf.s:4403   .debug_loc:0000000000000000 .LLST7
     /tmp/ccvQZ6Lf.s:233    .text._ZN16ProducerKeyboardD0Ev:0000000000000018 .LBB34
     /tmp/ccvQZ6Lf.s:241    .text._ZN16ProducerKeyboardD0Ev:000000000000002c .LBE34
GAS LISTING /tmp/ccvQZ6Lf.s 			page 45


     /tmp/ccvQZ6Lf.s:4421   .debug_loc:000000000000004c .LLST8
     /tmp/ccvQZ6Lf.s:239    .text._ZN16ProducerKeyboardD0Ev:000000000000002c .LVL18
     /tmp/ccvQZ6Lf.s:244    .text._ZN16ProducerKeyboardD0Ev:0000000000000038 .LVL19
     /tmp/ccvQZ6Lf.s:5397   .debug_str:0000000000000816 .LASF87
     /tmp/ccvQZ6Lf.s:180    .text._ZN16ProducerKeyboardD2Ev:0000000000000000 .LFB32
     /tmp/ccvQZ6Lf.s:208    .text._ZN16ProducerKeyboardD2Ev:0000000000000034 .LFE32
     /tmp/ccvQZ6Lf.s:4432   .debug_loc:0000000000000082 .LLST6
     /tmp/ccvQZ6Lf.s:197    .text._ZN16ProducerKeyboardD2Ev:0000000000000024 .LVL15
     /tmp/ccvQZ6Lf.s:5405   .debug_str:0000000000000874 .LASF88
     /tmp/ccvQZ6Lf.s:133    .text._ZN12ProducerSyncD0Ev:0000000000000000 .LFB30
     /tmp/ccvQZ6Lf.s:173    .text._ZN12ProducerSyncD0Ev:000000000000004c .LFE30
     /tmp/ccvQZ6Lf.s:4446   .debug_loc:00000000000000bb .LLST4
     /tmp/ccvQZ6Lf.s:149    .text._ZN12ProducerSyncD0Ev:0000000000000018 .LBB31
     /tmp/ccvQZ6Lf.s:157    .text._ZN12ProducerSyncD0Ev:000000000000002c .LBE31
     /tmp/ccvQZ6Lf.s:4464   .debug_loc:0000000000000107 .LLST5
     /tmp/ccvQZ6Lf.s:155    .text._ZN12ProducerSyncD0Ev:000000000000002c .LVL11
     /tmp/ccvQZ6Lf.s:160    .text._ZN12ProducerSyncD0Ev:0000000000000038 .LVL12
     /tmp/ccvQZ6Lf.s:5327   .debug_str:0000000000000505 .LASF89
     /tmp/ccvQZ6Lf.s:96     .text._ZN12ProducerSyncD2Ev:0000000000000000 .LFB28
     /tmp/ccvQZ6Lf.s:124    .text._ZN12ProducerSyncD2Ev:0000000000000034 .LFE28
     /tmp/ccvQZ6Lf.s:4475   .debug_loc:000000000000013d .LLST3
     /tmp/ccvQZ6Lf.s:113    .text._ZN12ProducerSyncD2Ev:0000000000000024 .LVL8
     /tmp/ccvQZ6Lf.s:5413   .debug_str:00000000000008b3 .LASF90
     /tmp/ccvQZ6Lf.s:49     .text._ZN12ConsumerSyncD0Ev:0000000000000000 .LFB26
     /tmp/ccvQZ6Lf.s:89     .text._ZN12ConsumerSyncD0Ev:000000000000004c .LFE26
     /tmp/ccvQZ6Lf.s:4489   .debug_loc:0000000000000176 .LLST1
     /tmp/ccvQZ6Lf.s:65     .text._ZN12ConsumerSyncD0Ev:0000000000000018 .LBB28
     /tmp/ccvQZ6Lf.s:73     .text._ZN12ConsumerSyncD0Ev:000000000000002c .LBE28
     /tmp/ccvQZ6Lf.s:4507   .debug_loc:00000000000001c2 .LLST2
     /tmp/ccvQZ6Lf.s:71     .text._ZN12ConsumerSyncD0Ev:000000000000002c .LVL4
     /tmp/ccvQZ6Lf.s:76     .text._ZN12ConsumerSyncD0Ev:0000000000000038 .LVL5
     /tmp/ccvQZ6Lf.s:5331   .debug_str:000000000000052d .LASF91
     /tmp/ccvQZ6Lf.s:11     .text._ZN12ConsumerSyncD2Ev:0000000000000000 .LFB24
     /tmp/ccvQZ6Lf.s:40     .text._ZN12ConsumerSyncD2Ev:0000000000000034 .LFE24
     /tmp/ccvQZ6Lf.s:4518   .debug_loc:00000000000001f8 .LLST0
     /tmp/ccvQZ6Lf.s:29     .text._ZN12ConsumerSyncD2Ev:0000000000000024 .LVL1
     /tmp/ccvQZ6Lf.s:5357   .debug_str:0000000000000618 .LASF92
     /tmp/ccvQZ6Lf.s:5311   .debug_str:0000000000000476 .LASF121
     /tmp/ccvQZ6Lf.s:1251   .text:0000000000000688 .LFE22
     /tmp/ccvQZ6Lf.s:5233   .debug_str:0000000000000220 .LASF93
     /tmp/ccvQZ6Lf.s:4532   .debug_loc:0000000000000231 .LLST32
     /tmp/ccvQZ6Lf.s:5407   .debug_str:000000000000088a .LASF94
     /tmp/ccvQZ6Lf.s:4543   .debug_loc:0000000000000267 .LLST33
     /tmp/ccvQZ6Lf.s:4558   .debug_loc:00000000000002b0 .LLST34
     /tmp/ccvQZ6Lf.s:5355   .debug_str:0000000000000610 .LASF95
     /tmp/ccvQZ6Lf.s:4569   .debug_loc:00000000000002e6 .LLST35
     /tmp/ccvQZ6Lf.s:5261   .debug_str:00000000000002f2 .LASF96
     /tmp/ccvQZ6Lf.s:4587   .debug_loc:0000000000000332 .LLST36
     /tmp/ccvQZ6Lf.s:5271   .debug_str:000000000000033d .LASF97
     /tmp/ccvQZ6Lf.s:4598   .debug_loc:0000000000000368 .LLST37
     /tmp/ccvQZ6Lf.s:4611   .debug_loc:00000000000003a0 .LLST40
     /tmp/ccvQZ6Lf.s:974    .text:000000000000044c .LBB44
     /tmp/ccvQZ6Lf.s:4626   .debug_loc:00000000000003e9 .LLST41
     /tmp/ccvQZ6Lf.s:4641   .debug_loc:0000000000000432 .LLST42
     /tmp/ccvQZ6Lf.s:1037   .text:00000000000004d4 .LVL109
     /tmp/ccvQZ6Lf.s:1060   .text:00000000000004f8 .LBB48
     /tmp/ccvQZ6Lf.s:1071   .text:0000000000000510 .LBE48
GAS LISTING /tmp/ccvQZ6Lf.s 			page 46


     /tmp/ccvQZ6Lf.s:4660   .debug_loc:000000000000048e .LLST43
     /tmp/ccvQZ6Lf.s:4671   .debug_loc:00000000000004c4 .LLST44
     /tmp/ccvQZ6Lf.s:1064   .text:0000000000000500 .LVL113
     /tmp/ccvQZ6Lf.s:995    .text:000000000000047c .LVL105
     /tmp/ccvQZ6Lf.s:1022   .text:00000000000004b8 .LVL107
     /tmp/ccvQZ6Lf.s:1049   .text:00000000000004e4 .LVL111
     /tmp/ccvQZ6Lf.s:1234   .text:0000000000000660 .LVL140
     /tmp/ccvQZ6Lf.s:1244   .text:000000000000067c .LVL143
     /tmp/ccvQZ6Lf.s:1084   .text:0000000000000528 .LBB50
     /tmp/ccvQZ6Lf.s:1102   .text:0000000000000548 .LBE50
     /tmp/ccvQZ6Lf.s:4686   .debug_loc:000000000000050d .LLST45
     /tmp/ccvQZ6Lf.s:1095   .text:0000000000000540 .LVL117
     /tmp/ccvQZ6Lf.s:1103   .text:0000000000000548 .LBB51
     /tmp/ccvQZ6Lf.s:1130   .text:0000000000000578 .LBE51
     /tmp/ccvQZ6Lf.s:4697   .debug_loc:0000000000000543 .LLST46
     /tmp/ccvQZ6Lf.s:4704   .debug_loc:0000000000000566 .LLST29
     /tmp/ccvQZ6Lf.s:4735   .debug_loc:00000000000005b0 .LLST31
     /tmp/ccvQZ6Lf.s:949    .text:0000000000000420 .LBB41
     /tmp/ccvQZ6Lf.s:961    .text:0000000000000438 .LBE41
     /tmp/ccvQZ6Lf.s:4766   .debug_loc:00000000000005fa .LLST38
     /tmp/ccvQZ6Lf.s:4777   .debug_loc:0000000000000630 .LLST39
     /tmp/ccvQZ6Lf.s:953    .text:0000000000000428 .LVL100
     /tmp/ccvQZ6Lf.s:782    .text:0000000000000290 .LVL72
     /tmp/ccvQZ6Lf.s:789    .text:00000000000002a4 .LVL73
     /tmp/ccvQZ6Lf.s:794    .text:00000000000002b0 .LVL74
     /tmp/ccvQZ6Lf.s:801    .text:00000000000002c4 .LVL76
     /tmp/ccvQZ6Lf.s:807    .text:00000000000002d4 .LVL77
     /tmp/ccvQZ6Lf.s:812    .text:00000000000002e0 .LVL78
     /tmp/ccvQZ6Lf.s:819    .text:00000000000002f4 .LVL80
     /tmp/ccvQZ6Lf.s:826    .text:0000000000000308 .LVL81
     /tmp/ccvQZ6Lf.s:831    .text:0000000000000318 .LVL82
     /tmp/ccvQZ6Lf.s:838    .text:000000000000032c .LVL83
     /tmp/ccvQZ6Lf.s:843    .text:000000000000033c .LVL84
     /tmp/ccvQZ6Lf.s:852    .text:0000000000000350 .LVL85
     /tmp/ccvQZ6Lf.s:858    .text:0000000000000360 .LVL86
     /tmp/ccvQZ6Lf.s:867    .text:0000000000000374 .LVL87
     /tmp/ccvQZ6Lf.s:875    .text:0000000000000388 .LVL88
     /tmp/ccvQZ6Lf.s:886    .text:000000000000039c .LVL90
     /tmp/ccvQZ6Lf.s:893    .text:00000000000003ac .LVL92
     /tmp/ccvQZ6Lf.s:939    .text:0000000000000410 .LVL98
     /tmp/ccvQZ6Lf.s:967    .text:0000000000000444 .LVL102
     /tmp/ccvQZ6Lf.s:1083   .text:0000000000000528 .LVL115
     /tmp/ccvQZ6Lf.s:1139   .text:000000000000058c .LVL124
     /tmp/ccvQZ6Lf.s:1158   .text:00000000000005b4 .LVL126
     /tmp/ccvQZ6Lf.s:1161   .text:00000000000005c0 .LVL127
     /tmp/ccvQZ6Lf.s:1204   .text:000000000000060c .LVL132
     /tmp/ccvQZ6Lf.s:1207   .text:0000000000000618 .LVL133
     /tmp/ccvQZ6Lf.s:1214   .text:0000000000000628 .LVL135
     /tmp/ccvQZ6Lf.s:1217   .text:0000000000000634 .LVL136
     /tmp/ccvQZ6Lf.s:1223   .text:0000000000000644 .LVL137
     /tmp/ccvQZ6Lf.s:1226   .text:0000000000000650 .LVL138
     /tmp/ccvQZ6Lf.s:1237   .text:000000000000066c .LVL141
     /tmp/ccvQZ6Lf.s:1247   .text:0000000000000688 .LVL144
     /tmp/ccvQZ6Lf.s:534    .text:0000000000000154 .LFB21
     /tmp/ccvQZ6Lf.s:679    .text:0000000000000248 .LFE21
     /tmp/ccvQZ6Lf.s:4792   .debug_loc:0000000000000679 .LLST20
     /tmp/ccvQZ6Lf.s:4810   .debug_loc:00000000000006c5 .LLST21
GAS LISTING /tmp/ccvQZ6Lf.s 			page 47


     /tmp/ccvQZ6Lf.s:4828   .debug_loc:0000000000000711 .LLST22
     /tmp/ccvQZ6Lf.s:4846   .debug_loc:000000000000075d .LLST23
     /tmp/ccvQZ6Lf.s:4870   .debug_loc:00000000000007cd .LLST24
     /tmp/ccvQZ6Lf.s:568    .text:000000000000018c .LVL54
     /tmp/ccvQZ6Lf.s:576    .text:000000000000019c .LVL56
     /tmp/ccvQZ6Lf.s:588    .text:00000000000001b4 .LVL57
     /tmp/ccvQZ6Lf.s:599    .text:00000000000001c8 .LVL60
     /tmp/ccvQZ6Lf.s:621    .text:00000000000001ec .LBB38
     /tmp/ccvQZ6Lf.s:642    .text:0000000000000208 .LBE38
     /tmp/ccvQZ6Lf.s:4877   .debug_loc:00000000000007f0 .LLST25
     /tmp/ccvQZ6Lf.s:630    .text:00000000000001fc .LBB39
     /tmp/ccvQZ6Lf.s:641    .text:0000000000000208 .LBE39
     /tmp/ccvQZ6Lf.s:4884   .debug_loc:0000000000000813 .LLST26
     /tmp/ccvQZ6Lf.s:638    .text:0000000000000208 .LVL64
     /tmp/ccvQZ6Lf.s:628    .text:00000000000001fc .LVL62
     /tmp/ccvQZ6Lf.s:650    .text:0000000000000218 .LVL65
     /tmp/ccvQZ6Lf.s:657    .text:0000000000000228 .LVL66
     /tmp/ccvQZ6Lf.s:686    .text._ZN12ConsumerSync3runEv:0000000000000000 .LFB20
     /tmp/ccvQZ6Lf.s:713    .text._ZN12ConsumerSync3runEv:000000000000002c .LFE20
     /tmp/ccvQZ6Lf.s:4891   .debug_loc:0000000000000836 .LLST27
     /tmp/ccvQZ6Lf.s:702    .text._ZN12ConsumerSync3runEv:000000000000001c .LVL71
     /tmp/ccvQZ6Lf.s:5207   .debug_str:0000000000000123 .LASF98
     /tmp/ccvQZ6Lf.s:411    .text:00000000000000c0 .LFB16
     /tmp/ccvQZ6Lf.s:493    .text:0000000000000154 .LFE16
     /tmp/ccvQZ6Lf.s:4905   .debug_loc:000000000000086f .LLST15
     /tmp/ccvQZ6Lf.s:4919   .debug_loc:00000000000008a8 .LLST16
     /tmp/ccvQZ6Lf.s:4937   .debug_loc:00000000000008f4 .LLST17
     /tmp/ccvQZ6Lf.s:4955   .debug_loc:0000000000000940 .LLST18
     /tmp/ccvQZ6Lf.s:439    .text:00000000000000ec .LVL42
     /tmp/ccvQZ6Lf.s:452    .text:000000000000010c .LVL43
     /tmp/ccvQZ6Lf.s:476    .text:000000000000013c .LVL46
     /tmp/ccvQZ6Lf.s:500    .text._ZN12ProducerSync3runEv:0000000000000000 .LFB15
     /tmp/ccvQZ6Lf.s:527    .text._ZN12ProducerSync3runEv:000000000000002c .LFE15
     /tmp/ccvQZ6Lf.s:4979   .debug_loc:00000000000009b0 .LLST19
     /tmp/ccvQZ6Lf.s:516    .text._ZN12ProducerSync3runEv:000000000000001c .LVL50
     /tmp/ccvQZ6Lf.s:5399   .debug_str:0000000000000830 .LASF99
     /tmp/ccvQZ6Lf.s:264    .text:0000000000000000 .LFB11
     /tmp/ccvQZ6Lf.s:370    .text:00000000000000c0 .LFE11
     /tmp/ccvQZ6Lf.s:4993   .debug_loc:00000000000009e9 .LLST9
     /tmp/ccvQZ6Lf.s:5011   .debug_loc:0000000000000a35 .LLST10
     /tmp/ccvQZ6Lf.s:5029   .debug_loc:0000000000000a81 .LLST11
     /tmp/ccvQZ6Lf.s:5047   .debug_loc:0000000000000acd .LLST12
     /tmp/ccvQZ6Lf.s:5062   .debug_loc:0000000000000b16 .LLST13
     /tmp/ccvQZ6Lf.s:296    .text:0000000000000034 .LVL24
     /tmp/ccvQZ6Lf.s:302    .text:000000000000003c .LVL25
     /tmp/ccvQZ6Lf.s:313    .text:0000000000000054 .LVL27
     /tmp/ccvQZ6Lf.s:345    .text:0000000000000098 .LVL32
     /tmp/ccvQZ6Lf.s:350    .text:00000000000000a4 .LVL33
     /tmp/ccvQZ6Lf.s:377    .text._ZN16ProducerKeyboard3runEv:0000000000000000 .LFB10
     /tmp/ccvQZ6Lf.s:404    .text._ZN16ProducerKeyboard3runEv:000000000000002c .LFE10
     /tmp/ccvQZ6Lf.s:5086   .debug_loc:0000000000000b86 .LLST14
     /tmp/ccvQZ6Lf.s:393    .text._ZN16ProducerKeyboard3runEv:000000000000001c .LVL38
     /tmp/ccvQZ6Lf.s:5299   .debug_str:0000000000000410 .LASF100
     /tmp/ccvQZ6Lf.s:5325   .debug_str:00000000000004f2 .LASF101
     /tmp/ccvQZ6Lf.s:5411   .debug_str:00000000000008a7 .LASF102
     /tmp/ccvQZ6Lf.s:5175   .debug_str:0000000000000000 .LASF103
     /tmp/ccvQZ6Lf.s:5305   .debug_str:0000000000000446 .LASF104
GAS LISTING /tmp/ccvQZ6Lf.s 			page 48


     /tmp/ccvQZ6Lf.s:5297   .debug_str:00000000000003fd .LASF105
     /tmp/ccvQZ6Lf.s:5187   .debug_str:000000000000004e .LASF106
     /tmp/ccvQZ6Lf.s:5235   .debug_str:0000000000000226 .LASF107
     /tmp/ccvQZ6Lf.s:5241   .debug_str:0000000000000259 .LASF108
     /tmp/ccvQZ6Lf.s:5389   .debug_str:00000000000007e6 .LASF109
     /tmp/ccvQZ6Lf.s:5315   .debug_str:00000000000004a6 .LASF110
     /tmp/ccvQZ6Lf.s:5395   .debug_str:0000000000000807 .LASF122
     /tmp/ccvQZ6Lf.s:5253   .debug_str:00000000000002b8 .LASF123
     /tmp/ccvQZ6Lf.s:5281   .debug_str:000000000000039d .LASF111
     /tmp/ccvQZ6Lf.s:220    .text._ZN16ProducerKeyboardD0Ev:0000000000000000 .LVL16
     /tmp/ccvQZ6Lf.s:252    .text._ZN16ProducerKeyboardD0Ev:0000000000000044 .LVL20
     /tmp/ccvQZ6Lf.s:232    .text._ZN16ProducerKeyboardD0Ev:0000000000000018 .LVL17
     /tmp/ccvQZ6Lf.s:183    .text._ZN16ProducerKeyboardD2Ev:0000000000000000 .LVL14
     /tmp/ccvQZ6Lf.s:136    .text._ZN12ProducerSyncD0Ev:0000000000000000 .LVL9
     /tmp/ccvQZ6Lf.s:168    .text._ZN12ProducerSyncD0Ev:0000000000000044 .LVL13
     /tmp/ccvQZ6Lf.s:148    .text._ZN12ProducerSyncD0Ev:0000000000000018 .LVL10
     /tmp/ccvQZ6Lf.s:99     .text._ZN12ProducerSyncD2Ev:0000000000000000 .LVL7
     /tmp/ccvQZ6Lf.s:52     .text._ZN12ConsumerSyncD0Ev:0000000000000000 .LVL2
     /tmp/ccvQZ6Lf.s:84     .text._ZN12ConsumerSyncD0Ev:0000000000000044 .LVL6
     /tmp/ccvQZ6Lf.s:64     .text._ZN12ConsumerSyncD0Ev:0000000000000018 .LVL3
     /tmp/ccvQZ6Lf.s:15     .text._ZN12ConsumerSyncD2Ev:0000000000000000 .LVL0
     /tmp/ccvQZ6Lf.s:814    .text:00000000000002e4 .LVL79
     /tmp/ccvQZ6Lf.s:889    .text:00000000000003a0 .LVL91
     /tmp/ccvQZ6Lf.s:1196   .text:00000000000005fc .LVL130
     /tmp/ccvQZ6Lf.s:1200   .text:0000000000000600 .LVL131
     /tmp/ccvQZ6Lf.s:796    .text:00000000000002b4 .LVL75
     /tmp/ccvQZ6Lf.s:1178   .text:00000000000005d8 .LVL129
     /tmp/ccvQZ6Lf.s:1210   .text:000000000000061c .LVL134
     /tmp/ccvQZ6Lf.s:881    .text:0000000000000390 .LVL89
     /tmp/ccvQZ6Lf.s:1164   .text:00000000000005c4 .LVL128
     /tmp/ccvQZ6Lf.s:905    .text:00000000000003c8 .LVL94
     /tmp/ccvQZ6Lf.s:918    .text:00000000000003e4 .LVL96
     /tmp/ccvQZ6Lf.s:959    .text:0000000000000438 .LVL101
     /tmp/ccvQZ6Lf.s:920    .text:00000000000003e8 .LVL97
     /tmp/ccvQZ6Lf.s:972    .text:000000000000044c .LVL103
     /tmp/ccvQZ6Lf.s:1087   .text:000000000000052c .LVL116
     /tmp/ccvQZ6Lf.s:1229   .text:0000000000000654 .LVL139
     /tmp/ccvQZ6Lf.s:1240   .text:0000000000000670 .LVL142
     /tmp/ccvQZ6Lf.s:980    .text:000000000000045c .LVL104
     /tmp/ccvQZ6Lf.s:1031   .text:00000000000004cc .LVL108
     /tmp/ccvQZ6Lf.s:1040   .text:00000000000004d8 .LVL110
     /tmp/ccvQZ6Lf.s:1058   .text:00000000000004f8 .LVL112
     /tmp/ccvQZ6Lf.s:1069   .text:0000000000000510 .LVL114
     /tmp/ccvQZ6Lf.s:1098   .text:0000000000000544 .LVL118
     /tmp/ccvQZ6Lf.s:1100   .text:0000000000000548 .LVL119
     /tmp/ccvQZ6Lf.s:1106   .text:000000000000054c .LVL120
     /tmp/ccvQZ6Lf.s:1108   .text:0000000000000550 .LVL121
     /tmp/ccvQZ6Lf.s:898    .text:00000000000003b4 .LVL93
     /tmp/ccvQZ6Lf.s:910    .text:00000000000003cc .LVL95
     /tmp/ccvQZ6Lf.s:947    .text:0000000000000420 .LVL99
     /tmp/ccvQZ6Lf.s:537    .text:0000000000000154 .LVL51
     /tmp/ccvQZ6Lf.s:562    .text:0000000000000184 .LVL53
     /tmp/ccvQZ6Lf.s:671    .text:000000000000023c .LVL68
     /tmp/ccvQZ6Lf.s:668    .text:0000000000000238 .LVL67
     /tmp/ccvQZ6Lf.s:557    .text:000000000000017c .LVL52
     /tmp/ccvQZ6Lf.s:570    .text:0000000000000190 .LVL55
     /tmp/ccvQZ6Lf.s:593    .text:00000000000001bc .LVL58
GAS LISTING /tmp/ccvQZ6Lf.s 			page 49


     /tmp/ccvQZ6Lf.s:615    .text:00000000000001e4 .LVL61
     /tmp/ccvQZ6Lf.s:674    .text:0000000000000240 .LVL69
     /tmp/ccvQZ6Lf.s:597    .text:00000000000001c0 .LVL59
     /tmp/ccvQZ6Lf.s:636    .text:0000000000000200 .LVL63
     /tmp/ccvQZ6Lf.s:689    .text._ZN12ConsumerSync3runEv:0000000000000000 .LVL70
     /tmp/ccvQZ6Lf.s:414    .text:00000000000000c0 .LVL39
     /tmp/ccvQZ6Lf.s:434    .text:00000000000000e4 .LVL41
     /tmp/ccvQZ6Lf.s:485    .text:0000000000000148 .LVL47
     /tmp/ccvQZ6Lf.s:429    .text:00000000000000dc .LVL40
     /tmp/ccvQZ6Lf.s:457    .text:0000000000000114 .LVL44
     /tmp/ccvQZ6Lf.s:470    .text:0000000000000130 .LVL45
     /tmp/ccvQZ6Lf.s:488    .text:000000000000014c .LVL48
     /tmp/ccvQZ6Lf.s:503    .text._ZN12ProducerSync3runEv:0000000000000000 .LVL49
     /tmp/ccvQZ6Lf.s:267    .text:0000000000000000 .LVL21
     /tmp/ccvQZ6Lf.s:291    .text:000000000000002c .LVL23
     /tmp/ccvQZ6Lf.s:365    .text:00000000000000b8 .LVL36
     /tmp/ccvQZ6Lf.s:359    .text:00000000000000b0 .LVL34
     /tmp/ccvQZ6Lf.s:285    .text:0000000000000024 .LVL22
     /tmp/ccvQZ6Lf.s:305    .text:0000000000000040 .LVL26
     /tmp/ccvQZ6Lf.s:331    .text:0000000000000078 .LVL29
     /tmp/ccvQZ6Lf.s:341    .text:000000000000008c .LVL30
     /tmp/ccvQZ6Lf.s:343    .text:0000000000000090 .LVL31
     /tmp/ccvQZ6Lf.s:318    .text:000000000000005c .LVL28
     /tmp/ccvQZ6Lf.s:362    .text:00000000000000b4 .LVL35
     /tmp/ccvQZ6Lf.s:380    .text._ZN16ProducerKeyboard3runEv:0000000000000000 .LVL37
     /tmp/ccvQZ6Lf.s:1360   .debug_info:0000000000000000 .Ldebug_info0
     /tmp/ccvQZ6Lf.s:5      .text:0000000000000000 .Ltext0
     /tmp/ccvQZ6Lf.s:1351   .text:0000000000000688 .Letext0
     /tmp/ccvQZ6Lf.s:564    .text:0000000000000184 .LBB36
     /tmp/ccvQZ6Lf.s:578    .text:000000000000019c .LBE36
     /tmp/ccvQZ6Lf.s:583    .text:00000000000001a8 .LBB37
     /tmp/ccvQZ6Lf.s:620    .text:00000000000001ec .LBE37
     /tmp/ccvQZ6Lf.s:968    .text:0000000000000444 .LBB43
     /tmp/ccvQZ6Lf.s:1078   .text:0000000000000520 .LBE43
     /tmp/ccvQZ6Lf.s:1230   .text:0000000000000654 .LBB52
     /tmp/ccvQZ6Lf.s:1249   .text:0000000000000688 .LBE52
     /tmp/ccvQZ6Lf.s:982    .text:000000000000045c .LBE44
     /tmp/ccvQZ6Lf.s:1033   .text:00000000000004cc .LBB47
     /tmp/ccvQZ6Lf.s:1043   .text:00000000000004d8 .LBE47
     /tmp/ccvQZ6Lf.s:1254   .gcc_except_table:0000000000000000 .LLSDA22
                           .group:0000000000000000 _ZN12ConsumerSyncD5Ev
                           .group:0000000000000000 _ZN12ProducerSyncD5Ev
                           .group:0000000000000000 _ZN16ProducerKeyboardD5Ev

UNDEFINED SYMBOLS
_ZN6ThreadD2Ev
_ZN6ThreaddlEPv
_ZN6Thread8dispatchEv
getc
_ZN9BufferCPP3putEi
_ZN9Semaphore6signalEv
putc
_ZN9BufferCPP3getEv
__putc
_ZN9BufferCPP6getCntEv
_Z11printStringPKc
_Z9getStringPci
GAS LISTING /tmp/ccvQZ6Lf.s 			page 50


_Z11stringToIntPKc
_Z8printIntiii
_Znwm
_ZN9BufferCPPC1Ei
_ZN9SemaphorenwEm
_ZN9SemaphoreC1Ej
_ZN6ThreadnwEm
_ZN6ThreadC2Ev
_ZN6Thread5startEv
_ZN9Semaphore4waitEv
_ZN9BufferCPPD1Ev
_ZdlPv
_Unwind_Resume
_ZN9SemaphoredlEPv
__gxx_personality_v0
