GAS LISTING /tmp/ccWTGgHn.s 			page 1


   1              		.file	"ConsumerProducer_C_API_test.cpp"
   2              		.option pic
   3              		.option norelax
   4              		.text
   5              	.Ltext0:
   6              		.align	2
   8              	_ZL16producerKeyboardPv:
   9              	.LFB0:
  10              		.file 1 "test/ConsumerProducer_C_API_test.cpp"
   1:test/ConsumerProducer_C_API_test.cpp **** 
   2:test/ConsumerProducer_C_API_test.cpp **** #include "../h/syscall_c.hpp"
   3:test/ConsumerProducer_C_API_test.cpp **** #include "../h/syscall_cpp.hpp"
   4:test/ConsumerProducer_C_API_test.cpp **** 
   5:test/ConsumerProducer_C_API_test.cpp **** 
   6:test/ConsumerProducer_C_API_test.cpp **** #include "buffer.hpp"
   7:test/ConsumerProducer_C_API_test.cpp **** 
   8:test/ConsumerProducer_C_API_test.cpp **** static sem_t waitForAll;
   9:test/ConsumerProducer_C_API_test.cpp **** 
  10:test/ConsumerProducer_C_API_test.cpp **** struct thread_data {
  11:test/ConsumerProducer_C_API_test.cpp ****     int id;
  12:test/ConsumerProducer_C_API_test.cpp ****     Buffer *buffer;
  13:test/ConsumerProducer_C_API_test.cpp ****     sem_t wait;
  14:test/ConsumerProducer_C_API_test.cpp **** };
  15:test/ConsumerProducer_C_API_test.cpp **** 
  16:test/ConsumerProducer_C_API_test.cpp **** static volatile int threadEnd = 0;
  17:test/ConsumerProducer_C_API_test.cpp **** 
  18:test/ConsumerProducer_C_API_test.cpp **** static void producerKeyboard(void *arg) {
  11              		.loc 1 18 41
  12              		.cfi_startproc
  13              	.LVL0:
  14 0000 130101FE 		addi	sp,sp,-32
  15              		.cfi_def_cfa_offset 32
  16 0004 233C1100 		sd	ra,24(sp)
  17 0008 23388100 		sd	s0,16(sp)
  18 000c 23349100 		sd	s1,8(sp)
  19 0010 23302101 		sd	s2,0(sp)
  20              		.cfi_offset 1, -8
  21              		.cfi_offset 8, -16
  22              		.cfi_offset 9, -24
  23              		.cfi_offset 18, -32
  24 0014 13040102 		addi	s0,sp,32
  25              		.cfi_def_cfa 8, 0
  26 0018 93040500 		mv	s1,a0
  19:test/ConsumerProducer_C_API_test.cpp ****     struct thread_data *data = (struct thread_data *) arg;
  27              		.loc 1 19 5
  28              	.LVL1:
  20:test/ConsumerProducer_C_API_test.cpp **** 
  21:test/ConsumerProducer_C_API_test.cpp ****     int key;
  29              		.loc 1 21 5
  22:test/ConsumerProducer_C_API_test.cpp ****     int i = 0;
  30              		.loc 1 22 5
  31              		.loc 1 22 9 is_stmt 0
  32 001c 13090000 		li	s2,0
  33 0020 6F00C000 		j	.L2
  34              	.LVL2:
  35              	.L6:
  23:test/ConsumerProducer_C_API_test.cpp ****     while ((key = getc()) != 0x1b) {
GAS LISTING /tmp/ccWTGgHn.s 			page 2


  24:test/ConsumerProducer_C_API_test.cpp ****         data->buffer->put(key);
  25:test/ConsumerProducer_C_API_test.cpp ****         i++;
  26:test/ConsumerProducer_C_API_test.cpp **** 
  27:test/ConsumerProducer_C_API_test.cpp ****         if (i % (10 * data->id) == 0) {
  28:test/ConsumerProducer_C_API_test.cpp ****             thread_dispatch();
  36              		.loc 1 28 13 is_stmt 1
  37              		.loc 1 28 28 is_stmt 0
  38 0024 97000000 		call	thread_dispatch@plt
  38      E7800000 
  39              	.LVL3:
  40              	.L2:
  23:test/ConsumerProducer_C_API_test.cpp ****     while ((key = getc()) != 0x1b) {
  41              		.loc 1 23 5 is_stmt 1
  23:test/ConsumerProducer_C_API_test.cpp ****     while ((key = getc()) != 0x1b) {
  42              		.loc 1 23 27
  23:test/ConsumerProducer_C_API_test.cpp ****     while ((key = getc()) != 0x1b) {
  43              		.loc 1 23 23 is_stmt 0
  44 002c 97000000 		call	getc@plt
  44      E7800000 
  45              	.LVL4:
  23:test/ConsumerProducer_C_API_test.cpp ****     while ((key = getc()) != 0x1b) {
  46              		.loc 1 23 17
  47 0034 9B050500 		sext.w	a1,a0
  48              	.LVL5:
  23:test/ConsumerProducer_C_API_test.cpp ****     while ((key = getc()) != 0x1b) {
  49              		.loc 1 23 27
  50 0038 9307B001 		li	a5,27
  51 003c 638AF502 		beq	a1,a5,.L3
  24:test/ConsumerProducer_C_API_test.cpp ****         i++;
  52              		.loc 1 24 9 is_stmt 1
  24:test/ConsumerProducer_C_API_test.cpp ****         i++;
  53              		.loc 1 24 26 is_stmt 0
  54 0040 03B58400 		ld	a0,8(s1)
  55 0044 97000000 		call	_ZN6Buffer3putEi@plt
  55      E7800000 
  56              	.LVL6:
  25:test/ConsumerProducer_C_API_test.cpp **** 
  57              		.loc 1 25 9 is_stmt 1
  25:test/ConsumerProducer_C_API_test.cpp **** 
  58              		.loc 1 25 10 is_stmt 0
  59 004c 1B071900 		addiw	a4,s2,1
  60 0050 1B090700 		sext.w	s2,a4
  61              	.LVL7:
  27:test/ConsumerProducer_C_API_test.cpp ****             thread_dispatch();
  62              		.loc 1 27 9 is_stmt 1
  27:test/ConsumerProducer_C_API_test.cpp ****             thread_dispatch();
  63              		.loc 1 27 29 is_stmt 0
  64 0054 83A60400 		lw	a3,0(s1)
  27:test/ConsumerProducer_C_API_test.cpp ****             thread_dispatch();
  65              		.loc 1 27 21
  66 0058 9B972600 		slliw	a5,a3,2
  67 005c BB87D700 		addw	a5,a5,a3
  68 0060 9B971700 		slliw	a5,a5,1
  27:test/ConsumerProducer_C_API_test.cpp ****             thread_dispatch();
  69              		.loc 1 27 15
  70 0064 BB67F702 		remw	a5,a4,a5
  27:test/ConsumerProducer_C_API_test.cpp ****             thread_dispatch();
GAS LISTING /tmp/ccWTGgHn.s 			page 3


  71              		.loc 1 27 9
  72 0068 E39207FC 		bnez	a5,.L2
  73 006c 6FF09FFB 		j	.L6
  74              	.LVL8:
  75              	.L3:
  29:test/ConsumerProducer_C_API_test.cpp ****         }
  30:test/ConsumerProducer_C_API_test.cpp ****     }
  31:test/ConsumerProducer_C_API_test.cpp **** 
  32:test/ConsumerProducer_C_API_test.cpp ****     threadEnd = 1;
  76              		.loc 1 32 5 is_stmt 1
  77              		.loc 1 32 15 is_stmt 0
  78 0070 93071000 		li	a5,1
  79 0074 17070000 		sw	a5,.LANCHOR0,a4
  79      2320F700 
  33:test/ConsumerProducer_C_API_test.cpp ****     data->buffer->put('!');
  80              		.loc 1 33 5 is_stmt 1
  81              		.loc 1 33 22 is_stmt 0
  82 007c 93051002 		li	a1,33
  83              	.LVL9:
  84 0080 03B58400 		ld	a0,8(s1)
  85              	.LVL10:
  86 0084 97000000 		call	_ZN6Buffer3putEi@plt
  86      E7800000 
  87              	.LVL11:
  34:test/ConsumerProducer_C_API_test.cpp **** 
  35:test/ConsumerProducer_C_API_test.cpp ****     sem_signal(data->wait);
  88              		.loc 1 35 5 is_stmt 1
  89              		.loc 1 35 15 is_stmt 0
  90 008c 03A50401 		lw	a0,16(s1)
  91 0090 97000000 		call	sem_signal@plt
  91      E7800000 
  92              	.LVL12:
  36:test/ConsumerProducer_C_API_test.cpp **** }
  93              		.loc 1 36 1
  94 0098 83308101 		ld	ra,24(sp)
  95              		.cfi_restore 1
  96 009c 03340101 		ld	s0,16(sp)
  97              		.cfi_restore 8
  98              		.cfi_def_cfa 2, 32
  99 00a0 83348100 		ld	s1,8(sp)
 100              		.cfi_restore 9
 101              	.LVL13:
 102 00a4 03390100 		ld	s2,0(sp)
 103              		.cfi_restore 18
 104              	.LVL14:
 105 00a8 13010102 		addi	sp,sp,32
 106              		.cfi_def_cfa_offset 0
 107 00ac 67800000 		jr	ra
 108              		.cfi_endproc
 109              	.LFE0:
 111              		.align	2
 113              	_ZL8producerPv:
 114              	.LFB1:
  37:test/ConsumerProducer_C_API_test.cpp **** 
  38:test/ConsumerProducer_C_API_test.cpp **** static void producer(void *arg) {
 115              		.loc 1 38 33 is_stmt 1
 116              		.cfi_startproc
GAS LISTING /tmp/ccWTGgHn.s 			page 4


 117              	.LVL15:
 118 00b0 130101FE 		addi	sp,sp,-32
 119              		.cfi_def_cfa_offset 32
 120 00b4 233C1100 		sd	ra,24(sp)
 121 00b8 23388100 		sd	s0,16(sp)
 122 00bc 23349100 		sd	s1,8(sp)
 123 00c0 23302101 		sd	s2,0(sp)
 124              		.cfi_offset 1, -8
 125              		.cfi_offset 8, -16
 126              		.cfi_offset 9, -24
 127              		.cfi_offset 18, -32
 128 00c4 13040102 		addi	s0,sp,32
 129              		.cfi_def_cfa 8, 0
 130 00c8 93040500 		mv	s1,a0
  39:test/ConsumerProducer_C_API_test.cpp ****     struct thread_data *data = (struct thread_data *) arg;
 131              		.loc 1 39 5
 132              	.LVL16:
  40:test/ConsumerProducer_C_API_test.cpp **** 
  41:test/ConsumerProducer_C_API_test.cpp ****     int i = 0;
 133              		.loc 1 41 5
 134              		.loc 1 41 9 is_stmt 0
 135 00cc 13090000 		li	s2,0
 136 00d0 6F00C000 		j	.L8
 137              	.LVL17:
 138              	.L12:
  42:test/ConsumerProducer_C_API_test.cpp ****     while (!threadEnd) {
  43:test/ConsumerProducer_C_API_test.cpp ****         data->buffer->put(data->id + '0');
  44:test/ConsumerProducer_C_API_test.cpp ****         i++;
  45:test/ConsumerProducer_C_API_test.cpp **** 
  46:test/ConsumerProducer_C_API_test.cpp ****         if (i % (10 * data->id) == 0) {
  47:test/ConsumerProducer_C_API_test.cpp ****             thread_dispatch();
 139              		.loc 1 47 13 is_stmt 1
 140              		.loc 1 47 28 is_stmt 0
 141 00d4 97000000 		call	thread_dispatch@plt
 141      E7800000 
 142              	.LVL18:
 143              	.L8:
  42:test/ConsumerProducer_C_API_test.cpp ****     while (!threadEnd) {
 144              		.loc 1 42 5 is_stmt 1
  42:test/ConsumerProducer_C_API_test.cpp ****     while (!threadEnd) {
 145              		.loc 1 42 12
 146 00dc 97070000 		lw	a5,.LANCHOR0
 146      83A70700 
 147 00e4 639E0702 		bnez	a5,.L9
  43:test/ConsumerProducer_C_API_test.cpp ****         i++;
 148              		.loc 1 43 9
  43:test/ConsumerProducer_C_API_test.cpp ****         i++;
 149              		.loc 1 43 33 is_stmt 0
 150 00e8 83A50400 		lw	a1,0(s1)
  43:test/ConsumerProducer_C_API_test.cpp ****         i++;
 151              		.loc 1 43 26
 152 00ec 9B850503 		addiw	a1,a1,48
 153 00f0 03B58400 		ld	a0,8(s1)
 154 00f4 97000000 		call	_ZN6Buffer3putEi@plt
 154      E7800000 
 155              	.LVL19:
  44:test/ConsumerProducer_C_API_test.cpp **** 
GAS LISTING /tmp/ccWTGgHn.s 			page 5


 156              		.loc 1 44 9 is_stmt 1
  44:test/ConsumerProducer_C_API_test.cpp **** 
 157              		.loc 1 44 10 is_stmt 0
 158 00fc 1B071900 		addiw	a4,s2,1
 159 0100 1B090700 		sext.w	s2,a4
 160              	.LVL20:
  46:test/ConsumerProducer_C_API_test.cpp ****             thread_dispatch();
 161              		.loc 1 46 9 is_stmt 1
  46:test/ConsumerProducer_C_API_test.cpp ****             thread_dispatch();
 162              		.loc 1 46 29 is_stmt 0
 163 0104 83A60400 		lw	a3,0(s1)
  46:test/ConsumerProducer_C_API_test.cpp ****             thread_dispatch();
 164              		.loc 1 46 21
 165 0108 9B972600 		slliw	a5,a3,2
 166 010c BB87D700 		addw	a5,a5,a3
 167 0110 9B971700 		slliw	a5,a5,1
  46:test/ConsumerProducer_C_API_test.cpp ****             thread_dispatch();
 168              		.loc 1 46 15
 169 0114 BB67F702 		remw	a5,a4,a5
  46:test/ConsumerProducer_C_API_test.cpp ****             thread_dispatch();
 170              		.loc 1 46 9
 171 0118 E39207FC 		bnez	a5,.L8
 172 011c 6FF09FFB 		j	.L12
 173              	.LVL21:
 174              	.L9:
  48:test/ConsumerProducer_C_API_test.cpp ****         }
  49:test/ConsumerProducer_C_API_test.cpp ****     }
  50:test/ConsumerProducer_C_API_test.cpp **** 
  51:test/ConsumerProducer_C_API_test.cpp ****     sem_signal(data->wait);
 175              		.loc 1 51 5 is_stmt 1
 176              		.loc 1 51 15 is_stmt 0
 177 0120 03A50401 		lw	a0,16(s1)
 178 0124 97000000 		call	sem_signal@plt
 178      E7800000 
 179              	.LVL22:
  52:test/ConsumerProducer_C_API_test.cpp **** }
 180              		.loc 1 52 1
 181 012c 83308101 		ld	ra,24(sp)
 182              		.cfi_restore 1
 183 0130 03340101 		ld	s0,16(sp)
 184              		.cfi_restore 8
 185              		.cfi_def_cfa 2, 32
 186 0134 83348100 		ld	s1,8(sp)
 187              		.cfi_restore 9
 188              	.LVL23:
 189 0138 03390100 		ld	s2,0(sp)
 190              		.cfi_restore 18
 191              	.LVL24:
 192 013c 13010102 		addi	sp,sp,32
 193              		.cfi_def_cfa_offset 0
 194 0140 67800000 		jr	ra
 195              		.cfi_endproc
 196              	.LFE1:
 198              		.align	2
 200              	_ZL8consumerPv:
 201              	.LFB2:
  53:test/ConsumerProducer_C_API_test.cpp **** 
GAS LISTING /tmp/ccWTGgHn.s 			page 6


  54:test/ConsumerProducer_C_API_test.cpp **** static void consumer(void *arg) {
 202              		.loc 1 54 33 is_stmt 1
 203              		.cfi_startproc
 204              	.LVL25:
 205 0144 130101FD 		addi	sp,sp,-48
 206              		.cfi_def_cfa_offset 48
 207 0148 23341102 		sd	ra,40(sp)
 208 014c 23308102 		sd	s0,32(sp)
 209 0150 233C9100 		sd	s1,24(sp)
 210 0154 23382101 		sd	s2,16(sp)
 211 0158 23343101 		sd	s3,8(sp)
 212              		.cfi_offset 1, -8
 213              		.cfi_offset 8, -16
 214              		.cfi_offset 9, -24
 215              		.cfi_offset 18, -32
 216              		.cfi_offset 19, -40
 217 015c 13040103 		addi	s0,sp,48
 218              		.cfi_def_cfa 8, 0
 219 0160 13090500 		mv	s2,a0
  55:test/ConsumerProducer_C_API_test.cpp ****     struct thread_data *data = (struct thread_data *) arg;
 220              		.loc 1 55 5
 221              	.LVL26:
  56:test/ConsumerProducer_C_API_test.cpp **** 
  57:test/ConsumerProducer_C_API_test.cpp ****     int i = 0;
 222              		.loc 1 57 5
 223              		.loc 1 57 9 is_stmt 0
 224 0164 93090000 		li	s3,0
 225 0168 6F00C001 		j	.L14
 226              	.LVL27:
 227              	.L20:
 228              	.LBB2:
  58:test/ConsumerProducer_C_API_test.cpp ****     while (!threadEnd) {
  59:test/ConsumerProducer_C_API_test.cpp ****         int key = data->buffer->get();
  60:test/ConsumerProducer_C_API_test.cpp ****         i++;
  61:test/ConsumerProducer_C_API_test.cpp **** 
  62:test/ConsumerProducer_C_API_test.cpp ****         putc(key);
  63:test/ConsumerProducer_C_API_test.cpp **** 
  64:test/ConsumerProducer_C_API_test.cpp ****         if (i % (5 * data->id) == 0) {
  65:test/ConsumerProducer_C_API_test.cpp ****             thread_dispatch();
 229              		.loc 1 65 13 is_stmt 1
 230              		.loc 1 65 28 is_stmt 0
 231 016c 97000000 		call	thread_dispatch@plt
 231      E7800000 
 232              	.LVL28:
 233 0174 6F000005 		j	.L16
 234              	.LVL29:
 235              	.L21:
  66:test/ConsumerProducer_C_API_test.cpp ****         }
  67:test/ConsumerProducer_C_API_test.cpp **** 
  68:test/ConsumerProducer_C_API_test.cpp ****         if (i % 80 == 0) {
  69:test/ConsumerProducer_C_API_test.cpp ****             putc('\n');
 236              		.loc 1 69 13 is_stmt 1
 237              		.loc 1 69 17 is_stmt 0
 238 0178 1305A000 		li	a0,10
 239 017c 97000000 		call	putc@plt
 239      E7800000 
 240              	.LVL30:
GAS LISTING /tmp/ccWTGgHn.s 			page 7


 241              	.L14:
 242              	.LBE2:
  58:test/ConsumerProducer_C_API_test.cpp ****     while (!threadEnd) {
 243              		.loc 1 58 5 is_stmt 1
  58:test/ConsumerProducer_C_API_test.cpp ****     while (!threadEnd) {
 244              		.loc 1 58 12
 245 0184 97070000 		lw	a5,.LANCHOR0
 245      83A70700 
 246 018c 63900706 		bnez	a5,.L15
 247              	.LBB3:
  59:test/ConsumerProducer_C_API_test.cpp ****         i++;
 248              		.loc 1 59 9
  59:test/ConsumerProducer_C_API_test.cpp ****         i++;
 249              		.loc 1 59 36 is_stmt 0
 250 0190 03358900 		ld	a0,8(s2)
 251 0194 97000000 		call	_ZN6Buffer3getEv@plt
 251      E7800000 
 252              	.LVL31:
  60:test/ConsumerProducer_C_API_test.cpp **** 
 253              		.loc 1 60 9 is_stmt 1
  60:test/ConsumerProducer_C_API_test.cpp **** 
 254              		.loc 1 60 10 is_stmt 0
 255 019c 9B841900 		addiw	s1,s3,1
 256 01a0 9B890400 		sext.w	s3,s1
 257              	.LVL32:
  62:test/ConsumerProducer_C_API_test.cpp **** 
 258              		.loc 1 62 9 is_stmt 1
  62:test/ConsumerProducer_C_API_test.cpp **** 
 259              		.loc 1 62 13 is_stmt 0
 260 01a4 1375F50F 		andi	a0,a0,0xff
 261              	.LVL33:
 262 01a8 97000000 		call	putc@plt
 262      E7800000 
 263              	.LVL34:
  64:test/ConsumerProducer_C_API_test.cpp ****             thread_dispatch();
 264              		.loc 1 64 9 is_stmt 1
  64:test/ConsumerProducer_C_API_test.cpp ****             thread_dispatch();
 265              		.loc 1 64 28 is_stmt 0
 266 01b0 03270900 		lw	a4,0(s2)
  64:test/ConsumerProducer_C_API_test.cpp ****             thread_dispatch();
 267              		.loc 1 64 20
 268 01b4 9B172700 		slliw	a5,a4,2
 269 01b8 BB87E700 		addw	a5,a5,a4
  64:test/ConsumerProducer_C_API_test.cpp ****             thread_dispatch();
 270              		.loc 1 64 15
 271 01bc BBE7F402 		remw	a5,s1,a5
  64:test/ConsumerProducer_C_API_test.cpp ****             thread_dispatch();
 272              		.loc 1 64 9
 273 01c0 E38607FA 		beqz	a5,.L20
 274              	.L16:
  68:test/ConsumerProducer_C_API_test.cpp ****             putc('\n');
 275              		.loc 1 68 9 is_stmt 1
  68:test/ConsumerProducer_C_API_test.cpp ****             putc('\n');
 276              		.loc 1 68 15 is_stmt 0
 277 01c4 93070005 		li	a5,80
 278 01c8 BBE4F402 		remw	s1,s1,a5
 279              	.LVL35:
GAS LISTING /tmp/ccWTGgHn.s 			page 8


  68:test/ConsumerProducer_C_API_test.cpp ****             putc('\n');
 280              		.loc 1 68 9
 281 01cc E39C04FA 		bnez	s1,.L14
 282 01d0 6FF09FFA 		j	.L21
 283              	.L22:
 284              	.LBE3:
 285              	.LBB4:
  70:test/ConsumerProducer_C_API_test.cpp ****         }
  71:test/ConsumerProducer_C_API_test.cpp ****     }
  72:test/ConsumerProducer_C_API_test.cpp **** 
  73:test/ConsumerProducer_C_API_test.cpp ****     while (data->buffer->getCnt() > 0) {
  74:test/ConsumerProducer_C_API_test.cpp ****         int key = data->buffer->get();
 286              		.loc 1 74 9 is_stmt 1
 287              		.loc 1 74 36 is_stmt 0
 288 01d4 03358900 		ld	a0,8(s2)
 289 01d8 97000000 		call	_ZN6Buffer3getEv@plt
 289      E7800000 
 290              	.LVL36:
  75:test/ConsumerProducer_C_API_test.cpp ****         putc(key);
 291              		.loc 1 75 9 is_stmt 1
 292              		.loc 1 75 13 is_stmt 0
 293 01e0 1375F50F 		andi	a0,a0,0xff
 294              	.LVL37:
 295 01e4 97000000 		call	putc@plt
 295      E7800000 
 296              	.LVL38:
 297              	.L15:
 298              	.LBE4:
  73:test/ConsumerProducer_C_API_test.cpp ****         int key = data->buffer->get();
 299              		.loc 1 73 5 is_stmt 1
  73:test/ConsumerProducer_C_API_test.cpp ****         int key = data->buffer->get();
 300              		.loc 1 73 35
  73:test/ConsumerProducer_C_API_test.cpp ****         int key = data->buffer->get();
 301              		.loc 1 73 32 is_stmt 0
 302 01ec 03358900 		ld	a0,8(s2)
 303 01f0 97000000 		call	_ZN6Buffer6getCntEv@plt
 303      E7800000 
 304              	.LVL39:
  73:test/ConsumerProducer_C_API_test.cpp ****         int key = data->buffer->get();
 305              		.loc 1 73 35
 306 01f8 E34EA0FC 		bgtz	a0,.L22
  76:test/ConsumerProducer_C_API_test.cpp ****     }
  77:test/ConsumerProducer_C_API_test.cpp **** 
  78:test/ConsumerProducer_C_API_test.cpp ****     sem_signal(data->wait);
 307              		.loc 1 78 5 is_stmt 1
 308              		.loc 1 78 15 is_stmt 0
 309 01fc 03250901 		lw	a0,16(s2)
 310 0200 97000000 		call	sem_signal@plt
 310      E7800000 
 311              	.LVL40:
  79:test/ConsumerProducer_C_API_test.cpp **** }
 312              		.loc 1 79 1
 313 0208 83308102 		ld	ra,40(sp)
 314              		.cfi_restore 1
 315 020c 03340102 		ld	s0,32(sp)
 316              		.cfi_restore 8
 317              		.cfi_def_cfa 2, 48
GAS LISTING /tmp/ccWTGgHn.s 			page 9


 318 0210 83348101 		ld	s1,24(sp)
 319              		.cfi_restore 9
 320 0214 03390101 		ld	s2,16(sp)
 321              		.cfi_restore 18
 322              	.LVL41:
 323 0218 83398100 		ld	s3,8(sp)
 324              		.cfi_restore 19
 325              	.LVL42:
 326 021c 13010103 		addi	sp,sp,48
 327              		.cfi_def_cfa_offset 0
 328 0220 67800000 		jr	ra
 329              		.cfi_endproc
 330              	.LFE2:
 332              		.section	.rodata.str1.8,"aMS",@progbits,1
 333              		.align	3
 334              	.LC0:
 335 0000 556E6573 		.string	"Unesite broj proizvodjaca?\n"
 335      69746520 
 335      62726F6A 
 335      2070726F 
 335      697A766F 
 336 001c 00000000 		.align	3
 337              	.LC1:
 338 0020 556E6573 		.string	"Unesite velicinu bafera?\n"
 338      69746520 
 338      76656C69 
 338      63696E75 
 338      20626166 
 339 003a 00000000 		.align	3
 339      0000
 340              	.LC2:
 341 0040 42726F6A 		.string	"Broj proizvodjaca "
 341      2070726F 
 341      697A766F 
 341      646A6163 
 341      612000
 342 0053 00000000 		.align	3
 342      00
 343              	.LC3:
 344 0058 20692076 		.string	" i velicina bafera "
 344      656C6963 
 344      696E6120 
 344      62616665 
 344      72612000 
 345 006c 00000000 		.align	3
 346              	.LC4:
 347 0070 2E0A00   		.string	".\n"
 348              		.text
 349              		.align	2
 350              		.globl	_Z22producerConsumer_C_APIv
 352              	_Z22producerConsumer_C_APIv:
 353              	.LFB3:
  80:test/ConsumerProducer_C_API_test.cpp **** 
  81:test/ConsumerProducer_C_API_test.cpp **** void producerConsumer_C_API() {
 354              		.loc 1 81 31 is_stmt 1
 355              		.cfi_startproc
 356              		.cfi_personality 0x9b,DW.ref.__gxx_personality_v0
GAS LISTING /tmp/ccWTGgHn.s 			page 10


 357              		.cfi_lsda 0x1b,.LLSDA3
 358 0224 130101FA 		addi	sp,sp,-96
 359              		.cfi_def_cfa_offset 96
 360 0228 233C1104 		sd	ra,88(sp)
 361 022c 23388104 		sd	s0,80(sp)
 362 0230 23349104 		sd	s1,72(sp)
 363 0234 23302105 		sd	s2,64(sp)
 364 0238 233C3103 		sd	s3,56(sp)
 365              		.cfi_offset 1, -8
 366              		.cfi_offset 8, -16
 367              		.cfi_offset 9, -24
 368              		.cfi_offset 18, -32
 369              		.cfi_offset 19, -40
 370 023c 13040106 		addi	s0,sp,96
 371              		.cfi_def_cfa 8, 0
  82:test/ConsumerProducer_C_API_test.cpp ****     //char input[30];
  83:test/ConsumerProducer_C_API_test.cpp ****     int n, threadNum;
 372              		.loc 1 83 5
  84:test/ConsumerProducer_C_API_test.cpp **** 
  85:test/ConsumerProducer_C_API_test.cpp ****     printString("Unesite broj proizvodjaca?\n");
 373              		.loc 1 85 5
 374              		.loc 1 85 16 is_stmt 0
 375 0240 17050000 		lla	a0,.LC0
 375      13050500 
 376              	.LEHB0:
 377 0248 97000000 		call	_Z11printStringPKc@plt
 377      E7800000 
 378              	.LVL43:
  86:test/ConsumerProducer_C_API_test.cpp ****     //getString(input, 30);
  87:test/ConsumerProducer_C_API_test.cpp ****     threadNum = 10;//stringToInt(input);
 379              		.loc 1 87 5 is_stmt 1
  88:test/ConsumerProducer_C_API_test.cpp **** 
  89:test/ConsumerProducer_C_API_test.cpp ****     printString("Unesite velicinu bafera?\n");
 380              		.loc 1 89 5
 381              		.loc 1 89 16 is_stmt 0
 382 0250 17050000 		lla	a0,.LC1
 382      13050500 
 383 0258 97000000 		call	_Z11printStringPKc@plt
 383      E7800000 
 384              	.LVL44:
  90:test/ConsumerProducer_C_API_test.cpp ****     //getString(input, 30);
  91:test/ConsumerProducer_C_API_test.cpp ****     n = 15;//stringToInt(input);
 385              		.loc 1 91 5 is_stmt 1
  92:test/ConsumerProducer_C_API_test.cpp **** 
  93:test/ConsumerProducer_C_API_test.cpp ****     printString("Broj proizvodjaca "); printInt(threadNum);
 386              		.loc 1 93 5
 387              		.loc 1 93 16 is_stmt 0
 388 0260 17050000 		lla	a0,.LC2
 388      13050500 
 389 0268 97000000 		call	_Z11printStringPKc@plt
 389      E7800000 
 390              	.LVL45:
 391              		.loc 1 93 40 is_stmt 1
 392              		.loc 1 93 48 is_stmt 0
 393 0270 13060000 		li	a2,0
 394 0274 9305A000 		li	a1,10
 395 0278 1305A000 		li	a0,10
GAS LISTING /tmp/ccWTGgHn.s 			page 11


 396 027c 97000000 		call	_Z8printIntiii@plt
 396      E7800000 
 397              	.LVL46:
  94:test/ConsumerProducer_C_API_test.cpp ****     printString(" i velicina bafera "); printInt(n);
 398              		.loc 1 94 5 is_stmt 1
 399              		.loc 1 94 16 is_stmt 0
 400 0284 17050000 		lla	a0,.LC3
 400      13050500 
 401 028c 97000000 		call	_Z11printStringPKc@plt
 401      E7800000 
 402              	.LVL47:
 403              		.loc 1 94 41 is_stmt 1
 404              		.loc 1 94 49 is_stmt 0
 405 0294 13060000 		li	a2,0
 406 0298 9305A000 		li	a1,10
 407 029c 1305F000 		li	a0,15
 408 02a0 97000000 		call	_Z8printIntiii@plt
 408      E7800000 
 409              	.LVL48:
  95:test/ConsumerProducer_C_API_test.cpp ****     printString(".\n");
 410              		.loc 1 95 5 is_stmt 1
 411              		.loc 1 95 16 is_stmt 0
 412 02a8 17050000 		lla	a0,.LC4
 412      13050500 
 413 02b0 97000000 		call	_Z11printStringPKc@plt
 413      E7800000 
 414              	.LVL49:
  96:test/ConsumerProducer_C_API_test.cpp **** 
  97:test/ConsumerProducer_C_API_test.cpp ****     if(threadNum > n) {
 415              		.loc 1 97 5 is_stmt 1
  98:test/ConsumerProducer_C_API_test.cpp ****         printString("Broj proizvodjaca ne sme biti manji od velicine bafera!\n");
  99:test/ConsumerProducer_C_API_test.cpp ****         return;
 100:test/ConsumerProducer_C_API_test.cpp ****     } else if (threadNum < 1) {
 416              		.loc 1 100 12
 101:test/ConsumerProducer_C_API_test.cpp ****         printString("Broj proizvodjaca mora biti veci od nula!\n");
 102:test/ConsumerProducer_C_API_test.cpp ****         return;
 103:test/ConsumerProducer_C_API_test.cpp ****     }
 104:test/ConsumerProducer_C_API_test.cpp **** 
 105:test/ConsumerProducer_C_API_test.cpp ****     Buffer *buffer = new Buffer(n);
 417              		.loc 1 105 5
 418              		.loc 1 105 34 is_stmt 0
 419 02b8 13058002 		li	a0,40
 420 02bc 97000000 		call	_Znwm@plt
 420      E7800000 
 421              	.LVL50:
 422              	.LEHE0:
 423 02c4 93090500 		mv	s3,a0
 424 02c8 9305F000 		li	a1,15
 425              	.LEHB1:
 426 02cc 97000000 		call	_ZN6BufferC1Ei@plt
 426      E7800000 
 427              	.LVL51:
 428              	.LEHE1:
 106:test/ConsumerProducer_C_API_test.cpp **** 
 107:test/ConsumerProducer_C_API_test.cpp **** 
 108:test/ConsumerProducer_C_API_test.cpp ****     sem_open(&waitForAll, 0);
 429              		.loc 1 108 5 is_stmt 1 discriminator 3
GAS LISTING /tmp/ccWTGgHn.s 			page 12


 430              		.loc 1 108 13 is_stmt 0 discriminator 3
 431 02d4 93050000 		li	a1,0
 432 02d8 17050000 		lla	a0,.LANCHOR0+4
 432      13050500 
 433              	.LEHB2:
 434 02e0 97000000 		call	sem_open@plt
 434      E7800000 
 435              	.LVL52:
 109:test/ConsumerProducer_C_API_test.cpp **** 
 110:test/ConsumerProducer_C_API_test.cpp ****     thread_t threads[threadNum];
 436              		.loc 1 110 5 is_stmt 1 discriminator 3
 111:test/ConsumerProducer_C_API_test.cpp ****     thread_t consumerThread;
 437              		.loc 1 111 5 discriminator 3
 112:test/ConsumerProducer_C_API_test.cpp **** 
 113:test/ConsumerProducer_C_API_test.cpp ****     struct thread_data data[threadNum + 1];
 438              		.loc 1 113 5 discriminator 3
 439              		.loc 1 113 24 is_stmt 0 discriminator 3
 440 02e8 130101EF 		addi	sp,sp,-272
 441              	.LVL53:
 442 02ec 13090100 		mv	s2,sp
 443              	.LVL54:
 114:test/ConsumerProducer_C_API_test.cpp **** 
 115:test/ConsumerProducer_C_API_test.cpp ****     data[threadNum].id = threadNum;
 444              		.loc 1 115 5 is_stmt 1 discriminator 3
 445              		.loc 1 115 24 is_stmt 0 discriminator 3
 446 02f0 9307A000 		li	a5,10
 447 02f4 2328F90E 		sw	a5,240(s2)
 116:test/ConsumerProducer_C_API_test.cpp ****     data[threadNum].buffer = buffer;
 448              		.loc 1 116 5 is_stmt 1 discriminator 3
 449              		.loc 1 116 28 is_stmt 0 discriminator 3
 450 02f8 233C390F 		sd	s3,248(s2)
 117:test/ConsumerProducer_C_API_test.cpp ****     data[threadNum].wait = waitForAll;
 451              		.loc 1 117 5 is_stmt 1 discriminator 3
 452              		.loc 1 117 26 is_stmt 0 discriminator 3
 453 02fc 97070000 		lw	a5,.LANCHOR0+4
 453      83A70700 
 454 0304 2320F910 		sw	a5,256(s2)
 118:test/ConsumerProducer_C_API_test.cpp ****     thread_create(&consumerThread, consumer, data + threadNum);
 455              		.loc 1 118 5 is_stmt 1 discriminator 3
 456              		.loc 1 118 18 is_stmt 0 discriminator 3
 457 0308 1306090F 		addi	a2,s2,240
 458 030c 97050000 		lla	a1,_ZL8consumerPv
 458      93850500 
 459 0314 1305C4FC 		addi	a0,s0,-52
 460 0318 97000000 		call	thread_create@plt
 460      E7800000 
 461              	.LVL55:
 462              	.LBB5:
 119:test/ConsumerProducer_C_API_test.cpp **** 
 120:test/ConsumerProducer_C_API_test.cpp ****     for (int i = 0; i < threadNum; i++) {
 463              		.loc 1 120 14 discriminator 3
 464 0320 93040000 		li	s1,0
 465              	.L26:
 466              	.LVL56:
 467              		.loc 1 120 23 is_stmt 1 discriminator 1
 468 0324 93079000 		li	a5,9
 469 0328 63C89706 		bgt	s1,a5,.L24
GAS LISTING /tmp/ccWTGgHn.s 			page 13


 121:test/ConsumerProducer_C_API_test.cpp ****         data[i].id = i;
 470              		.loc 1 121 9
 471              		.loc 1 121 20 is_stmt 0
 472 032c 93971400 		slli	a5,s1,1
 473 0330 B3879700 		add	a5,a5,s1
 474 0334 93973700 		slli	a5,a5,3
 475 0338 B307F900 		add	a5,s2,a5
 476 033c 23A09700 		sw	s1,0(a5)
 122:test/ConsumerProducer_C_API_test.cpp ****         data[i].buffer = buffer;
 477              		.loc 1 122 9 is_stmt 1
 478              		.loc 1 122 24 is_stmt 0
 479 0340 23B43701 		sd	s3,8(a5)
 123:test/ConsumerProducer_C_API_test.cpp ****         data[i].wait = waitForAll;
 480              		.loc 1 123 9 is_stmt 1
 481              		.loc 1 123 22 is_stmt 0
 482 0344 17070000 		lw	a4,.LANCHOR0+4
 482      03270700 
 483 034c 23A8E700 		sw	a4,16(a5)
 124:test/ConsumerProducer_C_API_test.cpp **** 
 125:test/ConsumerProducer_C_API_test.cpp ****         thread_create(threads + i,
 484              		.loc 1 125 9 is_stmt 1
 485              		.loc 1 125 33 is_stmt 0
 486 0350 13870400 		mv	a4,s1
 487              		.loc 1 125 31
 488 0354 13952400 		slli	a0,s1,2
 489              		.loc 1 125 22
 490 0358 930704FA 		addi	a5,s0,-96
 491              	.LVL57:
 492 035c 3385A700 		add	a0,a5,a0
 493 0360 63569002 		blez	s1,.L31
 494 0364 97050000 		lla	a1,_ZL8producerPv
 494      93850500 
 495              	.L25:
 126:test/ConsumerProducer_C_API_test.cpp ****                       i > 0 ? producer : producerKeyboard,
 127:test/ConsumerProducer_C_API_test.cpp ****                       data + i);
 496              		.loc 1 127 28 discriminator 4
 497 036c 13161700 		slli	a2,a4,1
 498 0370 3306E600 		add	a2,a2,a4
 499 0374 13163600 		slli	a2,a2,3
 125:test/ConsumerProducer_C_API_test.cpp ****                       i > 0 ? producer : producerKeyboard,
 500              		.loc 1 125 22 discriminator 4
 501 0378 3306C900 		add	a2,s2,a2
 502 037c 97000000 		call	thread_create@plt
 502      E7800000 
 503              	.LVL58:
 120:test/ConsumerProducer_C_API_test.cpp ****         data[i].id = i;
 504              		.loc 1 120 5 is_stmt 1 discriminator 4
 505 0384 9B841400 		addiw	s1,s1,1
 506              	.LVL59:
 507 0388 6FF0DFF9 		j	.L26
 508              	.LVL60:
 509              	.L31:
 125:test/ConsumerProducer_C_API_test.cpp ****                       i > 0 ? producer : producerKeyboard,
 510              		.loc 1 125 22 is_stmt 0
 511 038c 97050000 		lla	a1,_ZL16producerKeyboardPv
 511      93850500 
 512 0394 6FF09FFD 		j	.L25
GAS LISTING /tmp/ccWTGgHn.s 			page 14


 513              	.LVL61:
 514              	.L24:
 515              	.LBE5:
 128:test/ConsumerProducer_C_API_test.cpp ****     }
 129:test/ConsumerProducer_C_API_test.cpp **** 
 130:test/ConsumerProducer_C_API_test.cpp ****     thread_dispatch();
 516              		.loc 1 130 5 is_stmt 1
 517              		.loc 1 130 20 is_stmt 0
 518 0398 97000000 		call	thread_dispatch@plt
 518      E7800000 
 519              	.LVL62:
 520              	.LBB6:
 131:test/ConsumerProducer_C_API_test.cpp **** 
 132:test/ConsumerProducer_C_API_test.cpp ****     for (int i = 0; i <= threadNum; i++) {
 521              		.loc 1 132 14
 522 03a0 93040000 		li	s1,0
 523              	.LVL63:
 524 03a4 6F008001 		j	.L28
 525              	.LVL64:
 526              	.L34:
 133:test/ConsumerProducer_C_API_test.cpp ****         sem_wait(waitForAll);
 527              		.loc 1 133 9 is_stmt 1
 528              		.loc 1 133 17 is_stmt 0
 529 03a8 17050000 		lw	a0,.LANCHOR0+4
 529      03250500 
 530 03b0 97000000 		call	sem_wait@plt
 530      E7800000 
 531              	.LVL65:
 132:test/ConsumerProducer_C_API_test.cpp ****         sem_wait(waitForAll);
 532              		.loc 1 132 5 is_stmt 1
 533 03b8 9B841400 		addiw	s1,s1,1
 534              	.LVL66:
 535              	.L28:
 132:test/ConsumerProducer_C_API_test.cpp ****         sem_wait(waitForAll);
 536              		.loc 1 132 23 discriminator 1
 537 03bc 9307A000 		li	a5,10
 538 03c0 E3D497FE 		ble	s1,a5,.L34
 539              	.LBE6:
 134:test/ConsumerProducer_C_API_test.cpp ****     }
 135:test/ConsumerProducer_C_API_test.cpp **** 
 136:test/ConsumerProducer_C_API_test.cpp ****     sem_close(waitForAll);
 540              		.loc 1 136 5
 541              		.loc 1 136 14 is_stmt 0
 542 03c4 17050000 		lw	a0,.LANCHOR0+4
 542      03250500 
 543 03cc 97000000 		call	sem_close@plt
 543      E7800000 
 544              	.LVL67:
 137:test/ConsumerProducer_C_API_test.cpp **** 
 138:test/ConsumerProducer_C_API_test.cpp ****     delete buffer;
 545              		.loc 1 138 5 is_stmt 1
 546              		.loc 1 138 18 is_stmt 0
 547 03d4 638E0900 		beqz	s3,.L23
 548              		.loc 1 138 12 discriminator 1
 549 03d8 13850900 		mv	a0,s3
 550 03dc 97000000 		call	_ZN6BufferD1Ev@plt
 550      E7800000 
GAS LISTING /tmp/ccWTGgHn.s 			page 15


 551              	.LVL68:
 552 03e4 13850900 		mv	a0,s3
 553 03e8 97000000 		call	_ZdlPv@plt
 553      E7800000 
 554              	.LVL69:
 555              	.L23:
 139:test/ConsumerProducer_C_API_test.cpp **** 
 140:test/ConsumerProducer_C_API_test.cpp **** }
 556              		.loc 1 140 1
 557 03f0 130104FA 		addi	sp,s0,-96
 558              		.cfi_remember_state
 559              		.cfi_def_cfa 2, 96
 560              	.LVL70:
 561 03f4 83308105 		ld	ra,88(sp)
 562              		.cfi_restore 1
 563 03f8 03340105 		ld	s0,80(sp)
 564              		.cfi_restore 8
 565 03fc 83348104 		ld	s1,72(sp)
 566              		.cfi_restore 9
 567              	.LVL71:
 568 0400 03390104 		ld	s2,64(sp)
 569              		.cfi_restore 18
 570              	.LVL72:
 571 0404 83398103 		ld	s3,56(sp)
 572              		.cfi_restore 19
 573              	.LVL73:
 574 0408 13010106 		addi	sp,sp,96
 575              		.cfi_def_cfa_offset 0
 576              	.LVL74:
 577 040c 67800000 		jr	ra
 578              	.LVL75:
 579              	.L32:
 580              		.cfi_restore_state
 581 0410 93040500 		mv	s1,a0
 105:test/ConsumerProducer_C_API_test.cpp **** 
 582              		.loc 1 105 34
 583 0414 13850900 		mv	a0,s3
 584 0418 97000000 		call	_ZdlPv@plt
 584      E7800000 
 585              	.LVL76:
 586 0420 13850400 		mv	a0,s1
 587 0424 97000000 		call	_Unwind_Resume@plt
 587      E7800000 
 588              	.LVL77:
 589              	.LEHE2:
 590              		.cfi_endproc
 591              	.LFE3:
 592              		.globl	__gxx_personality_v0
 593              		.section	.gcc_except_table,"a",@progbits
 594              	.LLSDA3:
 595 0000 FF       		.byte	0xff
 596 0001 FF       		.byte	0xff
 597 0002 03       		.byte	0x3
 598 0003 27       		.byte	0x27
 599 0004 00000000 		.4byte	.LEHB0-.LFB3
 600 0008 00000000 		.4byte	.LEHE0-.LEHB0
 601 000c 00000000 		.4byte	0
GAS LISTING /tmp/ccWTGgHn.s 			page 16


 602 0010 00       		.byte	0
 603 0011 00000000 		.4byte	.LEHB1-.LFB3
 604 0015 00000000 		.4byte	.LEHE1-.LEHB1
 605 0019 00000000 		.4byte	.L32-.LFB3
 606 001d 00       		.byte	0
 607 001e 00000000 		.4byte	.LEHB2-.LFB3
 608 0022 00000000 		.4byte	.LEHE2-.LEHB2
 609 0026 00000000 		.4byte	0
 610 002a 00       		.byte	0
 611              		.text
 613              		.bss
 614              		.align	2
 615              		.set	.LANCHOR0,. + 0
 618              	_ZL9threadEnd:
 619 0000 00000000 		.zero	4
 622              	_ZL10waitForAll:
 623 0004 00000000 		.zero	4
 624              		.text
 625              	.Letext0:
 626              		.file 2 "test/../h/../lib/hw.h"
 627              		.file 3 "test/buffer.hpp"
 628              		.file 4 "test/../h/syscall_c.hpp"
 629              		.file 5 "test/printing.hpp"
 630              		.file 6 "test/../h/syscall_cpp.hpp"
 2627              		.align	3
 2630              	DW.ref.__gxx_personality_v0:
 2631 0000 00000000 		.dword	__gxx_personality_v0
 2631      00000000 
 2632              		.ident	"GCC: (Ubuntu 9.4.0-1ubuntu1~20.04) 9.4.0"
 2633              		.section	.note.GNU-stack,"",@progbits
GAS LISTING /tmp/ccWTGgHn.s 			page 17


DEFINED SYMBOLS
                            *ABS*:0000000000000000 ConsumerProducer_C_API_test.cpp
     /tmp/ccWTGgHn.s:8      .text:0000000000000000 _ZL16producerKeyboardPv
     /tmp/ccWTGgHn.s:12     .text:0000000000000000 .L0 
     /tmp/ccWTGgHn.s:14     .text:0000000000000000 .L0 
     /tmp/ccWTGgHn.s:15     .text:0000000000000004 .L0 
     /tmp/ccWTGgHn.s:20     .text:0000000000000014 .L0 
     /tmp/ccWTGgHn.s:21     .text:0000000000000014 .L0 
     /tmp/ccWTGgHn.s:22     .text:0000000000000014 .L0 
     /tmp/ccWTGgHn.s:23     .text:0000000000000014 .L0 
     /tmp/ccWTGgHn.s:25     .text:0000000000000018 .L0 
     /tmp/ccWTGgHn.s:29     .text:000000000000001c .L0 
     /tmp/ccWTGgHn.s:30     .text:000000000000001c .L0 
     /tmp/ccWTGgHn.s:31     .text:000000000000001c .L0 
     /tmp/ccWTGgHn.s:32     .text:000000000000001c .L0 
     /tmp/ccWTGgHn.s:37     .text:0000000000000024 .L0 
     /tmp/ccWTGgHn.s:38     .text:0000000000000024 .L0 
     /tmp/ccWTGgHn.s:42     .text:000000000000002c .L0 
     /tmp/ccWTGgHn.s:43     .text:000000000000002c .L0 
     /tmp/ccWTGgHn.s:44     .text:000000000000002c .L0 
     /tmp/ccWTGgHn.s:47     .text:0000000000000034 .L0 
     /tmp/ccWTGgHn.s:50     .text:0000000000000038 .L0 
     /tmp/ccWTGgHn.s:53     .text:0000000000000040 .L0 
     /tmp/ccWTGgHn.s:54     .text:0000000000000040 .L0 
     /tmp/ccWTGgHn.s:58     .text:000000000000004c .L0 
     /tmp/ccWTGgHn.s:59     .text:000000000000004c .L0 
     /tmp/ccWTGgHn.s:63     .text:0000000000000054 .L0 
     /tmp/ccWTGgHn.s:64     .text:0000000000000054 .L0 
     /tmp/ccWTGgHn.s:66     .text:0000000000000058 .L0 
     /tmp/ccWTGgHn.s:70     .text:0000000000000064 .L0 
     /tmp/ccWTGgHn.s:72     .text:0000000000000068 .L0 
     /tmp/ccWTGgHn.s:77     .text:0000000000000070 .L0 
     /tmp/ccWTGgHn.s:78     .text:0000000000000070 .L0 
     /tmp/ccWTGgHn.s:81     .text:000000000000007c .L0 
     /tmp/ccWTGgHn.s:82     .text:000000000000007c .L0 
     /tmp/ccWTGgHn.s:89     .text:000000000000008c .L0 
     /tmp/ccWTGgHn.s:90     .text:000000000000008c .L0 
     /tmp/ccWTGgHn.s:94     .text:0000000000000098 .L0 
     /tmp/ccWTGgHn.s:95     .text:000000000000009c .L0 
     /tmp/ccWTGgHn.s:97     .text:00000000000000a0 .L0 
     /tmp/ccWTGgHn.s:98     .text:00000000000000a0 .L0 
     /tmp/ccWTGgHn.s:100    .text:00000000000000a4 .L0 
     /tmp/ccWTGgHn.s:103    .text:00000000000000a8 .L0 
     /tmp/ccWTGgHn.s:106    .text:00000000000000ac .L0 
     /tmp/ccWTGgHn.s:108    .text:00000000000000b0 .L0 
     /tmp/ccWTGgHn.s:113    .text:00000000000000b0 _ZL8producerPv
     /tmp/ccWTGgHn.s:116    .text:00000000000000b0 .L0 
     /tmp/ccWTGgHn.s:118    .text:00000000000000b0 .L0 
     /tmp/ccWTGgHn.s:119    .text:00000000000000b4 .L0 
     /tmp/ccWTGgHn.s:124    .text:00000000000000c4 .L0 
     /tmp/ccWTGgHn.s:125    .text:00000000000000c4 .L0 
     /tmp/ccWTGgHn.s:126    .text:00000000000000c4 .L0 
     /tmp/ccWTGgHn.s:127    .text:00000000000000c4 .L0 
     /tmp/ccWTGgHn.s:129    .text:00000000000000c8 .L0 
     /tmp/ccWTGgHn.s:133    .text:00000000000000cc .L0 
     /tmp/ccWTGgHn.s:134    .text:00000000000000cc .L0 
     /tmp/ccWTGgHn.s:135    .text:00000000000000cc .L0 
GAS LISTING /tmp/ccWTGgHn.s 			page 18


     /tmp/ccWTGgHn.s:140    .text:00000000000000d4 .L0 
     /tmp/ccWTGgHn.s:141    .text:00000000000000d4 .L0 
     /tmp/ccWTGgHn.s:145    .text:00000000000000dc .L0 
     /tmp/ccWTGgHn.s:146    .text:00000000000000dc .L0 
     /tmp/ccWTGgHn.s:149    .text:00000000000000e8 .L0 
     /tmp/ccWTGgHn.s:150    .text:00000000000000e8 .L0 
     /tmp/ccWTGgHn.s:152    .text:00000000000000ec .L0 
     /tmp/ccWTGgHn.s:157    .text:00000000000000fc .L0 
     /tmp/ccWTGgHn.s:158    .text:00000000000000fc .L0 
     /tmp/ccWTGgHn.s:162    .text:0000000000000104 .L0 
     /tmp/ccWTGgHn.s:163    .text:0000000000000104 .L0 
     /tmp/ccWTGgHn.s:165    .text:0000000000000108 .L0 
     /tmp/ccWTGgHn.s:169    .text:0000000000000114 .L0 
     /tmp/ccWTGgHn.s:171    .text:0000000000000118 .L0 
     /tmp/ccWTGgHn.s:176    .text:0000000000000120 .L0 
     /tmp/ccWTGgHn.s:177    .text:0000000000000120 .L0 
     /tmp/ccWTGgHn.s:181    .text:000000000000012c .L0 
     /tmp/ccWTGgHn.s:182    .text:0000000000000130 .L0 
     /tmp/ccWTGgHn.s:184    .text:0000000000000134 .L0 
     /tmp/ccWTGgHn.s:185    .text:0000000000000134 .L0 
     /tmp/ccWTGgHn.s:187    .text:0000000000000138 .L0 
     /tmp/ccWTGgHn.s:190    .text:000000000000013c .L0 
     /tmp/ccWTGgHn.s:193    .text:0000000000000140 .L0 
     /tmp/ccWTGgHn.s:195    .text:0000000000000144 .L0 
     /tmp/ccWTGgHn.s:200    .text:0000000000000144 _ZL8consumerPv
     /tmp/ccWTGgHn.s:203    .text:0000000000000144 .L0 
     /tmp/ccWTGgHn.s:205    .text:0000000000000144 .L0 
     /tmp/ccWTGgHn.s:206    .text:0000000000000148 .L0 
     /tmp/ccWTGgHn.s:212    .text:000000000000015c .L0 
     /tmp/ccWTGgHn.s:213    .text:000000000000015c .L0 
     /tmp/ccWTGgHn.s:214    .text:000000000000015c .L0 
     /tmp/ccWTGgHn.s:215    .text:000000000000015c .L0 
     /tmp/ccWTGgHn.s:216    .text:000000000000015c .L0 
     /tmp/ccWTGgHn.s:218    .text:0000000000000160 .L0 
     /tmp/ccWTGgHn.s:222    .text:0000000000000164 .L0 
     /tmp/ccWTGgHn.s:223    .text:0000000000000164 .L0 
     /tmp/ccWTGgHn.s:224    .text:0000000000000164 .L0 
     /tmp/ccWTGgHn.s:230    .text:000000000000016c .L0 
     /tmp/ccWTGgHn.s:231    .text:000000000000016c .L0 
     /tmp/ccWTGgHn.s:237    .text:0000000000000178 .L0 
     /tmp/ccWTGgHn.s:238    .text:0000000000000178 .L0 
     /tmp/ccWTGgHn.s:244    .text:0000000000000184 .L0 
     /tmp/ccWTGgHn.s:245    .text:0000000000000184 .L0 
     /tmp/ccWTGgHn.s:249    .text:0000000000000190 .L0 
     /tmp/ccWTGgHn.s:250    .text:0000000000000190 .L0 
     /tmp/ccWTGgHn.s:254    .text:000000000000019c .L0 
     /tmp/ccWTGgHn.s:255    .text:000000000000019c .L0 
     /tmp/ccWTGgHn.s:259    .text:00000000000001a4 .L0 
     /tmp/ccWTGgHn.s:260    .text:00000000000001a4 .L0 
     /tmp/ccWTGgHn.s:265    .text:00000000000001b0 .L0 
     /tmp/ccWTGgHn.s:266    .text:00000000000001b0 .L0 
     /tmp/ccWTGgHn.s:268    .text:00000000000001b4 .L0 
     /tmp/ccWTGgHn.s:271    .text:00000000000001bc .L0 
     /tmp/ccWTGgHn.s:273    .text:00000000000001c0 .L0 
     /tmp/ccWTGgHn.s:276    .text:00000000000001c4 .L0 
     /tmp/ccWTGgHn.s:277    .text:00000000000001c4 .L0 
     /tmp/ccWTGgHn.s:281    .text:00000000000001cc .L0 
GAS LISTING /tmp/ccWTGgHn.s 			page 19


     /tmp/ccWTGgHn.s:287    .text:00000000000001d4 .L0 
     /tmp/ccWTGgHn.s:288    .text:00000000000001d4 .L0 
     /tmp/ccWTGgHn.s:292    .text:00000000000001e0 .L0 
     /tmp/ccWTGgHn.s:293    .text:00000000000001e0 .L0 
     /tmp/ccWTGgHn.s:300    .text:00000000000001ec .L0 
     /tmp/ccWTGgHn.s:301    .text:00000000000001ec .L0 
     /tmp/ccWTGgHn.s:302    .text:00000000000001ec .L0 
     /tmp/ccWTGgHn.s:306    .text:00000000000001f8 .L0 
     /tmp/ccWTGgHn.s:308    .text:00000000000001fc .L0 
     /tmp/ccWTGgHn.s:309    .text:00000000000001fc .L0 
     /tmp/ccWTGgHn.s:313    .text:0000000000000208 .L0 
     /tmp/ccWTGgHn.s:314    .text:000000000000020c .L0 
     /tmp/ccWTGgHn.s:316    .text:0000000000000210 .L0 
     /tmp/ccWTGgHn.s:317    .text:0000000000000210 .L0 
     /tmp/ccWTGgHn.s:319    .text:0000000000000214 .L0 
     /tmp/ccWTGgHn.s:321    .text:0000000000000218 .L0 
     /tmp/ccWTGgHn.s:324    .text:000000000000021c .L0 
     /tmp/ccWTGgHn.s:327    .text:0000000000000220 .L0 
     /tmp/ccWTGgHn.s:329    .text:0000000000000224 .L0 
     /tmp/ccWTGgHn.s:352    .text:0000000000000224 _Z22producerConsumer_C_APIv
     /tmp/ccWTGgHn.s:355    .text:0000000000000224 .L0 
     /tmp/ccWTGgHn.s:2630   .data.rel.local.DW.ref.__gxx_personality_v0:0000000000000000 DW.ref.__gxx_personality_v0
     /tmp/ccWTGgHn.s:358    .text:0000000000000224 .L0 
     /tmp/ccWTGgHn.s:359    .text:0000000000000228 .L0 
     /tmp/ccWTGgHn.s:365    .text:000000000000023c .L0 
     /tmp/ccWTGgHn.s:366    .text:000000000000023c .L0 
     /tmp/ccWTGgHn.s:367    .text:000000000000023c .L0 
     /tmp/ccWTGgHn.s:368    .text:000000000000023c .L0 
     /tmp/ccWTGgHn.s:369    .text:000000000000023c .L0 
     /tmp/ccWTGgHn.s:371    .text:0000000000000240 .L0 
     /tmp/ccWTGgHn.s:373    .text:0000000000000240 .L0 
     /tmp/ccWTGgHn.s:374    .text:0000000000000240 .L0 
     /tmp/ccWTGgHn.s:375    .text:0000000000000240 .L0 
     /tmp/ccWTGgHn.s:380    .text:0000000000000250 .L0 
     /tmp/ccWTGgHn.s:381    .text:0000000000000250 .L0 
     /tmp/ccWTGgHn.s:382    .text:0000000000000250 .L0 
     /tmp/ccWTGgHn.s:386    .text:0000000000000260 .L0 
     /tmp/ccWTGgHn.s:387    .text:0000000000000260 .L0 
     /tmp/ccWTGgHn.s:388    .text:0000000000000260 .L0 
     /tmp/ccWTGgHn.s:392    .text:0000000000000270 .L0 
     /tmp/ccWTGgHn.s:393    .text:0000000000000270 .L0 
     /tmp/ccWTGgHn.s:399    .text:0000000000000284 .L0 
     /tmp/ccWTGgHn.s:400    .text:0000000000000284 .L0 
     /tmp/ccWTGgHn.s:404    .text:0000000000000294 .L0 
     /tmp/ccWTGgHn.s:405    .text:0000000000000294 .L0 
     /tmp/ccWTGgHn.s:411    .text:00000000000002a8 .L0 
     /tmp/ccWTGgHn.s:412    .text:00000000000002a8 .L0 
     /tmp/ccWTGgHn.s:416    .text:00000000000002b8 .L0 
     /tmp/ccWTGgHn.s:417    .text:00000000000002b8 .L0 
     /tmp/ccWTGgHn.s:418    .text:00000000000002b8 .L0 
     /tmp/ccWTGgHn.s:419    .text:00000000000002b8 .L0 
     /tmp/ccWTGgHn.s:430    .text:00000000000002d4 .L0 
     /tmp/ccWTGgHn.s:431    .text:00000000000002d4 .L0 
     /tmp/ccWTGgHn.s:437    .text:00000000000002e8 .L0 
     /tmp/ccWTGgHn.s:438    .text:00000000000002e8 .L0 
     /tmp/ccWTGgHn.s:439    .text:00000000000002e8 .L0 
     /tmp/ccWTGgHn.s:440    .text:00000000000002e8 .L0 
GAS LISTING /tmp/ccWTGgHn.s 			page 20


     /tmp/ccWTGgHn.s:445    .text:00000000000002f0 .L0 
     /tmp/ccWTGgHn.s:446    .text:00000000000002f0 .L0 
     /tmp/ccWTGgHn.s:449    .text:00000000000002f8 .L0 
     /tmp/ccWTGgHn.s:450    .text:00000000000002f8 .L0 
     /tmp/ccWTGgHn.s:452    .text:00000000000002fc .L0 
     /tmp/ccWTGgHn.s:453    .text:00000000000002fc .L0 
     /tmp/ccWTGgHn.s:456    .text:0000000000000308 .L0 
     /tmp/ccWTGgHn.s:457    .text:0000000000000308 .L0 
     /tmp/ccWTGgHn.s:464    .text:0000000000000320 .L0 
     /tmp/ccWTGgHn.s:468    .text:0000000000000324 .L0 
     /tmp/ccWTGgHn.s:471    .text:000000000000032c .L0 
     /tmp/ccWTGgHn.s:472    .text:000000000000032c .L0 
     /tmp/ccWTGgHn.s:478    .text:0000000000000340 .L0 
     /tmp/ccWTGgHn.s:479    .text:0000000000000340 .L0 
     /tmp/ccWTGgHn.s:481    .text:0000000000000344 .L0 
     /tmp/ccWTGgHn.s:482    .text:0000000000000344 .L0 
     /tmp/ccWTGgHn.s:485    .text:0000000000000350 .L0 
     /tmp/ccWTGgHn.s:486    .text:0000000000000350 .L0 
     /tmp/ccWTGgHn.s:488    .text:0000000000000354 .L0 
     /tmp/ccWTGgHn.s:490    .text:0000000000000358 .L0 
     /tmp/ccWTGgHn.s:497    .text:000000000000036c .L0 
     /tmp/ccWTGgHn.s:501    .text:0000000000000378 .L0 
     /tmp/ccWTGgHn.s:505    .text:0000000000000384 .L0 
     /tmp/ccWTGgHn.s:511    .text:000000000000038c .L0 
     /tmp/ccWTGgHn.s:517    .text:0000000000000398 .L0 
     /tmp/ccWTGgHn.s:518    .text:0000000000000398 .L0 
     /tmp/ccWTGgHn.s:522    .text:00000000000003a0 .L0 
     /tmp/ccWTGgHn.s:528    .text:00000000000003a8 .L0 
     /tmp/ccWTGgHn.s:529    .text:00000000000003a8 .L0 
     /tmp/ccWTGgHn.s:533    .text:00000000000003b8 .L0 
     /tmp/ccWTGgHn.s:537    .text:00000000000003bc .L0 
     /tmp/ccWTGgHn.s:541    .text:00000000000003c4 .L0 
     /tmp/ccWTGgHn.s:542    .text:00000000000003c4 .L0 
     /tmp/ccWTGgHn.s:546    .text:00000000000003d4 .L0 
     /tmp/ccWTGgHn.s:547    .text:00000000000003d4 .L0 
     /tmp/ccWTGgHn.s:549    .text:00000000000003d8 .L0 
     /tmp/ccWTGgHn.s:557    .text:00000000000003f0 .L0 
     /tmp/ccWTGgHn.s:558    .text:00000000000003f4 .L0 
     /tmp/ccWTGgHn.s:559    .text:00000000000003f4 .L0 
     /tmp/ccWTGgHn.s:562    .text:00000000000003f8 .L0 
     /tmp/ccWTGgHn.s:564    .text:00000000000003fc .L0 
     /tmp/ccWTGgHn.s:566    .text:0000000000000400 .L0 
     /tmp/ccWTGgHn.s:569    .text:0000000000000404 .L0 
     /tmp/ccWTGgHn.s:572    .text:0000000000000408 .L0 
     /tmp/ccWTGgHn.s:575    .text:000000000000040c .L0 
     /tmp/ccWTGgHn.s:580    .text:0000000000000410 .L0 
     /tmp/ccWTGgHn.s:583    .text:0000000000000414 .L0 
     /tmp/ccWTGgHn.s:590    .text:000000000000042c .L0 
     /tmp/ccWTGgHn.s:615    .bss:0000000000000000 .LANCHOR0
     /tmp/ccWTGgHn.s:618    .bss:0000000000000000 _ZL9threadEnd
     /tmp/ccWTGgHn.s:622    .bss:0000000000000004 _ZL10waitForAll
     /tmp/ccWTGgHn.s:631    .text:000000000000042c .L0 
     /tmp/ccWTGgHn.s:79     .text:0000000000000074 .L0 
     /tmp/ccWTGgHn.s:146    .text:00000000000000dc .L0 
     /tmp/ccWTGgHn.s:245    .text:0000000000000184 .L0 
     /tmp/ccWTGgHn.s:334    .rodata.str1.8:0000000000000000 .LC0
     /tmp/ccWTGgHn.s:375    .text:0000000000000240 .L0 
GAS LISTING /tmp/ccWTGgHn.s 			page 21


     /tmp/ccWTGgHn.s:337    .rodata.str1.8:0000000000000020 .LC1
     /tmp/ccWTGgHn.s:382    .text:0000000000000250 .L0 
     /tmp/ccWTGgHn.s:340    .rodata.str1.8:0000000000000040 .LC2
     /tmp/ccWTGgHn.s:388    .text:0000000000000260 .L0 
     /tmp/ccWTGgHn.s:343    .rodata.str1.8:0000000000000058 .LC3
     /tmp/ccWTGgHn.s:400    .text:0000000000000284 .L0 
     /tmp/ccWTGgHn.s:346    .rodata.str1.8:0000000000000070 .LC4
     /tmp/ccWTGgHn.s:412    .text:00000000000002a8 .L0 
     /tmp/ccWTGgHn.s:432    .text:00000000000002d8 .L0 
     /tmp/ccWTGgHn.s:453    .text:00000000000002fc .L0 
     /tmp/ccWTGgHn.s:458    .text:000000000000030c .L0 
     /tmp/ccWTGgHn.s:482    .text:0000000000000344 .L0 
     /tmp/ccWTGgHn.s:494    .text:0000000000000364 .L0 
     /tmp/ccWTGgHn.s:511    .text:000000000000038c .L0 
     /tmp/ccWTGgHn.s:529    .text:00000000000003a8 .L0 
     /tmp/ccWTGgHn.s:542    .text:00000000000003c4 .L0 
     /tmp/ccWTGgHn.s:40     .text:000000000000002c .L2
     /tmp/ccWTGgHn.s:75     .text:0000000000000070 .L3
     /tmp/ccWTGgHn.s:35     .text:0000000000000024 .L6
     /tmp/ccWTGgHn.s:143    .text:00000000000000dc .L8
     /tmp/ccWTGgHn.s:174    .text:0000000000000120 .L9
     /tmp/ccWTGgHn.s:138    .text:00000000000000d4 .L12
     /tmp/ccWTGgHn.s:241    .text:0000000000000184 .L14
     /tmp/ccWTGgHn.s:274    .text:00000000000001c4 .L16
     /tmp/ccWTGgHn.s:297    .text:00000000000001ec .L15
     /tmp/ccWTGgHn.s:227    .text:000000000000016c .L20
     /tmp/ccWTGgHn.s:235    .text:0000000000000178 .L21
     /tmp/ccWTGgHn.s:283    .text:00000000000001d4 .L22
     /tmp/ccWTGgHn.s:514    .text:0000000000000398 .L24
     /tmp/ccWTGgHn.s:509    .text:000000000000038c .L31
     /tmp/ccWTGgHn.s:465    .text:0000000000000324 .L26
     /tmp/ccWTGgHn.s:495    .text:000000000000036c .L25
     /tmp/ccWTGgHn.s:535    .text:00000000000003bc .L28
     /tmp/ccWTGgHn.s:526    .text:00000000000003a8 .L34
     /tmp/ccWTGgHn.s:555    .text:00000000000003f0 .L23
     /tmp/ccWTGgHn.s:376    .text:0000000000000248 .LEHB0
     /tmp/ccWTGgHn.s:353    .text:0000000000000224 .LFB3
     /tmp/ccWTGgHn.s:422    .text:00000000000002c4 .LEHE0
     /tmp/ccWTGgHn.s:425    .text:00000000000002cc .LEHB1
     /tmp/ccWTGgHn.s:428    .text:00000000000002d4 .LEHE1
     /tmp/ccWTGgHn.s:579    .text:0000000000000410 .L32
     /tmp/ccWTGgHn.s:433    .text:00000000000002e0 .LEHB2
     /tmp/ccWTGgHn.s:589    .text:000000000000042c .LEHE2
     /tmp/ccWTGgHn.s:1560   .debug_abbrev:0000000000000000 .Ldebug_abbrev0
     /tmp/ccWTGgHn.s:2548   .debug_str:000000000000019f .LASF60
     /tmp/ccWTGgHn.s:2596   .debug_str:000000000000038c .LASF61
     /tmp/ccWTGgHn.s:2578   .debug_str:0000000000000317 .LASF62
     /tmp/ccWTGgHn.s:5      .text:0000000000000000 .Ltext0
     /tmp/ccWTGgHn.s:625    .text:000000000000042c .Letext0
     /tmp/ccWTGgHn.s:2484   .debug_line:0000000000000000 .Ldebug_line0
     /tmp/ccWTGgHn.s:2562   .debug_str:00000000000002a3 .LASF0
     /tmp/ccWTGgHn.s:2534   .debug_str:0000000000000138 .LASF1
     /tmp/ccWTGgHn.s:2524   .debug_str:0000000000000100 .LASF2
     /tmp/ccWTGgHn.s:2502   .debug_str:0000000000000060 .LASF4
     /tmp/ccWTGgHn.s:2532   .debug_str:0000000000000126 .LASF3
     /tmp/ccWTGgHn.s:2490   .debug_str:0000000000000018 .LASF5
     /tmp/ccWTGgHn.s:2576   .debug_str:000000000000030e .LASF6
GAS LISTING /tmp/ccWTGgHn.s 			page 22


     /tmp/ccWTGgHn.s:2496   .debug_str:0000000000000034 .LASF7
     /tmp/ccWTGgHn.s:2488   .debug_str:0000000000000005 .LASF8
     /tmp/ccWTGgHn.s:2514   .debug_str:00000000000000aa .LASF9
     /tmp/ccWTGgHn.s:2606   .debug_str:00000000000003dd .LASF10
     /tmp/ccWTGgHn.s:2572   .debug_str:00000000000002e8 .LASF11
     /tmp/ccWTGgHn.s:2500   .debug_str:0000000000000052 .LASF12
     /tmp/ccWTGgHn.s:2622   .debug_str:0000000000000442 .LASF13
     /tmp/ccWTGgHn.s:2518   .debug_str:00000000000000c9 .LASF14
     /tmp/ccWTGgHn.s:2604   .debug_str:00000000000003cd .LASF15
     /tmp/ccWTGgHn.s:2570   .debug_str:00000000000002d8 .LASF16
     /tmp/ccWTGgHn.s:2540   .debug_str:0000000000000168 .LASF17
     /tmp/ccWTGgHn.s:2510   .debug_str:0000000000000086 .LASF18
     /tmp/ccWTGgHn.s:2574   .debug_str:00000000000002f8 .LASF19
     /tmp/ccWTGgHn.s:2586   .debug_str:000000000000035b .LASF27
     /tmp/ccWTGgHn.s:2594   .debug_str:0000000000000385 .LASF20
     /tmp/ccWTGgHn.s:2556   .debug_str:000000000000028a .LASF21
     /tmp/ccWTGgHn.s:2598   .debug_str:00000000000003b1 .LASF22
     /tmp/ccWTGgHn.s:2538   .debug_str:0000000000000159 .LASF23
     /tmp/ccWTGgHn.s:2512   .debug_str:000000000000009c .LASF24
     /tmp/ccWTGgHn.s:2564   .debug_str:00000000000002b0 .LASF25
     /tmp/ccWTGgHn.s:2618   .debug_str:000000000000041c .LASF26
     /tmp/ccWTGgHn.s:2608   .debug_str:00000000000003eb .LASF29
     /tmp/ccWTGgHn.s:2600   .debug_str:00000000000003b6 .LASF28
     /tmp/ccWTGgHn.s:2504   .debug_str:0000000000000067 .LASF30
     /tmp/ccWTGgHn.s:2520   .debug_str:00000000000000d8 .LASF63
     /tmp/ccWTGgHn.s:2592   .debug_str:0000000000000374 .LASF64
     /tmp/ccWTGgHn.s:2506   .debug_str:0000000000000076 .LASF31
     /tmp/ccWTGgHn.s:2542   .debug_str:0000000000000174 .LASF32
     /tmp/ccWTGgHn.s:2550   .debug_str:0000000000000263 .LASF33
     /tmp/ccWTGgHn.s:2516   .debug_str:00000000000000bd .LASF65
     /tmp/ccWTGgHn.s:2558   .debug_str:000000000000028f .LASF34
     /tmp/ccWTGgHn.s:2590   .debug_str:000000000000036a .LASF35
     /tmp/ccWTGgHn.s:2522   .debug_str:00000000000000e9 .LASF36
     /tmp/ccWTGgHn.s:2620   .debug_str:0000000000000426 .LASF66
     /tmp/ccWTGgHn.s:591    .text:000000000000042c .LFE3
     /tmp/ccWTGgHn.s:2610   .debug_str:00000000000003fa .LASF37
     /tmp/ccWTGgHn.s:2163   .debug_loc:0000000000000000 .LLST14
     /tmp/ccWTGgHn.s:2588   .debug_str:0000000000000362 .LASF38
     /tmp/ccWTGgHn.s:2170   .debug_loc:0000000000000023 .LLST15
     /tmp/ccWTGgHn.s:2602   .debug_str:00000000000003be .LASF39
     /tmp/ccWTGgHn.s:2494   .debug_str:000000000000002f .LASF40
     /tmp/ccWTGgHn.s:2213   .debug_loc:00000000000000d7 .LLST16
     /tmp/ccWTGgHn.s:462    .text:0000000000000320 .LBB5
     /tmp/ccWTGgHn.s:515    .text:0000000000000398 .LBE5
     /tmp/ccWTGgHn.s:2236   .debug_loc:0000000000000139 .LLST17
     /tmp/ccWTGgHn.s:503    .text:0000000000000384 .LVL58
     /tmp/ccWTGgHn.s:520    .text:00000000000003a0 .LBB6
     /tmp/ccWTGgHn.s:539    .text:00000000000003c4 .LBE6
     /tmp/ccWTGgHn.s:2247   .debug_loc:000000000000016f .LLST18
     /tmp/ccWTGgHn.s:531    .text:00000000000003b8 .LVL65
     /tmp/ccWTGgHn.s:378    .text:0000000000000250 .LVL43
     /tmp/ccWTGgHn.s:384    .text:0000000000000260 .LVL44
     /tmp/ccWTGgHn.s:390    .text:0000000000000270 .LVL45
     /tmp/ccWTGgHn.s:397    .text:0000000000000284 .LVL46
     /tmp/ccWTGgHn.s:402    .text:0000000000000294 .LVL47
     /tmp/ccWTGgHn.s:409    .text:00000000000002a8 .LVL48
     /tmp/ccWTGgHn.s:414    .text:00000000000002b8 .LVL49
GAS LISTING /tmp/ccWTGgHn.s 			page 23


     /tmp/ccWTGgHn.s:421    .text:00000000000002c4 .LVL50
     /tmp/ccWTGgHn.s:427    .text:00000000000002d4 .LVL51
     /tmp/ccWTGgHn.s:435    .text:00000000000002e8 .LVL52
     /tmp/ccWTGgHn.s:461    .text:0000000000000320 .LVL55
     /tmp/ccWTGgHn.s:519    .text:00000000000003a0 .LVL62
     /tmp/ccWTGgHn.s:544    .text:00000000000003d4 .LVL67
     /tmp/ccWTGgHn.s:551    .text:00000000000003e4 .LVL68
     /tmp/ccWTGgHn.s:554    .text:00000000000003f0 .LVL69
     /tmp/ccWTGgHn.s:585    .text:0000000000000420 .LVL76
     /tmp/ccWTGgHn.s:588    .text:000000000000042c .LVL77
     /tmp/ccWTGgHn.s:2508   .debug_str:000000000000007d .LASF41
     /tmp/ccWTGgHn.s:201    .text:0000000000000144 .LFB2
     /tmp/ccWTGgHn.s:330    .text:0000000000000224 .LFE2
     /tmp/ccWTGgHn.s:2254   .debug_loc:0000000000000192 .LLST7
     /tmp/ccWTGgHn.s:2272   .debug_loc:00000000000001de .LLST8
     /tmp/ccWTGgHn.s:2290   .debug_loc:000000000000022a .LLST9
     /tmp/ccWTGgHn.s:2476   .debug_ranges:0000000000000000 .Ldebug_ranges0
     /tmp/ccWTGgHn.s:2314   .debug_loc:000000000000029a .LLST10
     /tmp/ccWTGgHn.s:232    .text:0000000000000174 .LVL28
     /tmp/ccWTGgHn.s:240    .text:0000000000000184 .LVL30
     /tmp/ccWTGgHn.s:252    .text:000000000000019c .LVL31
     /tmp/ccWTGgHn.s:263    .text:00000000000001b0 .LVL34
     /tmp/ccWTGgHn.s:285    .text:00000000000001d4 .LBB4
     /tmp/ccWTGgHn.s:298    .text:00000000000001ec .LBE4
     /tmp/ccWTGgHn.s:2321   .debug_loc:00000000000002bd .LLST11
     /tmp/ccWTGgHn.s:290    .text:00000000000001e0 .LVL36
     /tmp/ccWTGgHn.s:296    .text:00000000000001ec .LVL38
     /tmp/ccWTGgHn.s:304    .text:00000000000001f8 .LVL39
     /tmp/ccWTGgHn.s:311    .text:0000000000000208 .LVL40
     /tmp/ccWTGgHn.s:2612   .debug_str:0000000000000404 .LASF42
     /tmp/ccWTGgHn.s:114    .text:00000000000000b0 .LFB1
     /tmp/ccWTGgHn.s:196    .text:0000000000000144 .LFE1
     /tmp/ccWTGgHn.s:2328   .debug_loc:00000000000002e0 .LLST4
     /tmp/ccWTGgHn.s:2346   .debug_loc:000000000000032c .LLST5
     /tmp/ccWTGgHn.s:2364   .debug_loc:0000000000000378 .LLST6
     /tmp/ccWTGgHn.s:142    .text:00000000000000dc .LVL18
     /tmp/ccWTGgHn.s:155    .text:00000000000000fc .LVL19
     /tmp/ccWTGgHn.s:179    .text:000000000000012c .LVL22
     /tmp/ccWTGgHn.s:2566   .debug_str:00000000000002ba .LASF43
     /tmp/ccWTGgHn.s:9      .text:0000000000000000 .LFB0
     /tmp/ccWTGgHn.s:109    .text:00000000000000b0 .LFE0
     /tmp/ccWTGgHn.s:2388   .debug_loc:00000000000003e8 .LLST0
     /tmp/ccWTGgHn.s:2406   .debug_loc:0000000000000434 .LLST1
     /tmp/ccWTGgHn.s:2424   .debug_loc:0000000000000480 .LLST2
     /tmp/ccWTGgHn.s:2439   .debug_loc:00000000000004c9 .LLST3
     /tmp/ccWTGgHn.s:39     .text:000000000000002c .LVL3
     /tmp/ccWTGgHn.s:45     .text:0000000000000034 .LVL4
     /tmp/ccWTGgHn.s:56     .text:000000000000004c .LVL6
     /tmp/ccWTGgHn.s:87     .text:000000000000008c .LVL11
     /tmp/ccWTGgHn.s:92     .text:0000000000000098 .LVL12
     /tmp/ccWTGgHn.s:2536   .debug_str:000000000000014b .LASF44
     /tmp/ccWTGgHn.s:2552   .debug_str:000000000000026e .LASF45
     /tmp/ccWTGgHn.s:2554   .debug_str:0000000000000277 .LASF46
     /tmp/ccWTGgHn.s:2544   .debug_str:0000000000000188 .LASF47
     /tmp/ccWTGgHn.s:2584   .debug_str:000000000000034c .LASF48
     /tmp/ccWTGgHn.s:2614   .debug_str:000000000000040d .LASF49
     /tmp/ccWTGgHn.s:2616   .debug_str:0000000000000416 .LASF50
GAS LISTING /tmp/ccWTGgHn.s 			page 24


     /tmp/ccWTGgHn.s:2568   .debug_str:00000000000002cb .LASF51
     /tmp/ccWTGgHn.s:2528   .debug_str:0000000000000113 .LASF52
     /tmp/ccWTGgHn.s:2582   .debug_str:000000000000033c .LASF53
     /tmp/ccWTGgHn.s:2530   .debug_str:000000000000011c .LASF54
     /tmp/ccWTGgHn.s:2580   .debug_str:0000000000000335 .LASF55
     /tmp/ccWTGgHn.s:2492   .debug_str:000000000000001f .LASF56
     /tmp/ccWTGgHn.s:2560   .debug_str:0000000000000294 .LASF67
     /tmp/ccWTGgHn.s:2498   .debug_str:000000000000003a .LASF68
     /tmp/ccWTGgHn.s:2486   .debug_str:0000000000000000 .LASF57
     /tmp/ccWTGgHn.s:2546   .debug_str:0000000000000194 .LASF58
     /tmp/ccWTGgHn.s:2526   .debug_str:000000000000010e .LASF59
     /tmp/ccWTGgHn.s:573    .text:0000000000000408 .LVL73
     /tmp/ccWTGgHn.s:441    .text:00000000000002ec .LVL53
     /tmp/ccWTGgHn.s:491    .text:000000000000035c .LVL57
     /tmp/ccWTGgHn.s:508    .text:000000000000038c .LVL60
     /tmp/ccWTGgHn.s:513    .text:0000000000000398 .LVL61
     /tmp/ccWTGgHn.s:560    .text:00000000000003f4 .LVL70
     /tmp/ccWTGgHn.s:576    .text:000000000000040c .LVL74
     /tmp/ccWTGgHn.s:578    .text:0000000000000410 .LVL75
     /tmp/ccWTGgHn.s:443    .text:00000000000002f0 .LVL54
     /tmp/ccWTGgHn.s:570    .text:0000000000000404 .LVL72
     /tmp/ccWTGgHn.s:466    .text:0000000000000324 .LVL56
     /tmp/ccWTGgHn.s:506    .text:0000000000000388 .LVL59
     /tmp/ccWTGgHn.s:523    .text:00000000000003a4 .LVL63
     /tmp/ccWTGgHn.s:525    .text:00000000000003a8 .LVL64
     /tmp/ccWTGgHn.s:567    .text:0000000000000400 .LVL71
     /tmp/ccWTGgHn.s:204    .text:0000000000000144 .LVL25
     /tmp/ccWTGgHn.s:226    .text:000000000000016c .LVL27
     /tmp/ccWTGgHn.s:322    .text:0000000000000218 .LVL41
     /tmp/ccWTGgHn.s:221    .text:0000000000000164 .LVL26
     /tmp/ccWTGgHn.s:234    .text:0000000000000178 .LVL29
     /tmp/ccWTGgHn.s:257    .text:00000000000001a4 .LVL32
     /tmp/ccWTGgHn.s:279    .text:00000000000001cc .LVL35
     /tmp/ccWTGgHn.s:325    .text:000000000000021c .LVL42
     /tmp/ccWTGgHn.s:261    .text:00000000000001a8 .LVL33
     /tmp/ccWTGgHn.s:294    .text:00000000000001e4 .LVL37
     /tmp/ccWTGgHn.s:117    .text:00000000000000b0 .LVL15
     /tmp/ccWTGgHn.s:137    .text:00000000000000d4 .LVL17
     /tmp/ccWTGgHn.s:188    .text:0000000000000138 .LVL23
     /tmp/ccWTGgHn.s:132    .text:00000000000000cc .LVL16
     /tmp/ccWTGgHn.s:160    .text:0000000000000104 .LVL20
     /tmp/ccWTGgHn.s:173    .text:0000000000000120 .LVL21
     /tmp/ccWTGgHn.s:191    .text:000000000000013c .LVL24
     /tmp/ccWTGgHn.s:13     .text:0000000000000000 .LVL0
     /tmp/ccWTGgHn.s:34     .text:0000000000000024 .LVL2
     /tmp/ccWTGgHn.s:101    .text:00000000000000a4 .LVL13
     /tmp/ccWTGgHn.s:28     .text:000000000000001c .LVL1
     /tmp/ccWTGgHn.s:48     .text:0000000000000038 .LVL5
     /tmp/ccWTGgHn.s:74     .text:0000000000000070 .LVL8
     /tmp/ccWTGgHn.s:83     .text:0000000000000080 .LVL9
     /tmp/ccWTGgHn.s:85     .text:0000000000000084 .LVL10
     /tmp/ccWTGgHn.s:61     .text:0000000000000054 .LVL7
     /tmp/ccWTGgHn.s:104    .text:00000000000000a8 .LVL14
     /tmp/ccWTGgHn.s:632    .debug_info:0000000000000000 .Ldebug_info0
     /tmp/ccWTGgHn.s:228    .text:000000000000016c .LBB2
     /tmp/ccWTGgHn.s:242    .text:0000000000000184 .LBE2
     /tmp/ccWTGgHn.s:247    .text:0000000000000190 .LBB3
GAS LISTING /tmp/ccWTGgHn.s 			page 25


     /tmp/ccWTGgHn.s:284    .text:00000000000001d4 .LBE3
     /tmp/ccWTGgHn.s:594    .gcc_except_table:0000000000000000 .LLSDA3

UNDEFINED SYMBOLS
thread_dispatch
getc
_ZN6Buffer3putEi
sem_signal
putc
_ZN6Buffer3getEv
_ZN6Buffer6getCntEv
_Z11printStringPKc
_Z8printIntiii
_Znwm
_ZN6BufferC1Ei
sem_open
thread_create
sem_wait
sem_close
_ZN6BufferD1Ev
_ZdlPv
_Unwind_Resume
__gxx_personality_v0
