GAS LISTING /tmp/ccWbcWNr.s 			page 1


   1              		.file	"Threads_CPP_API_test.cpp"
   2              		.option pic
   3              		.option norelax
   4              		.text
   5              	.Ltext0:
   6              		.align	2
   8              	_ZL9fibonaccim:
   9              	.LFB6:
  10              		.file 1 "test/Threads_CPP_API_test.cpp"
   1:test/Threads_CPP_API_test.cpp **** #include "../h/MemoryAllocator.hpp"
   2:test/Threads_CPP_API_test.cpp **** 
   3:test/Threads_CPP_API_test.cpp **** #include "printing.hpp"
   4:test/Threads_CPP_API_test.cpp **** 
   5:test/Threads_CPP_API_test.cpp **** static volatile bool finishedA = false;
   6:test/Threads_CPP_API_test.cpp **** static volatile bool finishedB = false;
   7:test/Threads_CPP_API_test.cpp **** static volatile bool finishedC = false;
   8:test/Threads_CPP_API_test.cpp **** static volatile bool finishedD = false;
   9:test/Threads_CPP_API_test.cpp **** 
  10:test/Threads_CPP_API_test.cpp **** static uint64 fibonacci(uint64 n) {
  11              		.loc 1 10 35
  12              		.cfi_startproc
  13              	.LVL0:
  14 0000 130101FE 		addi	sp,sp,-32
  15              		.cfi_def_cfa_offset 32
  16 0004 233C1100 		sd	ra,24(sp)
  17 0008 23388100 		sd	s0,16(sp)
  18 000c 23349100 		sd	s1,8(sp)
  19 0010 23302101 		sd	s2,0(sp)
  20              		.cfi_offset 1, -8
  21              		.cfi_offset 8, -16
  22              		.cfi_offset 9, -24
  23              		.cfi_offset 18, -32
  24 0014 13040102 		addi	s0,sp,32
  25              		.cfi_def_cfa 8, 0
  26 0018 93040500 		mv	s1,a0
  11:test/Threads_CPP_API_test.cpp ****     if (n == 0 || n == 1) { return n; }
  27              		.loc 1 11 5
  28 001c 93071000 		li	a5,1
  29 0020 63F8A702 		bleu	a0,a5,.L1
  12:test/Threads_CPP_API_test.cpp ****     if (n % 10 == 0) { thread_dispatch(); }
  30              		.loc 1 12 5
  31              		.loc 1 12 11 is_stmt 0
  32 0024 9307A000 		li	a5,10
  33 0028 B377F502 		remu	a5,a0,a5
  34              		.loc 1 12 5
  35 002c 638E0702 		beqz	a5,.L6
  36              	.LVL1:
  37              	.L3:
  13:test/Threads_CPP_API_test.cpp ****     return fibonacci(n - 1) + fibonacci(n - 2);
  38              		.loc 1 13 5 is_stmt 1
  39              		.loc 1 13 21 is_stmt 0
  40 0030 1385F4FF 		addi	a0,s1,-1
  41 0034 97000000 		call	_ZL9fibonaccim
  41      E7800000 
  42              	.LVL2:
  43 003c 13090500 		mv	s2,a0
  44              		.loc 1 13 40
GAS LISTING /tmp/ccWbcWNr.s 			page 2


  45 0040 1385E4FF 		addi	a0,s1,-2
  46 0044 97000000 		call	_ZL9fibonaccim
  46      E7800000 
  47              	.LVL3:
  48              		.loc 1 13 46
  49 004c 3305A900 		add	a0,s2,a0
  50              	.L1:
  14:test/Threads_CPP_API_test.cpp **** }
  51              		.loc 1 14 1
  52 0050 83308101 		ld	ra,24(sp)
  53              		.cfi_remember_state
  54              		.cfi_restore 1
  55 0054 03340101 		ld	s0,16(sp)
  56              		.cfi_restore 8
  57              		.cfi_def_cfa 2, 32
  58 0058 83348100 		ld	s1,8(sp)
  59              		.cfi_restore 9
  60              	.LVL4:
  61 005c 03390100 		ld	s2,0(sp)
  62              		.cfi_restore 18
  63 0060 13010102 		addi	sp,sp,32
  64              		.cfi_def_cfa_offset 0
  65 0064 67800000 		jr	ra
  66              	.LVL5:
  67              	.L6:
  68              		.cfi_restore_state
  12:test/Threads_CPP_API_test.cpp ****     if (n % 10 == 0) { thread_dispatch(); }
  69              		.loc 1 12 24 is_stmt 1 discriminator 1
  12:test/Threads_CPP_API_test.cpp ****     if (n % 10 == 0) { thread_dispatch(); }
  70              		.loc 1 12 39 is_stmt 0 discriminator 1
  71 0068 97000000 		call	thread_dispatch@plt
  71      E7800000 
  72              	.LVL6:
  73 0070 6FF01FFC 		j	.L3
  74              		.cfi_endproc
  75              	.LFE6:
  77              		.section	.text._ZN7WorkerAD2Ev,"axG",@progbits,_ZN7WorkerAD5Ev,comdat
  78              		.align	2
  79              		.weak	_ZN7WorkerAD2Ev
  81              	_ZN7WorkerAD2Ev:
  82              	.LFB41:
  15:test/Threads_CPP_API_test.cpp **** 
  16:test/Threads_CPP_API_test.cpp **** class WorkerA: public Thread {
  83              		.loc 1 16 7 is_stmt 1
  84              		.cfi_startproc
  85              	.LVL7:
  86 0000 130101FF 		addi	sp,sp,-16
  87              		.cfi_def_cfa_offset 16
  88 0004 23341100 		sd	ra,8(sp)
  89 0008 23308100 		sd	s0,0(sp)
  90              		.cfi_offset 1, -8
  91              		.cfi_offset 8, -16
  92 000c 13040101 		addi	s0,sp,16
  93              		.cfi_def_cfa 8, 0
  94              	.LBB28:
  95              		.loc 1 16 7 is_stmt 0
  96 0010 97070000 		lla	a5,_ZTV7WorkerA+16
GAS LISTING /tmp/ccWbcWNr.s 			page 3


  96      93870700 
  97 0018 2330F500 		sd	a5,0(a0)
  98 001c 97000000 		call	_ZN6ThreadD2Ev@plt
  98      E7800000 
  99              	.LVL8:
 100              	.LBE28:
 101 0024 83308100 		ld	ra,8(sp)
 102              		.cfi_restore 1
 103 0028 03340100 		ld	s0,0(sp)
 104              		.cfi_restore 8
 105              		.cfi_def_cfa 2, 16
 106 002c 13010101 		addi	sp,sp,16
 107              		.cfi_def_cfa_offset 0
 108 0030 67800000 		jr	ra
 109              		.cfi_endproc
 110              	.LFE41:
 112              		.weak	_ZN7WorkerAD1Ev
 113              		.set	_ZN7WorkerAD1Ev,_ZN7WorkerAD2Ev
 114              		.section	.text._ZN7WorkerAD0Ev,"axG",@progbits,_ZN7WorkerAD5Ev,comdat
 115              		.align	2
 116              		.weak	_ZN7WorkerAD0Ev
 118              	_ZN7WorkerAD0Ev:
 119              	.LFB43:
 120              		.loc 1 16 7 is_stmt 1
 121              		.cfi_startproc
 122              	.LVL9:
 123 0000 130101FE 		addi	sp,sp,-32
 124              		.cfi_def_cfa_offset 32
 125 0004 233C1100 		sd	ra,24(sp)
 126 0008 23388100 		sd	s0,16(sp)
 127 000c 23349100 		sd	s1,8(sp)
 128              		.cfi_offset 1, -8
 129              		.cfi_offset 8, -16
 130              		.cfi_offset 9, -24
 131 0010 13040102 		addi	s0,sp,32
 132              		.cfi_def_cfa 8, 0
 133 0014 93040500 		mv	s1,a0
 134              	.LVL10:
 135              	.LBB29:
 136              	.LBB30:
 137              		.loc 1 16 7 is_stmt 0
 138 0018 97070000 		lla	a5,_ZTV7WorkerA+16
 138      93870700 
 139 0020 2330F500 		sd	a5,0(a0)
 140 0024 97000000 		call	_ZN6ThreadD2Ev@plt
 140      E7800000 
 141              	.LVL11:
 142              	.LBE30:
 143              	.LBE29:
 144 002c 13850400 		mv	a0,s1
 145 0030 97000000 		call	_ZN6ThreaddlEPv@plt
 145      E7800000 
 146              	.LVL12:
 147 0038 83308101 		ld	ra,24(sp)
 148              		.cfi_restore 1
 149 003c 03340101 		ld	s0,16(sp)
 150              		.cfi_restore 8
GAS LISTING /tmp/ccWbcWNr.s 			page 4


 151              		.cfi_def_cfa 2, 32
 152 0040 83348100 		ld	s1,8(sp)
 153              		.cfi_restore 9
 154              	.LVL13:
 155 0044 13010102 		addi	sp,sp,32
 156              		.cfi_def_cfa_offset 0
 157 0048 67800000 		jr	ra
 158              		.cfi_endproc
 159              	.LFE43:
 161              		.section	.text._ZN7WorkerBD2Ev,"axG",@progbits,_ZN7WorkerBD5Ev,comdat
 162              		.align	2
 163              		.weak	_ZN7WorkerBD2Ev
 165              	_ZN7WorkerBD2Ev:
 166              	.LFB37:
  17:test/Threads_CPP_API_test.cpp ****     void workerBodyA(void* arg);
  18:test/Threads_CPP_API_test.cpp **** public:
  19:test/Threads_CPP_API_test.cpp ****     WorkerA():Thread() {}
  20:test/Threads_CPP_API_test.cpp **** 
  21:test/Threads_CPP_API_test.cpp ****     void run() override {
  22:test/Threads_CPP_API_test.cpp ****         workerBodyA(nullptr);
  23:test/Threads_CPP_API_test.cpp ****     }
  24:test/Threads_CPP_API_test.cpp **** };
  25:test/Threads_CPP_API_test.cpp **** 
  26:test/Threads_CPP_API_test.cpp **** class WorkerB: public Thread {
 167              		.loc 1 26 7 is_stmt 1
 168              		.cfi_startproc
 169              	.LVL14:
 170 0000 130101FF 		addi	sp,sp,-16
 171              		.cfi_def_cfa_offset 16
 172 0004 23341100 		sd	ra,8(sp)
 173 0008 23308100 		sd	s0,0(sp)
 174              		.cfi_offset 1, -8
 175              		.cfi_offset 8, -16
 176 000c 13040101 		addi	s0,sp,16
 177              		.cfi_def_cfa 8, 0
 178              	.LBB31:
 179              		.loc 1 26 7 is_stmt 0
 180 0010 97070000 		lla	a5,_ZTV7WorkerB+16
 180      93870700 
 181 0018 2330F500 		sd	a5,0(a0)
 182 001c 97000000 		call	_ZN6ThreadD2Ev@plt
 182      E7800000 
 183              	.LVL15:
 184              	.LBE31:
 185 0024 83308100 		ld	ra,8(sp)
 186              		.cfi_restore 1
 187 0028 03340100 		ld	s0,0(sp)
 188              		.cfi_restore 8
 189              		.cfi_def_cfa 2, 16
 190 002c 13010101 		addi	sp,sp,16
 191              		.cfi_def_cfa_offset 0
 192 0030 67800000 		jr	ra
 193              		.cfi_endproc
 194              	.LFE37:
 196              		.weak	_ZN7WorkerBD1Ev
 197              		.set	_ZN7WorkerBD1Ev,_ZN7WorkerBD2Ev
 198              		.section	.text._ZN7WorkerBD0Ev,"axG",@progbits,_ZN7WorkerBD5Ev,comdat
GAS LISTING /tmp/ccWbcWNr.s 			page 5


 199              		.align	2
 200              		.weak	_ZN7WorkerBD0Ev
 202              	_ZN7WorkerBD0Ev:
 203              	.LFB39:
 204              		.loc 1 26 7 is_stmt 1
 205              		.cfi_startproc
 206              	.LVL16:
 207 0000 130101FE 		addi	sp,sp,-32
 208              		.cfi_def_cfa_offset 32
 209 0004 233C1100 		sd	ra,24(sp)
 210 0008 23388100 		sd	s0,16(sp)
 211 000c 23349100 		sd	s1,8(sp)
 212              		.cfi_offset 1, -8
 213              		.cfi_offset 8, -16
 214              		.cfi_offset 9, -24
 215 0010 13040102 		addi	s0,sp,32
 216              		.cfi_def_cfa 8, 0
 217 0014 93040500 		mv	s1,a0
 218              	.LVL17:
 219              	.LBB32:
 220              	.LBB33:
 221              		.loc 1 26 7 is_stmt 0
 222 0018 97070000 		lla	a5,_ZTV7WorkerB+16
 222      93870700 
 223 0020 2330F500 		sd	a5,0(a0)
 224 0024 97000000 		call	_ZN6ThreadD2Ev@plt
 224      E7800000 
 225              	.LVL18:
 226              	.LBE33:
 227              	.LBE32:
 228 002c 13850400 		mv	a0,s1
 229 0030 97000000 		call	_ZN6ThreaddlEPv@plt
 229      E7800000 
 230              	.LVL19:
 231 0038 83308101 		ld	ra,24(sp)
 232              		.cfi_restore 1
 233 003c 03340101 		ld	s0,16(sp)
 234              		.cfi_restore 8
 235              		.cfi_def_cfa 2, 32
 236 0040 83348100 		ld	s1,8(sp)
 237              		.cfi_restore 9
 238              	.LVL20:
 239 0044 13010102 		addi	sp,sp,32
 240              		.cfi_def_cfa_offset 0
 241 0048 67800000 		jr	ra
 242              		.cfi_endproc
 243              	.LFE39:
 245              		.section	.text._ZN7WorkerCD2Ev,"axG",@progbits,_ZN7WorkerCD5Ev,comdat
 246              		.align	2
 247              		.weak	_ZN7WorkerCD2Ev
 249              	_ZN7WorkerCD2Ev:
 250              	.LFB33:
  27:test/Threads_CPP_API_test.cpp ****     void workerBodyB(void* arg);
  28:test/Threads_CPP_API_test.cpp **** public:
  29:test/Threads_CPP_API_test.cpp ****     WorkerB():Thread() {}
  30:test/Threads_CPP_API_test.cpp **** 
  31:test/Threads_CPP_API_test.cpp ****     void run() override {
GAS LISTING /tmp/ccWbcWNr.s 			page 6


  32:test/Threads_CPP_API_test.cpp ****         workerBodyB(nullptr);
  33:test/Threads_CPP_API_test.cpp ****     }
  34:test/Threads_CPP_API_test.cpp **** };
  35:test/Threads_CPP_API_test.cpp **** 
  36:test/Threads_CPP_API_test.cpp **** class WorkerC: public Thread {
 251              		.loc 1 36 7 is_stmt 1
 252              		.cfi_startproc
 253              	.LVL21:
 254 0000 130101FF 		addi	sp,sp,-16
 255              		.cfi_def_cfa_offset 16
 256 0004 23341100 		sd	ra,8(sp)
 257 0008 23308100 		sd	s0,0(sp)
 258              		.cfi_offset 1, -8
 259              		.cfi_offset 8, -16
 260 000c 13040101 		addi	s0,sp,16
 261              		.cfi_def_cfa 8, 0
 262              	.LBB34:
 263              		.loc 1 36 7 is_stmt 0
 264 0010 97070000 		lla	a5,_ZTV7WorkerC+16
 264      93870700 
 265 0018 2330F500 		sd	a5,0(a0)
 266 001c 97000000 		call	_ZN6ThreadD2Ev@plt
 266      E7800000 
 267              	.LVL22:
 268              	.LBE34:
 269 0024 83308100 		ld	ra,8(sp)
 270              		.cfi_restore 1
 271 0028 03340100 		ld	s0,0(sp)
 272              		.cfi_restore 8
 273              		.cfi_def_cfa 2, 16
 274 002c 13010101 		addi	sp,sp,16
 275              		.cfi_def_cfa_offset 0
 276 0030 67800000 		jr	ra
 277              		.cfi_endproc
 278              	.LFE33:
 280              		.weak	_ZN7WorkerCD1Ev
 281              		.set	_ZN7WorkerCD1Ev,_ZN7WorkerCD2Ev
 282              		.section	.text._ZN7WorkerCD0Ev,"axG",@progbits,_ZN7WorkerCD5Ev,comdat
 283              		.align	2
 284              		.weak	_ZN7WorkerCD0Ev
 286              	_ZN7WorkerCD0Ev:
 287              	.LFB35:
 288              		.loc 1 36 7 is_stmt 1
 289              		.cfi_startproc
 290              	.LVL23:
 291 0000 130101FE 		addi	sp,sp,-32
 292              		.cfi_def_cfa_offset 32
 293 0004 233C1100 		sd	ra,24(sp)
 294 0008 23388100 		sd	s0,16(sp)
 295 000c 23349100 		sd	s1,8(sp)
 296              		.cfi_offset 1, -8
 297              		.cfi_offset 8, -16
 298              		.cfi_offset 9, -24
 299 0010 13040102 		addi	s0,sp,32
 300              		.cfi_def_cfa 8, 0
 301 0014 93040500 		mv	s1,a0
 302              	.LVL24:
GAS LISTING /tmp/ccWbcWNr.s 			page 7


 303              	.LBB35:
 304              	.LBB36:
 305              		.loc 1 36 7 is_stmt 0
 306 0018 97070000 		lla	a5,_ZTV7WorkerC+16
 306      93870700 
 307 0020 2330F500 		sd	a5,0(a0)
 308 0024 97000000 		call	_ZN6ThreadD2Ev@plt
 308      E7800000 
 309              	.LVL25:
 310              	.LBE36:
 311              	.LBE35:
 312 002c 13850400 		mv	a0,s1
 313 0030 97000000 		call	_ZN6ThreaddlEPv@plt
 313      E7800000 
 314              	.LVL26:
 315 0038 83308101 		ld	ra,24(sp)
 316              		.cfi_restore 1
 317 003c 03340101 		ld	s0,16(sp)
 318              		.cfi_restore 8
 319              		.cfi_def_cfa 2, 32
 320 0040 83348100 		ld	s1,8(sp)
 321              		.cfi_restore 9
 322              	.LVL27:
 323 0044 13010102 		addi	sp,sp,32
 324              		.cfi_def_cfa_offset 0
 325 0048 67800000 		jr	ra
 326              		.cfi_endproc
 327              	.LFE35:
 329              		.section	.text._ZN7WorkerDD2Ev,"axG",@progbits,_ZN7WorkerDD5Ev,comdat
 330              		.align	2
 331              		.weak	_ZN7WorkerDD2Ev
 333              	_ZN7WorkerDD2Ev:
 334              	.LFB29:
  37:test/Threads_CPP_API_test.cpp ****     void workerBodyC(void* arg);
  38:test/Threads_CPP_API_test.cpp **** public:
  39:test/Threads_CPP_API_test.cpp ****     WorkerC():Thread() {}
  40:test/Threads_CPP_API_test.cpp **** 
  41:test/Threads_CPP_API_test.cpp ****     void run() override {
  42:test/Threads_CPP_API_test.cpp ****         workerBodyC(nullptr);
  43:test/Threads_CPP_API_test.cpp ****     }
  44:test/Threads_CPP_API_test.cpp **** };
  45:test/Threads_CPP_API_test.cpp **** 
  46:test/Threads_CPP_API_test.cpp **** class WorkerD: public Thread {
 335              		.loc 1 46 7 is_stmt 1
 336              		.cfi_startproc
 337              	.LVL28:
 338 0000 130101FF 		addi	sp,sp,-16
 339              		.cfi_def_cfa_offset 16
 340 0004 23341100 		sd	ra,8(sp)
 341 0008 23308100 		sd	s0,0(sp)
 342              		.cfi_offset 1, -8
 343              		.cfi_offset 8, -16
 344 000c 13040101 		addi	s0,sp,16
 345              		.cfi_def_cfa 8, 0
 346              	.LBB37:
 347              		.loc 1 46 7 is_stmt 0
 348 0010 97070000 		lla	a5,_ZTV7WorkerD+16
GAS LISTING /tmp/ccWbcWNr.s 			page 8


 348      93870700 
 349 0018 2330F500 		sd	a5,0(a0)
 350 001c 97000000 		call	_ZN6ThreadD2Ev@plt
 350      E7800000 
 351              	.LVL29:
 352              	.LBE37:
 353 0024 83308100 		ld	ra,8(sp)
 354              		.cfi_restore 1
 355 0028 03340100 		ld	s0,0(sp)
 356              		.cfi_restore 8
 357              		.cfi_def_cfa 2, 16
 358 002c 13010101 		addi	sp,sp,16
 359              		.cfi_def_cfa_offset 0
 360 0030 67800000 		jr	ra
 361              		.cfi_endproc
 362              	.LFE29:
 364              		.weak	_ZN7WorkerDD1Ev
 365              		.set	_ZN7WorkerDD1Ev,_ZN7WorkerDD2Ev
 366              		.section	.text._ZN7WorkerDD0Ev,"axG",@progbits,_ZN7WorkerDD5Ev,comdat
 367              		.align	2
 368              		.weak	_ZN7WorkerDD0Ev
 370              	_ZN7WorkerDD0Ev:
 371              	.LFB31:
 372              		.loc 1 46 7 is_stmt 1
 373              		.cfi_startproc
 374              	.LVL30:
 375 0000 130101FE 		addi	sp,sp,-32
 376              		.cfi_def_cfa_offset 32
 377 0004 233C1100 		sd	ra,24(sp)
 378 0008 23388100 		sd	s0,16(sp)
 379 000c 23349100 		sd	s1,8(sp)
 380              		.cfi_offset 1, -8
 381              		.cfi_offset 8, -16
 382              		.cfi_offset 9, -24
 383 0010 13040102 		addi	s0,sp,32
 384              		.cfi_def_cfa 8, 0
 385 0014 93040500 		mv	s1,a0
 386              	.LVL31:
 387              	.LBB38:
 388              	.LBB39:
 389              		.loc 1 46 7 is_stmt 0
 390 0018 97070000 		lla	a5,_ZTV7WorkerD+16
 390      93870700 
 391 0020 2330F500 		sd	a5,0(a0)
 392 0024 97000000 		call	_ZN6ThreadD2Ev@plt
 392      E7800000 
 393              	.LVL32:
 394              	.LBE39:
 395              	.LBE38:
 396 002c 13850400 		mv	a0,s1
 397 0030 97000000 		call	_ZN6ThreaddlEPv@plt
 397      E7800000 
 398              	.LVL33:
 399 0038 83308101 		ld	ra,24(sp)
 400              		.cfi_restore 1
 401 003c 03340101 		ld	s0,16(sp)
 402              		.cfi_restore 8
GAS LISTING /tmp/ccWbcWNr.s 			page 9


 403              		.cfi_def_cfa 2, 32
 404 0040 83348100 		ld	s1,8(sp)
 405              		.cfi_restore 9
 406              	.LVL34:
 407 0044 13010102 		addi	sp,sp,32
 408              		.cfi_def_cfa_offset 0
 409 0048 67800000 		jr	ra
 410              		.cfi_endproc
 411              	.LFE31:
 413              		.section	.rodata.str1.8,"aMS",@progbits,1
 414              		.align	3
 415              	.LC0:
 416 0000 413A2069 		.string	"A: i="
 416      3D00
 417 0006 0000     		.align	3
 418              	.LC1:
 419 0008 0A00     		.string	"\n"
 420 000a 00000000 		.align	3
 420      0000
 421              	.LC2:
 422 0010 41206669 		.string	"A finished!\n"
 422      6E697368 
 422      6564210A 
 422      00
 423              		.text
 424              		.align	2
 425              		.globl	_ZN7WorkerA11workerBodyAEPv
 427              	_ZN7WorkerA11workerBodyAEPv:
 428              	.LFB23:
  47:test/Threads_CPP_API_test.cpp ****     void workerBodyD(void* arg);
  48:test/Threads_CPP_API_test.cpp **** public:
  49:test/Threads_CPP_API_test.cpp ****     WorkerD():Thread() {}
  50:test/Threads_CPP_API_test.cpp **** 
  51:test/Threads_CPP_API_test.cpp ****     void run() override {
  52:test/Threads_CPP_API_test.cpp ****         workerBodyD(nullptr);
  53:test/Threads_CPP_API_test.cpp ****     }
  54:test/Threads_CPP_API_test.cpp **** };
  55:test/Threads_CPP_API_test.cpp **** 
  56:test/Threads_CPP_API_test.cpp **** void WorkerA::workerBodyA(void *arg) {
 429              		.loc 1 56 38 is_stmt 1
 430              		.cfi_startproc
 431              	.LVL35:
 432 0074 130101FE 		addi	sp,sp,-32
 433              		.cfi_def_cfa_offset 32
 434 0078 233C1100 		sd	ra,24(sp)
 435 007c 23388100 		sd	s0,16(sp)
 436 0080 23349100 		sd	s1,8(sp)
 437 0084 23302101 		sd	s2,0(sp)
 438              		.cfi_offset 1, -8
 439              		.cfi_offset 8, -16
 440              		.cfi_offset 9, -24
 441              		.cfi_offset 18, -32
 442 0088 13040102 		addi	s0,sp,32
 443              		.cfi_def_cfa 8, 0
  57:test/Threads_CPP_API_test.cpp ****     for (uint64 i = 0; i < 10; i++) {
 444              		.loc 1 57 5
 445              	.LVL36:
GAS LISTING /tmp/ccWbcWNr.s 			page 10


 446              	.LBB40:
 447              		.loc 1 57 17 is_stmt 0
 448 008c 13090000 		li	s2,0
 449 0090 6F000003 		j	.L29
 450              	.LVL37:
 451              	.L31:
 452              	.LBB41:
 453              	.LBB42:
 454              	.LBB43:
 455              	.LBB44:
  58:test/Threads_CPP_API_test.cpp ****         printString("A: i=");
  59:test/Threads_CPP_API_test.cpp ****         printInt(i);
  60:test/Threads_CPP_API_test.cpp ****         printString("\n");
  61:test/Threads_CPP_API_test.cpp ****         for (uint64 j = 0; j < 10; j++) {
  62:test/Threads_CPP_API_test.cpp ****             for (uint64 k = 0; k < 30; k++) { /* busy wait */ }
 456              		.loc 1 62 13 is_stmt 1 discriminator 2
 457 0094 93871700 		addi	a5,a5,1
 458              	.LVL38:
 459              	.L27:
 460              		.loc 1 62 34 discriminator 3
 461 0098 1307D001 		li	a4,29
 462 009c E37CF7FE 		bleu	a5,a4,.L31
 463              	.LBE44:
  63:test/Threads_CPP_API_test.cpp ****             thread_dispatch();
 464              		.loc 1 63 13 discriminator 2
 465              		.loc 1 63 28 is_stmt 0 discriminator 2
 466 00a0 97000000 		call	thread_dispatch@plt
 466      E7800000 
 467              	.LVL39:
 468              	.LBE43:
  61:test/Threads_CPP_API_test.cpp ****             for (uint64 k = 0; k < 30; k++) { /* busy wait */ }
 469              		.loc 1 61 9 is_stmt 1 discriminator 2
 470 00a8 93841400 		addi	s1,s1,1
 471              	.LVL40:
 472              	.L28:
  61:test/Threads_CPP_API_test.cpp ****             for (uint64 k = 0; k < 30; k++) { /* busy wait */ }
 473              		.loc 1 61 30 discriminator 1
 474 00ac 93079000 		li	a5,9
 475 00b0 63E69700 		bgtu	s1,a5,.L25
 476              	.LBB46:
 477              	.LBB45:
  62:test/Threads_CPP_API_test.cpp ****             thread_dispatch();
 478              		.loc 1 62 25 is_stmt 0
 479 00b4 93070000 		li	a5,0
 480 00b8 6FF01FFE 		j	.L27
 481              	.L25:
 482              	.LBE45:
 483              	.LBE46:
 484              	.LBE42:
 485              	.LBE41:
  57:test/Threads_CPP_API_test.cpp ****         printString("A: i=");
 486              		.loc 1 57 5 is_stmt 1 discriminator 2
 487 00bc 13091900 		addi	s2,s2,1
 488              	.LVL41:
 489              	.L29:
  57:test/Threads_CPP_API_test.cpp ****         printString("A: i=");
 490              		.loc 1 57 26 discriminator 1
GAS LISTING /tmp/ccWbcWNr.s 			page 11


 491 00c0 93079000 		li	a5,9
 492 00c4 63E02705 		bgtu	s2,a5,.L24
 493              	.LBB48:
  58:test/Threads_CPP_API_test.cpp ****         printInt(i);
 494              		.loc 1 58 9
  58:test/Threads_CPP_API_test.cpp ****         printInt(i);
 495              		.loc 1 58 20 is_stmt 0
 496 00c8 17050000 		lla	a0,.LC0
 496      13050500 
 497 00d0 97000000 		call	_Z11printStringPKc@plt
 497      E7800000 
 498              	.LVL42:
  59:test/Threads_CPP_API_test.cpp ****         printString("\n");
 499              		.loc 1 59 9 is_stmt 1
  59:test/Threads_CPP_API_test.cpp ****         printString("\n");
 500              		.loc 1 59 17 is_stmt 0
 501 00d8 13060000 		li	a2,0
 502 00dc 9305A000 		li	a1,10
 503 00e0 1B050900 		sext.w	a0,s2
 504 00e4 97000000 		call	_Z8printIntiii@plt
 504      E7800000 
 505              	.LVL43:
  60:test/Threads_CPP_API_test.cpp ****         for (uint64 j = 0; j < 10; j++) {
 506              		.loc 1 60 9 is_stmt 1
  60:test/Threads_CPP_API_test.cpp ****         for (uint64 j = 0; j < 10; j++) {
 507              		.loc 1 60 20 is_stmt 0
 508 00ec 17050000 		lla	a0,.LC1
 508      13050500 
 509 00f4 97000000 		call	_Z11printStringPKc@plt
 509      E7800000 
 510              	.LVL44:
  61:test/Threads_CPP_API_test.cpp ****             for (uint64 k = 0; k < 30; k++) { /* busy wait */ }
 511              		.loc 1 61 9 is_stmt 1
 512              	.LBB47:
  61:test/Threads_CPP_API_test.cpp ****             for (uint64 k = 0; k < 30; k++) { /* busy wait */ }
 513              		.loc 1 61 21 is_stmt 0
 514 00fc 93040000 		li	s1,0
 515 0100 6FF0DFFA 		j	.L28
 516              	.LVL45:
 517              	.L24:
 518              	.LBE47:
 519              	.LBE48:
 520              	.LBE40:
  64:test/Threads_CPP_API_test.cpp ****         }
  65:test/Threads_CPP_API_test.cpp ****     }
  66:test/Threads_CPP_API_test.cpp ****     printString("A finished!\n");
 521              		.loc 1 66 5 is_stmt 1
 522              		.loc 1 66 16 is_stmt 0
 523 0104 17050000 		lla	a0,.LC2
 523      13050500 
 524 010c 97000000 		call	_Z11printStringPKc@plt
 524      E7800000 
 525              	.LVL46:
  67:test/Threads_CPP_API_test.cpp ****     finishedA = true;
 526              		.loc 1 67 5 is_stmt 1
 527              		.loc 1 67 15 is_stmt 0
 528 0114 93071000 		li	a5,1
GAS LISTING /tmp/ccWbcWNr.s 			page 12


 529 0118 17070000 		sb	a5,.LANCHOR0,a4
 529      2300F700 
  68:test/Threads_CPP_API_test.cpp **** }
 530              		.loc 1 68 1
 531 0120 83308101 		ld	ra,24(sp)
 532              		.cfi_restore 1
 533 0124 03340101 		ld	s0,16(sp)
 534              		.cfi_restore 8
 535              		.cfi_def_cfa 2, 32
 536 0128 83348100 		ld	s1,8(sp)
 537              		.cfi_restore 9
 538 012c 03390100 		ld	s2,0(sp)
 539              		.cfi_restore 18
 540              	.LVL47:
 541 0130 13010102 		addi	sp,sp,32
 542              		.cfi_def_cfa_offset 0
 543 0134 67800000 		jr	ra
 544              		.cfi_endproc
 545              	.LFE23:
 547              		.section	.text._ZN7WorkerA3runEv,"axG",@progbits,_ZN7WorkerA3runEv,comdat
 548              		.align	2
 549              		.weak	_ZN7WorkerA3runEv
 551              	_ZN7WorkerA3runEv:
 552              	.LFB10:
  21:test/Threads_CPP_API_test.cpp ****         workerBodyA(nullptr);
 553              		.loc 1 21 10 is_stmt 1
 554              		.cfi_startproc
 555              	.LVL48:
 556 0000 130101FF 		addi	sp,sp,-16
 557              		.cfi_def_cfa_offset 16
 558 0004 23341100 		sd	ra,8(sp)
 559 0008 23308100 		sd	s0,0(sp)
 560              		.cfi_offset 1, -8
 561              		.cfi_offset 8, -16
 562 000c 13040101 		addi	s0,sp,16
 563              		.cfi_def_cfa 8, 0
  22:test/Threads_CPP_API_test.cpp ****     }
 564              		.loc 1 22 9
  22:test/Threads_CPP_API_test.cpp ****     }
 565              		.loc 1 22 20 is_stmt 0
 566 0010 93050000 		li	a1,0
 567 0014 97000000 		call	_ZN7WorkerA11workerBodyAEPv
 567      E7800000 
 568              	.LVL49:
  23:test/Threads_CPP_API_test.cpp **** };
 569              		.loc 1 23 5
 570 001c 83308100 		ld	ra,8(sp)
 571              		.cfi_restore 1
 572 0020 03340100 		ld	s0,0(sp)
 573              		.cfi_restore 8
 574              		.cfi_def_cfa 2, 16
 575 0024 13010101 		addi	sp,sp,16
 576              		.cfi_def_cfa_offset 0
 577 0028 67800000 		jr	ra
 578              		.cfi_endproc
 579              	.LFE10:
 581              		.section	.rodata.str1.8
GAS LISTING /tmp/ccWbcWNr.s 			page 13


 582 001d 000000   		.align	3
 583              	.LC3:
 584 0020 423A2069 		.string	"B: i="
 584      3D00
 585 0026 0000     		.align	3
 586              	.LC4:
 587 0028 42206669 		.string	"B finished!\n"
 587      6E697368 
 587      6564210A 
 587      00
 588              		.text
 589              		.align	2
 590              		.globl	_ZN7WorkerB11workerBodyBEPv
 592              	_ZN7WorkerB11workerBodyBEPv:
 593              	.LFB24:
  69:test/Threads_CPP_API_test.cpp **** 
  70:test/Threads_CPP_API_test.cpp **** void WorkerB::workerBodyB(void *arg) {
 594              		.loc 1 70 38 is_stmt 1
 595              		.cfi_startproc
 596              	.LVL50:
 597 0138 130101FE 		addi	sp,sp,-32
 598              		.cfi_def_cfa_offset 32
 599 013c 233C1100 		sd	ra,24(sp)
 600 0140 23388100 		sd	s0,16(sp)
 601 0144 23349100 		sd	s1,8(sp)
 602 0148 23302101 		sd	s2,0(sp)
 603              		.cfi_offset 1, -8
 604              		.cfi_offset 8, -16
 605              		.cfi_offset 9, -24
 606              		.cfi_offset 18, -32
 607 014c 13040102 		addi	s0,sp,32
 608              		.cfi_def_cfa 8, 0
  71:test/Threads_CPP_API_test.cpp ****     for (uint64 i = 0; i < 16; i++) {
 609              		.loc 1 71 5
 610              	.LVL51:
 611              	.LBB49:
 612              		.loc 1 71 17 is_stmt 0
 613 0150 13090000 		li	s2,0
 614 0154 6F000003 		j	.L40
 615              	.LVL52:
 616              	.L42:
 617              	.LBB50:
 618              	.LBB51:
 619              	.LBB52:
 620              	.LBB53:
  72:test/Threads_CPP_API_test.cpp ****         printString("B: i="); printInt(i); printString("\n");
  73:test/Threads_CPP_API_test.cpp ****         for (uint64 j = 0; j < 10; j++) {
  74:test/Threads_CPP_API_test.cpp ****             for (uint64 k = 0; k < 30; k++) { /* busy wait */ }
 621              		.loc 1 74 13 is_stmt 1 discriminator 2
 622 0158 93871700 		addi	a5,a5,1
 623              	.LVL53:
 624              	.L38:
 625              		.loc 1 74 34 discriminator 3
 626 015c 1307D001 		li	a4,29
 627 0160 E37CF7FE 		bleu	a5,a4,.L42
 628              	.LBE53:
  75:test/Threads_CPP_API_test.cpp ****             thread_dispatch();
GAS LISTING /tmp/ccWbcWNr.s 			page 14


 629              		.loc 1 75 13 discriminator 2
 630              		.loc 1 75 28 is_stmt 0 discriminator 2
 631 0164 97000000 		call	thread_dispatch@plt
 631      E7800000 
 632              	.LVL54:
 633              	.LBE52:
  73:test/Threads_CPP_API_test.cpp ****             for (uint64 k = 0; k < 30; k++) { /* busy wait */ }
 634              		.loc 1 73 9 is_stmt 1 discriminator 2
 635 016c 93841400 		addi	s1,s1,1
 636              	.LVL55:
 637              	.L39:
  73:test/Threads_CPP_API_test.cpp ****             for (uint64 k = 0; k < 30; k++) { /* busy wait */ }
 638              		.loc 1 73 30 discriminator 1
 639 0170 93079000 		li	a5,9
 640 0174 63E69700 		bgtu	s1,a5,.L36
 641              	.LBB55:
 642              	.LBB54:
  74:test/Threads_CPP_API_test.cpp ****             thread_dispatch();
 643              		.loc 1 74 25 is_stmt 0
 644 0178 93070000 		li	a5,0
 645 017c 6FF01FFE 		j	.L38
 646              	.L36:
 647              	.LBE54:
 648              	.LBE55:
 649              	.LBE51:
 650              	.LBE50:
  71:test/Threads_CPP_API_test.cpp ****         printString("B: i="); printInt(i); printString("\n");
 651              		.loc 1 71 5 is_stmt 1 discriminator 2
 652 0180 13091900 		addi	s2,s2,1
 653              	.LVL56:
 654              	.L40:
  71:test/Threads_CPP_API_test.cpp ****         printString("B: i="); printInt(i); printString("\n");
 655              		.loc 1 71 26 discriminator 1
 656 0184 9307F000 		li	a5,15
 657 0188 63E02705 		bgtu	s2,a5,.L35
 658              	.LBB57:
  72:test/Threads_CPP_API_test.cpp ****         for (uint64 j = 0; j < 10; j++) {
 659              		.loc 1 72 9
  72:test/Threads_CPP_API_test.cpp ****         for (uint64 j = 0; j < 10; j++) {
 660              		.loc 1 72 20 is_stmt 0
 661 018c 17050000 		lla	a0,.LC3
 661      13050500 
 662 0194 97000000 		call	_Z11printStringPKc@plt
 662      E7800000 
 663              	.LVL57:
  72:test/Threads_CPP_API_test.cpp ****         for (uint64 j = 0; j < 10; j++) {
 664              		.loc 1 72 31 is_stmt 1
  72:test/Threads_CPP_API_test.cpp ****         for (uint64 j = 0; j < 10; j++) {
 665              		.loc 1 72 39 is_stmt 0
 666 019c 13060000 		li	a2,0
 667 01a0 9305A000 		li	a1,10
 668 01a4 1B050900 		sext.w	a0,s2
 669 01a8 97000000 		call	_Z8printIntiii@plt
 669      E7800000 
 670              	.LVL58:
  72:test/Threads_CPP_API_test.cpp ****         for (uint64 j = 0; j < 10; j++) {
 671              		.loc 1 72 44 is_stmt 1
GAS LISTING /tmp/ccWbcWNr.s 			page 15


  72:test/Threads_CPP_API_test.cpp ****         for (uint64 j = 0; j < 10; j++) {
 672              		.loc 1 72 55 is_stmt 0
 673 01b0 17050000 		lla	a0,.LC1
 673      13050500 
 674 01b8 97000000 		call	_Z11printStringPKc@plt
 674      E7800000 
 675              	.LVL59:
  73:test/Threads_CPP_API_test.cpp ****             for (uint64 k = 0; k < 30; k++) { /* busy wait */ }
 676              		.loc 1 73 9 is_stmt 1
 677              	.LBB56:
  73:test/Threads_CPP_API_test.cpp ****             for (uint64 k = 0; k < 30; k++) { /* busy wait */ }
 678              		.loc 1 73 21 is_stmt 0
 679 01c0 93040000 		li	s1,0
 680 01c4 6FF0DFFA 		j	.L39
 681              	.LVL60:
 682              	.L35:
 683              	.LBE56:
 684              	.LBE57:
 685              	.LBE49:
  76:test/Threads_CPP_API_test.cpp ****         }
  77:test/Threads_CPP_API_test.cpp ****     }
  78:test/Threads_CPP_API_test.cpp ****     printString("B finished!\n");
 686              		.loc 1 78 5 is_stmt 1
 687              		.loc 1 78 16 is_stmt 0
 688 01c8 17050000 		lla	a0,.LC4
 688      13050500 
 689 01d0 97000000 		call	_Z11printStringPKc@plt
 689      E7800000 
 690              	.LVL61:
  79:test/Threads_CPP_API_test.cpp ****     finishedB = true;
 691              		.loc 1 79 5 is_stmt 1
 692              		.loc 1 79 15 is_stmt 0
 693 01d8 93071000 		li	a5,1
 694 01dc 17070000 		sb	a5,.LANCHOR0+1,a4
 694      2300F700 
  80:test/Threads_CPP_API_test.cpp ****     thread_dispatch();
 695              		.loc 1 80 5 is_stmt 1
 696              		.loc 1 80 20 is_stmt 0
 697 01e4 97000000 		call	thread_dispatch@plt
 697      E7800000 
 698              	.LVL62:
  81:test/Threads_CPP_API_test.cpp **** }
 699              		.loc 1 81 1
 700 01ec 83308101 		ld	ra,24(sp)
 701              		.cfi_restore 1
 702 01f0 03340101 		ld	s0,16(sp)
 703              		.cfi_restore 8
 704              		.cfi_def_cfa 2, 32
 705 01f4 83348100 		ld	s1,8(sp)
 706              		.cfi_restore 9
 707 01f8 03390100 		ld	s2,0(sp)
 708              		.cfi_restore 18
 709              	.LVL63:
 710 01fc 13010102 		addi	sp,sp,32
 711              		.cfi_def_cfa_offset 0
 712 0200 67800000 		jr	ra
 713              		.cfi_endproc
GAS LISTING /tmp/ccWbcWNr.s 			page 16


 714              	.LFE24:
 716              		.section	.text._ZN7WorkerB3runEv,"axG",@progbits,_ZN7WorkerB3runEv,comdat
 717              		.align	2
 718              		.weak	_ZN7WorkerB3runEv
 720              	_ZN7WorkerB3runEv:
 721              	.LFB14:
  31:test/Threads_CPP_API_test.cpp ****         workerBodyB(nullptr);
 722              		.loc 1 31 10 is_stmt 1
 723              		.cfi_startproc
 724              	.LVL64:
 725 0000 130101FF 		addi	sp,sp,-16
 726              		.cfi_def_cfa_offset 16
 727 0004 23341100 		sd	ra,8(sp)
 728 0008 23308100 		sd	s0,0(sp)
 729              		.cfi_offset 1, -8
 730              		.cfi_offset 8, -16
 731 000c 13040101 		addi	s0,sp,16
 732              		.cfi_def_cfa 8, 0
  32:test/Threads_CPP_API_test.cpp ****     }
 733              		.loc 1 32 9
  32:test/Threads_CPP_API_test.cpp ****     }
 734              		.loc 1 32 20 is_stmt 0
 735 0010 93050000 		li	a1,0
 736 0014 97000000 		call	_ZN7WorkerB11workerBodyBEPv
 736      E7800000 
 737              	.LVL65:
  33:test/Threads_CPP_API_test.cpp **** };
 738              		.loc 1 33 5
 739 001c 83308100 		ld	ra,8(sp)
 740              		.cfi_restore 1
 741 0020 03340100 		ld	s0,0(sp)
 742              		.cfi_restore 8
 743              		.cfi_def_cfa 2, 16
 744 0024 13010101 		addi	sp,sp,16
 745              		.cfi_def_cfa_offset 0
 746 0028 67800000 		jr	ra
 747              		.cfi_endproc
 748              	.LFE14:
 750              		.section	.rodata.str1.8
 751 0035 000000   		.align	3
 752              	.LC5:
 753 0038 433A2069 		.string	"C: i="
 753      3D00
 754 003e 0000     		.align	3
 755              	.LC6:
 756 0040 433A2064 		.string	"C: dispatch\n"
 756      69737061 
 756      7463680A 
 756      00
 757 004d 000000   		.align	3
 758              	.LC7:
 759 0050 433A2074 		.string	"C: t1="
 759      313D00
 760 0057 00       		.align	3
 761              	.LC8:
 762 0058 433A2066 		.string	"C: fibonaci="
 762      69626F6E 
GAS LISTING /tmp/ccWbcWNr.s 			page 17


 762      6163693D 
 762      00
 763              		.text
 764              		.align	2
 765              		.globl	_ZN7WorkerC11workerBodyCEPv
 767              	_ZN7WorkerC11workerBodyCEPv:
 768              	.LFB25:
  82:test/Threads_CPP_API_test.cpp **** 
  83:test/Threads_CPP_API_test.cpp **** void WorkerC::workerBodyC(void *arg) {
 769              		.loc 1 83 38 is_stmt 1
 770              		.cfi_startproc
 771              	.LVL66:
 772 0204 130101FE 		addi	sp,sp,-32
 773              		.cfi_def_cfa_offset 32
 774 0208 233C1100 		sd	ra,24(sp)
 775 020c 23388100 		sd	s0,16(sp)
 776 0210 23349100 		sd	s1,8(sp)
 777 0214 23302101 		sd	s2,0(sp)
 778              		.cfi_offset 1, -8
 779              		.cfi_offset 8, -16
 780              		.cfi_offset 9, -24
 781              		.cfi_offset 18, -32
 782 0218 13040102 		addi	s0,sp,32
 783              		.cfi_def_cfa 8, 0
  84:test/Threads_CPP_API_test.cpp ****     uint8 i = 0;
 784              		.loc 1 84 5
 785              	.LVL67:
 786              		.loc 1 84 11 is_stmt 0
 787 021c 93040000 		li	s1,0
 788 0220 6F000004 		j	.L47
 789              	.LVL68:
 790              	.L51:
  85:test/Threads_CPP_API_test.cpp ****     for (; i < 3; i++) {
  86:test/Threads_CPP_API_test.cpp ****         printString("C: i="); printInt(i); printString("\n");
 791              		.loc 1 86 9 is_stmt 1 discriminator 1
 792              		.loc 1 86 20 is_stmt 0 discriminator 1
 793 0224 17050000 		lla	a0,.LC5
 793      13050500 
 794 022c 97000000 		call	_Z11printStringPKc@plt
 794      E7800000 
 795              	.LVL69:
 796              		.loc 1 86 31 is_stmt 1 discriminator 1
 797              		.loc 1 86 39 is_stmt 0 discriminator 1
 798 0234 13060000 		li	a2,0
 799 0238 9305A000 		li	a1,10
 800 023c 13850400 		mv	a0,s1
 801 0240 97000000 		call	_Z8printIntiii@plt
 801      E7800000 
 802              	.LVL70:
 803              		.loc 1 86 44 is_stmt 1 discriminator 1
 804              		.loc 1 86 55 is_stmt 0 discriminator 1
 805 0248 17050000 		lla	a0,.LC1
 805      13050500 
 806 0250 97000000 		call	_Z11printStringPKc@plt
 806      E7800000 
 807              	.LVL71:
  85:test/Threads_CPP_API_test.cpp ****     for (; i < 3; i++) {
GAS LISTING /tmp/ccWbcWNr.s 			page 18


 808              		.loc 1 85 5 is_stmt 1 discriminator 1
 809 0258 9B841400 		addiw	s1,s1,1
 810              	.LVL72:
 811 025c 93F4F40F 		andi	s1,s1,0xff
 812              	.LVL73:
 813              	.L47:
  85:test/Threads_CPP_API_test.cpp ****     for (; i < 3; i++) {
 814              		.loc 1 85 5 discriminator 2
  85:test/Threads_CPP_API_test.cpp ****     for (; i < 3; i++) {
 815              		.loc 1 85 14 discriminator 2
 816 0260 93072000 		li	a5,2
 817 0264 E3F097FC 		bleu	s1,a5,.L51
  87:test/Threads_CPP_API_test.cpp ****     }
  88:test/Threads_CPP_API_test.cpp **** 
  89:test/Threads_CPP_API_test.cpp ****     printString("C: dispatch\n");
 818              		.loc 1 89 5
 819              		.loc 1 89 16 is_stmt 0
 820 0268 17050000 		lla	a0,.LC6
 820      13050500 
 821 0270 97000000 		call	_Z11printStringPKc@plt
 821      E7800000 
 822              	.LVL74:
  90:test/Threads_CPP_API_test.cpp ****     __asm__ ("li t1, 7");
 823              		.loc 1 90 5 is_stmt 1
 824              		.loc 1 90 25 is_stmt 0
 825              	#APP
 826              	# 90 "test/Threads_CPP_API_test.cpp" 1
  91              	
  92:test/Threads_CPP_API_test.cpp ****     thread_dispatch();
 827              		li t1, 7
 828              	# 0 "" 2
 829              		.loc 1 92 5 is_stmt 1
 830              		.loc 1 92 20 is_stmt 0
 831              	#NO_APP
 832 027c 97000000 		call	thread_dispatch@plt
 832      E7800000 
 833              	.LVL75:
  93:test/Threads_CPP_API_test.cpp **** 
  94:test/Threads_CPP_API_test.cpp **** 
  95:test/Threads_CPP_API_test.cpp ****     uint64 t1 = 0;
 834              		.loc 1 95 5 is_stmt 1
  96:test/Threads_CPP_API_test.cpp ****     __asm__ ("mv %[t1], t1" : [t1] "=r"(t1));
 835              		.loc 1 96 5
 836              		.loc 1 96 45 is_stmt 0
 837              	#APP
 838              	# 96 "test/Threads_CPP_API_test.cpp" 1
  97              	
 839              		mv s2, t1
 840              	# 0 "" 2
 841              	.LVL76:
  98:test/Threads_CPP_API_test.cpp ****     printString("C: t1="); printInt(t1); printString("\n");
 842              		.loc 1 98 5 is_stmt 1
 843              		.loc 1 98 16 is_stmt 0
 844              	#NO_APP
 845 0288 17050000 		lla	a0,.LC7
 845      13050500 
 846 0290 97000000 		call	_Z11printStringPKc@plt
GAS LISTING /tmp/ccWbcWNr.s 			page 19


 846      E7800000 
 847              	.LVL77:
 848              		.loc 1 98 28 is_stmt 1
 849              		.loc 1 98 36 is_stmt 0
 850 0298 13060000 		li	a2,0
 851 029c 9305A000 		li	a1,10
 852 02a0 1B050900 		sext.w	a0,s2
 853 02a4 97000000 		call	_Z8printIntiii@plt
 853      E7800000 
 854              	.LVL78:
 855              		.loc 1 98 42 is_stmt 1
 856              		.loc 1 98 53 is_stmt 0
 857 02ac 17050000 		lla	a0,.LC1
 857      13050500 
 858 02b4 97000000 		call	_Z11printStringPKc@plt
 858      E7800000 
 859              	.LVL79:
  99:test/Threads_CPP_API_test.cpp **** 
 100:test/Threads_CPP_API_test.cpp ****     uint64 result = fibonacci(12);
 860              		.loc 1 100 5 is_stmt 1
 861              		.loc 1 100 30 is_stmt 0
 862 02bc 1305C000 		li	a0,12
 863 02c0 97000000 		call	_ZL9fibonaccim
 863      E7800000 
 864              	.LVL80:
 865 02c8 13090500 		mv	s2,a0
 866              	.LVL81:
 101:test/Threads_CPP_API_test.cpp ****     printString("C: fibonaci="); printInt(result); printString("\n");
 867              		.loc 1 101 5 is_stmt 1
 868              		.loc 1 101 16 is_stmt 0
 869 02cc 17050000 		lla	a0,.LC8
 869      13050500 
 870              	.LVL82:
 871 02d4 97000000 		call	_Z11printStringPKc@plt
 871      E7800000 
 872              	.LVL83:
 873              		.loc 1 101 34 is_stmt 1
 874              		.loc 1 101 42 is_stmt 0
 875 02dc 13060000 		li	a2,0
 876 02e0 9305A000 		li	a1,10
 877 02e4 1B050900 		sext.w	a0,s2
 878 02e8 97000000 		call	_Z8printIntiii@plt
 878      E7800000 
 879              	.LVL84:
 880              		.loc 1 101 52 is_stmt 1
 881              		.loc 1 101 63 is_stmt 0
 882 02f0 17050000 		lla	a0,.LC1
 882      13050500 
 883 02f8 97000000 		call	_Z11printStringPKc@plt
 883      E7800000 
 884              	.LVL85:
 885 0300 6F000004 		j	.L49
 886              	.L52:
 102:test/Threads_CPP_API_test.cpp **** 
 103:test/Threads_CPP_API_test.cpp ****     for (; i < 6; i++) {
 104:test/Threads_CPP_API_test.cpp ****         printString("C: i="); printInt(i); printString("\n");
 887              		.loc 1 104 9 is_stmt 1 discriminator 1
GAS LISTING /tmp/ccWbcWNr.s 			page 20


 888              		.loc 1 104 20 is_stmt 0 discriminator 1
 889 0304 17050000 		lla	a0,.LC5
 889      13050500 
 890 030c 97000000 		call	_Z11printStringPKc@plt
 890      E7800000 
 891              	.LVL86:
 892              		.loc 1 104 31 is_stmt 1 discriminator 1
 893              		.loc 1 104 39 is_stmt 0 discriminator 1
 894 0314 13060000 		li	a2,0
 895 0318 9305A000 		li	a1,10
 896 031c 13850400 		mv	a0,s1
 897 0320 97000000 		call	_Z8printIntiii@plt
 897      E7800000 
 898              	.LVL87:
 899              		.loc 1 104 44 is_stmt 1 discriminator 1
 900              		.loc 1 104 55 is_stmt 0 discriminator 1
 901 0328 17050000 		lla	a0,.LC1
 901      13050500 
 902 0330 97000000 		call	_Z11printStringPKc@plt
 902      E7800000 
 903              	.LVL88:
 103:test/Threads_CPP_API_test.cpp ****         printString("C: i="); printInt(i); printString("\n");
 904              		.loc 1 103 5 is_stmt 1 discriminator 1
 905 0338 9B841400 		addiw	s1,s1,1
 906              	.LVL89:
 907 033c 93F4F40F 		andi	s1,s1,0xff
 908              	.LVL90:
 909              	.L49:
 103:test/Threads_CPP_API_test.cpp ****         printString("C: i="); printInt(i); printString("\n");
 910              		.loc 1 103 5 discriminator 2
 103:test/Threads_CPP_API_test.cpp ****         printString("C: i="); printInt(i); printString("\n");
 911              		.loc 1 103 14 discriminator 2
 912 0340 93075000 		li	a5,5
 913 0344 E3F097FC 		bleu	s1,a5,.L52
 105:test/Threads_CPP_API_test.cpp ****     }
 106:test/Threads_CPP_API_test.cpp **** 
 107:test/Threads_CPP_API_test.cpp ****     printString("A finished!\n");
 914              		.loc 1 107 5
 915              		.loc 1 107 16 is_stmt 0
 916 0348 17050000 		lla	a0,.LC2
 916      13050500 
 917 0350 97000000 		call	_Z11printStringPKc@plt
 917      E7800000 
 918              	.LVL91:
 108:test/Threads_CPP_API_test.cpp ****     finishedC = true;
 919              		.loc 1 108 5 is_stmt 1
 920              		.loc 1 108 15 is_stmt 0
 921 0358 93071000 		li	a5,1
 922 035c 17070000 		sb	a5,.LANCHOR0+2,a4
 922      2300F700 
 109:test/Threads_CPP_API_test.cpp **** 
 110:test/Threads_CPP_API_test.cpp ****     thread_dispatch();
 923              		.loc 1 110 5 is_stmt 1
 924              		.loc 1 110 20 is_stmt 0
 925 0364 97000000 		call	thread_dispatch@plt
 925      E7800000 
 926              	.LVL92:
GAS LISTING /tmp/ccWbcWNr.s 			page 21


 111:test/Threads_CPP_API_test.cpp **** 
 112:test/Threads_CPP_API_test.cpp **** }
 927              		.loc 1 112 1
 928 036c 83308101 		ld	ra,24(sp)
 929              		.cfi_restore 1
 930 0370 03340101 		ld	s0,16(sp)
 931              		.cfi_restore 8
 932              		.cfi_def_cfa 2, 32
 933 0374 83348100 		ld	s1,8(sp)
 934              		.cfi_restore 9
 935              	.LVL93:
 936 0378 03390100 		ld	s2,0(sp)
 937              		.cfi_restore 18
 938              	.LVL94:
 939 037c 13010102 		addi	sp,sp,32
 940              		.cfi_def_cfa_offset 0
 941 0380 67800000 		jr	ra
 942              		.cfi_endproc
 943              	.LFE25:
 945              		.section	.text._ZN7WorkerC3runEv,"axG",@progbits,_ZN7WorkerC3runEv,comdat
 946              		.align	2
 947              		.weak	_ZN7WorkerC3runEv
 949              	_ZN7WorkerC3runEv:
 950              	.LFB18:
  41:test/Threads_CPP_API_test.cpp ****         workerBodyC(nullptr);
 951              		.loc 1 41 10 is_stmt 1
 952              		.cfi_startproc
 953              	.LVL95:
 954 0000 130101FF 		addi	sp,sp,-16
 955              		.cfi_def_cfa_offset 16
 956 0004 23341100 		sd	ra,8(sp)
 957 0008 23308100 		sd	s0,0(sp)
 958              		.cfi_offset 1, -8
 959              		.cfi_offset 8, -16
 960 000c 13040101 		addi	s0,sp,16
 961              		.cfi_def_cfa 8, 0
  42:test/Threads_CPP_API_test.cpp ****     }
 962              		.loc 1 42 9
  42:test/Threads_CPP_API_test.cpp ****     }
 963              		.loc 1 42 20 is_stmt 0
 964 0010 93050000 		li	a1,0
 965 0014 97000000 		call	_ZN7WorkerC11workerBodyCEPv
 965      E7800000 
 966              	.LVL96:
  43:test/Threads_CPP_API_test.cpp **** };
 967              		.loc 1 43 5
 968 001c 83308100 		ld	ra,8(sp)
 969              		.cfi_restore 1
 970 0020 03340100 		ld	s0,0(sp)
 971              		.cfi_restore 8
 972              		.cfi_def_cfa 2, 16
 973 0024 13010101 		addi	sp,sp,16
 974              		.cfi_def_cfa_offset 0
 975 0028 67800000 		jr	ra
 976              		.cfi_endproc
 977              	.LFE18:
 979              		.section	.rodata.str1.8
GAS LISTING /tmp/ccWbcWNr.s 			page 22


 980 0065 000000   		.align	3
 981              	.LC9:
 982 0068 443A2069 		.string	"D: i="
 982      3D00
 983 006e 0000     		.align	3
 984              	.LC10:
 985 0070 443A2064 		.string	"D: dispatch\n"
 985      69737061 
 985      7463680A 
 985      00
 986 007d 000000   		.align	3
 987              	.LC11:
 988 0080 443A2066 		.string	"D: fibonaci="
 988      69626F6E 
 988      6163693D 
 988      00
 989 008d 000000   		.align	3
 990              	.LC12:
 991 0090 44206669 		.string	"D finished!\n"
 991      6E697368 
 991      6564210A 
 991      00
 992              		.text
 993              		.align	2
 994              		.globl	_ZN7WorkerD11workerBodyDEPv
 996              	_ZN7WorkerD11workerBodyDEPv:
 997              	.LFB26:
 113:test/Threads_CPP_API_test.cpp **** 
 114:test/Threads_CPP_API_test.cpp **** void WorkerD::workerBodyD(void* arg) {
 998              		.loc 1 114 38 is_stmt 1
 999              		.cfi_startproc
 1000              	.LVL97:
 1001 0384 130101FE 		addi	sp,sp,-32
 1002              		.cfi_def_cfa_offset 32
 1003 0388 233C1100 		sd	ra,24(sp)
 1004 038c 23388100 		sd	s0,16(sp)
 1005 0390 23349100 		sd	s1,8(sp)
 1006 0394 23302101 		sd	s2,0(sp)
 1007              		.cfi_offset 1, -8
 1008              		.cfi_offset 8, -16
 1009              		.cfi_offset 9, -24
 1010              		.cfi_offset 18, -32
 1011 0398 13040102 		addi	s0,sp,32
 1012              		.cfi_def_cfa 8, 0
 115:test/Threads_CPP_API_test.cpp **** 
 116:test/Threads_CPP_API_test.cpp ****     uint8 i = 10;
 1013              		.loc 1 116 5
 1014              	.LVL98:
 1015              		.loc 1 116 11 is_stmt 0
 1016 039c 9304A000 		li	s1,10
 1017 03a0 6F000004 		j	.L57
 1018              	.LVL99:
 1019              	.L61:
 117:test/Threads_CPP_API_test.cpp ****     for (; i < 13; i++) {
 118:test/Threads_CPP_API_test.cpp ****         printString("D: i="); printInt(i); printString("\n");
 1020              		.loc 1 118 9 is_stmt 1 discriminator 1
 1021              		.loc 1 118 20 is_stmt 0 discriminator 1
GAS LISTING /tmp/ccWbcWNr.s 			page 23


 1022 03a4 17050000 		lla	a0,.LC9
 1022      13050500 
 1023 03ac 97000000 		call	_Z11printStringPKc@plt
 1023      E7800000 
 1024              	.LVL100:
 1025              		.loc 1 118 31 is_stmt 1 discriminator 1
 1026              		.loc 1 118 39 is_stmt 0 discriminator 1
 1027 03b4 13060000 		li	a2,0
 1028 03b8 9305A000 		li	a1,10
 1029 03bc 13850400 		mv	a0,s1
 1030 03c0 97000000 		call	_Z8printIntiii@plt
 1030      E7800000 
 1031              	.LVL101:
 1032              		.loc 1 118 44 is_stmt 1 discriminator 1
 1033              		.loc 1 118 55 is_stmt 0 discriminator 1
 1034 03c8 17050000 		lla	a0,.LC1
 1034      13050500 
 1035 03d0 97000000 		call	_Z11printStringPKc@plt
 1035      E7800000 
 1036              	.LVL102:
 117:test/Threads_CPP_API_test.cpp ****     for (; i < 13; i++) {
 1037              		.loc 1 117 5 is_stmt 1 discriminator 1
 1038 03d8 9B841400 		addiw	s1,s1,1
 1039              	.LVL103:
 1040 03dc 93F4F40F 		andi	s1,s1,0xff
 1041              	.LVL104:
 1042              	.L57:
 117:test/Threads_CPP_API_test.cpp ****     for (; i < 13; i++) {
 1043              		.loc 1 117 5 discriminator 2
 117:test/Threads_CPP_API_test.cpp ****     for (; i < 13; i++) {
 1044              		.loc 1 117 14 discriminator 2
 1045 03e0 9307C000 		li	a5,12
 1046 03e4 E3F097FC 		bleu	s1,a5,.L61
 119:test/Threads_CPP_API_test.cpp ****     }
 120:test/Threads_CPP_API_test.cpp **** 
 121:test/Threads_CPP_API_test.cpp ****     printString("D: dispatch\n");
 1047              		.loc 1 121 5
 1048              		.loc 1 121 16 is_stmt 0
 1049 03e8 17050000 		lla	a0,.LC10
 1049      13050500 
 1050 03f0 97000000 		call	_Z11printStringPKc@plt
 1050      E7800000 
 1051              	.LVL105:
 122:test/Threads_CPP_API_test.cpp ****     __asm__ ("li t1, 5");
 1052              		.loc 1 122 5 is_stmt 1
 1053              		.loc 1 122 25 is_stmt 0
 1054              	#APP
 1055              	# 122 "test/Threads_CPP_API_test.cpp" 1
 123              	
 124:test/Threads_CPP_API_test.cpp ****     thread_dispatch();
 1056              		li t1, 5
 1057              	# 0 "" 2
 1058              		.loc 1 124 5 is_stmt 1
 1059              		.loc 1 124 20 is_stmt 0
 1060              	#NO_APP
 1061 03fc 97000000 		call	thread_dispatch@plt
 1061      E7800000 
GAS LISTING /tmp/ccWbcWNr.s 			page 24


 1062              	.LVL106:
 125:test/Threads_CPP_API_test.cpp **** 
 126:test/Threads_CPP_API_test.cpp **** 
 127:test/Threads_CPP_API_test.cpp ****     uint64 result = fibonacci(16);
 1063              		.loc 1 127 5 is_stmt 1
 1064              		.loc 1 127 30 is_stmt 0
 1065 0404 13050001 		li	a0,16
 1066 0408 97000000 		call	_ZL9fibonaccim
 1066      E7800000 
 1067              	.LVL107:
 1068 0410 13090500 		mv	s2,a0
 1069              	.LVL108:
 128:test/Threads_CPP_API_test.cpp ****     printString("D: fibonaci="); printInt(result); printString("\n");
 1070              		.loc 1 128 5 is_stmt 1
 1071              		.loc 1 128 16 is_stmt 0
 1072 0414 17050000 		lla	a0,.LC11
 1072      13050500 
 1073              	.LVL109:
 1074 041c 97000000 		call	_Z11printStringPKc@plt
 1074      E7800000 
 1075              	.LVL110:
 1076              		.loc 1 128 34 is_stmt 1
 1077              		.loc 1 128 42 is_stmt 0
 1078 0424 13060000 		li	a2,0
 1079 0428 9305A000 		li	a1,10
 1080 042c 1B050900 		sext.w	a0,s2
 1081 0430 97000000 		call	_Z8printIntiii@plt
 1081      E7800000 
 1082              	.LVL111:
 1083              		.loc 1 128 52 is_stmt 1
 1084              		.loc 1 128 63 is_stmt 0
 1085 0438 17050000 		lla	a0,.LC1
 1085      13050500 
 1086 0440 97000000 		call	_Z11printStringPKc@plt
 1086      E7800000 
 1087              	.LVL112:
 1088 0448 6F000004 		j	.L59
 1089              	.L62:
 129:test/Threads_CPP_API_test.cpp **** 
 130:test/Threads_CPP_API_test.cpp ****     for (; i < 16; i++) {
 131:test/Threads_CPP_API_test.cpp ****         printString("D: i="); printInt(i); printString("\n");
 1090              		.loc 1 131 9 is_stmt 1 discriminator 1
 1091              		.loc 1 131 20 is_stmt 0 discriminator 1
 1092 044c 17050000 		lla	a0,.LC9
 1092      13050500 
 1093 0454 97000000 		call	_Z11printStringPKc@plt
 1093      E7800000 
 1094              	.LVL113:
 1095              		.loc 1 131 31 is_stmt 1 discriminator 1
 1096              		.loc 1 131 39 is_stmt 0 discriminator 1
 1097 045c 13060000 		li	a2,0
 1098 0460 9305A000 		li	a1,10
 1099 0464 13850400 		mv	a0,s1
 1100 0468 97000000 		call	_Z8printIntiii@plt
 1100      E7800000 
 1101              	.LVL114:
 1102              		.loc 1 131 44 is_stmt 1 discriminator 1
GAS LISTING /tmp/ccWbcWNr.s 			page 25


 1103              		.loc 1 131 55 is_stmt 0 discriminator 1
 1104 0470 17050000 		lla	a0,.LC1
 1104      13050500 
 1105 0478 97000000 		call	_Z11printStringPKc@plt
 1105      E7800000 
 1106              	.LVL115:
 130:test/Threads_CPP_API_test.cpp ****         printString("D: i="); printInt(i); printString("\n");
 1107              		.loc 1 130 5 is_stmt 1 discriminator 1
 1108 0480 9B841400 		addiw	s1,s1,1
 1109              	.LVL116:
 1110 0484 93F4F40F 		andi	s1,s1,0xff
 1111              	.LVL117:
 1112              	.L59:
 130:test/Threads_CPP_API_test.cpp ****         printString("D: i="); printInt(i); printString("\n");
 1113              		.loc 1 130 5 discriminator 2
 130:test/Threads_CPP_API_test.cpp ****         printString("D: i="); printInt(i); printString("\n");
 1114              		.loc 1 130 14 discriminator 2
 1115 0488 9307F000 		li	a5,15
 1116 048c E3F097FC 		bleu	s1,a5,.L62
 132:test/Threads_CPP_API_test.cpp ****     }
 133:test/Threads_CPP_API_test.cpp **** 
 134:test/Threads_CPP_API_test.cpp ****     printString("D finished!\n");
 1117              		.loc 1 134 5
 1118              		.loc 1 134 16 is_stmt 0
 1119 0490 17050000 		lla	a0,.LC12
 1119      13050500 
 1120 0498 97000000 		call	_Z11printStringPKc@plt
 1120      E7800000 
 1121              	.LVL118:
 135:test/Threads_CPP_API_test.cpp ****     finishedD = true;
 1122              		.loc 1 135 5 is_stmt 1
 1123              		.loc 1 135 15 is_stmt 0
 1124 04a0 93071000 		li	a5,1
 1125 04a4 17070000 		sb	a5,.LANCHOR0+3,a4
 1125      2300F700 
 136:test/Threads_CPP_API_test.cpp **** 
 137:test/Threads_CPP_API_test.cpp ****     thread_dispatch();
 1126              		.loc 1 137 5 is_stmt 1
 1127              		.loc 1 137 20 is_stmt 0
 1128 04ac 97000000 		call	thread_dispatch@plt
 1128      E7800000 
 1129              	.LVL119:
 138:test/Threads_CPP_API_test.cpp **** 
 139:test/Threads_CPP_API_test.cpp **** }
 1130              		.loc 1 139 1
 1131 04b4 83308101 		ld	ra,24(sp)
 1132              		.cfi_restore 1
 1133 04b8 03340101 		ld	s0,16(sp)
 1134              		.cfi_restore 8
 1135              		.cfi_def_cfa 2, 32
 1136 04bc 83348100 		ld	s1,8(sp)
 1137              		.cfi_restore 9
 1138              	.LVL120:
 1139 04c0 03390100 		ld	s2,0(sp)
 1140              		.cfi_restore 18
 1141              	.LVL121:
 1142 04c4 13010102 		addi	sp,sp,32
GAS LISTING /tmp/ccWbcWNr.s 			page 26


 1143              		.cfi_def_cfa_offset 0
 1144 04c8 67800000 		jr	ra
 1145              		.cfi_endproc
 1146              	.LFE26:
 1148              		.section	.text._ZN7WorkerD3runEv,"axG",@progbits,_ZN7WorkerD3runEv,comdat
 1149              		.align	2
 1150              		.weak	_ZN7WorkerD3runEv
 1152              	_ZN7WorkerD3runEv:
 1153              	.LFB22:
  51:test/Threads_CPP_API_test.cpp ****         workerBodyD(nullptr);
 1154              		.loc 1 51 10 is_stmt 1
 1155              		.cfi_startproc
 1156              	.LVL122:
 1157 0000 130101FF 		addi	sp,sp,-16
 1158              		.cfi_def_cfa_offset 16
 1159 0004 23341100 		sd	ra,8(sp)
 1160 0008 23308100 		sd	s0,0(sp)
 1161              		.cfi_offset 1, -8
 1162              		.cfi_offset 8, -16
 1163 000c 13040101 		addi	s0,sp,16
 1164              		.cfi_def_cfa 8, 0
  52:test/Threads_CPP_API_test.cpp ****     }
 1165              		.loc 1 52 9
  52:test/Threads_CPP_API_test.cpp ****     }
 1166              		.loc 1 52 20 is_stmt 0
 1167 0010 93050000 		li	a1,0
 1168 0014 97000000 		call	_ZN7WorkerD11workerBodyDEPv
 1168      E7800000 
 1169              	.LVL123:
  53:test/Threads_CPP_API_test.cpp **** };
 1170              		.loc 1 53 5
 1171 001c 83308100 		ld	ra,8(sp)
 1172              		.cfi_restore 1
 1173 0020 03340100 		ld	s0,0(sp)
 1174              		.cfi_restore 8
 1175              		.cfi_def_cfa 2, 16
 1176 0024 13010101 		addi	sp,sp,16
 1177              		.cfi_def_cfa_offset 0
 1178 0028 67800000 		jr	ra
 1179              		.cfi_endproc
 1180              	.LFE22:
 1182              		.section	.rodata.str1.8
 1183 009d 000000   		.align	3
 1184              	.LC13:
 1185 00a0 54687265 		.string	"ThreadA created\n"
 1185      61644120 
 1185      63726561 
 1185      7465640A 
 1185      00
 1186 00b1 00000000 		.align	3
 1186      000000
 1187              	.LC14:
 1188 00b8 54687265 		.string	"ThreadB created\n"
 1188      61644220 
 1188      63726561 
 1188      7465640A 
 1188      00
GAS LISTING /tmp/ccWbcWNr.s 			page 27


 1189 00c9 00000000 		.align	3
 1189      000000
 1190              	.LC15:
 1191 00d0 54687265 		.string	"ThreadC created\n"
 1191      61644320 
 1191      63726561 
 1191      7465640A 
 1191      00
 1192 00e1 00000000 		.align	3
 1192      000000
 1193              	.LC16:
 1194 00e8 54687265 		.string	"ThreadD created\n"
 1194      61644420 
 1194      63726561 
 1194      7465640A 
 1194      00
 1195              		.text
 1196              		.align	2
 1197              		.globl	_Z20Threads_CPP_API_testv
 1199              	_Z20Threads_CPP_API_testv:
 1200              	.LFB27:
 140:test/Threads_CPP_API_test.cpp **** 
 141:test/Threads_CPP_API_test.cpp **** void Threads_CPP_API_test() {
 1201              		.loc 1 141 29 is_stmt 1
 1202              		.cfi_startproc
 1203              		.cfi_personality 0x9b,DW.ref.__gxx_personality_v0
 1204              		.cfi_lsda 0x1b,.LLSDA27
 1205 04cc 130101FC 		addi	sp,sp,-64
 1206              		.cfi_def_cfa_offset 64
 1207 04d0 233C1102 		sd	ra,56(sp)
 1208 04d4 23388102 		sd	s0,48(sp)
 1209 04d8 23349102 		sd	s1,40(sp)
 1210 04dc 23302103 		sd	s2,32(sp)
 1211              		.cfi_offset 1, -8
 1212              		.cfi_offset 8, -16
 1213              		.cfi_offset 9, -24
 1214              		.cfi_offset 18, -32
 1215 04e0 13040104 		addi	s0,sp,64
 1216              		.cfi_def_cfa 8, 0
 142:test/Threads_CPP_API_test.cpp ****     Thread* threads[4];
 1217              		.loc 1 142 5
 143:test/Threads_CPP_API_test.cpp **** 
 144:test/Threads_CPP_API_test.cpp ****     threads[0] = new WorkerA();
 1218              		.loc 1 144 5
 1219              		.loc 1 144 30 is_stmt 0
 1220 04e4 1305000A 		li	a0,160
 1221              	.LEHB0:
 1222 04e8 97000000 		call	_ZN6ThreadnwEm@plt
 1222      E7800000 
 1223              	.LVL124:
 1224              	.LEHE0:
 1225 04f0 93040500 		mv	s1,a0
 1226              	.LVL125:
 1227              	.LEHB1:
 1228              	.LBB58:
 1229              	.LBB59:
  19:test/Threads_CPP_API_test.cpp **** 
GAS LISTING /tmp/ccWbcWNr.s 			page 28


 1230              		.loc 1 19 22
 1231 04f4 97000000 		call	_ZN6ThreadC2Ev@plt
 1231      E7800000 
 1232              	.LVL126:
 1233              	.LEHE1:
 1234 04fc 97070000 		lla	a5,_ZTV7WorkerA+16
 1234      93870700 
 1235 0504 23B0F400 		sd	a5,0(s1)
 1236              	.LVL127:
 1237              	.LBE59:
 1238              	.LBE58:
 1239              		.loc 1 144 16
 1240 0508 233094FC 		sd	s1,-64(s0)
 145:test/Threads_CPP_API_test.cpp ****    printString("ThreadA created\n");
 1241              		.loc 1 145 4 is_stmt 1
 1242              		.loc 1 145 15 is_stmt 0
 1243 050c 17050000 		lla	a0,.LC13
 1243      13050500 
 1244              	.LEHB2:
 1245 0514 97000000 		call	_Z11printStringPKc@plt
 1245      E7800000 
 1246              	.LVL128:
 146:test/Threads_CPP_API_test.cpp **** 
 147:test/Threads_CPP_API_test.cpp ****     threads[1] = new WorkerB();
 1247              		.loc 1 147 5 is_stmt 1
 1248              		.loc 1 147 30 is_stmt 0
 1249 051c 1305000A 		li	a0,160
 1250 0520 97000000 		call	_ZN6ThreadnwEm@plt
 1250      E7800000 
 1251              	.LVL129:
 1252              	.LEHE2:
 1253 0528 93040500 		mv	s1,a0
 1254              	.LVL130:
 1255              	.LEHB3:
 1256              	.LBB60:
 1257              	.LBB61:
  29:test/Threads_CPP_API_test.cpp **** 
 1258              		.loc 1 29 22
 1259 052c 97000000 		call	_ZN6ThreadC2Ev@plt
 1259      E7800000 
 1260              	.LVL131:
 1261              	.LEHE3:
 1262 0534 97070000 		lla	a5,_ZTV7WorkerB+16
 1262      93870700 
 1263 053c 23B0F400 		sd	a5,0(s1)
 1264              	.LVL132:
 1265              	.LBE61:
 1266              	.LBE60:
 1267              		.loc 1 147 16
 1268 0540 233494FC 		sd	s1,-56(s0)
 148:test/Threads_CPP_API_test.cpp ****     printString("ThreadB created\n");
 1269              		.loc 1 148 5 is_stmt 1
 1270              		.loc 1 148 16 is_stmt 0
 1271 0544 17050000 		lla	a0,.LC14
 1271      13050500 
 1272              	.LEHB4:
 1273 054c 97000000 		call	_Z11printStringPKc@plt
GAS LISTING /tmp/ccWbcWNr.s 			page 29


 1273      E7800000 
 1274              	.LVL133:
 149:test/Threads_CPP_API_test.cpp **** 
 150:test/Threads_CPP_API_test.cpp ****     threads[2] = new WorkerC();
 1275              		.loc 1 150 5 is_stmt 1
 1276              		.loc 1 150 30 is_stmt 0
 1277 0554 1305000A 		li	a0,160
 1278 0558 97000000 		call	_ZN6ThreadnwEm@plt
 1278      E7800000 
 1279              	.LVL134:
 1280              	.LEHE4:
 1281 0560 93040500 		mv	s1,a0
 1282              	.LVL135:
 1283              	.LEHB5:
 1284              	.LBB62:
 1285              	.LBB63:
  39:test/Threads_CPP_API_test.cpp **** 
 1286              		.loc 1 39 22
 1287 0564 97000000 		call	_ZN6ThreadC2Ev@plt
 1287      E7800000 
 1288              	.LVL136:
 1289              	.LEHE5:
 1290 056c 97070000 		lla	a5,_ZTV7WorkerC+16
 1290      93870700 
 1291 0574 23B0F400 		sd	a5,0(s1)
 1292              	.LVL137:
 1293              	.LBE63:
 1294              	.LBE62:
 1295              		.loc 1 150 16
 1296 0578 233894FC 		sd	s1,-48(s0)
 151:test/Threads_CPP_API_test.cpp ****     printString("ThreadC created\n");
 1297              		.loc 1 151 5 is_stmt 1
 1298              		.loc 1 151 16 is_stmt 0
 1299 057c 17050000 		lla	a0,.LC15
 1299      13050500 
 1300              	.LEHB6:
 1301 0584 97000000 		call	_Z11printStringPKc@plt
 1301      E7800000 
 1302              	.LVL138:
 152:test/Threads_CPP_API_test.cpp **** 
 153:test/Threads_CPP_API_test.cpp ****     threads[3] = new WorkerD();
 1303              		.loc 1 153 5 is_stmt 1
 1304              		.loc 1 153 30 is_stmt 0
 1305 058c 1305000A 		li	a0,160
 1306 0590 97000000 		call	_ZN6ThreadnwEm@plt
 1306      E7800000 
 1307              	.LVL139:
 1308              	.LEHE6:
 1309 0598 93040500 		mv	s1,a0
 1310              	.LVL140:
 1311              	.LEHB7:
 1312              	.LBB64:
 1313              	.LBB65:
  49:test/Threads_CPP_API_test.cpp **** 
 1314              		.loc 1 49 22
 1315 059c 97000000 		call	_ZN6ThreadC2Ev@plt
 1315      E7800000 
GAS LISTING /tmp/ccWbcWNr.s 			page 30


 1316              	.LVL141:
 1317              	.LEHE7:
 1318 05a4 97070000 		lla	a5,_ZTV7WorkerD+16
 1318      93870700 
 1319 05ac 23B0F400 		sd	a5,0(s1)
 1320              	.LVL142:
 1321              	.LBE65:
 1322              	.LBE64:
 1323              		.loc 1 153 16
 1324 05b0 233C94FC 		sd	s1,-40(s0)
 154:test/Threads_CPP_API_test.cpp ****     printString("ThreadD created\n");
 1325              		.loc 1 154 5 is_stmt 1
 1326              		.loc 1 154 16 is_stmt 0
 1327 05b4 17050000 		lla	a0,.LC16
 1327      13050500 
 1328              	.LEHB8:
 1329 05bc 97000000 		call	_Z11printStringPKc@plt
 1329      E7800000 
 1330              	.LVL143:
 1331              	.LBB66:
 155:test/Threads_CPP_API_test.cpp **** 
 156:test/Threads_CPP_API_test.cpp ****     for(int i=0; i<4; i++) {
 1332              		.loc 1 156 13
 1333 05c4 93040000 		li	s1,0
 1334              	.L67:
 1335              	.LVL144:
 1336              		.loc 1 156 19 is_stmt 1 discriminator 1
 1337 05c8 93073000 		li	a5,3
 1338 05cc 63C69702 		bgt	s1,a5,.L66
 157:test/Threads_CPP_API_test.cpp ****         threads[i]->start();
 1339              		.loc 1 157 9
 1340              		.loc 1 157 18 is_stmt 0
 1341 05d0 93973400 		slli	a5,s1,3
 1342 05d4 130704FE 		addi	a4,s0,-32
 1343 05d8 B307F700 		add	a5,a4,a5
 1344              		.loc 1 157 26
 1345 05dc 03B507FE 		ld	a0,-32(a5)
 1346 05e0 97000000 		call	_ZN6Thread5startEv@plt
 1346      E7800000 
 1347              	.LVL145:
 156:test/Threads_CPP_API_test.cpp ****         threads[i]->start();
 1348              		.loc 1 156 5 is_stmt 1
 1349 05e8 9B841400 		addiw	s1,s1,1
 1350              	.LVL146:
 1351 05ec 6FF0DFFD 		j	.L67
 1352              	.LVL147:
 1353              	.L68:
 1354              	.LBE66:
 158:test/Threads_CPP_API_test.cpp ****     }
 159:test/Threads_CPP_API_test.cpp **** 
 160:test/Threads_CPP_API_test.cpp **** 
 161:test/Threads_CPP_API_test.cpp ****     while (!(finishedA && finishedB && finishedC && finishedD)) {
 162:test/Threads_CPP_API_test.cpp **** 
 163:test/Threads_CPP_API_test.cpp ****         Thread::dispatch();
 1355              		.loc 1 163 9
 1356              		.loc 1 163 25 is_stmt 0
 1357 05f0 97000000 		call	_ZN6Thread8dispatchEv@plt
GAS LISTING /tmp/ccWbcWNr.s 			page 31


 1357      E7800000 
 1358              	.LVL148:
 1359              	.L66:
 161:test/Threads_CPP_API_test.cpp **** 
 1360              		.loc 1 161 5 is_stmt 1
 161:test/Threads_CPP_API_test.cpp **** 
 1361              		.loc 1 161 12
 161:test/Threads_CPP_API_test.cpp **** 
 1362              		.loc 1 161 14 is_stmt 0
 1363 05f8 97070000 		lbu	a5,.LANCHOR0
 1363      83C70700 
 161:test/Threads_CPP_API_test.cpp **** 
 1364              		.loc 1 161 12
 1365 0600 E38807FE 		beqz	a5,.L68
 161:test/Threads_CPP_API_test.cpp **** 
 1366              		.loc 1 161 27 discriminator 2
 1367 0604 97070000 		lbu	a5,.LANCHOR0+1
 1367      83C70700 
 161:test/Threads_CPP_API_test.cpp **** 
 1368              		.loc 1 161 24 discriminator 2
 1369 060c E38207FE 		beqz	a5,.L68
 161:test/Threads_CPP_API_test.cpp **** 
 1370              		.loc 1 161 40 discriminator 4
 1371 0610 97070000 		lbu	a5,.LANCHOR0+2
 1371      83C70700 
 161:test/Threads_CPP_API_test.cpp **** 
 1372              		.loc 1 161 37 discriminator 4
 1373 0618 E38C07FC 		beqz	a5,.L68
 161:test/Threads_CPP_API_test.cpp **** 
 1374              		.loc 1 161 53 discriminator 6
 1375 061c 97070000 		lbu	a5,.LANCHOR0+3
 1375      83C70700 
 161:test/Threads_CPP_API_test.cpp **** 
 1376              		.loc 1 161 12 discriminator 6
 1377 0624 E38607FC 		beqz	a5,.L68
 1378 0628 930404FC 		addi	s1,s0,-64
 1379              	.LVL149:
 1380 062c 6F008000 		j	.L69
 1381              	.LVL150:
 1382              	.L71:
 1383              	.LBB67:
 164:test/Threads_CPP_API_test.cpp ****     }
 165:test/Threads_CPP_API_test.cpp **** 
 166:test/Threads_CPP_API_test.cpp ****     for (auto thread: threads) { delete thread; }
 1384              		.loc 1 166 5 is_stmt 1 discriminator 5
 1385 0630 93848400 		addi	s1,s1,8
 1386              	.LVL151:
 1387              	.L69:
 1388              		.loc 1 166 23 discriminator 6
 1389 0634 930704FE 		addi	a5,s0,-32
 1390 0638 6386F408 		beq	s1,a5,.L65
 1391              		.loc 1 166 15 is_stmt 0 discriminator 2
 1392 063c 03B50400 		ld	a0,0(s1)
 1393              	.LVL152:
 1394              		.loc 1 166 34 is_stmt 1 discriminator 2
 1395              		.loc 1 166 47 is_stmt 0 discriminator 2
 1396 0640 E30805FE 		beqz	a0,.L71
GAS LISTING /tmp/ccWbcWNr.s 			page 32


 1397              		.loc 1 166 41 discriminator 3
 1398 0644 83370500 		ld	a5,0(a0)
 1399 0648 83B78700 		ld	a5,8(a5)
 1400 064c E7800700 		jalr	a5
 1401              	.LVL153:
 1402 0650 6FF01FFE 		j	.L71
 1403              	.LVL154:
 1404              	.L77:
 1405 0654 13090500 		mv	s2,a0
 1406              	.LBE67:
 144:test/Threads_CPP_API_test.cpp ****    printString("ThreadA created\n");
 1407              		.loc 1 144 30
 1408 0658 13850400 		mv	a0,s1
 1409 065c 97000000 		call	_ZN6ThreaddlEPv@plt
 1409      E7800000 
 1410              	.LVL155:
 1411 0664 13050900 		mv	a0,s2
 1412 0668 97000000 		call	_Unwind_Resume@plt
 1412      E7800000 
 1413              	.LVL156:
 1414              	.L78:
 1415 0670 13090500 		mv	s2,a0
 147:test/Threads_CPP_API_test.cpp ****     printString("ThreadB created\n");
 1416              		.loc 1 147 30
 1417 0674 13850400 		mv	a0,s1
 1418 0678 97000000 		call	_ZN6ThreaddlEPv@plt
 1418      E7800000 
 1419              	.LVL157:
 1420 0680 13050900 		mv	a0,s2
 1421 0684 97000000 		call	_Unwind_Resume@plt
 1421      E7800000 
 1422              	.LVL158:
 1423              	.L79:
 1424 068c 13090500 		mv	s2,a0
 150:test/Threads_CPP_API_test.cpp ****     printString("ThreadC created\n");
 1425              		.loc 1 150 30
 1426 0690 13850400 		mv	a0,s1
 1427 0694 97000000 		call	_ZN6ThreaddlEPv@plt
 1427      E7800000 
 1428              	.LVL159:
 1429 069c 13050900 		mv	a0,s2
 1430 06a0 97000000 		call	_Unwind_Resume@plt
 1430      E7800000 
 1431              	.LVL160:
 1432              	.L80:
 1433 06a8 13090500 		mv	s2,a0
 153:test/Threads_CPP_API_test.cpp ****     printString("ThreadD created\n");
 1434              		.loc 1 153 30
 1435 06ac 13850400 		mv	a0,s1
 1436 06b0 97000000 		call	_ZN6ThreaddlEPv@plt
 1436      E7800000 
 1437              	.LVL161:
 1438 06b8 13050900 		mv	a0,s2
 1439 06bc 97000000 		call	_Unwind_Resume@plt
 1439      E7800000 
 1440              	.LVL162:
 1441              	.LEHE8:
GAS LISTING /tmp/ccWbcWNr.s 			page 33


 1442              	.L65:
 167:test/Threads_CPP_API_test.cpp **** }
 1443              		.loc 1 167 1
 1444 06c4 83308103 		ld	ra,56(sp)
 1445              		.cfi_restore 1
 1446 06c8 03340103 		ld	s0,48(sp)
 1447              		.cfi_restore 8
 1448              		.cfi_def_cfa 2, 64
 1449 06cc 83348102 		ld	s1,40(sp)
 1450              		.cfi_restore 9
 1451              	.LVL163:
 1452 06d0 03390102 		ld	s2,32(sp)
 1453              		.cfi_restore 18
 1454 06d4 13010104 		addi	sp,sp,64
 1455              		.cfi_def_cfa_offset 0
 1456 06d8 67800000 		jr	ra
 1457              		.cfi_endproc
 1458              	.LFE27:
 1459              		.globl	__gxx_personality_v0
 1460              		.section	.gcc_except_table,"a",@progbits
 1461              	.LLSDA27:
 1462 0000 FF       		.byte	0xff
 1463 0001 FF       		.byte	0xff
 1464 0002 03       		.byte	0x3
 1465 0003 75       		.byte	0x75
 1466 0004 00000000 		.4byte	.LEHB0-.LFB27
 1467 0008 00000000 		.4byte	.LEHE0-.LEHB0
 1468 000c 00000000 		.4byte	0
 1469 0010 00       		.byte	0
 1470 0011 00000000 		.4byte	.LEHB1-.LFB27
 1471 0015 00000000 		.4byte	.LEHE1-.LEHB1
 1472 0019 00000000 		.4byte	.L77-.LFB27
 1473 001d 00       		.byte	0
 1474 001e 00000000 		.4byte	.LEHB2-.LFB27
 1475 0022 00000000 		.4byte	.LEHE2-.LEHB2
 1476 0026 00000000 		.4byte	0
 1477 002a 00       		.byte	0
 1478 002b 00000000 		.4byte	.LEHB3-.LFB27
 1479 002f 00000000 		.4byte	.LEHE3-.LEHB3
 1480 0033 00000000 		.4byte	.L78-.LFB27
 1481 0037 00       		.byte	0
 1482 0038 00000000 		.4byte	.LEHB4-.LFB27
 1483 003c 00000000 		.4byte	.LEHE4-.LEHB4
 1484 0040 00000000 		.4byte	0
 1485 0044 00       		.byte	0
 1486 0045 00000000 		.4byte	.LEHB5-.LFB27
 1487 0049 00000000 		.4byte	.LEHE5-.LEHB5
 1488 004d 00000000 		.4byte	.L79-.LFB27
 1489 0051 00       		.byte	0
 1490 0052 00000000 		.4byte	.LEHB6-.LFB27
 1491 0056 00000000 		.4byte	.LEHE6-.LEHB6
 1492 005a 00000000 		.4byte	0
 1493 005e 00       		.byte	0
 1494 005f 00000000 		.4byte	.LEHB7-.LFB27
 1495 0063 00000000 		.4byte	.LEHE7-.LEHB7
 1496 0067 00000000 		.4byte	.L80-.LFB27
 1497 006b 00       		.byte	0
GAS LISTING /tmp/ccWbcWNr.s 			page 34


 1498 006c 00000000 		.4byte	.LEHB8-.LFB27
 1499 0070 00000000 		.4byte	.LEHE8-.LEHB8
 1500 0074 00000000 		.4byte	0
 1501 0078 00       		.byte	0
 1502              		.text
 1504              		.weak	_ZTV7WorkerA
 1505              		.section	.data.rel.ro.local._ZTV7WorkerA,"awG",@progbits,_ZTV7WorkerA,comdat
 1506              		.align	3
 1509              	_ZTV7WorkerA:
 1510 0000 00000000 		.dword	0
 1510      00000000 
 1511 0008 00000000 		.dword	0
 1511      00000000 
 1512 0010 00000000 		.dword	_ZN7WorkerAD1Ev
 1512      00000000 
 1513 0018 00000000 		.dword	_ZN7WorkerAD0Ev
 1513      00000000 
 1514 0020 00000000 		.dword	_ZN7WorkerA3runEv
 1514      00000000 
 1515              		.weak	_ZTV7WorkerB
 1516              		.section	.data.rel.ro.local._ZTV7WorkerB,"awG",@progbits,_ZTV7WorkerB,comdat
 1517              		.align	3
 1520              	_ZTV7WorkerB:
 1521 0000 00000000 		.dword	0
 1521      00000000 
 1522 0008 00000000 		.dword	0
 1522      00000000 
 1523 0010 00000000 		.dword	_ZN7WorkerBD1Ev
 1523      00000000 
 1524 0018 00000000 		.dword	_ZN7WorkerBD0Ev
 1524      00000000 
 1525 0020 00000000 		.dword	_ZN7WorkerB3runEv
 1525      00000000 
 1526              		.weak	_ZTV7WorkerC
 1527              		.section	.data.rel.ro.local._ZTV7WorkerC,"awG",@progbits,_ZTV7WorkerC,comdat
 1528              		.align	3
 1531              	_ZTV7WorkerC:
 1532 0000 00000000 		.dword	0
 1532      00000000 
 1533 0008 00000000 		.dword	0
 1533      00000000 
 1534 0010 00000000 		.dword	_ZN7WorkerCD1Ev
 1534      00000000 
 1535 0018 00000000 		.dword	_ZN7WorkerCD0Ev
 1535      00000000 
 1536 0020 00000000 		.dword	_ZN7WorkerC3runEv
 1536      00000000 
 1537              		.weak	_ZTV7WorkerD
 1538              		.section	.data.rel.ro.local._ZTV7WorkerD,"awG",@progbits,_ZTV7WorkerD,comdat
 1539              		.align	3
 1542              	_ZTV7WorkerD:
 1543 0000 00000000 		.dword	0
 1543      00000000 
 1544 0008 00000000 		.dword	0
 1544      00000000 
 1545 0010 00000000 		.dword	_ZN7WorkerDD1Ev
 1545      00000000 
GAS LISTING /tmp/ccWbcWNr.s 			page 35


 1546 0018 00000000 		.dword	_ZN7WorkerDD0Ev
 1546      00000000 
 1547 0020 00000000 		.dword	_ZN7WorkerD3runEv
 1547      00000000 
 1548              		.bss
 1549              		.set	.LANCHOR0,. + 0
 1552              	_ZL9finishedA:
 1553 0000 00       		.zero	1
 1556              	_ZL9finishedB:
 1557 0001 00       		.zero	1
 1560              	_ZL9finishedC:
 1561 0002 00       		.zero	1
 1564              	_ZL9finishedD:
 1565 0003 00       		.zero	1
 1566              		.text
 1567              	.Letext0:
 1568              		.file 2 "test/../h/../lib/hw.h"
 1569              		.file 3 "test/../h/Thread.hpp"
 1570              		.file 4 "test/printing.hpp"
 1571              		.file 5 "test/../h/syscall_c.hpp"
 5421              		.align	3
 5424              	DW.ref.__gxx_personality_v0:
 5425 0000 00000000 		.dword	__gxx_personality_v0
 5425      00000000 
 5426              		.ident	"GCC: (Ubuntu 9.4.0-1ubuntu1~20.04) 9.4.0"
 5427              		.section	.note.GNU-stack,"",@progbits
GAS LISTING /tmp/ccWbcWNr.s 			page 36


DEFINED SYMBOLS
                            *ABS*:0000000000000000 Threads_CPP_API_test.cpp
     /tmp/ccWbcWNr.s:8      .text:0000000000000000 _ZL9fibonaccim
     /tmp/ccWbcWNr.s:12     .text:0000000000000000 .L0 
     /tmp/ccWbcWNr.s:14     .text:0000000000000000 .L0 
     /tmp/ccWbcWNr.s:15     .text:0000000000000004 .L0 
     /tmp/ccWbcWNr.s:20     .text:0000000000000014 .L0 
     /tmp/ccWbcWNr.s:21     .text:0000000000000014 .L0 
     /tmp/ccWbcWNr.s:22     .text:0000000000000014 .L0 
     /tmp/ccWbcWNr.s:23     .text:0000000000000014 .L0 
     /tmp/ccWbcWNr.s:25     .text:0000000000000018 .L0 
     /tmp/ccWbcWNr.s:28     .text:000000000000001c .L0 
     /tmp/ccWbcWNr.s:31     .text:0000000000000024 .L0 
     /tmp/ccWbcWNr.s:32     .text:0000000000000024 .L0 
     /tmp/ccWbcWNr.s:35     .text:000000000000002c .L0 
     /tmp/ccWbcWNr.s:39     .text:0000000000000030 .L0 
     /tmp/ccWbcWNr.s:40     .text:0000000000000030 .L0 
     /tmp/ccWbcWNr.s:45     .text:0000000000000040 .L0 
     /tmp/ccWbcWNr.s:49     .text:000000000000004c .L0 
     /tmp/ccWbcWNr.s:52     .text:0000000000000050 .L0 
     /tmp/ccWbcWNr.s:53     .text:0000000000000054 .L0 
     /tmp/ccWbcWNr.s:54     .text:0000000000000054 .L0 
     /tmp/ccWbcWNr.s:56     .text:0000000000000058 .L0 
     /tmp/ccWbcWNr.s:57     .text:0000000000000058 .L0 
     /tmp/ccWbcWNr.s:59     .text:000000000000005c .L0 
     /tmp/ccWbcWNr.s:62     .text:0000000000000060 .L0 
     /tmp/ccWbcWNr.s:64     .text:0000000000000064 .L0 
     /tmp/ccWbcWNr.s:68     .text:0000000000000068 .L0 
     /tmp/ccWbcWNr.s:70     .text:0000000000000068 .L0 
     /tmp/ccWbcWNr.s:71     .text:0000000000000068 .L0 
     /tmp/ccWbcWNr.s:74     .text:0000000000000074 .L0 
     /tmp/ccWbcWNr.s:81     .text._ZN7WorkerAD2Ev:0000000000000000 _ZN7WorkerAD2Ev
     /tmp/ccWbcWNr.s:84     .text._ZN7WorkerAD2Ev:0000000000000000 .L0 
     /tmp/ccWbcWNr.s:86     .text._ZN7WorkerAD2Ev:0000000000000000 .L0 
     /tmp/ccWbcWNr.s:87     .text._ZN7WorkerAD2Ev:0000000000000004 .L0 
     /tmp/ccWbcWNr.s:90     .text._ZN7WorkerAD2Ev:000000000000000c .L0 
     /tmp/ccWbcWNr.s:91     .text._ZN7WorkerAD2Ev:000000000000000c .L0 
     /tmp/ccWbcWNr.s:93     .text._ZN7WorkerAD2Ev:0000000000000010 .L0 
     /tmp/ccWbcWNr.s:1509   .data.rel.ro.local._ZTV7WorkerA:0000000000000000 _ZTV7WorkerA
     /tmp/ccWbcWNr.s:96     .text._ZN7WorkerAD2Ev:0000000000000010 .L0 
     /tmp/ccWbcWNr.s:102    .text._ZN7WorkerAD2Ev:0000000000000028 .L0 
     /tmp/ccWbcWNr.s:104    .text._ZN7WorkerAD2Ev:000000000000002c .L0 
     /tmp/ccWbcWNr.s:105    .text._ZN7WorkerAD2Ev:000000000000002c .L0 
     /tmp/ccWbcWNr.s:107    .text._ZN7WorkerAD2Ev:0000000000000030 .L0 
     /tmp/ccWbcWNr.s:109    .text._ZN7WorkerAD2Ev:0000000000000034 .L0 
     /tmp/ccWbcWNr.s:81     .text._ZN7WorkerAD2Ev:0000000000000000 _ZN7WorkerAD1Ev
     /tmp/ccWbcWNr.s:118    .text._ZN7WorkerAD0Ev:0000000000000000 _ZN7WorkerAD0Ev
     /tmp/ccWbcWNr.s:121    .text._ZN7WorkerAD0Ev:0000000000000000 .L0 
     /tmp/ccWbcWNr.s:123    .text._ZN7WorkerAD0Ev:0000000000000000 .L0 
     /tmp/ccWbcWNr.s:124    .text._ZN7WorkerAD0Ev:0000000000000004 .L0 
     /tmp/ccWbcWNr.s:128    .text._ZN7WorkerAD0Ev:0000000000000010 .L0 
     /tmp/ccWbcWNr.s:129    .text._ZN7WorkerAD0Ev:0000000000000010 .L0 
     /tmp/ccWbcWNr.s:130    .text._ZN7WorkerAD0Ev:0000000000000010 .L0 
     /tmp/ccWbcWNr.s:132    .text._ZN7WorkerAD0Ev:0000000000000014 .L0 
     /tmp/ccWbcWNr.s:138    .text._ZN7WorkerAD0Ev:0000000000000018 .L0 
     /tmp/ccWbcWNr.s:148    .text._ZN7WorkerAD0Ev:000000000000003c .L0 
     /tmp/ccWbcWNr.s:150    .text._ZN7WorkerAD0Ev:0000000000000040 .L0 
GAS LISTING /tmp/ccWbcWNr.s 			page 37


     /tmp/ccWbcWNr.s:151    .text._ZN7WorkerAD0Ev:0000000000000040 .L0 
     /tmp/ccWbcWNr.s:153    .text._ZN7WorkerAD0Ev:0000000000000044 .L0 
     /tmp/ccWbcWNr.s:156    .text._ZN7WorkerAD0Ev:0000000000000048 .L0 
     /tmp/ccWbcWNr.s:158    .text._ZN7WorkerAD0Ev:000000000000004c .L0 
     /tmp/ccWbcWNr.s:165    .text._ZN7WorkerBD2Ev:0000000000000000 _ZN7WorkerBD2Ev
     /tmp/ccWbcWNr.s:168    .text._ZN7WorkerBD2Ev:0000000000000000 .L0 
     /tmp/ccWbcWNr.s:170    .text._ZN7WorkerBD2Ev:0000000000000000 .L0 
     /tmp/ccWbcWNr.s:171    .text._ZN7WorkerBD2Ev:0000000000000004 .L0 
     /tmp/ccWbcWNr.s:174    .text._ZN7WorkerBD2Ev:000000000000000c .L0 
     /tmp/ccWbcWNr.s:175    .text._ZN7WorkerBD2Ev:000000000000000c .L0 
     /tmp/ccWbcWNr.s:177    .text._ZN7WorkerBD2Ev:0000000000000010 .L0 
     /tmp/ccWbcWNr.s:1520   .data.rel.ro.local._ZTV7WorkerB:0000000000000000 _ZTV7WorkerB
     /tmp/ccWbcWNr.s:180    .text._ZN7WorkerBD2Ev:0000000000000010 .L0 
     /tmp/ccWbcWNr.s:186    .text._ZN7WorkerBD2Ev:0000000000000028 .L0 
     /tmp/ccWbcWNr.s:188    .text._ZN7WorkerBD2Ev:000000000000002c .L0 
     /tmp/ccWbcWNr.s:189    .text._ZN7WorkerBD2Ev:000000000000002c .L0 
     /tmp/ccWbcWNr.s:191    .text._ZN7WorkerBD2Ev:0000000000000030 .L0 
     /tmp/ccWbcWNr.s:193    .text._ZN7WorkerBD2Ev:0000000000000034 .L0 
     /tmp/ccWbcWNr.s:165    .text._ZN7WorkerBD2Ev:0000000000000000 _ZN7WorkerBD1Ev
     /tmp/ccWbcWNr.s:202    .text._ZN7WorkerBD0Ev:0000000000000000 _ZN7WorkerBD0Ev
     /tmp/ccWbcWNr.s:205    .text._ZN7WorkerBD0Ev:0000000000000000 .L0 
     /tmp/ccWbcWNr.s:207    .text._ZN7WorkerBD0Ev:0000000000000000 .L0 
     /tmp/ccWbcWNr.s:208    .text._ZN7WorkerBD0Ev:0000000000000004 .L0 
     /tmp/ccWbcWNr.s:212    .text._ZN7WorkerBD0Ev:0000000000000010 .L0 
     /tmp/ccWbcWNr.s:213    .text._ZN7WorkerBD0Ev:0000000000000010 .L0 
     /tmp/ccWbcWNr.s:214    .text._ZN7WorkerBD0Ev:0000000000000010 .L0 
     /tmp/ccWbcWNr.s:216    .text._ZN7WorkerBD0Ev:0000000000000014 .L0 
     /tmp/ccWbcWNr.s:222    .text._ZN7WorkerBD0Ev:0000000000000018 .L0 
     /tmp/ccWbcWNr.s:232    .text._ZN7WorkerBD0Ev:000000000000003c .L0 
     /tmp/ccWbcWNr.s:234    .text._ZN7WorkerBD0Ev:0000000000000040 .L0 
     /tmp/ccWbcWNr.s:235    .text._ZN7WorkerBD0Ev:0000000000000040 .L0 
     /tmp/ccWbcWNr.s:237    .text._ZN7WorkerBD0Ev:0000000000000044 .L0 
     /tmp/ccWbcWNr.s:240    .text._ZN7WorkerBD0Ev:0000000000000048 .L0 
     /tmp/ccWbcWNr.s:242    .text._ZN7WorkerBD0Ev:000000000000004c .L0 
     /tmp/ccWbcWNr.s:249    .text._ZN7WorkerCD2Ev:0000000000000000 _ZN7WorkerCD2Ev
     /tmp/ccWbcWNr.s:252    .text._ZN7WorkerCD2Ev:0000000000000000 .L0 
     /tmp/ccWbcWNr.s:254    .text._ZN7WorkerCD2Ev:0000000000000000 .L0 
     /tmp/ccWbcWNr.s:255    .text._ZN7WorkerCD2Ev:0000000000000004 .L0 
     /tmp/ccWbcWNr.s:258    .text._ZN7WorkerCD2Ev:000000000000000c .L0 
     /tmp/ccWbcWNr.s:259    .text._ZN7WorkerCD2Ev:000000000000000c .L0 
     /tmp/ccWbcWNr.s:261    .text._ZN7WorkerCD2Ev:0000000000000010 .L0 
     /tmp/ccWbcWNr.s:1531   .data.rel.ro.local._ZTV7WorkerC:0000000000000000 _ZTV7WorkerC
     /tmp/ccWbcWNr.s:264    .text._ZN7WorkerCD2Ev:0000000000000010 .L0 
     /tmp/ccWbcWNr.s:270    .text._ZN7WorkerCD2Ev:0000000000000028 .L0 
     /tmp/ccWbcWNr.s:272    .text._ZN7WorkerCD2Ev:000000000000002c .L0 
     /tmp/ccWbcWNr.s:273    .text._ZN7WorkerCD2Ev:000000000000002c .L0 
     /tmp/ccWbcWNr.s:275    .text._ZN7WorkerCD2Ev:0000000000000030 .L0 
     /tmp/ccWbcWNr.s:277    .text._ZN7WorkerCD2Ev:0000000000000034 .L0 
     /tmp/ccWbcWNr.s:249    .text._ZN7WorkerCD2Ev:0000000000000000 _ZN7WorkerCD1Ev
     /tmp/ccWbcWNr.s:286    .text._ZN7WorkerCD0Ev:0000000000000000 _ZN7WorkerCD0Ev
     /tmp/ccWbcWNr.s:289    .text._ZN7WorkerCD0Ev:0000000000000000 .L0 
     /tmp/ccWbcWNr.s:291    .text._ZN7WorkerCD0Ev:0000000000000000 .L0 
     /tmp/ccWbcWNr.s:292    .text._ZN7WorkerCD0Ev:0000000000000004 .L0 
     /tmp/ccWbcWNr.s:296    .text._ZN7WorkerCD0Ev:0000000000000010 .L0 
     /tmp/ccWbcWNr.s:297    .text._ZN7WorkerCD0Ev:0000000000000010 .L0 
     /tmp/ccWbcWNr.s:298    .text._ZN7WorkerCD0Ev:0000000000000010 .L0 
     /tmp/ccWbcWNr.s:300    .text._ZN7WorkerCD0Ev:0000000000000014 .L0 
GAS LISTING /tmp/ccWbcWNr.s 			page 38


     /tmp/ccWbcWNr.s:306    .text._ZN7WorkerCD0Ev:0000000000000018 .L0 
     /tmp/ccWbcWNr.s:316    .text._ZN7WorkerCD0Ev:000000000000003c .L0 
     /tmp/ccWbcWNr.s:318    .text._ZN7WorkerCD0Ev:0000000000000040 .L0 
     /tmp/ccWbcWNr.s:319    .text._ZN7WorkerCD0Ev:0000000000000040 .L0 
     /tmp/ccWbcWNr.s:321    .text._ZN7WorkerCD0Ev:0000000000000044 .L0 
     /tmp/ccWbcWNr.s:324    .text._ZN7WorkerCD0Ev:0000000000000048 .L0 
     /tmp/ccWbcWNr.s:326    .text._ZN7WorkerCD0Ev:000000000000004c .L0 
     /tmp/ccWbcWNr.s:333    .text._ZN7WorkerDD2Ev:0000000000000000 _ZN7WorkerDD2Ev
     /tmp/ccWbcWNr.s:336    .text._ZN7WorkerDD2Ev:0000000000000000 .L0 
     /tmp/ccWbcWNr.s:338    .text._ZN7WorkerDD2Ev:0000000000000000 .L0 
     /tmp/ccWbcWNr.s:339    .text._ZN7WorkerDD2Ev:0000000000000004 .L0 
     /tmp/ccWbcWNr.s:342    .text._ZN7WorkerDD2Ev:000000000000000c .L0 
     /tmp/ccWbcWNr.s:343    .text._ZN7WorkerDD2Ev:000000000000000c .L0 
     /tmp/ccWbcWNr.s:345    .text._ZN7WorkerDD2Ev:0000000000000010 .L0 
     /tmp/ccWbcWNr.s:1542   .data.rel.ro.local._ZTV7WorkerD:0000000000000000 _ZTV7WorkerD
     /tmp/ccWbcWNr.s:348    .text._ZN7WorkerDD2Ev:0000000000000010 .L0 
     /tmp/ccWbcWNr.s:354    .text._ZN7WorkerDD2Ev:0000000000000028 .L0 
     /tmp/ccWbcWNr.s:356    .text._ZN7WorkerDD2Ev:000000000000002c .L0 
     /tmp/ccWbcWNr.s:357    .text._ZN7WorkerDD2Ev:000000000000002c .L0 
     /tmp/ccWbcWNr.s:359    .text._ZN7WorkerDD2Ev:0000000000000030 .L0 
     /tmp/ccWbcWNr.s:361    .text._ZN7WorkerDD2Ev:0000000000000034 .L0 
     /tmp/ccWbcWNr.s:333    .text._ZN7WorkerDD2Ev:0000000000000000 _ZN7WorkerDD1Ev
     /tmp/ccWbcWNr.s:370    .text._ZN7WorkerDD0Ev:0000000000000000 _ZN7WorkerDD0Ev
     /tmp/ccWbcWNr.s:373    .text._ZN7WorkerDD0Ev:0000000000000000 .L0 
     /tmp/ccWbcWNr.s:375    .text._ZN7WorkerDD0Ev:0000000000000000 .L0 
     /tmp/ccWbcWNr.s:376    .text._ZN7WorkerDD0Ev:0000000000000004 .L0 
     /tmp/ccWbcWNr.s:380    .text._ZN7WorkerDD0Ev:0000000000000010 .L0 
     /tmp/ccWbcWNr.s:381    .text._ZN7WorkerDD0Ev:0000000000000010 .L0 
     /tmp/ccWbcWNr.s:382    .text._ZN7WorkerDD0Ev:0000000000000010 .L0 
     /tmp/ccWbcWNr.s:384    .text._ZN7WorkerDD0Ev:0000000000000014 .L0 
     /tmp/ccWbcWNr.s:390    .text._ZN7WorkerDD0Ev:0000000000000018 .L0 
     /tmp/ccWbcWNr.s:400    .text._ZN7WorkerDD0Ev:000000000000003c .L0 
     /tmp/ccWbcWNr.s:402    .text._ZN7WorkerDD0Ev:0000000000000040 .L0 
     /tmp/ccWbcWNr.s:403    .text._ZN7WorkerDD0Ev:0000000000000040 .L0 
     /tmp/ccWbcWNr.s:405    .text._ZN7WorkerDD0Ev:0000000000000044 .L0 
     /tmp/ccWbcWNr.s:408    .text._ZN7WorkerDD0Ev:0000000000000048 .L0 
     /tmp/ccWbcWNr.s:410    .text._ZN7WorkerDD0Ev:000000000000004c .L0 
     /tmp/ccWbcWNr.s:427    .text:0000000000000074 _ZN7WorkerA11workerBodyAEPv
     /tmp/ccWbcWNr.s:430    .text:0000000000000074 .L0 
     /tmp/ccWbcWNr.s:432    .text:0000000000000074 .L0 
     /tmp/ccWbcWNr.s:433    .text:0000000000000078 .L0 
     /tmp/ccWbcWNr.s:438    .text:0000000000000088 .L0 
     /tmp/ccWbcWNr.s:439    .text:0000000000000088 .L0 
     /tmp/ccWbcWNr.s:440    .text:0000000000000088 .L0 
     /tmp/ccWbcWNr.s:441    .text:0000000000000088 .L0 
     /tmp/ccWbcWNr.s:443    .text:000000000000008c .L0 
     /tmp/ccWbcWNr.s:447    .text:000000000000008c .L0 
     /tmp/ccWbcWNr.s:448    .text:000000000000008c .L0 
     /tmp/ccWbcWNr.s:457    .text:0000000000000094 .L0 
     /tmp/ccWbcWNr.s:461    .text:0000000000000098 .L0 
     /tmp/ccWbcWNr.s:465    .text:00000000000000a0 .L0 
     /tmp/ccWbcWNr.s:466    .text:00000000000000a0 .L0 
     /tmp/ccWbcWNr.s:470    .text:00000000000000a8 .L0 
     /tmp/ccWbcWNr.s:474    .text:00000000000000ac .L0 
     /tmp/ccWbcWNr.s:479    .text:00000000000000b4 .L0 
     /tmp/ccWbcWNr.s:487    .text:00000000000000bc .L0 
     /tmp/ccWbcWNr.s:491    .text:00000000000000c0 .L0 
GAS LISTING /tmp/ccWbcWNr.s 			page 39


     /tmp/ccWbcWNr.s:495    .text:00000000000000c8 .L0 
     /tmp/ccWbcWNr.s:496    .text:00000000000000c8 .L0 
     /tmp/ccWbcWNr.s:500    .text:00000000000000d8 .L0 
     /tmp/ccWbcWNr.s:501    .text:00000000000000d8 .L0 
     /tmp/ccWbcWNr.s:507    .text:00000000000000ec .L0 
     /tmp/ccWbcWNr.s:508    .text:00000000000000ec .L0 
     /tmp/ccWbcWNr.s:513    .text:00000000000000fc .L0 
     /tmp/ccWbcWNr.s:514    .text:00000000000000fc .L0 
     /tmp/ccWbcWNr.s:522    .text:0000000000000104 .L0 
     /tmp/ccWbcWNr.s:523    .text:0000000000000104 .L0 
     /tmp/ccWbcWNr.s:527    .text:0000000000000114 .L0 
     /tmp/ccWbcWNr.s:528    .text:0000000000000114 .L0 
     /tmp/ccWbcWNr.s:531    .text:0000000000000120 .L0 
     /tmp/ccWbcWNr.s:532    .text:0000000000000124 .L0 
     /tmp/ccWbcWNr.s:534    .text:0000000000000128 .L0 
     /tmp/ccWbcWNr.s:535    .text:0000000000000128 .L0 
     /tmp/ccWbcWNr.s:537    .text:000000000000012c .L0 
     /tmp/ccWbcWNr.s:539    .text:0000000000000130 .L0 
     /tmp/ccWbcWNr.s:542    .text:0000000000000134 .L0 
     /tmp/ccWbcWNr.s:544    .text:0000000000000138 .L0 
     /tmp/ccWbcWNr.s:551    .text._ZN7WorkerA3runEv:0000000000000000 _ZN7WorkerA3runEv
     /tmp/ccWbcWNr.s:554    .text._ZN7WorkerA3runEv:0000000000000000 .L0 
     /tmp/ccWbcWNr.s:556    .text._ZN7WorkerA3runEv:0000000000000000 .L0 
     /tmp/ccWbcWNr.s:557    .text._ZN7WorkerA3runEv:0000000000000004 .L0 
     /tmp/ccWbcWNr.s:560    .text._ZN7WorkerA3runEv:000000000000000c .L0 
     /tmp/ccWbcWNr.s:561    .text._ZN7WorkerA3runEv:000000000000000c .L0 
     /tmp/ccWbcWNr.s:563    .text._ZN7WorkerA3runEv:0000000000000010 .L0 
     /tmp/ccWbcWNr.s:565    .text._ZN7WorkerA3runEv:0000000000000010 .L0 
     /tmp/ccWbcWNr.s:566    .text._ZN7WorkerA3runEv:0000000000000010 .L0 
     /tmp/ccWbcWNr.s:570    .text._ZN7WorkerA3runEv:000000000000001c .L0 
     /tmp/ccWbcWNr.s:571    .text._ZN7WorkerA3runEv:0000000000000020 .L0 
     /tmp/ccWbcWNr.s:573    .text._ZN7WorkerA3runEv:0000000000000024 .L0 
     /tmp/ccWbcWNr.s:574    .text._ZN7WorkerA3runEv:0000000000000024 .L0 
     /tmp/ccWbcWNr.s:576    .text._ZN7WorkerA3runEv:0000000000000028 .L0 
     /tmp/ccWbcWNr.s:578    .text._ZN7WorkerA3runEv:000000000000002c .L0 
     /tmp/ccWbcWNr.s:592    .text:0000000000000138 _ZN7WorkerB11workerBodyBEPv
     /tmp/ccWbcWNr.s:595    .text:0000000000000138 .L0 
     /tmp/ccWbcWNr.s:597    .text:0000000000000138 .L0 
     /tmp/ccWbcWNr.s:598    .text:000000000000013c .L0 
     /tmp/ccWbcWNr.s:603    .text:000000000000014c .L0 
     /tmp/ccWbcWNr.s:604    .text:000000000000014c .L0 
     /tmp/ccWbcWNr.s:605    .text:000000000000014c .L0 
     /tmp/ccWbcWNr.s:606    .text:000000000000014c .L0 
     /tmp/ccWbcWNr.s:608    .text:0000000000000150 .L0 
     /tmp/ccWbcWNr.s:612    .text:0000000000000150 .L0 
     /tmp/ccWbcWNr.s:613    .text:0000000000000150 .L0 
     /tmp/ccWbcWNr.s:622    .text:0000000000000158 .L0 
     /tmp/ccWbcWNr.s:626    .text:000000000000015c .L0 
     /tmp/ccWbcWNr.s:630    .text:0000000000000164 .L0 
     /tmp/ccWbcWNr.s:631    .text:0000000000000164 .L0 
     /tmp/ccWbcWNr.s:635    .text:000000000000016c .L0 
     /tmp/ccWbcWNr.s:639    .text:0000000000000170 .L0 
     /tmp/ccWbcWNr.s:644    .text:0000000000000178 .L0 
     /tmp/ccWbcWNr.s:652    .text:0000000000000180 .L0 
     /tmp/ccWbcWNr.s:656    .text:0000000000000184 .L0 
     /tmp/ccWbcWNr.s:660    .text:000000000000018c .L0 
     /tmp/ccWbcWNr.s:661    .text:000000000000018c .L0 
GAS LISTING /tmp/ccWbcWNr.s 			page 40


     /tmp/ccWbcWNr.s:665    .text:000000000000019c .L0 
     /tmp/ccWbcWNr.s:666    .text:000000000000019c .L0 
     /tmp/ccWbcWNr.s:672    .text:00000000000001b0 .L0 
     /tmp/ccWbcWNr.s:673    .text:00000000000001b0 .L0 
     /tmp/ccWbcWNr.s:678    .text:00000000000001c0 .L0 
     /tmp/ccWbcWNr.s:679    .text:00000000000001c0 .L0 
     /tmp/ccWbcWNr.s:687    .text:00000000000001c8 .L0 
     /tmp/ccWbcWNr.s:688    .text:00000000000001c8 .L0 
     /tmp/ccWbcWNr.s:692    .text:00000000000001d8 .L0 
     /tmp/ccWbcWNr.s:693    .text:00000000000001d8 .L0 
     /tmp/ccWbcWNr.s:696    .text:00000000000001e4 .L0 
     /tmp/ccWbcWNr.s:697    .text:00000000000001e4 .L0 
     /tmp/ccWbcWNr.s:700    .text:00000000000001ec .L0 
     /tmp/ccWbcWNr.s:701    .text:00000000000001f0 .L0 
     /tmp/ccWbcWNr.s:703    .text:00000000000001f4 .L0 
     /tmp/ccWbcWNr.s:704    .text:00000000000001f4 .L0 
     /tmp/ccWbcWNr.s:706    .text:00000000000001f8 .L0 
     /tmp/ccWbcWNr.s:708    .text:00000000000001fc .L0 
     /tmp/ccWbcWNr.s:711    .text:0000000000000200 .L0 
     /tmp/ccWbcWNr.s:713    .text:0000000000000204 .L0 
     /tmp/ccWbcWNr.s:720    .text._ZN7WorkerB3runEv:0000000000000000 _ZN7WorkerB3runEv
     /tmp/ccWbcWNr.s:723    .text._ZN7WorkerB3runEv:0000000000000000 .L0 
     /tmp/ccWbcWNr.s:725    .text._ZN7WorkerB3runEv:0000000000000000 .L0 
     /tmp/ccWbcWNr.s:726    .text._ZN7WorkerB3runEv:0000000000000004 .L0 
     /tmp/ccWbcWNr.s:729    .text._ZN7WorkerB3runEv:000000000000000c .L0 
     /tmp/ccWbcWNr.s:730    .text._ZN7WorkerB3runEv:000000000000000c .L0 
     /tmp/ccWbcWNr.s:732    .text._ZN7WorkerB3runEv:0000000000000010 .L0 
     /tmp/ccWbcWNr.s:734    .text._ZN7WorkerB3runEv:0000000000000010 .L0 
     /tmp/ccWbcWNr.s:735    .text._ZN7WorkerB3runEv:0000000000000010 .L0 
     /tmp/ccWbcWNr.s:739    .text._ZN7WorkerB3runEv:000000000000001c .L0 
     /tmp/ccWbcWNr.s:740    .text._ZN7WorkerB3runEv:0000000000000020 .L0 
     /tmp/ccWbcWNr.s:742    .text._ZN7WorkerB3runEv:0000000000000024 .L0 
     /tmp/ccWbcWNr.s:743    .text._ZN7WorkerB3runEv:0000000000000024 .L0 
     /tmp/ccWbcWNr.s:745    .text._ZN7WorkerB3runEv:0000000000000028 .L0 
     /tmp/ccWbcWNr.s:747    .text._ZN7WorkerB3runEv:000000000000002c .L0 
     /tmp/ccWbcWNr.s:767    .text:0000000000000204 _ZN7WorkerC11workerBodyCEPv
     /tmp/ccWbcWNr.s:770    .text:0000000000000204 .L0 
     /tmp/ccWbcWNr.s:772    .text:0000000000000204 .L0 
     /tmp/ccWbcWNr.s:773    .text:0000000000000208 .L0 
     /tmp/ccWbcWNr.s:778    .text:0000000000000218 .L0 
     /tmp/ccWbcWNr.s:779    .text:0000000000000218 .L0 
     /tmp/ccWbcWNr.s:780    .text:0000000000000218 .L0 
     /tmp/ccWbcWNr.s:781    .text:0000000000000218 .L0 
     /tmp/ccWbcWNr.s:783    .text:000000000000021c .L0 
     /tmp/ccWbcWNr.s:786    .text:000000000000021c .L0 
     /tmp/ccWbcWNr.s:787    .text:000000000000021c .L0 
     /tmp/ccWbcWNr.s:792    .text:0000000000000224 .L0 
     /tmp/ccWbcWNr.s:793    .text:0000000000000224 .L0 
     /tmp/ccWbcWNr.s:797    .text:0000000000000234 .L0 
     /tmp/ccWbcWNr.s:798    .text:0000000000000234 .L0 
     /tmp/ccWbcWNr.s:804    .text:0000000000000248 .L0 
     /tmp/ccWbcWNr.s:805    .text:0000000000000248 .L0 
     /tmp/ccWbcWNr.s:809    .text:0000000000000258 .L0 
     /tmp/ccWbcWNr.s:815    .text:0000000000000260 .L0 
     /tmp/ccWbcWNr.s:816    .text:0000000000000260 .L0 
     /tmp/ccWbcWNr.s:819    .text:0000000000000268 .L0 
     /tmp/ccWbcWNr.s:820    .text:0000000000000268 .L0 
GAS LISTING /tmp/ccWbcWNr.s 			page 41


     /tmp/ccWbcWNr.s:824    .text:0000000000000278 .L0 
test/Threads_CPP_API_test.cpp:90     .text:0000000000000278 .L0 
     /tmp/ccWbcWNr.s:830    .text:000000000000027c .L0 
     /tmp/ccWbcWNr.s:832    .text:000000000000027c .L0 
     /tmp/ccWbcWNr.s:835    .text:0000000000000284 .L0 
     /tmp/ccWbcWNr.s:836    .text:0000000000000284 .L0 
test/Threads_CPP_API_test.cpp:96     .text:0000000000000284 .L0 
     /tmp/ccWbcWNr.s:843    .text:0000000000000288 .L0 
     /tmp/ccWbcWNr.s:845    .text:0000000000000288 .L0 
     /tmp/ccWbcWNr.s:849    .text:0000000000000298 .L0 
     /tmp/ccWbcWNr.s:850    .text:0000000000000298 .L0 
     /tmp/ccWbcWNr.s:856    .text:00000000000002ac .L0 
     /tmp/ccWbcWNr.s:857    .text:00000000000002ac .L0 
     /tmp/ccWbcWNr.s:861    .text:00000000000002bc .L0 
     /tmp/ccWbcWNr.s:862    .text:00000000000002bc .L0 
     /tmp/ccWbcWNr.s:868    .text:00000000000002cc .L0 
     /tmp/ccWbcWNr.s:869    .text:00000000000002cc .L0 
     /tmp/ccWbcWNr.s:874    .text:00000000000002dc .L0 
     /tmp/ccWbcWNr.s:875    .text:00000000000002dc .L0 
     /tmp/ccWbcWNr.s:881    .text:00000000000002f0 .L0 
     /tmp/ccWbcWNr.s:882    .text:00000000000002f0 .L0 
     /tmp/ccWbcWNr.s:888    .text:0000000000000304 .L0 
     /tmp/ccWbcWNr.s:889    .text:0000000000000304 .L0 
     /tmp/ccWbcWNr.s:893    .text:0000000000000314 .L0 
     /tmp/ccWbcWNr.s:894    .text:0000000000000314 .L0 
     /tmp/ccWbcWNr.s:900    .text:0000000000000328 .L0 
     /tmp/ccWbcWNr.s:901    .text:0000000000000328 .L0 
     /tmp/ccWbcWNr.s:905    .text:0000000000000338 .L0 
     /tmp/ccWbcWNr.s:911    .text:0000000000000340 .L0 
     /tmp/ccWbcWNr.s:912    .text:0000000000000340 .L0 
     /tmp/ccWbcWNr.s:915    .text:0000000000000348 .L0 
     /tmp/ccWbcWNr.s:916    .text:0000000000000348 .L0 
     /tmp/ccWbcWNr.s:920    .text:0000000000000358 .L0 
     /tmp/ccWbcWNr.s:921    .text:0000000000000358 .L0 
     /tmp/ccWbcWNr.s:924    .text:0000000000000364 .L0 
     /tmp/ccWbcWNr.s:925    .text:0000000000000364 .L0 
     /tmp/ccWbcWNr.s:928    .text:000000000000036c .L0 
     /tmp/ccWbcWNr.s:929    .text:0000000000000370 .L0 
     /tmp/ccWbcWNr.s:931    .text:0000000000000374 .L0 
     /tmp/ccWbcWNr.s:932    .text:0000000000000374 .L0 
     /tmp/ccWbcWNr.s:934    .text:0000000000000378 .L0 
     /tmp/ccWbcWNr.s:937    .text:000000000000037c .L0 
     /tmp/ccWbcWNr.s:940    .text:0000000000000380 .L0 
     /tmp/ccWbcWNr.s:942    .text:0000000000000384 .L0 
     /tmp/ccWbcWNr.s:949    .text._ZN7WorkerC3runEv:0000000000000000 _ZN7WorkerC3runEv
     /tmp/ccWbcWNr.s:952    .text._ZN7WorkerC3runEv:0000000000000000 .L0 
     /tmp/ccWbcWNr.s:954    .text._ZN7WorkerC3runEv:0000000000000000 .L0 
     /tmp/ccWbcWNr.s:955    .text._ZN7WorkerC3runEv:0000000000000004 .L0 
     /tmp/ccWbcWNr.s:958    .text._ZN7WorkerC3runEv:000000000000000c .L0 
     /tmp/ccWbcWNr.s:959    .text._ZN7WorkerC3runEv:000000000000000c .L0 
     /tmp/ccWbcWNr.s:961    .text._ZN7WorkerC3runEv:0000000000000010 .L0 
     /tmp/ccWbcWNr.s:963    .text._ZN7WorkerC3runEv:0000000000000010 .L0 
     /tmp/ccWbcWNr.s:964    .text._ZN7WorkerC3runEv:0000000000000010 .L0 
     /tmp/ccWbcWNr.s:968    .text._ZN7WorkerC3runEv:000000000000001c .L0 
     /tmp/ccWbcWNr.s:969    .text._ZN7WorkerC3runEv:0000000000000020 .L0 
     /tmp/ccWbcWNr.s:971    .text._ZN7WorkerC3runEv:0000000000000024 .L0 
     /tmp/ccWbcWNr.s:972    .text._ZN7WorkerC3runEv:0000000000000024 .L0 
GAS LISTING /tmp/ccWbcWNr.s 			page 42


     /tmp/ccWbcWNr.s:974    .text._ZN7WorkerC3runEv:0000000000000028 .L0 
     /tmp/ccWbcWNr.s:976    .text._ZN7WorkerC3runEv:000000000000002c .L0 
     /tmp/ccWbcWNr.s:996    .text:0000000000000384 _ZN7WorkerD11workerBodyDEPv
     /tmp/ccWbcWNr.s:999    .text:0000000000000384 .L0 
     /tmp/ccWbcWNr.s:1001   .text:0000000000000384 .L0 
     /tmp/ccWbcWNr.s:1002   .text:0000000000000388 .L0 
     /tmp/ccWbcWNr.s:1007   .text:0000000000000398 .L0 
     /tmp/ccWbcWNr.s:1008   .text:0000000000000398 .L0 
     /tmp/ccWbcWNr.s:1009   .text:0000000000000398 .L0 
     /tmp/ccWbcWNr.s:1010   .text:0000000000000398 .L0 
     /tmp/ccWbcWNr.s:1012   .text:000000000000039c .L0 
     /tmp/ccWbcWNr.s:1015   .text:000000000000039c .L0 
     /tmp/ccWbcWNr.s:1016   .text:000000000000039c .L0 
     /tmp/ccWbcWNr.s:1021   .text:00000000000003a4 .L0 
     /tmp/ccWbcWNr.s:1022   .text:00000000000003a4 .L0 
     /tmp/ccWbcWNr.s:1026   .text:00000000000003b4 .L0 
     /tmp/ccWbcWNr.s:1027   .text:00000000000003b4 .L0 
     /tmp/ccWbcWNr.s:1033   .text:00000000000003c8 .L0 
     /tmp/ccWbcWNr.s:1034   .text:00000000000003c8 .L0 
     /tmp/ccWbcWNr.s:1038   .text:00000000000003d8 .L0 
     /tmp/ccWbcWNr.s:1044   .text:00000000000003e0 .L0 
     /tmp/ccWbcWNr.s:1045   .text:00000000000003e0 .L0 
     /tmp/ccWbcWNr.s:1048   .text:00000000000003e8 .L0 
     /tmp/ccWbcWNr.s:1049   .text:00000000000003e8 .L0 
     /tmp/ccWbcWNr.s:1053   .text:00000000000003f8 .L0 
test/Threads_CPP_API_test.cpp:122    .text:00000000000003f8 .L0 
     /tmp/ccWbcWNr.s:1059   .text:00000000000003fc .L0 
     /tmp/ccWbcWNr.s:1061   .text:00000000000003fc .L0 
     /tmp/ccWbcWNr.s:1064   .text:0000000000000404 .L0 
     /tmp/ccWbcWNr.s:1065   .text:0000000000000404 .L0 
     /tmp/ccWbcWNr.s:1071   .text:0000000000000414 .L0 
     /tmp/ccWbcWNr.s:1072   .text:0000000000000414 .L0 
     /tmp/ccWbcWNr.s:1077   .text:0000000000000424 .L0 
     /tmp/ccWbcWNr.s:1078   .text:0000000000000424 .L0 
     /tmp/ccWbcWNr.s:1084   .text:0000000000000438 .L0 
     /tmp/ccWbcWNr.s:1085   .text:0000000000000438 .L0 
     /tmp/ccWbcWNr.s:1091   .text:000000000000044c .L0 
     /tmp/ccWbcWNr.s:1092   .text:000000000000044c .L0 
     /tmp/ccWbcWNr.s:1096   .text:000000000000045c .L0 
     /tmp/ccWbcWNr.s:1097   .text:000000000000045c .L0 
     /tmp/ccWbcWNr.s:1103   .text:0000000000000470 .L0 
     /tmp/ccWbcWNr.s:1104   .text:0000000000000470 .L0 
     /tmp/ccWbcWNr.s:1108   .text:0000000000000480 .L0 
     /tmp/ccWbcWNr.s:1114   .text:0000000000000488 .L0 
     /tmp/ccWbcWNr.s:1115   .text:0000000000000488 .L0 
     /tmp/ccWbcWNr.s:1118   .text:0000000000000490 .L0 
     /tmp/ccWbcWNr.s:1119   .text:0000000000000490 .L0 
     /tmp/ccWbcWNr.s:1123   .text:00000000000004a0 .L0 
     /tmp/ccWbcWNr.s:1124   .text:00000000000004a0 .L0 
     /tmp/ccWbcWNr.s:1127   .text:00000000000004ac .L0 
     /tmp/ccWbcWNr.s:1128   .text:00000000000004ac .L0 
     /tmp/ccWbcWNr.s:1131   .text:00000000000004b4 .L0 
     /tmp/ccWbcWNr.s:1132   .text:00000000000004b8 .L0 
     /tmp/ccWbcWNr.s:1134   .text:00000000000004bc .L0 
     /tmp/ccWbcWNr.s:1135   .text:00000000000004bc .L0 
     /tmp/ccWbcWNr.s:1137   .text:00000000000004c0 .L0 
     /tmp/ccWbcWNr.s:1140   .text:00000000000004c4 .L0 
GAS LISTING /tmp/ccWbcWNr.s 			page 43


     /tmp/ccWbcWNr.s:1143   .text:00000000000004c8 .L0 
     /tmp/ccWbcWNr.s:1145   .text:00000000000004cc .L0 
     /tmp/ccWbcWNr.s:1152   .text._ZN7WorkerD3runEv:0000000000000000 _ZN7WorkerD3runEv
     /tmp/ccWbcWNr.s:1155   .text._ZN7WorkerD3runEv:0000000000000000 .L0 
     /tmp/ccWbcWNr.s:1157   .text._ZN7WorkerD3runEv:0000000000000000 .L0 
     /tmp/ccWbcWNr.s:1158   .text._ZN7WorkerD3runEv:0000000000000004 .L0 
     /tmp/ccWbcWNr.s:1161   .text._ZN7WorkerD3runEv:000000000000000c .L0 
     /tmp/ccWbcWNr.s:1162   .text._ZN7WorkerD3runEv:000000000000000c .L0 
     /tmp/ccWbcWNr.s:1164   .text._ZN7WorkerD3runEv:0000000000000010 .L0 
     /tmp/ccWbcWNr.s:1166   .text._ZN7WorkerD3runEv:0000000000000010 .L0 
     /tmp/ccWbcWNr.s:1167   .text._ZN7WorkerD3runEv:0000000000000010 .L0 
     /tmp/ccWbcWNr.s:1171   .text._ZN7WorkerD3runEv:000000000000001c .L0 
     /tmp/ccWbcWNr.s:1172   .text._ZN7WorkerD3runEv:0000000000000020 .L0 
     /tmp/ccWbcWNr.s:1174   .text._ZN7WorkerD3runEv:0000000000000024 .L0 
     /tmp/ccWbcWNr.s:1175   .text._ZN7WorkerD3runEv:0000000000000024 .L0 
     /tmp/ccWbcWNr.s:1177   .text._ZN7WorkerD3runEv:0000000000000028 .L0 
     /tmp/ccWbcWNr.s:1179   .text._ZN7WorkerD3runEv:000000000000002c .L0 
     /tmp/ccWbcWNr.s:1199   .text:00000000000004cc _Z20Threads_CPP_API_testv
     /tmp/ccWbcWNr.s:1202   .text:00000000000004cc .L0 
     /tmp/ccWbcWNr.s:5424   .data.rel.local.DW.ref.__gxx_personality_v0:0000000000000000 DW.ref.__gxx_personality_v0
     /tmp/ccWbcWNr.s:1205   .text:00000000000004cc .L0 
     /tmp/ccWbcWNr.s:1206   .text:00000000000004d0 .L0 
     /tmp/ccWbcWNr.s:1211   .text:00000000000004e0 .L0 
     /tmp/ccWbcWNr.s:1212   .text:00000000000004e0 .L0 
     /tmp/ccWbcWNr.s:1213   .text:00000000000004e0 .L0 
     /tmp/ccWbcWNr.s:1214   .text:00000000000004e0 .L0 
     /tmp/ccWbcWNr.s:1216   .text:00000000000004e4 .L0 
     /tmp/ccWbcWNr.s:1218   .text:00000000000004e4 .L0 
     /tmp/ccWbcWNr.s:1219   .text:00000000000004e4 .L0 
     /tmp/ccWbcWNr.s:1220   .text:00000000000004e4 .L0 
     /tmp/ccWbcWNr.s:1231   .text:00000000000004f4 .L0 
     /tmp/ccWbcWNr.s:1240   .text:0000000000000508 .L0 
     /tmp/ccWbcWNr.s:1242   .text:000000000000050c .L0 
     /tmp/ccWbcWNr.s:1243   .text:000000000000050c .L0 
     /tmp/ccWbcWNr.s:1248   .text:000000000000051c .L0 
     /tmp/ccWbcWNr.s:1249   .text:000000000000051c .L0 
     /tmp/ccWbcWNr.s:1259   .text:000000000000052c .L0 
     /tmp/ccWbcWNr.s:1268   .text:0000000000000540 .L0 
     /tmp/ccWbcWNr.s:1270   .text:0000000000000544 .L0 
     /tmp/ccWbcWNr.s:1271   .text:0000000000000544 .L0 
     /tmp/ccWbcWNr.s:1276   .text:0000000000000554 .L0 
     /tmp/ccWbcWNr.s:1277   .text:0000000000000554 .L0 
     /tmp/ccWbcWNr.s:1287   .text:0000000000000564 .L0 
     /tmp/ccWbcWNr.s:1296   .text:0000000000000578 .L0 
     /tmp/ccWbcWNr.s:1298   .text:000000000000057c .L0 
     /tmp/ccWbcWNr.s:1299   .text:000000000000057c .L0 
     /tmp/ccWbcWNr.s:1304   .text:000000000000058c .L0 
     /tmp/ccWbcWNr.s:1305   .text:000000000000058c .L0 
     /tmp/ccWbcWNr.s:1315   .text:000000000000059c .L0 
     /tmp/ccWbcWNr.s:1324   .text:00000000000005b0 .L0 
     /tmp/ccWbcWNr.s:1326   .text:00000000000005b4 .L0 
     /tmp/ccWbcWNr.s:1327   .text:00000000000005b4 .L0 
     /tmp/ccWbcWNr.s:1333   .text:00000000000005c4 .L0 
     /tmp/ccWbcWNr.s:1337   .text:00000000000005c8 .L0 
     /tmp/ccWbcWNr.s:1340   .text:00000000000005d0 .L0 
     /tmp/ccWbcWNr.s:1341   .text:00000000000005d0 .L0 
     /tmp/ccWbcWNr.s:1345   .text:00000000000005dc .L0 
GAS LISTING /tmp/ccWbcWNr.s 			page 44


     /tmp/ccWbcWNr.s:1349   .text:00000000000005e8 .L0 
     /tmp/ccWbcWNr.s:1356   .text:00000000000005f0 .L0 
     /tmp/ccWbcWNr.s:1357   .text:00000000000005f0 .L0 
     /tmp/ccWbcWNr.s:1361   .text:00000000000005f8 .L0 
     /tmp/ccWbcWNr.s:1362   .text:00000000000005f8 .L0 
     /tmp/ccWbcWNr.s:1363   .text:00000000000005f8 .L0 
     /tmp/ccWbcWNr.s:1365   .text:0000000000000600 .L0 
     /tmp/ccWbcWNr.s:1367   .text:0000000000000604 .L0 
     /tmp/ccWbcWNr.s:1369   .text:000000000000060c .L0 
     /tmp/ccWbcWNr.s:1371   .text:0000000000000610 .L0 
     /tmp/ccWbcWNr.s:1373   .text:0000000000000618 .L0 
     /tmp/ccWbcWNr.s:1375   .text:000000000000061c .L0 
     /tmp/ccWbcWNr.s:1377   .text:0000000000000624 .L0 
     /tmp/ccWbcWNr.s:1385   .text:0000000000000630 .L0 
     /tmp/ccWbcWNr.s:1389   .text:0000000000000634 .L0 
     /tmp/ccWbcWNr.s:1392   .text:000000000000063c .L0 
     /tmp/ccWbcWNr.s:1395   .text:0000000000000640 .L0 
     /tmp/ccWbcWNr.s:1396   .text:0000000000000640 .L0 
     /tmp/ccWbcWNr.s:1398   .text:0000000000000644 .L0 
     /tmp/ccWbcWNr.s:1408   .text:0000000000000658 .L0 
     /tmp/ccWbcWNr.s:1417   .text:0000000000000674 .L0 
     /tmp/ccWbcWNr.s:1426   .text:0000000000000690 .L0 
     /tmp/ccWbcWNr.s:1435   .text:00000000000006ac .L0 
     /tmp/ccWbcWNr.s:1444   .text:00000000000006c4 .L0 
     /tmp/ccWbcWNr.s:1445   .text:00000000000006c8 .L0 
     /tmp/ccWbcWNr.s:1447   .text:00000000000006cc .L0 
     /tmp/ccWbcWNr.s:1448   .text:00000000000006cc .L0 
     /tmp/ccWbcWNr.s:1450   .text:00000000000006d0 .L0 
     /tmp/ccWbcWNr.s:1453   .text:00000000000006d4 .L0 
     /tmp/ccWbcWNr.s:1455   .text:00000000000006d8 .L0 
     /tmp/ccWbcWNr.s:1457   .text:00000000000006dc .L0 
     /tmp/ccWbcWNr.s:1549   .bss:0000000000000000 .LANCHOR0
     /tmp/ccWbcWNr.s:1552   .bss:0000000000000000 _ZL9finishedA
     /tmp/ccWbcWNr.s:1556   .bss:0000000000000001 _ZL9finishedB
     /tmp/ccWbcWNr.s:1560   .bss:0000000000000002 _ZL9finishedC
     /tmp/ccWbcWNr.s:1564   .bss:0000000000000003 _ZL9finishedD
     /tmp/ccWbcWNr.s:1572   .text:00000000000006dc .L0 
     /tmp/ccWbcWNr.s:114    .text._ZN7WorkerAD2Ev:0000000000000034 .L0 
     /tmp/ccWbcWNr.s:161    .text._ZN7WorkerAD0Ev:000000000000004c .L0 
     /tmp/ccWbcWNr.s:198    .text._ZN7WorkerBD2Ev:0000000000000034 .L0 
     /tmp/ccWbcWNr.s:245    .text._ZN7WorkerBD0Ev:000000000000004c .L0 
     /tmp/ccWbcWNr.s:282    .text._ZN7WorkerCD2Ev:0000000000000034 .L0 
     /tmp/ccWbcWNr.s:329    .text._ZN7WorkerCD0Ev:000000000000004c .L0 
     /tmp/ccWbcWNr.s:366    .text._ZN7WorkerDD2Ev:0000000000000034 .L0 
     /tmp/ccWbcWNr.s:413    .text._ZN7WorkerDD0Ev:000000000000004c .L0 
     /tmp/ccWbcWNr.s:581    .text._ZN7WorkerA3runEv:000000000000002c .L0 
     /tmp/ccWbcWNr.s:750    .text._ZN7WorkerB3runEv:000000000000002c .L0 
     /tmp/ccWbcWNr.s:979    .text._ZN7WorkerC3runEv:000000000000002c .L0 
     /tmp/ccWbcWNr.s:1182   .text._ZN7WorkerD3runEv:000000000000002c .L0 
     /tmp/ccWbcWNr.s:415    .rodata.str1.8:0000000000000000 .LC0
     /tmp/ccWbcWNr.s:496    .text:00000000000000c8 .L0 
     /tmp/ccWbcWNr.s:418    .rodata.str1.8:0000000000000008 .LC1
     /tmp/ccWbcWNr.s:508    .text:00000000000000ec .L0 
     /tmp/ccWbcWNr.s:421    .rodata.str1.8:0000000000000010 .LC2
     /tmp/ccWbcWNr.s:523    .text:0000000000000104 .L0 
     /tmp/ccWbcWNr.s:529    .text:0000000000000118 .L0 
     /tmp/ccWbcWNr.s:583    .rodata.str1.8:0000000000000020 .LC3
GAS LISTING /tmp/ccWbcWNr.s 			page 45


     /tmp/ccWbcWNr.s:661    .text:000000000000018c .L0 
     /tmp/ccWbcWNr.s:673    .text:00000000000001b0 .L0 
     /tmp/ccWbcWNr.s:586    .rodata.str1.8:0000000000000028 .LC4
     /tmp/ccWbcWNr.s:688    .text:00000000000001c8 .L0 
     /tmp/ccWbcWNr.s:694    .text:00000000000001dc .L0 
     /tmp/ccWbcWNr.s:752    .rodata.str1.8:0000000000000038 .LC5
     /tmp/ccWbcWNr.s:793    .text:0000000000000224 .L0 
     /tmp/ccWbcWNr.s:805    .text:0000000000000248 .L0 
     /tmp/ccWbcWNr.s:755    .rodata.str1.8:0000000000000040 .LC6
     /tmp/ccWbcWNr.s:820    .text:0000000000000268 .L0 
     /tmp/ccWbcWNr.s:758    .rodata.str1.8:0000000000000050 .LC7
     /tmp/ccWbcWNr.s:845    .text:0000000000000288 .L0 
     /tmp/ccWbcWNr.s:857    .text:00000000000002ac .L0 
     /tmp/ccWbcWNr.s:761    .rodata.str1.8:0000000000000058 .LC8
     /tmp/ccWbcWNr.s:869    .text:00000000000002cc .L0 
     /tmp/ccWbcWNr.s:882    .text:00000000000002f0 .L0 
     /tmp/ccWbcWNr.s:889    .text:0000000000000304 .L0 
     /tmp/ccWbcWNr.s:901    .text:0000000000000328 .L0 
     /tmp/ccWbcWNr.s:916    .text:0000000000000348 .L0 
     /tmp/ccWbcWNr.s:922    .text:000000000000035c .L0 
     /tmp/ccWbcWNr.s:981    .rodata.str1.8:0000000000000068 .LC9
     /tmp/ccWbcWNr.s:1022   .text:00000000000003a4 .L0 
     /tmp/ccWbcWNr.s:1034   .text:00000000000003c8 .L0 
     /tmp/ccWbcWNr.s:984    .rodata.str1.8:0000000000000070 .LC10
     /tmp/ccWbcWNr.s:1049   .text:00000000000003e8 .L0 
     /tmp/ccWbcWNr.s:987    .rodata.str1.8:0000000000000080 .LC11
     /tmp/ccWbcWNr.s:1072   .text:0000000000000414 .L0 
     /tmp/ccWbcWNr.s:1085   .text:0000000000000438 .L0 
     /tmp/ccWbcWNr.s:1092   .text:000000000000044c .L0 
     /tmp/ccWbcWNr.s:1104   .text:0000000000000470 .L0 
     /tmp/ccWbcWNr.s:990    .rodata.str1.8:0000000000000090 .LC12
     /tmp/ccWbcWNr.s:1119   .text:0000000000000490 .L0 
     /tmp/ccWbcWNr.s:1125   .text:00000000000004a4 .L0 
     /tmp/ccWbcWNr.s:1234   .text:00000000000004fc .L0 
     /tmp/ccWbcWNr.s:1184   .rodata.str1.8:00000000000000a0 .LC13
     /tmp/ccWbcWNr.s:1243   .text:000000000000050c .L0 
     /tmp/ccWbcWNr.s:1262   .text:0000000000000534 .L0 
     /tmp/ccWbcWNr.s:1187   .rodata.str1.8:00000000000000b8 .LC14
     /tmp/ccWbcWNr.s:1271   .text:0000000000000544 .L0 
     /tmp/ccWbcWNr.s:1290   .text:000000000000056c .L0 
     /tmp/ccWbcWNr.s:1190   .rodata.str1.8:00000000000000d0 .LC15
     /tmp/ccWbcWNr.s:1299   .text:000000000000057c .L0 
     /tmp/ccWbcWNr.s:1318   .text:00000000000005a4 .L0 
     /tmp/ccWbcWNr.s:1193   .rodata.str1.8:00000000000000e8 .LC16
     /tmp/ccWbcWNr.s:1327   .text:00000000000005b4 .L0 
     /tmp/ccWbcWNr.s:1363   .text:00000000000005f8 .L0 
     /tmp/ccWbcWNr.s:1367   .text:0000000000000604 .L0 
     /tmp/ccWbcWNr.s:1371   .text:0000000000000610 .L0 
     /tmp/ccWbcWNr.s:1375   .text:000000000000061c .L0 
     /tmp/ccWbcWNr.s:50     .text:0000000000000050 .L1
     /tmp/ccWbcWNr.s:67     .text:0000000000000068 .L6
     /tmp/ccWbcWNr.s:37     .text:0000000000000030 .L3
     /tmp/ccWbcWNr.s:489    .text:00000000000000c0 .L29
     /tmp/ccWbcWNr.s:451    .text:0000000000000094 .L31
     /tmp/ccWbcWNr.s:481    .text:00000000000000bc .L25
     /tmp/ccWbcWNr.s:459    .text:0000000000000098 .L27
     /tmp/ccWbcWNr.s:517    .text:0000000000000104 .L24
GAS LISTING /tmp/ccWbcWNr.s 			page 46


     /tmp/ccWbcWNr.s:472    .text:00000000000000ac .L28
     /tmp/ccWbcWNr.s:654    .text:0000000000000184 .L40
     /tmp/ccWbcWNr.s:616    .text:0000000000000158 .L42
     /tmp/ccWbcWNr.s:646    .text:0000000000000180 .L36
     /tmp/ccWbcWNr.s:624    .text:000000000000015c .L38
     /tmp/ccWbcWNr.s:682    .text:00000000000001c8 .L35
     /tmp/ccWbcWNr.s:637    .text:0000000000000170 .L39
     /tmp/ccWbcWNr.s:813    .text:0000000000000260 .L47
     /tmp/ccWbcWNr.s:790    .text:0000000000000224 .L51
     /tmp/ccWbcWNr.s:909    .text:0000000000000340 .L49
     /tmp/ccWbcWNr.s:886    .text:0000000000000304 .L52
     /tmp/ccWbcWNr.s:1042   .text:00000000000003e0 .L57
     /tmp/ccWbcWNr.s:1019   .text:00000000000003a4 .L61
     /tmp/ccWbcWNr.s:1112   .text:0000000000000488 .L59
     /tmp/ccWbcWNr.s:1089   .text:000000000000044c .L62
     /tmp/ccWbcWNr.s:1359   .text:00000000000005f8 .L66
     /tmp/ccWbcWNr.s:1334   .text:00000000000005c8 .L67
     /tmp/ccWbcWNr.s:1353   .text:00000000000005f0 .L68
     /tmp/ccWbcWNr.s:1387   .text:0000000000000634 .L69
     /tmp/ccWbcWNr.s:1442   .text:00000000000006c4 .L65
     /tmp/ccWbcWNr.s:1382   .text:0000000000000630 .L71
     /tmp/ccWbcWNr.s:96     .text._ZN7WorkerAD2Ev:0000000000000010 .L0 
     /tmp/ccWbcWNr.s:138    .text._ZN7WorkerAD0Ev:0000000000000018 .L0 
     /tmp/ccWbcWNr.s:180    .text._ZN7WorkerBD2Ev:0000000000000010 .L0 
     /tmp/ccWbcWNr.s:222    .text._ZN7WorkerBD0Ev:0000000000000018 .L0 
     /tmp/ccWbcWNr.s:264    .text._ZN7WorkerCD2Ev:0000000000000010 .L0 
     /tmp/ccWbcWNr.s:306    .text._ZN7WorkerCD0Ev:0000000000000018 .L0 
     /tmp/ccWbcWNr.s:348    .text._ZN7WorkerDD2Ev:0000000000000010 .L0 
     /tmp/ccWbcWNr.s:390    .text._ZN7WorkerDD0Ev:0000000000000018 .L0 
     /tmp/ccWbcWNr.s:1221   .text:00000000000004e8 .LEHB0
     /tmp/ccWbcWNr.s:1200   .text:00000000000004cc .LFB27
     /tmp/ccWbcWNr.s:1224   .text:00000000000004f0 .LEHE0
     /tmp/ccWbcWNr.s:1227   .text:00000000000004f4 .LEHB1
     /tmp/ccWbcWNr.s:1233   .text:00000000000004fc .LEHE1
     /tmp/ccWbcWNr.s:1404   .text:0000000000000654 .L77
     /tmp/ccWbcWNr.s:1244   .text:0000000000000514 .LEHB2
     /tmp/ccWbcWNr.s:1252   .text:0000000000000528 .LEHE2
     /tmp/ccWbcWNr.s:1255   .text:000000000000052c .LEHB3
     /tmp/ccWbcWNr.s:1261   .text:0000000000000534 .LEHE3
     /tmp/ccWbcWNr.s:1414   .text:0000000000000670 .L78
     /tmp/ccWbcWNr.s:1272   .text:000000000000054c .LEHB4
     /tmp/ccWbcWNr.s:1280   .text:0000000000000560 .LEHE4
     /tmp/ccWbcWNr.s:1283   .text:0000000000000564 .LEHB5
     /tmp/ccWbcWNr.s:1289   .text:000000000000056c .LEHE5
     /tmp/ccWbcWNr.s:1423   .text:000000000000068c .L79
     /tmp/ccWbcWNr.s:1300   .text:0000000000000584 .LEHB6
     /tmp/ccWbcWNr.s:1308   .text:0000000000000598 .LEHE6
     /tmp/ccWbcWNr.s:1311   .text:000000000000059c .LEHB7
     /tmp/ccWbcWNr.s:1317   .text:00000000000005a4 .LEHE7
     /tmp/ccWbcWNr.s:1432   .text:00000000000006a8 .L80
     /tmp/ccWbcWNr.s:1328   .text:00000000000005bc .LEHB8
     /tmp/ccWbcWNr.s:1441   .text:00000000000006c4 .LEHE8
     /tmp/ccWbcWNr.s:3786   .debug_abbrev:0000000000000000 .Ldebug_abbrev0
     /tmp/ccWbcWNr.s:5380   .debug_str:00000000000004ef .LASF93
     /tmp/ccWbcWNr.s:5270   .debug_str:00000000000001be .LASF94
     /tmp/ccWbcWNr.s:5264   .debug_str:000000000000017a .LASF95
     /tmp/ccWbcWNr.s:5156   .debug_ranges:0000000000000000 .Ldebug_ranges0
GAS LISTING /tmp/ccWbcWNr.s 			page 47


     /tmp/ccWbcWNr.s:5210   .debug_line:0000000000000000 .Ldebug_line0
     /tmp/ccWbcWNr.s:5278   .debug_str:0000000000000203 .LASF0
     /tmp/ccWbcWNr.s:5292   .debug_str:000000000000028f .LASF1
     /tmp/ccWbcWNr.s:5346   .debug_str:0000000000000418 .LASF2
     /tmp/ccWbcWNr.s:5254   .debug_str:000000000000013d .LASF3
     /tmp/ccWbcWNr.s:5350   .debug_str:0000000000000430 .LASF4
     /tmp/ccWbcWNr.s:5282   .debug_str:0000000000000222 .LASF5
     /tmp/ccWbcWNr.s:5220   .debug_str:000000000000003f .LASF6
     /tmp/ccWbcWNr.s:5324   .debug_str:0000000000000398 .LASF7
     /tmp/ccWbcWNr.s:5288   .debug_str:000000000000026a .LASF8
     /tmp/ccWbcWNr.s:5238   .debug_str:00000000000000ca .LASF9
     /tmp/ccWbcWNr.s:5262   .debug_str:000000000000016a .LASF10
     /tmp/ccWbcWNr.s:5268   .debug_str:00000000000001b0 .LASF11
     /tmp/ccWbcWNr.s:5234   .debug_str:00000000000000a8 .LASF12
     /tmp/ccWbcWNr.s:5258   .debug_str:0000000000000156 .LASF13
     /tmp/ccWbcWNr.s:5242   .debug_str:00000000000000e7 .LASF14
     /tmp/ccWbcWNr.s:5232   .debug_str:0000000000000098 .LASF15
     /tmp/ccWbcWNr.s:5370   .debug_str:00000000000004b8 .LASF16
     /tmp/ccWbcWNr.s:5250   .debug_str:0000000000000120 .LASF17
     /tmp/ccWbcWNr.s:5364   .debug_str:0000000000000483 .LASF18
     /tmp/ccWbcWNr.s:5272   .debug_str:00000000000001dc .LASF96
     /tmp/ccWbcWNr.s:5390   .debug_str:00000000000005f8 .LASF19
     /tmp/ccWbcWNr.s:5214   .debug_str:0000000000000012 .LASF21
     /tmp/ccWbcWNr.s:5216   .debug_str:0000000000000022 .LASF20
     /tmp/ccWbcWNr.s:5404   .debug_str:000000000000067d .LASF22
     /tmp/ccWbcWNr.s:5306   .debug_str:00000000000002f1 .LASF23
     /tmp/ccWbcWNr.s:5414   .debug_str:00000000000006a3 .LASF24
     /tmp/ccWbcWNr.s:5320   .debug_str:0000000000000370 .LASF25
     /tmp/ccWbcWNr.s:5248   .debug_str:0000000000000117 .LASF26
     /tmp/ccWbcWNr.s:5302   .debug_str:00000000000002e2 .LASF27
     /tmp/ccWbcWNr.s:5374   .debug_str:00000000000004ce .LASF28
     /tmp/ccWbcWNr.s:5348   .debug_str:0000000000000426 .LASF29
     /tmp/ccWbcWNr.s:5308   .debug_str:0000000000000300 .LASF30
     /tmp/ccWbcWNr.s:5352   .debug_str:0000000000000437 .LASF31
     /tmp/ccWbcWNr.s:5354   .debug_str:0000000000000441 .LASF32
     /tmp/ccWbcWNr.s:5412   .debug_str:000000000000069b .LASF33
     /tmp/ccWbcWNr.s:5322   .debug_str:0000000000000386 .LASF34
     /tmp/ccWbcWNr.s:5256   .debug_str:0000000000000143 .LASF35
     /tmp/ccWbcWNr.s:5334   .debug_str:00000000000003d8 .LASF36
     /tmp/ccWbcWNr.s:5396   .debug_str:0000000000000636 .LASF42
     /tmp/ccWbcWNr.s:5228   .debug_str:0000000000000078 .LASF44
     /tmp/ccWbcWNr.s:5290   .debug_str:000000000000027d .LASF46
     /tmp/ccWbcWNr.s:5344   .debug_str:000000000000040f .LASF37
     /tmp/ccWbcWNr.s:5400   .debug_str:000000000000065e .LASF49
     /tmp/ccWbcWNr.s:5410   .debug_str:0000000000000693 .LASF38
     /tmp/ccWbcWNr.s:5226   .debug_str:0000000000000066 .LASF39
     /tmp/ccWbcWNr.s:5316   .debug_str:000000000000034d .LASF40
     /tmp/ccWbcWNr.s:5332   .debug_str:00000000000003cc .LASF41
     /tmp/ccWbcWNr.s:5284   .debug_str:0000000000000234 .LASF43
     /tmp/ccWbcWNr.s:5300   .debug_str:00000000000002d2 .LASF45
     /tmp/ccWbcWNr.s:5392   .debug_str:0000000000000608 .LASF47
     /tmp/ccWbcWNr.s:5342   .debug_str:0000000000000406 .LASF48
     /tmp/ccWbcWNr.s:5276   .debug_str:00000000000001f3 .LASF50
     /tmp/ccWbcWNr.s:5408   .debug_str:000000000000068b .LASF51
     /tmp/ccWbcWNr.s:5314   .debug_str:000000000000033b .LASF52
     /tmp/ccWbcWNr.s:5386   .debug_str:00000000000005d3 .LASF53
     /tmp/ccWbcWNr.s:5330   .debug_str:00000000000003c0 .LASF54
GAS LISTING /tmp/ccWbcWNr.s 			page 48


     /tmp/ccWbcWNr.s:5310   .debug_str:000000000000030a .LASF55
     /tmp/ccWbcWNr.s:5384   .debug_str:00000000000005c3 .LASF56
     /tmp/ccWbcWNr.s:5280   .debug_str:0000000000000210 .LASF57
     /tmp/ccWbcWNr.s:5340   .debug_str:00000000000003fd .LASF58
     /tmp/ccWbcWNr.s:5362   .debug_str:0000000000000473 .LASF59
     /tmp/ccWbcWNr.s:5406   .debug_str:0000000000000683 .LASF60
     /tmp/ccWbcWNr.s:5212   .debug_str:0000000000000000 .LASF61
     /tmp/ccWbcWNr.s:5236   .debug_str:00000000000000b7 .LASF62
     /tmp/ccWbcWNr.s:5328   .debug_str:00000000000003b4 .LASF63
     /tmp/ccWbcWNr.s:5394   .debug_str:000000000000061a .LASF64
     /tmp/ccWbcWNr.s:5246   .debug_str:0000000000000107 .LASF65
     /tmp/ccWbcWNr.s:5388   .debug_str:00000000000005e6 .LASF66
     /tmp/ccWbcWNr.s:5338   .debug_str:00000000000003f4 .LASF67
     /tmp/ccWbcWNr.s:5230   .debug_str:0000000000000088 .LASF68
     /tmp/ccWbcWNr.s:5260   .debug_str:0000000000000165 .LASF69
     /tmp/ccWbcWNr.s:5218   .debug_str:0000000000000035 .LASF70
     /tmp/ccWbcWNr.s:5378   .debug_str:00000000000004df .LASF71
     /tmp/ccWbcWNr.s:119    .text._ZN7WorkerAD0Ev:0000000000000000 .LFB43
     /tmp/ccWbcWNr.s:159    .text._ZN7WorkerAD0Ev:000000000000004c .LFE43
     /tmp/ccWbcWNr.s:4552   .debug_loc:0000000000000000 .LLST2
     /tmp/ccWbcWNr.s:135    .text._ZN7WorkerAD0Ev:0000000000000018 .LBB29
     /tmp/ccWbcWNr.s:143    .text._ZN7WorkerAD0Ev:000000000000002c .LBE29
     /tmp/ccWbcWNr.s:4570   .debug_loc:000000000000004c .LLST3
     /tmp/ccWbcWNr.s:141    .text._ZN7WorkerAD0Ev:000000000000002c .LVL11
     /tmp/ccWbcWNr.s:146    .text._ZN7WorkerAD0Ev:0000000000000038 .LVL12
     /tmp/ccWbcWNr.s:5298   .debug_str:00000000000002c2 .LASF72
     /tmp/ccWbcWNr.s:82     .text._ZN7WorkerAD2Ev:0000000000000000 .LFB41
     /tmp/ccWbcWNr.s:110    .text._ZN7WorkerAD2Ev:0000000000000034 .LFE41
     /tmp/ccWbcWNr.s:4581   .debug_loc:0000000000000082 .LLST1
     /tmp/ccWbcWNr.s:99     .text._ZN7WorkerAD2Ev:0000000000000024 .LVL8
     /tmp/ccWbcWNr.s:5294   .debug_str:00000000000002a2 .LASF73
     /tmp/ccWbcWNr.s:203    .text._ZN7WorkerBD0Ev:0000000000000000 .LFB39
     /tmp/ccWbcWNr.s:243    .text._ZN7WorkerBD0Ev:000000000000004c .LFE39
     /tmp/ccWbcWNr.s:4595   .debug_loc:00000000000000bb .LLST5
     /tmp/ccWbcWNr.s:219    .text._ZN7WorkerBD0Ev:0000000000000018 .LBB32
     /tmp/ccWbcWNr.s:227    .text._ZN7WorkerBD0Ev:000000000000002c .LBE32
     /tmp/ccWbcWNr.s:4613   .debug_loc:0000000000000107 .LLST6
     /tmp/ccWbcWNr.s:225    .text._ZN7WorkerBD0Ev:000000000000002c .LVL18
     /tmp/ccWbcWNr.s:230    .text._ZN7WorkerBD0Ev:0000000000000038 .LVL19
     /tmp/ccWbcWNr.s:5224   .debug_str:0000000000000056 .LASF74
     /tmp/ccWbcWNr.s:166    .text._ZN7WorkerBD2Ev:0000000000000000 .LFB37
     /tmp/ccWbcWNr.s:194    .text._ZN7WorkerBD2Ev:0000000000000034 .LFE37
     /tmp/ccWbcWNr.s:4624   .debug_loc:000000000000013d .LLST4
     /tmp/ccWbcWNr.s:183    .text._ZN7WorkerBD2Ev:0000000000000024 .LVL15
     /tmp/ccWbcWNr.s:5222   .debug_str:0000000000000046 .LASF75
     /tmp/ccWbcWNr.s:287    .text._ZN7WorkerCD0Ev:0000000000000000 .LFB35
     /tmp/ccWbcWNr.s:327    .text._ZN7WorkerCD0Ev:000000000000004c .LFE35
     /tmp/ccWbcWNr.s:4638   .debug_loc:0000000000000176 .LLST8
     /tmp/ccWbcWNr.s:303    .text._ZN7WorkerCD0Ev:0000000000000018 .LBB35
     /tmp/ccWbcWNr.s:311    .text._ZN7WorkerCD0Ev:000000000000002c .LBE35
     /tmp/ccWbcWNr.s:4656   .debug_loc:00000000000001c2 .LLST9
     /tmp/ccWbcWNr.s:309    .text._ZN7WorkerCD0Ev:000000000000002c .LVL25
     /tmp/ccWbcWNr.s:314    .text._ZN7WorkerCD0Ev:0000000000000038 .LVL26
     /tmp/ccWbcWNr.s:5360   .debug_str:0000000000000463 .LASF76
     /tmp/ccWbcWNr.s:250    .text._ZN7WorkerCD2Ev:0000000000000000 .LFB33
     /tmp/ccWbcWNr.s:278    .text._ZN7WorkerCD2Ev:0000000000000034 .LFE33
     /tmp/ccWbcWNr.s:4667   .debug_loc:00000000000001f8 .LLST7
GAS LISTING /tmp/ccWbcWNr.s 			page 49


     /tmp/ccWbcWNr.s:267    .text._ZN7WorkerCD2Ev:0000000000000024 .LVL22
     /tmp/ccWbcWNr.s:5356   .debug_str:000000000000044b .LASF77
     /tmp/ccWbcWNr.s:371    .text._ZN7WorkerDD0Ev:0000000000000000 .LFB31
     /tmp/ccWbcWNr.s:411    .text._ZN7WorkerDD0Ev:000000000000004c .LFE31
     /tmp/ccWbcWNr.s:4681   .debug_loc:0000000000000231 .LLST11
     /tmp/ccWbcWNr.s:387    .text._ZN7WorkerDD0Ev:0000000000000018 .LBB38
     /tmp/ccWbcWNr.s:395    .text._ZN7WorkerDD0Ev:000000000000002c .LBE38
     /tmp/ccWbcWNr.s:4699   .debug_loc:000000000000027d .LLST12
     /tmp/ccWbcWNr.s:393    .text._ZN7WorkerDD0Ev:000000000000002c .LVL32
     /tmp/ccWbcWNr.s:398    .text._ZN7WorkerDD0Ev:0000000000000038 .LVL33
     /tmp/ccWbcWNr.s:5274   .debug_str:00000000000001e3 .LASF78
     /tmp/ccWbcWNr.s:334    .text._ZN7WorkerDD2Ev:0000000000000000 .LFB29
     /tmp/ccWbcWNr.s:362    .text._ZN7WorkerDD2Ev:0000000000000034 .LFE29
     /tmp/ccWbcWNr.s:4710   .debug_loc:00000000000002b3 .LLST10
     /tmp/ccWbcWNr.s:351    .text._ZN7WorkerDD2Ev:0000000000000024 .LVL29
     /tmp/ccWbcWNr.s:5312   .debug_str:0000000000000326 .LASF97
     /tmp/ccWbcWNr.s:5286   .debug_str:0000000000000250 .LASF98
     /tmp/ccWbcWNr.s:1458   .text:00000000000006dc .LFE27
     /tmp/ccWbcWNr.s:5358   .debug_str:000000000000045b .LASF79
     /tmp/ccWbcWNr.s:1331   .text:00000000000005c4 .LBB66
     /tmp/ccWbcWNr.s:1354   .text:00000000000005f0 .LBE66
     /tmp/ccWbcWNr.s:4724   .debug_loc:00000000000002ec .LLST40
     /tmp/ccWbcWNr.s:1347   .text:00000000000005e8 .LVL145
     /tmp/ccWbcWNr.s:1383   .text:0000000000000630 .LBB67
     /tmp/ccWbcWNr.s:1406   .text:0000000000000658 .LBE67
     /tmp/ccWbcWNr.s:5252   .debug_str:0000000000000136 .LASF80
     /tmp/ccWbcWNr.s:4735   .debug_loc:0000000000000322 .LLST41
     /tmp/ccWbcWNr.s:5366   .debug_str:0000000000000499 .LASF81
     /tmp/ccWbcWNr.s:5376   .debug_str:00000000000004d3 .LASF99
     /tmp/ccWbcWNr.s:4742   .debug_loc:0000000000000345 .LLST42
     /tmp/ccWbcWNr.s:5372   .debug_str:00000000000004c4 .LASF82
     /tmp/ccWbcWNr.s:1228   .text:00000000000004f4 .LBB58
     /tmp/ccWbcWNr.s:1238   .text:0000000000000508 .LBE58
     /tmp/ccWbcWNr.s:4753   .debug_loc:000000000000037b .LLST36
     /tmp/ccWbcWNr.s:1232   .text:00000000000004fc .LVL126
     /tmp/ccWbcWNr.s:1256   .text:000000000000052c .LBB60
     /tmp/ccWbcWNr.s:1266   .text:0000000000000540 .LBE60
     /tmp/ccWbcWNr.s:4764   .debug_loc:00000000000003b1 .LLST37
     /tmp/ccWbcWNr.s:1260   .text:0000000000000534 .LVL131
     /tmp/ccWbcWNr.s:1284   .text:0000000000000564 .LBB62
     /tmp/ccWbcWNr.s:1294   .text:0000000000000578 .LBE62
     /tmp/ccWbcWNr.s:4775   .debug_loc:00000000000003e7 .LLST38
     /tmp/ccWbcWNr.s:1288   .text:000000000000056c .LVL136
     /tmp/ccWbcWNr.s:1312   .text:000000000000059c .LBB64
     /tmp/ccWbcWNr.s:1322   .text:00000000000005b0 .LBE64
     /tmp/ccWbcWNr.s:4786   .debug_loc:000000000000041d .LLST39
     /tmp/ccWbcWNr.s:1316   .text:00000000000005a4 .LVL141
     /tmp/ccWbcWNr.s:1223   .text:00000000000004f0 .LVL124
     /tmp/ccWbcWNr.s:1246   .text:000000000000051c .LVL128
     /tmp/ccWbcWNr.s:1251   .text:0000000000000528 .LVL129
     /tmp/ccWbcWNr.s:1274   .text:0000000000000554 .LVL133
     /tmp/ccWbcWNr.s:1279   .text:0000000000000560 .LVL134
     /tmp/ccWbcWNr.s:1302   .text:000000000000058c .LVL138
     /tmp/ccWbcWNr.s:1307   .text:0000000000000598 .LVL139
     /tmp/ccWbcWNr.s:1330   .text:00000000000005c4 .LVL143
     /tmp/ccWbcWNr.s:1358   .text:00000000000005f8 .LVL148
     /tmp/ccWbcWNr.s:1410   .text:0000000000000664 .LVL155
GAS LISTING /tmp/ccWbcWNr.s 			page 50


     /tmp/ccWbcWNr.s:1413   .text:0000000000000670 .LVL156
     /tmp/ccWbcWNr.s:1419   .text:0000000000000680 .LVL157
     /tmp/ccWbcWNr.s:1422   .text:000000000000068c .LVL158
     /tmp/ccWbcWNr.s:1428   .text:000000000000069c .LVL159
     /tmp/ccWbcWNr.s:1431   .text:00000000000006a8 .LVL160
     /tmp/ccWbcWNr.s:1437   .text:00000000000006b8 .LVL161
     /tmp/ccWbcWNr.s:1440   .text:00000000000006c4 .LVL162
     /tmp/ccWbcWNr.s:997    .text:0000000000000384 .LFB26
     /tmp/ccWbcWNr.s:1146   .text:00000000000004cc .LFE26
     /tmp/ccWbcWNr.s:4797   .debug_loc:0000000000000453 .LLST31
     /tmp/ccWbcWNr.s:4811   .debug_loc:000000000000048c .LLST32
     /tmp/ccWbcWNr.s:4825   .debug_loc:00000000000004c5 .LLST33
     /tmp/ccWbcWNr.s:5416   .debug_str:00000000000006b0 .LASF83
     /tmp/ccWbcWNr.s:4845   .debug_loc:0000000000000522 .LLST34
     /tmp/ccWbcWNr.s:1024   .text:00000000000003b4 .LVL100
     /tmp/ccWbcWNr.s:1031   .text:00000000000003c8 .LVL101
     /tmp/ccWbcWNr.s:1036   .text:00000000000003d8 .LVL102
     /tmp/ccWbcWNr.s:1051   .text:00000000000003f8 .LVL105
     /tmp/ccWbcWNr.s:1062   .text:0000000000000404 .LVL106
     /tmp/ccWbcWNr.s:1067   .text:0000000000000410 .LVL107
     /tmp/ccWbcWNr.s:1075   .text:0000000000000424 .LVL110
     /tmp/ccWbcWNr.s:1082   .text:0000000000000438 .LVL111
     /tmp/ccWbcWNr.s:1087   .text:0000000000000448 .LVL112
     /tmp/ccWbcWNr.s:1094   .text:000000000000045c .LVL113
     /tmp/ccWbcWNr.s:1101   .text:0000000000000470 .LVL114
     /tmp/ccWbcWNr.s:1106   .text:0000000000000480 .LVL115
     /tmp/ccWbcWNr.s:1121   .text:00000000000004a0 .LVL118
     /tmp/ccWbcWNr.s:1129   .text:00000000000004b4 .LVL119
     /tmp/ccWbcWNr.s:768    .text:0000000000000204 .LFB25
     /tmp/ccWbcWNr.s:943    .text:0000000000000384 .LFE25
     /tmp/ccWbcWNr.s:4856   .debug_loc:0000000000000558 .LLST25
     /tmp/ccWbcWNr.s:4870   .debug_loc:0000000000000591 .LLST26
     /tmp/ccWbcWNr.s:4884   .debug_loc:00000000000005ca .LLST27
     /tmp/ccWbcWNr.s:4904   .debug_loc:0000000000000627 .LLST28
     /tmp/ccWbcWNr.s:4912   .debug_loc:000000000000064b .LLST29
     /tmp/ccWbcWNr.s:795    .text:0000000000000234 .LVL69
     /tmp/ccWbcWNr.s:802    .text:0000000000000248 .LVL70
     /tmp/ccWbcWNr.s:807    .text:0000000000000258 .LVL71
     /tmp/ccWbcWNr.s:822    .text:0000000000000278 .LVL74
     /tmp/ccWbcWNr.s:833    .text:0000000000000284 .LVL75
     /tmp/ccWbcWNr.s:847    .text:0000000000000298 .LVL77
     /tmp/ccWbcWNr.s:854    .text:00000000000002ac .LVL78
     /tmp/ccWbcWNr.s:859    .text:00000000000002bc .LVL79
     /tmp/ccWbcWNr.s:864    .text:00000000000002c8 .LVL80
     /tmp/ccWbcWNr.s:872    .text:00000000000002dc .LVL83
     /tmp/ccWbcWNr.s:879    .text:00000000000002f0 .LVL84
     /tmp/ccWbcWNr.s:884    .text:0000000000000300 .LVL85
     /tmp/ccWbcWNr.s:891    .text:0000000000000314 .LVL86
     /tmp/ccWbcWNr.s:898    .text:0000000000000328 .LVL87
     /tmp/ccWbcWNr.s:903    .text:0000000000000338 .LVL88
     /tmp/ccWbcWNr.s:918    .text:0000000000000358 .LVL91
     /tmp/ccWbcWNr.s:926    .text:000000000000036c .LVL92
     /tmp/ccWbcWNr.s:593    .text:0000000000000138 .LFB24
     /tmp/ccWbcWNr.s:714    .text:0000000000000204 .LFE24
     /tmp/ccWbcWNr.s:4923   .debug_loc:0000000000000681 .LLST19
     /tmp/ccWbcWNr.s:4937   .debug_loc:00000000000006ba .LLST20
     /tmp/ccWbcWNr.s:611    .text:0000000000000150 .LBB49
GAS LISTING /tmp/ccWbcWNr.s 			page 51


     /tmp/ccWbcWNr.s:685    .text:00000000000001c8 .LBE49
     /tmp/ccWbcWNr.s:4951   .debug_loc:00000000000006f3 .LLST21
     /tmp/ccWbcWNr.s:4963   .debug_loc:000000000000072a .LLST22
     /tmp/ccWbcWNr.s:4975   .debug_loc:0000000000000761 .LLST23
     /tmp/ccWbcWNr.s:632    .text:000000000000016c .LVL54
     /tmp/ccWbcWNr.s:663    .text:000000000000019c .LVL57
     /tmp/ccWbcWNr.s:670    .text:00000000000001b0 .LVL58
     /tmp/ccWbcWNr.s:675    .text:00000000000001c0 .LVL59
     /tmp/ccWbcWNr.s:690    .text:00000000000001d8 .LVL61
     /tmp/ccWbcWNr.s:698    .text:00000000000001ec .LVL62
     /tmp/ccWbcWNr.s:428    .text:0000000000000074 .LFB23
     /tmp/ccWbcWNr.s:545    .text:0000000000000138 .LFE23
     /tmp/ccWbcWNr.s:4982   .debug_loc:0000000000000784 .LLST13
     /tmp/ccWbcWNr.s:4996   .debug_loc:00000000000007bd .LLST14
     /tmp/ccWbcWNr.s:446    .text:000000000000008c .LBB40
     /tmp/ccWbcWNr.s:520    .text:0000000000000104 .LBE40
     /tmp/ccWbcWNr.s:5010   .debug_loc:00000000000007f6 .LLST15
     /tmp/ccWbcWNr.s:5022   .debug_loc:000000000000082d .LLST16
     /tmp/ccWbcWNr.s:5034   .debug_loc:0000000000000864 .LLST17
     /tmp/ccWbcWNr.s:467    .text:00000000000000a8 .LVL39
     /tmp/ccWbcWNr.s:498    .text:00000000000000d8 .LVL42
     /tmp/ccWbcWNr.s:505    .text:00000000000000ec .LVL43
     /tmp/ccWbcWNr.s:510    .text:00000000000000fc .LVL44
     /tmp/ccWbcWNr.s:525    .text:0000000000000114 .LVL46
     /tmp/ccWbcWNr.s:1153   .text._ZN7WorkerD3runEv:0000000000000000 .LFB22
     /tmp/ccWbcWNr.s:1180   .text._ZN7WorkerD3runEv:000000000000002c .LFE22
     /tmp/ccWbcWNr.s:5041   .debug_loc:0000000000000887 .LLST35
     /tmp/ccWbcWNr.s:1169   .text._ZN7WorkerD3runEv:000000000000001c .LVL123
     /tmp/ccWbcWNr.s:5296   .debug_str:00000000000002b2 .LASF84
     /tmp/ccWbcWNr.s:950    .text._ZN7WorkerC3runEv:0000000000000000 .LFB18
     /tmp/ccWbcWNr.s:977    .text._ZN7WorkerC3runEv:000000000000002c .LFE18
     /tmp/ccWbcWNr.s:5055   .debug_loc:00000000000008c0 .LLST30
     /tmp/ccWbcWNr.s:966    .text._ZN7WorkerC3runEv:000000000000001c .LVL96
     /tmp/ccWbcWNr.s:5382   .debug_str:00000000000005b3 .LASF85
     /tmp/ccWbcWNr.s:721    .text._ZN7WorkerB3runEv:0000000000000000 .LFB14
     /tmp/ccWbcWNr.s:748    .text._ZN7WorkerB3runEv:000000000000002c .LFE14
     /tmp/ccWbcWNr.s:5069   .debug_loc:00000000000008f9 .LLST24
     /tmp/ccWbcWNr.s:737    .text._ZN7WorkerB3runEv:000000000000001c .LVL65
     /tmp/ccWbcWNr.s:5244   .debug_str:00000000000000f7 .LASF86
     /tmp/ccWbcWNr.s:552    .text._ZN7WorkerA3runEv:0000000000000000 .LFB10
     /tmp/ccWbcWNr.s:579    .text._ZN7WorkerA3runEv:000000000000002c .LFE10
     /tmp/ccWbcWNr.s:5083   .debug_loc:0000000000000932 .LLST18
     /tmp/ccWbcWNr.s:568    .text._ZN7WorkerA3runEv:000000000000001c .LVL49
     /tmp/ccWbcWNr.s:5318   .debug_str:0000000000000360 .LASF87
     /tmp/ccWbcWNr.s:5304   .debug_str:00000000000002e7 .LASF100
     /tmp/ccWbcWNr.s:9      .text:0000000000000000 .LFB6
     /tmp/ccWbcWNr.s:75     .text:0000000000000074 .LFE6
     /tmp/ccWbcWNr.s:5097   .debug_loc:000000000000096b .LLST0
     /tmp/ccWbcWNr.s:42     .text:000000000000003c .LVL2
     /tmp/ccWbcWNr.s:47     .text:000000000000004c .LVL3
     /tmp/ccWbcWNr.s:72     .text:0000000000000070 .LVL6
     /tmp/ccWbcWNr.s:5368   .debug_str:00000000000004a5 .LASF88
     /tmp/ccWbcWNr.s:5398   .debug_str:0000000000000652 .LASF89
     /tmp/ccWbcWNr.s:5402   .debug_str:000000000000066e .LASF101
     /tmp/ccWbcWNr.s:5266   .debug_str:0000000000000198 .LASF102
     /tmp/ccWbcWNr.s:5240   .debug_str:00000000000000d8 .LASF90
     /tmp/ccWbcWNr.s:5326   .debug_str:00000000000003ab .LASF91
GAS LISTING /tmp/ccWbcWNr.s 			page 52


     /tmp/ccWbcWNr.s:5336   .debug_str:00000000000003e4 .LASF92
     /tmp/ccWbcWNr.s:122    .text._ZN7WorkerAD0Ev:0000000000000000 .LVL9
     /tmp/ccWbcWNr.s:154    .text._ZN7WorkerAD0Ev:0000000000000044 .LVL13
     /tmp/ccWbcWNr.s:134    .text._ZN7WorkerAD0Ev:0000000000000018 .LVL10
     /tmp/ccWbcWNr.s:85     .text._ZN7WorkerAD2Ev:0000000000000000 .LVL7
     /tmp/ccWbcWNr.s:206    .text._ZN7WorkerBD0Ev:0000000000000000 .LVL16
     /tmp/ccWbcWNr.s:238    .text._ZN7WorkerBD0Ev:0000000000000044 .LVL20
     /tmp/ccWbcWNr.s:218    .text._ZN7WorkerBD0Ev:0000000000000018 .LVL17
     /tmp/ccWbcWNr.s:169    .text._ZN7WorkerBD2Ev:0000000000000000 .LVL14
     /tmp/ccWbcWNr.s:290    .text._ZN7WorkerCD0Ev:0000000000000000 .LVL23
     /tmp/ccWbcWNr.s:322    .text._ZN7WorkerCD0Ev:0000000000000044 .LVL27
     /tmp/ccWbcWNr.s:302    .text._ZN7WorkerCD0Ev:0000000000000018 .LVL24
     /tmp/ccWbcWNr.s:253    .text._ZN7WorkerCD2Ev:0000000000000000 .LVL21
     /tmp/ccWbcWNr.s:374    .text._ZN7WorkerDD0Ev:0000000000000000 .LVL30
     /tmp/ccWbcWNr.s:406    .text._ZN7WorkerDD0Ev:0000000000000044 .LVL34
     /tmp/ccWbcWNr.s:386    .text._ZN7WorkerDD0Ev:0000000000000018 .LVL31
     /tmp/ccWbcWNr.s:337    .text._ZN7WorkerDD2Ev:0000000000000000 .LVL28
     /tmp/ccWbcWNr.s:1335   .text:00000000000005c8 .LVL144
     /tmp/ccWbcWNr.s:1350   .text:00000000000005ec .LVL146
     /tmp/ccWbcWNr.s:1352   .text:00000000000005f0 .LVL147
     /tmp/ccWbcWNr.s:1379   .text:000000000000062c .LVL149
     /tmp/ccWbcWNr.s:1393   .text:0000000000000640 .LVL152
     /tmp/ccWbcWNr.s:1401   .text:0000000000000650 .LVL153
     /tmp/ccWbcWNr.s:1381   .text:0000000000000630 .LVL150
     /tmp/ccWbcWNr.s:1403   .text:0000000000000654 .LVL154
     /tmp/ccWbcWNr.s:1451   .text:00000000000006d0 .LVL163
     /tmp/ccWbcWNr.s:1226   .text:00000000000004f4 .LVL125
     /tmp/ccWbcWNr.s:1236   .text:0000000000000508 .LVL127
     /tmp/ccWbcWNr.s:1254   .text:000000000000052c .LVL130
     /tmp/ccWbcWNr.s:1264   .text:0000000000000540 .LVL132
     /tmp/ccWbcWNr.s:1282   .text:0000000000000564 .LVL135
     /tmp/ccWbcWNr.s:1292   .text:0000000000000578 .LVL137
     /tmp/ccWbcWNr.s:1310   .text:000000000000059c .LVL140
     /tmp/ccWbcWNr.s:1320   .text:00000000000005b0 .LVL142
     /tmp/ccWbcWNr.s:1000   .text:0000000000000384 .LVL97
     /tmp/ccWbcWNr.s:1018   .text:00000000000003a4 .LVL99
     /tmp/ccWbcWNr.s:1014   .text:000000000000039c .LVL98
     /tmp/ccWbcWNr.s:1039   .text:00000000000003dc .LVL103
     /tmp/ccWbcWNr.s:1041   .text:00000000000003e0 .LVL104
     /tmp/ccWbcWNr.s:1109   .text:0000000000000484 .LVL116
     /tmp/ccWbcWNr.s:1111   .text:0000000000000488 .LVL117
     /tmp/ccWbcWNr.s:1138   .text:00000000000004c0 .LVL120
     /tmp/ccWbcWNr.s:1069   .text:0000000000000414 .LVL108
     /tmp/ccWbcWNr.s:1073   .text:000000000000041c .LVL109
     /tmp/ccWbcWNr.s:1141   .text:00000000000004c4 .LVL121
     /tmp/ccWbcWNr.s:771    .text:0000000000000204 .LVL66
     /tmp/ccWbcWNr.s:789    .text:0000000000000224 .LVL68
     /tmp/ccWbcWNr.s:785    .text:000000000000021c .LVL67
     /tmp/ccWbcWNr.s:810    .text:000000000000025c .LVL72
     /tmp/ccWbcWNr.s:812    .text:0000000000000260 .LVL73
     /tmp/ccWbcWNr.s:906    .text:000000000000033c .LVL89
     /tmp/ccWbcWNr.s:908    .text:0000000000000340 .LVL90
     /tmp/ccWbcWNr.s:935    .text:0000000000000378 .LVL93
     /tmp/ccWbcWNr.s:841    .text:0000000000000288 .LVL76
     /tmp/ccWbcWNr.s:866    .text:00000000000002cc .LVL81
     /tmp/ccWbcWNr.s:870    .text:00000000000002d4 .LVL82
     /tmp/ccWbcWNr.s:938    .text:000000000000037c .LVL94
GAS LISTING /tmp/ccWbcWNr.s 			page 53


     /tmp/ccWbcWNr.s:596    .text:0000000000000138 .LVL50
     /tmp/ccWbcWNr.s:615    .text:0000000000000158 .LVL52
     /tmp/ccWbcWNr.s:610    .text:0000000000000150 .LVL51
     /tmp/ccWbcWNr.s:709    .text:00000000000001fc .LVL63
     /tmp/ccWbcWNr.s:653    .text:0000000000000184 .LVL56
     /tmp/ccWbcWNr.s:681    .text:00000000000001c8 .LVL60
     /tmp/ccWbcWNr.s:431    .text:0000000000000074 .LVL35
     /tmp/ccWbcWNr.s:450    .text:0000000000000094 .LVL37
     /tmp/ccWbcWNr.s:445    .text:000000000000008c .LVL36
     /tmp/ccWbcWNr.s:540    .text:0000000000000130 .LVL47
     /tmp/ccWbcWNr.s:488    .text:00000000000000c0 .LVL41
     /tmp/ccWbcWNr.s:516    .text:0000000000000104 .LVL45
     /tmp/ccWbcWNr.s:1156   .text._ZN7WorkerD3runEv:0000000000000000 .LVL122
     /tmp/ccWbcWNr.s:953    .text._ZN7WorkerC3runEv:0000000000000000 .LVL95
     /tmp/ccWbcWNr.s:724    .text._ZN7WorkerB3runEv:0000000000000000 .LVL64
     /tmp/ccWbcWNr.s:555    .text._ZN7WorkerA3runEv:0000000000000000 .LVL48
     /tmp/ccWbcWNr.s:13     .text:0000000000000000 .LVL0
     /tmp/ccWbcWNr.s:36     .text:0000000000000030 .LVL1
     /tmp/ccWbcWNr.s:60     .text:000000000000005c .LVL4
     /tmp/ccWbcWNr.s:66     .text:0000000000000068 .LVL5
     /tmp/ccWbcWNr.s:1573   .debug_info:0000000000000000 .Ldebug_info0
     /tmp/ccWbcWNr.s:5      .text:0000000000000000 .Ltext0
     /tmp/ccWbcWNr.s:1567   .text:00000000000006dc .Letext0
     /tmp/ccWbcWNr.s:453    .text:0000000000000094 .LBB42
     /tmp/ccWbcWNr.s:484    .text:00000000000000bc .LBE42
     /tmp/ccWbcWNr.s:512    .text:00000000000000fc .LBB47
     /tmp/ccWbcWNr.s:518    .text:0000000000000104 .LBE47
     /tmp/ccWbcWNr.s:455    .text:0000000000000094 .LBB44
     /tmp/ccWbcWNr.s:463    .text:00000000000000a0 .LBE44
     /tmp/ccWbcWNr.s:477    .text:00000000000000b4 .LBB45
     /tmp/ccWbcWNr.s:482    .text:00000000000000bc .LBE45
     /tmp/ccWbcWNr.s:618    .text:0000000000000158 .LBB51
     /tmp/ccWbcWNr.s:649    .text:0000000000000180 .LBE51
     /tmp/ccWbcWNr.s:677    .text:00000000000001c0 .LBB56
     /tmp/ccWbcWNr.s:683    .text:00000000000001c8 .LBE56
     /tmp/ccWbcWNr.s:620    .text:0000000000000158 .LBB53
     /tmp/ccWbcWNr.s:628    .text:0000000000000164 .LBE53
     /tmp/ccWbcWNr.s:642    .text:0000000000000178 .LBB54
     /tmp/ccWbcWNr.s:647    .text:0000000000000180 .LBE54
     /tmp/ccWbcWNr.s:1461   .gcc_except_table:0000000000000000 .LLSDA27
                           .group:0000000000000000 _ZN7WorkerAD5Ev
                           .group:0000000000000000 _ZN7WorkerBD5Ev
                           .group:0000000000000000 _ZN7WorkerCD5Ev
                           .group:0000000000000000 _ZN7WorkerDD5Ev

UNDEFINED SYMBOLS
thread_dispatch
_ZN6ThreadD2Ev
_ZN6ThreaddlEPv
_Z11printStringPKc
_Z8printIntiii
_ZN6ThreadnwEm
_ZN6ThreadC2Ev
_ZN6Thread5startEv
_ZN6Thread8dispatchEv
_Unwind_Resume
__gxx_personality_v0
GAS LISTING /tmp/ccWbcWNr.s 			page 54


