GAS LISTING /tmp/ccznD7yc.s 			page 1


   1              		.file	"Threads_C_API_test.cpp"
   2              		.option pic
   3              		.option norelax
   4              		.text
   5              	.Ltext0:
   6              		.section	.rodata.str1.8,"aMS",@progbits,1
   7              		.align	3
   8              	.LC0:
   9 0000 423A2069 		.string	"B: i="
   9      3D00
  10 0006 0000     		.align	3
  11              	.LC1:
  12 0008 0A00     		.string	"\n"
  13 000a 00000000 		.align	3
  13      0000
  14              	.LC2:
  15 0010 42206669 		.string	"B finished!\n"
  15      6E697368 
  15      6564210A 
  15      00
  16              		.text
  17              		.align	2
  19              	_ZL11workerBodyBPv:
  20              	.LFB2:
  21              		.file 1 "test/Threads_C_API_test.cpp"
   1:test/Threads_C_API_test.cpp **** 
   2:test/Threads_C_API_test.cpp **** #include "../h/syscall_c.hpp"
   3:test/Threads_C_API_test.cpp **** #include "Threads_C_API_test.hpp"
   4:test/Threads_C_API_test.cpp **** 
   5:test/Threads_C_API_test.cpp **** #include "printing.hpp"
   6:test/Threads_C_API_test.cpp **** 
   7:test/Threads_C_API_test.cpp **** static volatile bool finishedA = false;
   8:test/Threads_C_API_test.cpp **** static volatile bool finishedB = false;
   9:test/Threads_C_API_test.cpp **** static volatile bool finishedC = false;
  10:test/Threads_C_API_test.cpp **** static volatile bool finishedD = false;
  11:test/Threads_C_API_test.cpp **** 
  12:test/Threads_C_API_test.cpp **** static uint64 fibonacci(uint64 n) {
  13:test/Threads_C_API_test.cpp ****     if (n == 0 || n == 1) { return n; }
  14:test/Threads_C_API_test.cpp ****     if (n % 10 == 0) { thread_dispatch(); }
  15:test/Threads_C_API_test.cpp ****     return fibonacci(n - 1) + fibonacci(n - 2);
  16:test/Threads_C_API_test.cpp **** }
  17:test/Threads_C_API_test.cpp **** 
  18:test/Threads_C_API_test.cpp **** static void workerBodyA(void* arg) {
  19:test/Threads_C_API_test.cpp ****     for (uint64 i = 0; i < 10; i++) {
  20:test/Threads_C_API_test.cpp ****         printString("A: i=");
  21:test/Threads_C_API_test.cpp ****         printInt(i);
  22:test/Threads_C_API_test.cpp ****         printString("\n");
  23:test/Threads_C_API_test.cpp ****         for (uint64 j = 0; j < 1000; j++) {
  24:test/Threads_C_API_test.cpp ****             for (uint64 k = 0; k < 3000; k++) { /* busy wait */ }
  25:test/Threads_C_API_test.cpp ****             thread_dispatch();
  26:test/Threads_C_API_test.cpp ****         }
  27:test/Threads_C_API_test.cpp ****     }
  28:test/Threads_C_API_test.cpp ****     printString("A finishedaaaa!\n");
  29:test/Threads_C_API_test.cpp ****     finishedA = true;
  30:test/Threads_C_API_test.cpp **** 
  31:test/Threads_C_API_test.cpp **** }
  32:test/Threads_C_API_test.cpp **** 
GAS LISTING /tmp/ccznD7yc.s 			page 2


  33:test/Threads_C_API_test.cpp **** static void workerBodyB(void* arg) {
  22              		.loc 1 33 36
  23              		.cfi_startproc
  24              	.LVL0:
  25 0000 130101FE 		addi	sp,sp,-32
  26              		.cfi_def_cfa_offset 32
  27 0004 233C1100 		sd	ra,24(sp)
  28 0008 23388100 		sd	s0,16(sp)
  29 000c 23349100 		sd	s1,8(sp)
  30 0010 23302101 		sd	s2,0(sp)
  31              		.cfi_offset 1, -8
  32              		.cfi_offset 8, -16
  33              		.cfi_offset 9, -24
  34              		.cfi_offset 18, -32
  35 0014 13040102 		addi	s0,sp,32
  36              		.cfi_def_cfa 8, 0
  34:test/Threads_C_API_test.cpp ****     for (uint64 i = 0; i < 16; i++) {
  37              		.loc 1 34 5
  38              	.LVL1:
  39              	.LBB2:
  40              		.loc 1 34 17 is_stmt 0
  41 0018 13090000 		li	s2,0
  42 001c 6F008003 		j	.L7
  43              	.LVL2:
  44              	.L4:
  45              	.LBB3:
  46              	.LBB4:
  47              	.LBB5:
  35:test/Threads_C_API_test.cpp ****         printString("B: i="); printInt(i); printString("\n");
  36:test/Threads_C_API_test.cpp ****         for (uint64 j = 0; j < 10000; j++) {
  37:test/Threads_C_API_test.cpp ****             for (uint64 k = 0; k < 30000; k++) { /* busy wait */ }
  38:test/Threads_C_API_test.cpp ****             thread_dispatch();
  48              		.loc 1 38 13 is_stmt 1 discriminator 2
  49              		.loc 1 38 28 is_stmt 0 discriminator 2
  50 0020 97000000 		call	thread_dispatch@plt
  50      E7800000 
  51              	.LVL3:
  52              	.LBE5:
  36:test/Threads_C_API_test.cpp ****             for (uint64 k = 0; k < 30000; k++) { /* busy wait */ }
  53              		.loc 1 36 9 is_stmt 1 discriminator 2
  54 0028 93841400 		addi	s1,s1,1
  55              	.LVL4:
  56              	.L6:
  36:test/Threads_C_API_test.cpp ****             for (uint64 k = 0; k < 30000; k++) { /* busy wait */ }
  57              		.loc 1 36 30 discriminator 1
  58 002c B7270000 		li	a5,8192
  59 0030 9387F770 		addi	a5,a5,1807
  60 0034 63EE9700 		bgtu	s1,a5,.L3
  61              	.LBB7:
  62              	.LBB6:
  37:test/Threads_C_API_test.cpp ****             thread_dispatch();
  63              		.loc 1 37 25 is_stmt 0
  64 0038 13070000 		li	a4,0
  65              	.L5:
  66              	.LVL5:
  37:test/Threads_C_API_test.cpp ****             thread_dispatch();
  67              		.loc 1 37 34 is_stmt 1 discriminator 3
GAS LISTING /tmp/ccznD7yc.s 			page 3


  68 003c B7770000 		li	a5,28672
  69 0040 9387F752 		addi	a5,a5,1327
  70 0044 E3EEE7FC 		bgtu	a4,a5,.L4
  37:test/Threads_C_API_test.cpp ****             thread_dispatch();
  71              		.loc 1 37 13 discriminator 2
  72 0048 13071700 		addi	a4,a4,1
  73              	.LVL6:
  74 004c 6FF01FFF 		j	.L5
  75              	.LVL7:
  76              	.L3:
  77              	.LBE6:
  78              	.LBE7:
  79              	.LBE4:
  80              	.LBE3:
  34:test/Threads_C_API_test.cpp ****         printString("B: i="); printInt(i); printString("\n");
  81              		.loc 1 34 5 discriminator 2
  82 0050 13091900 		addi	s2,s2,1
  83              	.LVL8:
  84              	.L7:
  34:test/Threads_C_API_test.cpp ****         printString("B: i="); printInt(i); printString("\n");
  85              		.loc 1 34 26 discriminator 1
  86 0054 9307F000 		li	a5,15
  87 0058 63E02705 		bgtu	s2,a5,.L2
  88              	.LBB9:
  35:test/Threads_C_API_test.cpp ****         for (uint64 j = 0; j < 10000; j++) {
  89              		.loc 1 35 9
  35:test/Threads_C_API_test.cpp ****         for (uint64 j = 0; j < 10000; j++) {
  90              		.loc 1 35 20 is_stmt 0
  91 005c 17050000 		lla	a0,.LC0
  91      13050500 
  92 0064 97000000 		call	_Z11printStringPKc@plt
  92      E7800000 
  93              	.LVL9:
  35:test/Threads_C_API_test.cpp ****         for (uint64 j = 0; j < 10000; j++) {
  94              		.loc 1 35 31 is_stmt 1
  35:test/Threads_C_API_test.cpp ****         for (uint64 j = 0; j < 10000; j++) {
  95              		.loc 1 35 39 is_stmt 0
  96 006c 13060000 		li	a2,0
  97 0070 9305A000 		li	a1,10
  98 0074 1B050900 		sext.w	a0,s2
  99 0078 97000000 		call	_Z8printIntiii@plt
  99      E7800000 
 100              	.LVL10:
  35:test/Threads_C_API_test.cpp ****         for (uint64 j = 0; j < 10000; j++) {
 101              		.loc 1 35 44 is_stmt 1
  35:test/Threads_C_API_test.cpp ****         for (uint64 j = 0; j < 10000; j++) {
 102              		.loc 1 35 55 is_stmt 0
 103 0080 17050000 		lla	a0,.LC1
 103      13050500 
 104 0088 97000000 		call	_Z11printStringPKc@plt
 104      E7800000 
 105              	.LVL11:
  36:test/Threads_C_API_test.cpp ****             for (uint64 k = 0; k < 30000; k++) { /* busy wait */ }
 106              		.loc 1 36 9 is_stmt 1
 107              	.LBB8:
  36:test/Threads_C_API_test.cpp ****             for (uint64 k = 0; k < 30000; k++) { /* busy wait */ }
 108              		.loc 1 36 21 is_stmt 0
GAS LISTING /tmp/ccznD7yc.s 			page 4


 109 0090 93040000 		li	s1,0
 110 0094 6FF09FF9 		j	.L6
 111              	.LVL12:
 112              	.L2:
 113              	.LBE8:
 114              	.LBE9:
 115              	.LBE2:
  39:test/Threads_C_API_test.cpp ****         }
  40:test/Threads_C_API_test.cpp ****     }
  41:test/Threads_C_API_test.cpp ****     printString("B finished!\n");
 116              		.loc 1 41 5 is_stmt 1
 117              		.loc 1 41 16 is_stmt 0
 118 0098 17050000 		lla	a0,.LC2
 118      13050500 
 119 00a0 97000000 		call	_Z11printStringPKc@plt
 119      E7800000 
 120              	.LVL13:
  42:test/Threads_C_API_test.cpp ****     finishedB = true;
 121              		.loc 1 42 5 is_stmt 1
 122              		.loc 1 42 15 is_stmt 0
 123 00a8 93071000 		li	a5,1
 124 00ac 17070000 		sb	a5,.LANCHOR0,a4
 124      2300F700 
  43:test/Threads_C_API_test.cpp ****     thread_dispatch();
 125              		.loc 1 43 5 is_stmt 1
 126              		.loc 1 43 20 is_stmt 0
 127 00b4 97000000 		call	thread_dispatch@plt
 127      E7800000 
 128              	.LVL14:
  44:test/Threads_C_API_test.cpp **** }
 129              		.loc 1 44 1
 130 00bc 83308101 		ld	ra,24(sp)
 131              		.cfi_restore 1
 132 00c0 03340101 		ld	s0,16(sp)
 133              		.cfi_restore 8
 134              		.cfi_def_cfa 2, 32
 135 00c4 83348100 		ld	s1,8(sp)
 136              		.cfi_restore 9
 137 00c8 03390100 		ld	s2,0(sp)
 138              		.cfi_restore 18
 139              	.LVL15:
 140 00cc 13010102 		addi	sp,sp,32
 141              		.cfi_def_cfa_offset 0
 142 00d0 67800000 		jr	ra
 143              		.cfi_endproc
 144              	.LFE2:
 146              		.section	.rodata.str1.8
 147 001d 000000   		.align	3
 148              	.LC3:
 149 0020 413A2069 		.string	"A: i="
 149      3D00
 150 0026 0000     		.align	3
 151              	.LC4:
 152 0028 41206669 		.string	"A finishedaaaa!\n"
 152      6E697368 
 152      65646161 
 152      6161210A 
GAS LISTING /tmp/ccznD7yc.s 			page 5


 152      00
 153              		.text
 154              		.align	2
 156              	_ZL11workerBodyAPv:
 157              	.LFB1:
  18:test/Threads_C_API_test.cpp ****     for (uint64 i = 0; i < 10; i++) {
 158              		.loc 1 18 36 is_stmt 1
 159              		.cfi_startproc
 160              	.LVL16:
 161 00d4 130101FE 		addi	sp,sp,-32
 162              		.cfi_def_cfa_offset 32
 163 00d8 233C1100 		sd	ra,24(sp)
 164 00dc 23388100 		sd	s0,16(sp)
 165 00e0 23349100 		sd	s1,8(sp)
 166 00e4 23302101 		sd	s2,0(sp)
 167              		.cfi_offset 1, -8
 168              		.cfi_offset 8, -16
 169              		.cfi_offset 9, -24
 170              		.cfi_offset 18, -32
 171 00e8 13040102 		addi	s0,sp,32
 172              		.cfi_def_cfa 8, 0
  19:test/Threads_C_API_test.cpp ****         printString("A: i=");
 173              		.loc 1 19 5
 174              	.LVL17:
 175              	.LBB10:
  19:test/Threads_C_API_test.cpp ****         printString("A: i=");
 176              		.loc 1 19 17 is_stmt 0
 177 00ec 13090000 		li	s2,0
 178 00f0 6F004003 		j	.L15
 179              	.LVL18:
 180              	.L12:
 181              	.LBB11:
 182              	.LBB12:
 183              	.LBB13:
  25:test/Threads_C_API_test.cpp ****         }
 184              		.loc 1 25 13 is_stmt 1 discriminator 2
  25:test/Threads_C_API_test.cpp ****         }
 185              		.loc 1 25 28 is_stmt 0 discriminator 2
 186 00f4 97000000 		call	thread_dispatch@plt
 186      E7800000 
 187              	.LVL19:
 188              	.LBE13:
  23:test/Threads_C_API_test.cpp ****             for (uint64 k = 0; k < 3000; k++) { /* busy wait */ }
 189              		.loc 1 23 9 is_stmt 1 discriminator 2
 190 00fc 93841400 		addi	s1,s1,1
 191              	.LVL20:
 192              	.L14:
  23:test/Threads_C_API_test.cpp ****             for (uint64 k = 0; k < 3000; k++) { /* busy wait */ }
 193              		.loc 1 23 30 discriminator 1
 194 0100 9307703E 		li	a5,999
 195 0104 63EE9700 		bgtu	s1,a5,.L11
 196              	.LBB15:
 197              	.LBB14:
  24:test/Threads_C_API_test.cpp ****             thread_dispatch();
 198              		.loc 1 24 25 is_stmt 0
 199 0108 13070000 		li	a4,0
 200              	.L13:
GAS LISTING /tmp/ccznD7yc.s 			page 6


 201              	.LVL21:
  24:test/Threads_C_API_test.cpp ****             thread_dispatch();
 202              		.loc 1 24 34 is_stmt 1 discriminator 3
 203 010c B7170000 		li	a5,4096
 204 0110 938777BB 		addi	a5,a5,-1097
 205 0114 E3E0E7FE 		bgtu	a4,a5,.L12
  24:test/Threads_C_API_test.cpp ****             thread_dispatch();
 206              		.loc 1 24 13 discriminator 2
 207 0118 13071700 		addi	a4,a4,1
 208              	.LVL22:
 209 011c 6FF01FFF 		j	.L13
 210              	.LVL23:
 211              	.L11:
 212              	.LBE14:
 213              	.LBE15:
 214              	.LBE12:
 215              	.LBE11:
  19:test/Threads_C_API_test.cpp ****         printString("A: i=");
 216              		.loc 1 19 5 discriminator 2
 217 0120 13091900 		addi	s2,s2,1
 218              	.LVL24:
 219              	.L15:
  19:test/Threads_C_API_test.cpp ****         printString("A: i=");
 220              		.loc 1 19 26 discriminator 1
 221 0124 93079000 		li	a5,9
 222 0128 63E02705 		bgtu	s2,a5,.L10
 223              	.LBB17:
  20:test/Threads_C_API_test.cpp ****         printInt(i);
 224              		.loc 1 20 9
  20:test/Threads_C_API_test.cpp ****         printInt(i);
 225              		.loc 1 20 20 is_stmt 0
 226 012c 17050000 		lla	a0,.LC3
 226      13050500 
 227 0134 97000000 		call	_Z11printStringPKc@plt
 227      E7800000 
 228              	.LVL25:
  21:test/Threads_C_API_test.cpp ****         printString("\n");
 229              		.loc 1 21 9 is_stmt 1
  21:test/Threads_C_API_test.cpp ****         printString("\n");
 230              		.loc 1 21 17 is_stmt 0
 231 013c 13060000 		li	a2,0
 232 0140 9305A000 		li	a1,10
 233 0144 1B050900 		sext.w	a0,s2
 234 0148 97000000 		call	_Z8printIntiii@plt
 234      E7800000 
 235              	.LVL26:
  22:test/Threads_C_API_test.cpp ****         for (uint64 j = 0; j < 1000; j++) {
 236              		.loc 1 22 9 is_stmt 1
  22:test/Threads_C_API_test.cpp ****         for (uint64 j = 0; j < 1000; j++) {
 237              		.loc 1 22 20 is_stmt 0
 238 0150 17050000 		lla	a0,.LC1
 238      13050500 
 239 0158 97000000 		call	_Z11printStringPKc@plt
 239      E7800000 
 240              	.LVL27:
  23:test/Threads_C_API_test.cpp ****             for (uint64 k = 0; k < 3000; k++) { /* busy wait */ }
 241              		.loc 1 23 9 is_stmt 1
GAS LISTING /tmp/ccznD7yc.s 			page 7


 242              	.LBB16:
  23:test/Threads_C_API_test.cpp ****             for (uint64 k = 0; k < 3000; k++) { /* busy wait */ }
 243              		.loc 1 23 21 is_stmt 0
 244 0160 93040000 		li	s1,0
 245 0164 6FF0DFF9 		j	.L14
 246              	.LVL28:
 247              	.L10:
 248              	.LBE16:
 249              	.LBE17:
 250              	.LBE10:
  28:test/Threads_C_API_test.cpp ****     finishedA = true;
 251              		.loc 1 28 5 is_stmt 1
  28:test/Threads_C_API_test.cpp ****     finishedA = true;
 252              		.loc 1 28 16 is_stmt 0
 253 0168 17050000 		lla	a0,.LC4
 253      13050500 
 254 0170 97000000 		call	_Z11printStringPKc@plt
 254      E7800000 
 255              	.LVL29:
  29:test/Threads_C_API_test.cpp **** 
 256              		.loc 1 29 5 is_stmt 1
  29:test/Threads_C_API_test.cpp **** 
 257              		.loc 1 29 15 is_stmt 0
 258 0178 93071000 		li	a5,1
 259 017c 17070000 		sb	a5,.LANCHOR0+1,a4
 259      2300F700 
  31:test/Threads_C_API_test.cpp **** 
 260              		.loc 1 31 1
 261 0184 83308101 		ld	ra,24(sp)
 262              		.cfi_restore 1
 263 0188 03340101 		ld	s0,16(sp)
 264              		.cfi_restore 8
 265              		.cfi_def_cfa 2, 32
 266 018c 83348100 		ld	s1,8(sp)
 267              		.cfi_restore 9
 268 0190 03390100 		ld	s2,0(sp)
 269              		.cfi_restore 18
 270              	.LVL30:
 271 0194 13010102 		addi	sp,sp,32
 272              		.cfi_def_cfa_offset 0
 273 0198 67800000 		jr	ra
 274              		.cfi_endproc
 275              	.LFE1:
 277              		.section	.rodata.str1.8
 278 0039 00000000 		.align	3
 278      000000
 279              	.LC5:
 280 0040 54687265 		.string	"ThreadA created\n"
 280      61644120 
 280      63726561 
 280      7465640A 
 280      00
 281 0051 00000000 		.align	3
 281      000000
 282              	.LC6:
 283 0058 54687265 		.string	"ThreadB created\n"
 283      61644220 
GAS LISTING /tmp/ccznD7yc.s 			page 8


 283      63726561 
 283      7465640A 
 283      00
 284              		.text
 285              		.align	2
 286              		.globl	_Z18Threads_C_API_testv
 288              	_Z18Threads_C_API_testv:
 289              	.LFB3:
  45:test/Threads_C_API_test.cpp **** 
  46:test/Threads_C_API_test.cpp **** //static void workerBodyC(void* arg) {
  47:test/Threads_C_API_test.cpp **** //    uint8 i = 0;
  48:test/Threads_C_API_test.cpp **** //    for (; i < 3; i++) {
  49:test/Threads_C_API_test.cpp **** //        printString("C: i="); printInt(i); printString("\n");
  50:test/Threads_C_API_test.cpp **** //    }
  51:test/Threads_C_API_test.cpp **** //
  52:test/Threads_C_API_test.cpp **** //    printString("C: dispatch\n");
  53:test/Threads_C_API_test.cpp **** //    __asm__ ("li t1, 7");
  54:test/Threads_C_API_test.cpp **** //    thread_dispatch();
  55:test/Threads_C_API_test.cpp **** //
  56:test/Threads_C_API_test.cpp **** //    uint64 t1 = 0;
  57:test/Threads_C_API_test.cpp **** //    __asm__ ("mv %[t1], t1" : [t1] "=r"(t1));
  58:test/Threads_C_API_test.cpp **** //
  59:test/Threads_C_API_test.cpp **** //    printString("C: t1="); printInt(t1); printString("\n");
  60:test/Threads_C_API_test.cpp **** //
  61:test/Threads_C_API_test.cpp **** //    uint64 result = fibonacci(12);
  62:test/Threads_C_API_test.cpp **** //    printString("C: fibonaci="); printInt(result); printString("\n");
  63:test/Threads_C_API_test.cpp **** //
  64:test/Threads_C_API_test.cpp **** //    for (; i < 6; i++) {
  65:test/Threads_C_API_test.cpp **** //        printString("C: i="); printInt(i); printString("\n");
  66:test/Threads_C_API_test.cpp **** //    }
  67:test/Threads_C_API_test.cpp **** //
  68:test/Threads_C_API_test.cpp **** //    printString("A finishedcccccccc!\n");
  69:test/Threads_C_API_test.cpp **** //    finishedC = true;
  70:test/Threads_C_API_test.cpp **** //    thread_dispatch();
  71:test/Threads_C_API_test.cpp **** //}
  72:test/Threads_C_API_test.cpp **** //
  73:test/Threads_C_API_test.cpp **** //static void workerBodyD(void* arg) {
  74:test/Threads_C_API_test.cpp **** //    uint8 i = 10;
  75:test/Threads_C_API_test.cpp **** //    for (; i < 13; i++) {
  76:test/Threads_C_API_test.cpp **** //        printString("D: i="); printInt(i); printString("\n");
  77:test/Threads_C_API_test.cpp **** //    }
  78:test/Threads_C_API_test.cpp **** //
  79:test/Threads_C_API_test.cpp **** //    printString("D: dispatch\n");
  80:test/Threads_C_API_test.cpp **** //    __asm__ ("li t1, 5");
  81:test/Threads_C_API_test.cpp **** //    thread_dispatch();
  82:test/Threads_C_API_test.cpp **** //
  83:test/Threads_C_API_test.cpp **** //    uint64 result = fibonacci(16);
  84:test/Threads_C_API_test.cpp **** //    printString("D: fibonaci="); printInt(result); printString("\n");
  85:test/Threads_C_API_test.cpp **** //
  86:test/Threads_C_API_test.cpp **** //    for (; i < 16; i++) {
  87:test/Threads_C_API_test.cpp **** //        printString("D: i="); printInt(i); printString("\n");
  88:test/Threads_C_API_test.cpp **** //    }
  89:test/Threads_C_API_test.cpp **** //
  90:test/Threads_C_API_test.cpp **** //    printString("D finished!\n");
  91:test/Threads_C_API_test.cpp **** //    finishedD = true;
  92:test/Threads_C_API_test.cpp **** //    thread_dispatch();
  93:test/Threads_C_API_test.cpp **** //}
GAS LISTING /tmp/ccznD7yc.s 			page 9


  94:test/Threads_C_API_test.cpp **** 
  95:test/Threads_C_API_test.cpp **** 
  96:test/Threads_C_API_test.cpp **** void Threads_C_API_test() {
 290              		.loc 1 96 27 is_stmt 1
 291              		.cfi_startproc
 292 019c 130101FE 		addi	sp,sp,-32
 293              		.cfi_def_cfa_offset 32
 294 01a0 233C1100 		sd	ra,24(sp)
 295 01a4 23388100 		sd	s0,16(sp)
 296              		.cfi_offset 1, -8
 297              		.cfi_offset 8, -16
 298 01a8 13040102 		addi	s0,sp,32
 299              		.cfi_def_cfa 8, 0
  97:test/Threads_C_API_test.cpp ****     thread_t threads[4];
 300              		.loc 1 97 5
  98:test/Threads_C_API_test.cpp ****     thread_create(&threads[0], workerBodyA, nullptr);
 301              		.loc 1 98 5
 302              		.loc 1 98 18 is_stmt 0
 303 01ac 13060000 		li	a2,0
 304 01b0 97050000 		lla	a1,_ZL11workerBodyAPv
 304      93850500 
 305 01b8 130504FE 		addi	a0,s0,-32
 306 01bc 97000000 		call	thread_create@plt
 306      E7800000 
 307              	.LVL31:
  99:test/Threads_C_API_test.cpp ****     printString("ThreadA created\n");
 308              		.loc 1 99 5 is_stmt 1
 309              		.loc 1 99 16 is_stmt 0
 310 01c4 17050000 		lla	a0,.LC5
 310      13050500 
 311 01cc 97000000 		call	_Z11printStringPKc@plt
 311      E7800000 
 312              	.LVL32:
 100:test/Threads_C_API_test.cpp **** 
 101:test/Threads_C_API_test.cpp ****     thread_create(&threads[1], workerBodyB, nullptr);
 313              		.loc 1 101 5 is_stmt 1
 314              		.loc 1 101 18 is_stmt 0
 315 01d4 13060000 		li	a2,0
 316 01d8 97050000 		lla	a1,_ZL11workerBodyBPv
 316      93850500 
 317 01e0 130544FE 		addi	a0,s0,-28
 318 01e4 97000000 		call	thread_create@plt
 318      E7800000 
 319              	.LVL33:
 102:test/Threads_C_API_test.cpp ****     printString("ThreadB created\n");
 320              		.loc 1 102 5 is_stmt 1
 321              		.loc 1 102 16 is_stmt 0
 322 01ec 17050000 		lla	a0,.LC6
 322      13050500 
 323 01f4 97000000 		call	_Z11printStringPKc@plt
 323      E7800000 
 324              	.LVL34:
 325 01fc 6F00C000 		j	.L19
 326              	.L18:
 103:test/Threads_C_API_test.cpp **** 
 104:test/Threads_C_API_test.cpp **** //    thread_create(&threads[2], workerBodyC, nullptr);
 105:test/Threads_C_API_test.cpp **** //    printString("ThreadC created\n");
GAS LISTING /tmp/ccznD7yc.s 			page 10


 106:test/Threads_C_API_test.cpp **** //
 107:test/Threads_C_API_test.cpp **** //    thread_create(&threads[3], workerBodyD, nullptr);
 108:test/Threads_C_API_test.cpp **** //    printString("ThreadD created\n");
 109:test/Threads_C_API_test.cpp **** 
 110:test/Threads_C_API_test.cpp ****     while (!(finishedA && finishedB )) {
 111:test/Threads_C_API_test.cpp ****         thread_dispatch();
 327              		.loc 1 111 9 is_stmt 1
 328              		.loc 1 111 24 is_stmt 0
 329 0200 97000000 		call	thread_dispatch@plt
 329      E7800000 
 330              	.LVL35:
 331              	.L19:
 110:test/Threads_C_API_test.cpp ****         thread_dispatch();
 332              		.loc 1 110 5 is_stmt 1
 110:test/Threads_C_API_test.cpp ****         thread_dispatch();
 333              		.loc 1 110 12
 110:test/Threads_C_API_test.cpp ****         thread_dispatch();
 334              		.loc 1 110 14 is_stmt 0
 335 0208 97070000 		lbu	a5,.LANCHOR0+1
 335      83C70700 
 110:test/Threads_C_API_test.cpp ****         thread_dispatch();
 336              		.loc 1 110 12
 337 0210 E38807FE 		beqz	a5,.L18
 110:test/Threads_C_API_test.cpp ****         thread_dispatch();
 338              		.loc 1 110 27 discriminator 2
 339 0214 97070000 		lbu	a5,.LANCHOR0
 339      83C70700 
 110:test/Threads_C_API_test.cpp ****         thread_dispatch();
 340              		.loc 1 110 12 discriminator 2
 341 021c E38207FE 		beqz	a5,.L18
 112:test/Threads_C_API_test.cpp ****     }
 113:test/Threads_C_API_test.cpp **** 
 114:test/Threads_C_API_test.cpp **** }
 342              		.loc 1 114 1
 343 0220 83308101 		ld	ra,24(sp)
 344              		.cfi_restore 1
 345 0224 03340101 		ld	s0,16(sp)
 346              		.cfi_restore 8
 347              		.cfi_def_cfa 2, 32
 348 0228 13010102 		addi	sp,sp,32
 349              		.cfi_def_cfa_offset 0
 350 022c 67800000 		jr	ra
 351              		.cfi_endproc
 352              	.LFE3:
 354              		.bss
 355              		.set	.LANCHOR0,. + 0
 358              	_ZL9finishedB:
 359 0000 00       		.zero	1
 362              	_ZL9finishedA:
 363 0001 00       		.zero	1
 366              	_ZL9finishedD:
 367 0002 00       		.zero	1
 370              	_ZL9finishedC:
 371 0003 00       		.zero	1
 372              		.text
 373              	.Letext0:
 374              		.file 2 "test/../h/../lib/hw.h"
GAS LISTING /tmp/ccznD7yc.s 			page 11


 375              		.file 3 "test/../h/syscall_c.hpp"
 376              		.file 4 "test/printing.hpp"
GAS LISTING /tmp/ccznD7yc.s 			page 12

