GAS LISTING /tmp/ccznD7yc.s 			page 1


   1              		.file	"Threads_C_API_test.cpp"
   2              		.option pic
   3              		.option norelax
   4              		.text
   5              	.Ltext0:
   6              		.section	.rodata.str1.8,"aMS",@progbits,1
   7              		.align	3
   8              	.LC0:
   9 0000 423A2069 		.string	"B: i="
   9      3D00
  10 0006 0000     		.align	3
  11              	.LC1:
  12 0008 0A00     		.string	"\n"
  13 000a 00000000 		.align	3
  13      0000
  14              	.LC2:
  15 0010 42206669 		.string	"B finished!\n"
  15      6E697368 
  15      6564210A 
  15      00
  16              		.text
  17              		.align	2
  19              	_ZL11workerBodyBPv:
  20              	.LFB2:
  21              		.file 1 "test/Threads_C_API_test.cpp"
   1:test/Threads_C_API_test.cpp **** 
   2:test/Threads_C_API_test.cpp **** #include "../h/syscall_c.hpp"
   3:test/Threads_C_API_test.cpp **** #include "Threads_C_API_test.hpp"
   4:test/Threads_C_API_test.cpp **** 
   5:test/Threads_C_API_test.cpp **** #include "printing.hpp"
   6:test/Threads_C_API_test.cpp **** 
   7:test/Threads_C_API_test.cpp **** static volatile bool finishedA = false;
   8:test/Threads_C_API_test.cpp **** static volatile bool finishedB = false;
   9:test/Threads_C_API_test.cpp **** static volatile bool finishedC = false;
  10:test/Threads_C_API_test.cpp **** static volatile bool finishedD = false;
  11:test/Threads_C_API_test.cpp **** 
  12:test/Threads_C_API_test.cpp **** static uint64 fibonacci(uint64 n) {
  13:test/Threads_C_API_test.cpp ****     if (n == 0 || n == 1) { return n; }
  14:test/Threads_C_API_test.cpp ****     if (n % 10 == 0) { thread_dispatch(); }
  15:test/Threads_C_API_test.cpp ****     return fibonacci(n - 1) + fibonacci(n - 2);
  16:test/Threads_C_API_test.cpp **** }
  17:test/Threads_C_API_test.cpp **** 
  18:test/Threads_C_API_test.cpp **** static void workerBodyA(void* arg) {
  19:test/Threads_C_API_test.cpp ****     for (uint64 i = 0; i < 10; i++) {
  20:test/Threads_C_API_test.cpp ****         printString("A: i=");
  21:test/Threads_C_API_test.cpp ****         printInt(i);
  22:test/Threads_C_API_test.cpp ****         printString("\n");
  23:test/Threads_C_API_test.cpp ****         for (uint64 j = 0; j < 1000; j++) {
  24:test/Threads_C_API_test.cpp ****             for (uint64 k = 0; k < 3000; k++) { /* busy wait */ }
  25:test/Threads_C_API_test.cpp ****             thread_dispatch();
  26:test/Threads_C_API_test.cpp ****         }
  27:test/Threads_C_API_test.cpp ****     }
  28:test/Threads_C_API_test.cpp ****     printString("A finishedaaaa!\n");
  29:test/Threads_C_API_test.cpp ****     finishedA = true;
  30:test/Threads_C_API_test.cpp **** 
  31:test/Threads_C_API_test.cpp **** }
  32:test/Threads_C_API_test.cpp **** 
GAS LISTING /tmp/ccznD7yc.s 			page 2


  33:test/Threads_C_API_test.cpp **** static void workerBodyB(void* arg) {
  22              		.loc 1 33 36
  23              		.cfi_startproc
  24              	.LVL0:
  25 0000 130101FE 		addi	sp,sp,-32
  26              		.cfi_def_cfa_offset 32
  27 0004 233C1100 		sd	ra,24(sp)
  28 0008 23388100 		sd	s0,16(sp)
  29 000c 23349100 		sd	s1,8(sp)
  30 0010 23302101 		sd	s2,0(sp)
  31              		.cfi_offset 1, -8
  32              		.cfi_offset 8, -16
  33              		.cfi_offset 9, -24
  34              		.cfi_offset 18, -32
  35 0014 13040102 		addi	s0,sp,32
  36              		.cfi_def_cfa 8, 0
  34:test/Threads_C_API_test.cpp ****     for (uint64 i = 0; i < 16; i++) {
  37              		.loc 1 34 5
  38              	.LVL1:
  39              	.LBB2:
  40              		.loc 1 34 17 is_stmt 0
  41 0018 13090000 		li	s2,0
  42 001c 6F008003 		j	.L7
  43              	.LVL2:
  44              	.L4:
  45              	.LBB3:
  46              	.LBB4:
  47              	.LBB5:
  35:test/Threads_C_API_test.cpp ****         printString("B: i="); printInt(i); printString("\n");
  36:test/Threads_C_API_test.cpp ****         for (uint64 j = 0; j < 10000; j++) {
  37:test/Threads_C_API_test.cpp ****             for (uint64 k = 0; k < 30000; k++) { /* busy wait */ }
  38:test/Threads_C_API_test.cpp ****             thread_dispatch();
  48              		.loc 1 38 13 is_stmt 1 discriminator 2
  49              		.loc 1 38 28 is_stmt 0 discriminator 2
  50 0020 97000000 		call	thread_dispatch@plt
  50      E7800000 
  51              	.LVL3:
  52              	.LBE5:
  36:test/Threads_C_API_test.cpp ****             for (uint64 k = 0; k < 30000; k++) { /* busy wait */ }
  53              		.loc 1 36 9 is_stmt 1 discriminator 2
  54 0028 93841400 		addi	s1,s1,1
  55              	.LVL4:
  56              	.L6:
  36:test/Threads_C_API_test.cpp ****             for (uint64 k = 0; k < 30000; k++) { /* busy wait */ }
  57              		.loc 1 36 30 discriminator 1
  58 002c B7270000 		li	a5,8192
  59 0030 9387F770 		addi	a5,a5,1807
  60 0034 63EE9700 		bgtu	s1,a5,.L3
  61              	.LBB7:
  62              	.LBB6:
  37:test/Threads_C_API_test.cpp ****             thread_dispatch();
  63              		.loc 1 37 25 is_stmt 0
  64 0038 13070000 		li	a4,0
  65              	.L5:
  66              	.LVL5:
  37:test/Threads_C_API_test.cpp ****             thread_dispatch();
  67              		.loc 1 37 34 is_stmt 1 discriminator 3
GAS LISTING /tmp/ccznD7yc.s 			page 3


  68 003c B7770000 		li	a5,28672
  69 0040 9387F752 		addi	a5,a5,1327
  70 0044 E3EEE7FC 		bgtu	a4,a5,.L4
  37:test/Threads_C_API_test.cpp ****             thread_dispatch();
  71              		.loc 1 37 13 discriminator 2
  72 0048 13071700 		addi	a4,a4,1
  73              	.LVL6:
  74 004c 6FF01FFF 		j	.L5
  75              	.LVL7:
  76              	.L3:
  77              	.LBE6:
  78              	.LBE7:
  79              	.LBE4:
  80              	.LBE3:
  34:test/Threads_C_API_test.cpp ****         printString("B: i="); printInt(i); printString("\n");
  81              		.loc 1 34 5 discriminator 2
  82 0050 13091900 		addi	s2,s2,1
  83              	.LVL8:
  84              	.L7:
  34:test/Threads_C_API_test.cpp ****         printString("B: i="); printInt(i); printString("\n");
  85              		.loc 1 34 26 discriminator 1
  86 0054 9307F000 		li	a5,15
  87 0058 63E02705 		bgtu	s2,a5,.L2
  88              	.LBB9:
  35:test/Threads_C_API_test.cpp ****         for (uint64 j = 0; j < 10000; j++) {
  89              		.loc 1 35 9
  35:test/Threads_C_API_test.cpp ****         for (uint64 j = 0; j < 10000; j++) {
  90              		.loc 1 35 20 is_stmt 0
  91 005c 17050000 		lla	a0,.LC0
  91      13050500 
  92 0064 97000000 		call	_Z11printStringPKc@plt
  92      E7800000 
  93              	.LVL9:
  35:test/Threads_C_API_test.cpp ****         for (uint64 j = 0; j < 10000; j++) {
  94              		.loc 1 35 31 is_stmt 1
  35:test/Threads_C_API_test.cpp ****         for (uint64 j = 0; j < 10000; j++) {
  95              		.loc 1 35 39 is_stmt 0
  96 006c 13060000 		li	a2,0
  97 0070 9305A000 		li	a1,10
  98 0074 1B050900 		sext.w	a0,s2
  99 0078 97000000 		call	_Z8printIntiii@plt
  99      E7800000 
 100              	.LVL10:
  35:test/Threads_C_API_test.cpp ****         for (uint64 j = 0; j < 10000; j++) {
 101              		.loc 1 35 44 is_stmt 1
  35:test/Threads_C_API_test.cpp ****         for (uint64 j = 0; j < 10000; j++) {
 102              		.loc 1 35 55 is_stmt 0
 103 0080 17050000 		lla	a0,.LC1
 103      13050500 
 104 0088 97000000 		call	_Z11printStringPKc@plt
 104      E7800000 
 105              	.LVL11:
  36:test/Threads_C_API_test.cpp ****             for (uint64 k = 0; k < 30000; k++) { /* busy wait */ }
 106              		.loc 1 36 9 is_stmt 1
 107              	.LBB8:
  36:test/Threads_C_API_test.cpp ****             for (uint64 k = 0; k < 30000; k++) { /* busy wait */ }
 108              		.loc 1 36 21 is_stmt 0
GAS LISTING /tmp/ccznD7yc.s 			page 4


 109 0090 93040000 		li	s1,0
 110 0094 6FF09FF9 		j	.L6
 111              	.LVL12:
 112              	.L2:
 113              	.LBE8:
 114              	.LBE9:
 115              	.LBE2:
  39:test/Threads_C_API_test.cpp ****         }
  40:test/Threads_C_API_test.cpp ****     }
  41:test/Threads_C_API_test.cpp ****     printString("B finished!\n");
 116              		.loc 1 41 5 is_stmt 1
 117              		.loc 1 41 16 is_stmt 0
 118 0098 17050000 		lla	a0,.LC2
 118      13050500 
 119 00a0 97000000 		call	_Z11printStringPKc@plt
 119      E7800000 
 120              	.LVL13:
  42:test/Threads_C_API_test.cpp ****     finishedB = true;
 121              		.loc 1 42 5 is_stmt 1
 122              		.loc 1 42 15 is_stmt 0
 123 00a8 93071000 		li	a5,1
 124 00ac 17070000 		sb	a5,.LANCHOR0,a4
 124      2300F700 
  43:test/Threads_C_API_test.cpp ****     thread_dispatch();
 125              		.loc 1 43 5 is_stmt 1
 126              		.loc 1 43 20 is_stmt 0
 127 00b4 97000000 		call	thread_dispatch@plt
 127      E7800000 
 128              	.LVL14:
  44:test/Threads_C_API_test.cpp **** }
 129              		.loc 1 44 1
 130 00bc 83308101 		ld	ra,24(sp)
 131              		.cfi_restore 1
 132 00c0 03340101 		ld	s0,16(sp)
 133              		.cfi_restore 8
 134              		.cfi_def_cfa 2, 32
 135 00c4 83348100 		ld	s1,8(sp)
 136              		.cfi_restore 9
 137 00c8 03390100 		ld	s2,0(sp)
 138              		.cfi_restore 18
 139              	.LVL15:
 140 00cc 13010102 		addi	sp,sp,32
 141              		.cfi_def_cfa_offset 0
 142 00d0 67800000 		jr	ra
 143              		.cfi_endproc
 144              	.LFE2:
 146              		.section	.rodata.str1.8
 147 001d 000000   		.align	3
 148              	.LC3:
 149 0020 413A2069 		.string	"A: i="
 149      3D00
 150 0026 0000     		.align	3
 151              	.LC4:
 152 0028 41206669 		.string	"A finishedaaaa!\n"
 152      6E697368 
 152      65646161 
 152      6161210A 
GAS LISTING /tmp/ccznD7yc.s 			page 5


 152      00
 153              		.text
 154              		.align	2
 156              	_ZL11workerBodyAPv:
 157              	.LFB1:
  18:test/Threads_C_API_test.cpp ****     for (uint64 i = 0; i < 10; i++) {
 158              		.loc 1 18 36 is_stmt 1
 159              		.cfi_startproc
 160              	.LVL16:
 161 00d4 130101FE 		addi	sp,sp,-32
 162              		.cfi_def_cfa_offset 32
 163 00d8 233C1100 		sd	ra,24(sp)
 164 00dc 23388100 		sd	s0,16(sp)
 165 00e0 23349100 		sd	s1,8(sp)
 166 00e4 23302101 		sd	s2,0(sp)
 167              		.cfi_offset 1, -8
 168              		.cfi_offset 8, -16
 169              		.cfi_offset 9, -24
 170              		.cfi_offset 18, -32
 171 00e8 13040102 		addi	s0,sp,32
 172              		.cfi_def_cfa 8, 0
  19:test/Threads_C_API_test.cpp ****         printString("A: i=");
 173              		.loc 1 19 5
 174              	.LVL17:
 175              	.LBB10:
  19:test/Threads_C_API_test.cpp ****         printString("A: i=");
 176              		.loc 1 19 17 is_stmt 0
 177 00ec 13090000 		li	s2,0
 178 00f0 6F004003 		j	.L15
 179              	.LVL18:
 180              	.L12:
 181              	.LBB11:
 182              	.LBB12:
 183              	.LBB13:
  25:test/Threads_C_API_test.cpp ****         }
 184              		.loc 1 25 13 is_stmt 1 discriminator 2
  25:test/Threads_C_API_test.cpp ****         }
 185              		.loc 1 25 28 is_stmt 0 discriminator 2
 186 00f4 97000000 		call	thread_dispatch@plt
 186      E7800000 
 187              	.LVL19:
 188              	.LBE13:
  23:test/Threads_C_API_test.cpp ****             for (uint64 k = 0; k < 3000; k++) { /* busy wait */ }
 189              		.loc 1 23 9 is_stmt 1 discriminator 2
 190 00fc 93841400 		addi	s1,s1,1
 191              	.LVL20:
 192              	.L14:
  23:test/Threads_C_API_test.cpp ****             for (uint64 k = 0; k < 3000; k++) { /* busy wait */ }
 193              		.loc 1 23 30 discriminator 1
 194 0100 9307703E 		li	a5,999
 195 0104 63EE9700 		bgtu	s1,a5,.L11
 196              	.LBB15:
 197              	.LBB14:
  24:test/Threads_C_API_test.cpp ****             thread_dispatch();
 198              		.loc 1 24 25 is_stmt 0
 199 0108 13070000 		li	a4,0
 200              	.L13:
GAS LISTING /tmp/ccznD7yc.s 			page 6


 201              	.LVL21:
  24:test/Threads_C_API_test.cpp ****             thread_dispatch();
 202              		.loc 1 24 34 is_stmt 1 discriminator 3
 203 010c B7170000 		li	a5,4096
 204 0110 938777BB 		addi	a5,a5,-1097
 205 0114 E3E0E7FE 		bgtu	a4,a5,.L12
  24:test/Threads_C_API_test.cpp ****             thread_dispatch();
 206              		.loc 1 24 13 discriminator 2
 207 0118 13071700 		addi	a4,a4,1
 208              	.LVL22:
 209 011c 6FF01FFF 		j	.L13
 210              	.LVL23:
 211              	.L11:
 212              	.LBE14:
 213              	.LBE15:
 214              	.LBE12:
 215              	.LBE11:
  19:test/Threads_C_API_test.cpp ****         printString("A: i=");
 216              		.loc 1 19 5 discriminator 2
 217 0120 13091900 		addi	s2,s2,1
 218              	.LVL24:
 219              	.L15:
  19:test/Threads_C_API_test.cpp ****         printString("A: i=");
 220              		.loc 1 19 26 discriminator 1
 221 0124 93079000 		li	a5,9
 222 0128 63E02705 		bgtu	s2,a5,.L10
 223              	.LBB17:
  20:test/Threads_C_API_test.cpp ****         printInt(i);
 224              		.loc 1 20 9
  20:test/Threads_C_API_test.cpp ****         printInt(i);
 225              		.loc 1 20 20 is_stmt 0
 226 012c 17050000 		lla	a0,.LC3
 226      13050500 
 227 0134 97000000 		call	_Z11printStringPKc@plt
 227      E7800000 
 228              	.LVL25:
  21:test/Threads_C_API_test.cpp ****         printString("\n");
 229              		.loc 1 21 9 is_stmt 1
  21:test/Threads_C_API_test.cpp ****         printString("\n");
 230              		.loc 1 21 17 is_stmt 0
 231 013c 13060000 		li	a2,0
 232 0140 9305A000 		li	a1,10
 233 0144 1B050900 		sext.w	a0,s2
 234 0148 97000000 		call	_Z8printIntiii@plt
 234      E7800000 
 235              	.LVL26:
  22:test/Threads_C_API_test.cpp ****         for (uint64 j = 0; j < 1000; j++) {
 236              		.loc 1 22 9 is_stmt 1
  22:test/Threads_C_API_test.cpp ****         for (uint64 j = 0; j < 1000; j++) {
 237              		.loc 1 22 20 is_stmt 0
 238 0150 17050000 		lla	a0,.LC1
 238      13050500 
 239 0158 97000000 		call	_Z11printStringPKc@plt
 239      E7800000 
 240              	.LVL27:
  23:test/Threads_C_API_test.cpp ****             for (uint64 k = 0; k < 3000; k++) { /* busy wait */ }
 241              		.loc 1 23 9 is_stmt 1
GAS LISTING /tmp/ccznD7yc.s 			page 7


 242              	.LBB16:
  23:test/Threads_C_API_test.cpp ****             for (uint64 k = 0; k < 3000; k++) { /* busy wait */ }
 243              		.loc 1 23 21 is_stmt 0
 244 0160 93040000 		li	s1,0
 245 0164 6FF0DFF9 		j	.L14
 246              	.LVL28:
 247              	.L10:
 248              	.LBE16:
 249              	.LBE17:
 250              	.LBE10:
  28:test/Threads_C_API_test.cpp ****     finishedA = true;
 251              		.loc 1 28 5 is_stmt 1
  28:test/Threads_C_API_test.cpp ****     finishedA = true;
 252              		.loc 1 28 16 is_stmt 0
 253 0168 17050000 		lla	a0,.LC4
 253      13050500 
 254 0170 97000000 		call	_Z11printStringPKc@plt
 254      E7800000 
 255              	.LVL29:
  29:test/Threads_C_API_test.cpp **** 
 256              		.loc 1 29 5 is_stmt 1
  29:test/Threads_C_API_test.cpp **** 
 257              		.loc 1 29 15 is_stmt 0
 258 0178 93071000 		li	a5,1
 259 017c 17070000 		sb	a5,.LANCHOR0+1,a4
 259      2300F700 
  31:test/Threads_C_API_test.cpp **** 
 260              		.loc 1 31 1
 261 0184 83308101 		ld	ra,24(sp)
 262              		.cfi_restore 1
 263 0188 03340101 		ld	s0,16(sp)
 264              		.cfi_restore 8
 265              		.cfi_def_cfa 2, 32
 266 018c 83348100 		ld	s1,8(sp)
 267              		.cfi_restore 9
 268 0190 03390100 		ld	s2,0(sp)
 269              		.cfi_restore 18
 270              	.LVL30:
 271 0194 13010102 		addi	sp,sp,32
 272              		.cfi_def_cfa_offset 0
 273 0198 67800000 		jr	ra
 274              		.cfi_endproc
 275              	.LFE1:
 277              		.section	.rodata.str1.8
 278 0039 00000000 		.align	3
 278      000000
 279              	.LC5:
 280 0040 54687265 		.string	"ThreadA created\n"
 280      61644120 
 280      63726561 
 280      7465640A 
 280      00
 281 0051 00000000 		.align	3
 281      000000
 282              	.LC6:
 283 0058 54687265 		.string	"ThreadB created\n"
 283      61644220 
GAS LISTING /tmp/ccznD7yc.s 			page 8


 283      63726561 
 283      7465640A 
 283      00
 284              		.text
 285              		.align	2
 286              		.globl	_Z18Threads_C_API_testv
 288              	_Z18Threads_C_API_testv:
 289              	.LFB3:
  45:test/Threads_C_API_test.cpp **** 
  46:test/Threads_C_API_test.cpp **** //static void workerBodyC(void* arg) {
  47:test/Threads_C_API_test.cpp **** //    uint8 i = 0;
  48:test/Threads_C_API_test.cpp **** //    for (; i < 3; i++) {
  49:test/Threads_C_API_test.cpp **** //        printString("C: i="); printInt(i); printString("\n");
  50:test/Threads_C_API_test.cpp **** //    }
  51:test/Threads_C_API_test.cpp **** //
  52:test/Threads_C_API_test.cpp **** //    printString("C: dispatch\n");
  53:test/Threads_C_API_test.cpp **** //    __asm__ ("li t1, 7");
  54:test/Threads_C_API_test.cpp **** //    thread_dispatch();
  55:test/Threads_C_API_test.cpp **** //
  56:test/Threads_C_API_test.cpp **** //    uint64 t1 = 0;
  57:test/Threads_C_API_test.cpp **** //    __asm__ ("mv %[t1], t1" : [t1] "=r"(t1));
  58:test/Threads_C_API_test.cpp **** //
  59:test/Threads_C_API_test.cpp **** //    printString("C: t1="); printInt(t1); printString("\n");
  60:test/Threads_C_API_test.cpp **** //
  61:test/Threads_C_API_test.cpp **** //    uint64 result = fibonacci(12);
  62:test/Threads_C_API_test.cpp **** //    printString("C: fibonaci="); printInt(result); printString("\n");
  63:test/Threads_C_API_test.cpp **** //
  64:test/Threads_C_API_test.cpp **** //    for (; i < 6; i++) {
  65:test/Threads_C_API_test.cpp **** //        printString("C: i="); printInt(i); printString("\n");
  66:test/Threads_C_API_test.cpp **** //    }
  67:test/Threads_C_API_test.cpp **** //
  68:test/Threads_C_API_test.cpp **** //    printString("A finishedcccccccc!\n");
  69:test/Threads_C_API_test.cpp **** //    finishedC = true;
  70:test/Threads_C_API_test.cpp **** //    thread_dispatch();
  71:test/Threads_C_API_test.cpp **** //}
  72:test/Threads_C_API_test.cpp **** //
  73:test/Threads_C_API_test.cpp **** //static void workerBodyD(void* arg) {
  74:test/Threads_C_API_test.cpp **** //    uint8 i = 10;
  75:test/Threads_C_API_test.cpp **** //    for (; i < 13; i++) {
  76:test/Threads_C_API_test.cpp **** //        printString("D: i="); printInt(i); printString("\n");
  77:test/Threads_C_API_test.cpp **** //    }
  78:test/Threads_C_API_test.cpp **** //
  79:test/Threads_C_API_test.cpp **** //    printString("D: dispatch\n");
  80:test/Threads_C_API_test.cpp **** //    __asm__ ("li t1, 5");
  81:test/Threads_C_API_test.cpp **** //    thread_dispatch();
  82:test/Threads_C_API_test.cpp **** //
  83:test/Threads_C_API_test.cpp **** //    uint64 result = fibonacci(16);
  84:test/Threads_C_API_test.cpp **** //    printString("D: fibonaci="); printInt(result); printString("\n");
  85:test/Threads_C_API_test.cpp **** //
  86:test/Threads_C_API_test.cpp **** //    for (; i < 16; i++) {
  87:test/Threads_C_API_test.cpp **** //        printString("D: i="); printInt(i); printString("\n");
  88:test/Threads_C_API_test.cpp **** //    }
  89:test/Threads_C_API_test.cpp **** //
  90:test/Threads_C_API_test.cpp **** //    printString("D finished!\n");
  91:test/Threads_C_API_test.cpp **** //    finishedD = true;
  92:test/Threads_C_API_test.cpp **** //    thread_dispatch();
  93:test/Threads_C_API_test.cpp **** //}
GAS LISTING /tmp/ccznD7yc.s 			page 9


  94:test/Threads_C_API_test.cpp **** 
  95:test/Threads_C_API_test.cpp **** 
  96:test/Threads_C_API_test.cpp **** void Threads_C_API_test() {
 290              		.loc 1 96 27 is_stmt 1
 291              		.cfi_startproc
 292 019c 130101FE 		addi	sp,sp,-32
 293              		.cfi_def_cfa_offset 32
 294 01a0 233C1100 		sd	ra,24(sp)
 295 01a4 23388100 		sd	s0,16(sp)
 296              		.cfi_offset 1, -8
 297              		.cfi_offset 8, -16
 298 01a8 13040102 		addi	s0,sp,32
 299              		.cfi_def_cfa 8, 0
  97:test/Threads_C_API_test.cpp ****     thread_t threads[4];
 300              		.loc 1 97 5
  98:test/Threads_C_API_test.cpp ****     thread_create(&threads[0], workerBodyA, nullptr);
 301              		.loc 1 98 5
 302              		.loc 1 98 18 is_stmt 0
 303 01ac 13060000 		li	a2,0
 304 01b0 97050000 		lla	a1,_ZL11workerBodyAPv
 304      93850500 
 305 01b8 130504FE 		addi	a0,s0,-32
 306 01bc 97000000 		call	thread_create@plt
 306      E7800000 
 307              	.LVL31:
  99:test/Threads_C_API_test.cpp ****     printString("ThreadA created\n");
 308              		.loc 1 99 5 is_stmt 1
 309              		.loc 1 99 16 is_stmt 0
 310 01c4 17050000 		lla	a0,.LC5
 310      13050500 
 311 01cc 97000000 		call	_Z11printStringPKc@plt
 311      E7800000 
 312              	.LVL32:
 100:test/Threads_C_API_test.cpp **** 
 101:test/Threads_C_API_test.cpp ****     thread_create(&threads[1], workerBodyB, nullptr);
 313              		.loc 1 101 5 is_stmt 1
 314              		.loc 1 101 18 is_stmt 0
 315 01d4 13060000 		li	a2,0
 316 01d8 97050000 		lla	a1,_ZL11workerBodyBPv
 316      93850500 
 317 01e0 130544FE 		addi	a0,s0,-28
 318 01e4 97000000 		call	thread_create@plt
 318      E7800000 
 319              	.LVL33:
 102:test/Threads_C_API_test.cpp ****     printString("ThreadB created\n");
 320              		.loc 1 102 5 is_stmt 1
 321              		.loc 1 102 16 is_stmt 0
 322 01ec 17050000 		lla	a0,.LC6
 322      13050500 
 323 01f4 97000000 		call	_Z11printStringPKc@plt
 323      E7800000 
 324              	.LVL34:
 325 01fc 6F00C000 		j	.L19
 326              	.L18:
 103:test/Threads_C_API_test.cpp **** 
 104:test/Threads_C_API_test.cpp **** //    thread_create(&threads[2], workerBodyC, nullptr);
 105:test/Threads_C_API_test.cpp **** //    printString("ThreadC created\n");
GAS LISTING /tmp/ccznD7yc.s 			page 10


 106:test/Threads_C_API_test.cpp **** //
 107:test/Threads_C_API_test.cpp **** //    thread_create(&threads[3], workerBodyD, nullptr);
 108:test/Threads_C_API_test.cpp **** //    printString("ThreadD created\n");
 109:test/Threads_C_API_test.cpp **** 
 110:test/Threads_C_API_test.cpp ****     while (!(finishedA && finishedB )) {
 111:test/Threads_C_API_test.cpp ****         thread_dispatch();
 327              		.loc 1 111 9 is_stmt 1
 328              		.loc 1 111 24 is_stmt 0
 329 0200 97000000 		call	thread_dispatch@plt
 329      E7800000 
 330              	.LVL35:
 331              	.L19:
 110:test/Threads_C_API_test.cpp ****         thread_dispatch();
 332              		.loc 1 110 5 is_stmt 1
 110:test/Threads_C_API_test.cpp ****         thread_dispatch();
 333              		.loc 1 110 12
 110:test/Threads_C_API_test.cpp ****         thread_dispatch();
 334              		.loc 1 110 14 is_stmt 0
 335 0208 97070000 		lbu	a5,.LANCHOR0+1
 335      83C70700 
 110:test/Threads_C_API_test.cpp ****         thread_dispatch();
 336              		.loc 1 110 12
 337 0210 E38807FE 		beqz	a5,.L18
 110:test/Threads_C_API_test.cpp ****         thread_dispatch();
 338              		.loc 1 110 27 discriminator 2
 339 0214 97070000 		lbu	a5,.LANCHOR0
 339      83C70700 
 110:test/Threads_C_API_test.cpp ****         thread_dispatch();
 340              		.loc 1 110 12 discriminator 2
 341 021c E38207FE 		beqz	a5,.L18
 112:test/Threads_C_API_test.cpp ****     }
 113:test/Threads_C_API_test.cpp **** 
 114:test/Threads_C_API_test.cpp **** }
 342              		.loc 1 114 1
 343 0220 83308101 		ld	ra,24(sp)
 344              		.cfi_restore 1
 345 0224 03340101 		ld	s0,16(sp)
 346              		.cfi_restore 8
 347              		.cfi_def_cfa 2, 32
 348 0228 13010102 		addi	sp,sp,32
 349              		.cfi_def_cfa_offset 0
 350 022c 67800000 		jr	ra
 351              		.cfi_endproc
 352              	.LFE3:
 354              		.bss
 355              		.set	.LANCHOR0,. + 0
 358              	_ZL9finishedB:
 359 0000 00       		.zero	1
 362              	_ZL9finishedA:
 363 0001 00       		.zero	1
 366              	_ZL9finishedD:
 367 0002 00       		.zero	1
 370              	_ZL9finishedC:
 371 0003 00       		.zero	1
 372              		.text
 373              	.Letext0:
 374              		.file 2 "test/../h/../lib/hw.h"
GAS LISTING /tmp/ccznD7yc.s 			page 11


 375              		.file 3 "test/../h/syscall_c.hpp"
 376              		.file 4 "test/printing.hpp"
GAS LISTING /tmp/ccznD7yc.s 			page 12


DEFINED SYMBOLS
                            *ABS*:0000000000000000 Threads_C_API_test.cpp
     /tmp/ccznD7yc.s:19     .text:0000000000000000 _ZL11workerBodyBPv
     /tmp/ccznD7yc.s:23     .text:0000000000000000 .L0 
     /tmp/ccznD7yc.s:25     .text:0000000000000000 .L0 
     /tmp/ccznD7yc.s:26     .text:0000000000000004 .L0 
     /tmp/ccznD7yc.s:31     .text:0000000000000014 .L0 
     /tmp/ccznD7yc.s:32     .text:0000000000000014 .L0 
     /tmp/ccznD7yc.s:33     .text:0000000000000014 .L0 
     /tmp/ccznD7yc.s:34     .text:0000000000000014 .L0 
     /tmp/ccznD7yc.s:36     .text:0000000000000018 .L0 
     /tmp/ccznD7yc.s:40     .text:0000000000000018 .L0 
     /tmp/ccznD7yc.s:41     .text:0000000000000018 .L0 
     /tmp/ccznD7yc.s:49     .text:0000000000000020 .L0 
     /tmp/ccznD7yc.s:50     .text:0000000000000020 .L0 
     /tmp/ccznD7yc.s:54     .text:0000000000000028 .L0 
     /tmp/ccznD7yc.s:58     .text:000000000000002c .L0 
     /tmp/ccznD7yc.s:64     .text:0000000000000038 .L0 
     /tmp/ccznD7yc.s:68     .text:000000000000003c .L0 
     /tmp/ccznD7yc.s:72     .text:0000000000000048 .L0 
     /tmp/ccznD7yc.s:82     .text:0000000000000050 .L0 
     /tmp/ccznD7yc.s:86     .text:0000000000000054 .L0 
     /tmp/ccznD7yc.s:90     .text:000000000000005c .L0 
     /tmp/ccznD7yc.s:91     .text:000000000000005c .L0 
     /tmp/ccznD7yc.s:95     .text:000000000000006c .L0 
     /tmp/ccznD7yc.s:96     .text:000000000000006c .L0 
     /tmp/ccznD7yc.s:102    .text:0000000000000080 .L0 
     /tmp/ccznD7yc.s:103    .text:0000000000000080 .L0 
     /tmp/ccznD7yc.s:108    .text:0000000000000090 .L0 
     /tmp/ccznD7yc.s:109    .text:0000000000000090 .L0 
     /tmp/ccznD7yc.s:117    .text:0000000000000098 .L0 
     /tmp/ccznD7yc.s:118    .text:0000000000000098 .L0 
     /tmp/ccznD7yc.s:122    .text:00000000000000a8 .L0 
     /tmp/ccznD7yc.s:123    .text:00000000000000a8 .L0 
     /tmp/ccznD7yc.s:126    .text:00000000000000b4 .L0 
     /tmp/ccznD7yc.s:127    .text:00000000000000b4 .L0 
     /tmp/ccznD7yc.s:130    .text:00000000000000bc .L0 
     /tmp/ccznD7yc.s:131    .text:00000000000000c0 .L0 
     /tmp/ccznD7yc.s:133    .text:00000000000000c4 .L0 
     /tmp/ccznD7yc.s:134    .text:00000000000000c4 .L0 
     /tmp/ccznD7yc.s:136    .text:00000000000000c8 .L0 
     /tmp/ccznD7yc.s:138    .text:00000000000000cc .L0 
     /tmp/ccznD7yc.s:141    .text:00000000000000d0 .L0 
     /tmp/ccznD7yc.s:143    .text:00000000000000d4 .L0 
     /tmp/ccznD7yc.s:156    .text:00000000000000d4 _ZL11workerBodyAPv
     /tmp/ccznD7yc.s:159    .text:00000000000000d4 .L0 
     /tmp/ccznD7yc.s:161    .text:00000000000000d4 .L0 
     /tmp/ccznD7yc.s:162    .text:00000000000000d8 .L0 
     /tmp/ccznD7yc.s:167    .text:00000000000000e8 .L0 
     /tmp/ccznD7yc.s:168    .text:00000000000000e8 .L0 
     /tmp/ccznD7yc.s:169    .text:00000000000000e8 .L0 
     /tmp/ccznD7yc.s:170    .text:00000000000000e8 .L0 
     /tmp/ccznD7yc.s:172    .text:00000000000000ec .L0 
     /tmp/ccznD7yc.s:176    .text:00000000000000ec .L0 
     /tmp/ccznD7yc.s:177    .text:00000000000000ec .L0 
     /tmp/ccznD7yc.s:185    .text:00000000000000f4 .L0 
     /tmp/ccznD7yc.s:186    .text:00000000000000f4 .L0 
GAS LISTING /tmp/ccznD7yc.s 			page 13


     /tmp/ccznD7yc.s:190    .text:00000000000000fc .L0 
     /tmp/ccznD7yc.s:194    .text:0000000000000100 .L0 
     /tmp/ccznD7yc.s:199    .text:0000000000000108 .L0 
     /tmp/ccznD7yc.s:203    .text:000000000000010c .L0 
     /tmp/ccznD7yc.s:207    .text:0000000000000118 .L0 
     /tmp/ccznD7yc.s:217    .text:0000000000000120 .L0 
     /tmp/ccznD7yc.s:221    .text:0000000000000124 .L0 
     /tmp/ccznD7yc.s:225    .text:000000000000012c .L0 
     /tmp/ccznD7yc.s:226    .text:000000000000012c .L0 
     /tmp/ccznD7yc.s:230    .text:000000000000013c .L0 
     /tmp/ccznD7yc.s:231    .text:000000000000013c .L0 
     /tmp/ccznD7yc.s:237    .text:0000000000000150 .L0 
     /tmp/ccznD7yc.s:238    .text:0000000000000150 .L0 
     /tmp/ccznD7yc.s:243    .text:0000000000000160 .L0 
     /tmp/ccznD7yc.s:244    .text:0000000000000160 .L0 
     /tmp/ccznD7yc.s:252    .text:0000000000000168 .L0 
     /tmp/ccznD7yc.s:253    .text:0000000000000168 .L0 
     /tmp/ccznD7yc.s:257    .text:0000000000000178 .L0 
     /tmp/ccznD7yc.s:258    .text:0000000000000178 .L0 
     /tmp/ccznD7yc.s:261    .text:0000000000000184 .L0 
     /tmp/ccznD7yc.s:262    .text:0000000000000188 .L0 
     /tmp/ccznD7yc.s:264    .text:000000000000018c .L0 
     /tmp/ccznD7yc.s:265    .text:000000000000018c .L0 
     /tmp/ccznD7yc.s:267    .text:0000000000000190 .L0 
     /tmp/ccznD7yc.s:269    .text:0000000000000194 .L0 
     /tmp/ccznD7yc.s:272    .text:0000000000000198 .L0 
     /tmp/ccznD7yc.s:274    .text:000000000000019c .L0 
     /tmp/ccznD7yc.s:288    .text:000000000000019c _Z18Threads_C_API_testv
     /tmp/ccznD7yc.s:291    .text:000000000000019c .L0 
     /tmp/ccznD7yc.s:292    .text:000000000000019c .L0 
     /tmp/ccznD7yc.s:293    .text:00000000000001a0 .L0 
     /tmp/ccznD7yc.s:296    .text:00000000000001a8 .L0 
     /tmp/ccznD7yc.s:297    .text:00000000000001a8 .L0 
     /tmp/ccznD7yc.s:299    .text:00000000000001ac .L0 
     /tmp/ccznD7yc.s:301    .text:00000000000001ac .L0 
     /tmp/ccznD7yc.s:302    .text:00000000000001ac .L0 
     /tmp/ccznD7yc.s:303    .text:00000000000001ac .L0 
     /tmp/ccznD7yc.s:309    .text:00000000000001c4 .L0 
     /tmp/ccznD7yc.s:310    .text:00000000000001c4 .L0 
     /tmp/ccznD7yc.s:314    .text:00000000000001d4 .L0 
     /tmp/ccznD7yc.s:315    .text:00000000000001d4 .L0 
     /tmp/ccznD7yc.s:321    .text:00000000000001ec .L0 
     /tmp/ccznD7yc.s:322    .text:00000000000001ec .L0 
     /tmp/ccznD7yc.s:328    .text:0000000000000200 .L0 
     /tmp/ccznD7yc.s:329    .text:0000000000000200 .L0 
     /tmp/ccznD7yc.s:333    .text:0000000000000208 .L0 
     /tmp/ccznD7yc.s:334    .text:0000000000000208 .L0 
     /tmp/ccznD7yc.s:335    .text:0000000000000208 .L0 
     /tmp/ccznD7yc.s:337    .text:0000000000000210 .L0 
     /tmp/ccznD7yc.s:339    .text:0000000000000214 .L0 
     /tmp/ccznD7yc.s:341    .text:000000000000021c .L0 
     /tmp/ccznD7yc.s:343    .text:0000000000000220 .L0 
     /tmp/ccznD7yc.s:344    .text:0000000000000224 .L0 
     /tmp/ccznD7yc.s:346    .text:0000000000000228 .L0 
     /tmp/ccznD7yc.s:347    .text:0000000000000228 .L0 
     /tmp/ccznD7yc.s:349    .text:000000000000022c .L0 
     /tmp/ccznD7yc.s:351    .text:0000000000000230 .L0 
GAS LISTING /tmp/ccznD7yc.s 			page 14


     /tmp/ccznD7yc.s:355    .bss:0000000000000000 .LANCHOR0
     /tmp/ccznD7yc.s:358    .bss:0000000000000000 _ZL9finishedB
     /tmp/ccznD7yc.s:362    .bss:0000000000000001 _ZL9finishedA
     /tmp/ccznD7yc.s:366    .bss:0000000000000002 _ZL9finishedD
     /tmp/ccznD7yc.s:370    .bss:0000000000000003 _ZL9finishedC
     /tmp/ccznD7yc.s:377    .text:0000000000000230 .L0 
     /tmp/ccznD7yc.s:8      .rodata.str1.8:0000000000000000 .LC0
     /tmp/ccznD7yc.s:91     .text:000000000000005c .L0 
     /tmp/ccznD7yc.s:11     .rodata.str1.8:0000000000000008 .LC1
     /tmp/ccznD7yc.s:103    .text:0000000000000080 .L0 
     /tmp/ccznD7yc.s:14     .rodata.str1.8:0000000000000010 .LC2
     /tmp/ccznD7yc.s:118    .text:0000000000000098 .L0 
     /tmp/ccznD7yc.s:124    .text:00000000000000ac .L0 
     /tmp/ccznD7yc.s:148    .rodata.str1.8:0000000000000020 .LC3
     /tmp/ccznD7yc.s:226    .text:000000000000012c .L0 
     /tmp/ccznD7yc.s:238    .text:0000000000000150 .L0 
     /tmp/ccznD7yc.s:151    .rodata.str1.8:0000000000000028 .LC4
     /tmp/ccznD7yc.s:253    .text:0000000000000168 .L0 
     /tmp/ccznD7yc.s:259    .text:000000000000017c .L0 
     /tmp/ccznD7yc.s:304    .text:00000000000001b0 .L0 
     /tmp/ccznD7yc.s:279    .rodata.str1.8:0000000000000040 .LC5
     /tmp/ccznD7yc.s:310    .text:00000000000001c4 .L0 
     /tmp/ccznD7yc.s:316    .text:00000000000001d8 .L0 
     /tmp/ccznD7yc.s:282    .rodata.str1.8:0000000000000058 .LC6
     /tmp/ccznD7yc.s:322    .text:00000000000001ec .L0 
     /tmp/ccznD7yc.s:335    .text:0000000000000208 .L0 
     /tmp/ccznD7yc.s:339    .text:0000000000000214 .L0 
     /tmp/ccznD7yc.s:84     .text:0000000000000054 .L7
     /tmp/ccznD7yc.s:76     .text:0000000000000050 .L3
     /tmp/ccznD7yc.s:44     .text:0000000000000020 .L4
     /tmp/ccznD7yc.s:65     .text:000000000000003c .L5
     /tmp/ccznD7yc.s:112    .text:0000000000000098 .L2
     /tmp/ccznD7yc.s:56     .text:000000000000002c .L6
     /tmp/ccznD7yc.s:219    .text:0000000000000124 .L15
     /tmp/ccznD7yc.s:211    .text:0000000000000120 .L11
     /tmp/ccznD7yc.s:180    .text:00000000000000f4 .L12
     /tmp/ccznD7yc.s:200    .text:000000000000010c .L13
     /tmp/ccznD7yc.s:247    .text:0000000000000168 .L10
     /tmp/ccznD7yc.s:192    .text:0000000000000100 .L14
     /tmp/ccznD7yc.s:331    .text:0000000000000208 .L19
     /tmp/ccznD7yc.s:326    .text:0000000000000200 .L18
     /tmp/ccznD7yc.s:899    .debug_abbrev:0000000000000000 .Ldebug_abbrev0
     /tmp/ccznD7yc.s:1432   .debug_str:0000000000000196 .LASF33
     /tmp/ccznD7yc.s:1412   .debug_str:00000000000000eb .LASF34
     /tmp/ccznD7yc.s:1404   .debug_str:00000000000000ab .LASF35
     /tmp/ccznD7yc.s:5      .text:0000000000000000 .Ltext0
     /tmp/ccznD7yc.s:373    .text:0000000000000230 .Letext0
     /tmp/ccznD7yc.s:1374   .debug_line:0000000000000000 .Ldebug_line0
     /tmp/ccznD7yc.s:1380   .debug_str:0000000000000013 .LASF0
     /tmp/ccznD7yc.s:1430   .debug_str:0000000000000183 .LASF1
     /tmp/ccznD7yc.s:1408   .debug_str:00000000000000d5 .LASF2
     /tmp/ccznD7yc.s:1400   .debug_str:000000000000009f .LASF4
     /tmp/ccznD7yc.s:1394   .debug_str:000000000000006c .LASF3
     /tmp/ccznD7yc.s:1386   .debug_str:000000000000003d .LASF5
     /tmp/ccznD7yc.s:1398   .debug_str:0000000000000096 .LASF6
     /tmp/ccznD7yc.s:1442   .debug_str:000000000000029a .LASF7
     /tmp/ccznD7yc.s:1428   .debug_str:0000000000000170 .LASF8
GAS LISTING /tmp/ccznD7yc.s 			page 15


     /tmp/ccznD7yc.s:1444   .debug_str:00000000000002ad .LASF9
     /tmp/ccznD7yc.s:1440   .debug_str:000000000000028a .LASF10
     /tmp/ccznD7yc.s:1382   .debug_str:0000000000000020 .LASF11
     /tmp/ccznD7yc.s:1384   .debug_str:000000000000002e .LASF12
     /tmp/ccznD7yc.s:1434   .debug_str:000000000000025a .LASF13
     /tmp/ccznD7yc.s:1390   .debug_str:0000000000000050 .LASF14
     /tmp/ccznD7yc.s:1446   .debug_str:00000000000002bb .LASF15
     /tmp/ccznD7yc.s:1406   .debug_str:00000000000000c9 .LASF16
     /tmp/ccznD7yc.s:1420   .debug_str:000000000000013c .LASF17
     /tmp/ccznD7yc.s:1414   .debug_str:0000000000000107 .LASF18
     /tmp/ccznD7yc.s:1422   .debug_str:0000000000000152 .LASF19
     /tmp/ccznD7yc.s:1402   .debug_str:00000000000000a6 .LASF20
     /tmp/ccznD7yc.s:1424   .debug_str:000000000000015c .LASF21
     /tmp/ccznD7yc.s:1426   .debug_str:0000000000000166 .LASF22
     /tmp/ccznD7yc.s:1378   .debug_str:0000000000000009 .LASF23
     /tmp/ccznD7yc.s:1450   .debug_str:00000000000002d7 .LASF36
     /tmp/ccznD7yc.s:1396   .debug_str:000000000000007e .LASF37
     /tmp/ccznD7yc.s:289    .text:000000000000019c .LFB3
     /tmp/ccznD7yc.s:352    .text:0000000000000230 .LFE3
     /tmp/ccznD7yc.s:1410   .debug_str:00000000000000e3 .LASF24
     /tmp/ccznD7yc.s:307    .text:00000000000001c4 .LVL31
     /tmp/ccznD7yc.s:312    .text:00000000000001d4 .LVL32
     /tmp/ccznD7yc.s:319    .text:00000000000001ec .LVL33
     /tmp/ccznD7yc.s:324    .text:00000000000001fc .LVL34
     /tmp/ccznD7yc.s:330    .text:0000000000000208 .LVL35
     /tmp/ccznD7yc.s:1388   .debug_str:0000000000000044 .LASF25
     /tmp/ccznD7yc.s:20     .text:0000000000000000 .LFB2
     /tmp/ccznD7yc.s:144    .text:00000000000000d4 .LFE2
     /tmp/ccznD7yc.s:1249   .debug_loc:0000000000000000 .LLST0
     /tmp/ccznD7yc.s:39     .text:0000000000000018 .LBB2
     /tmp/ccznD7yc.s:115    .text:0000000000000098 .LBE2
     /tmp/ccznD7yc.s:1263   .debug_loc:0000000000000039 .LLST1
     /tmp/ccznD7yc.s:1360   .debug_ranges:0000000000000000 .Ldebug_ranges0
     /tmp/ccznD7yc.s:1275   .debug_loc:0000000000000070 .LLST2
     /tmp/ccznD7yc.s:62     .text:0000000000000038 .LBB6
     /tmp/ccznD7yc.s:77     .text:0000000000000050 .LBE6
     /tmp/ccznD7yc.s:1287   .debug_loc:00000000000000a7 .LLST3
     /tmp/ccznD7yc.s:51     .text:0000000000000028 .LVL3
     /tmp/ccznD7yc.s:93     .text:000000000000006c .LVL9
     /tmp/ccznD7yc.s:100    .text:0000000000000080 .LVL10
     /tmp/ccznD7yc.s:105    .text:0000000000000090 .LVL11
     /tmp/ccznD7yc.s:120    .text:00000000000000a8 .LVL13
     /tmp/ccznD7yc.s:128    .text:00000000000000bc .LVL14
     /tmp/ccznD7yc.s:1392   .debug_str:0000000000000060 .LASF26
     /tmp/ccznD7yc.s:157    .text:00000000000000d4 .LFB1
     /tmp/ccznD7yc.s:275    .text:000000000000019c .LFE1
     /tmp/ccznD7yc.s:1298   .debug_loc:00000000000000dd .LLST4
     /tmp/ccznD7yc.s:175    .text:00000000000000ec .LBB10
     /tmp/ccznD7yc.s:250    .text:0000000000000168 .LBE10
     /tmp/ccznD7yc.s:1312   .debug_loc:0000000000000116 .LLST5
     /tmp/ccznD7yc.s:1324   .debug_loc:000000000000014d .LLST6
     /tmp/ccznD7yc.s:197    .text:0000000000000108 .LBB14
     /tmp/ccznD7yc.s:212    .text:0000000000000120 .LBE14
     /tmp/ccznD7yc.s:1336   .debug_loc:0000000000000184 .LLST7
     /tmp/ccznD7yc.s:187    .text:00000000000000fc .LVL19
     /tmp/ccznD7yc.s:228    .text:000000000000013c .LVL25
     /tmp/ccznD7yc.s:235    .text:0000000000000150 .LVL26
GAS LISTING /tmp/ccznD7yc.s 			page 16


     /tmp/ccznD7yc.s:240    .text:0000000000000160 .LVL27
     /tmp/ccznD7yc.s:255    .text:0000000000000178 .LVL29
     /tmp/ccznD7yc.s:1436   .debug_str:0000000000000269 .LASF27
     /tmp/ccznD7yc.s:1438   .debug_str:0000000000000277 .LASF28
     /tmp/ccznD7yc.s:1448   .debug_str:00000000000002cb .LASF29
     /tmp/ccznD7yc.s:1418   .debug_str:000000000000012c .LASF30
     /tmp/ccznD7yc.s:1416   .debug_str:000000000000011d .LASF31
     /tmp/ccznD7yc.s:1376   .debug_str:0000000000000000 .LASF32
     /tmp/ccznD7yc.s:24     .text:0000000000000000 .LVL0
     /tmp/ccznD7yc.s:43     .text:0000000000000020 .LVL2
     /tmp/ccznD7yc.s:38     .text:0000000000000018 .LVL1
     /tmp/ccznD7yc.s:139    .text:00000000000000cc .LVL15
     /tmp/ccznD7yc.s:83     .text:0000000000000054 .LVL8
     /tmp/ccznD7yc.s:111    .text:0000000000000098 .LVL12
     /tmp/ccznD7yc.s:66     .text:000000000000003c .LVL5
     /tmp/ccznD7yc.s:75     .text:0000000000000050 .LVL7
     /tmp/ccznD7yc.s:160    .text:00000000000000d4 .LVL16
     /tmp/ccznD7yc.s:179    .text:00000000000000f4 .LVL18
     /tmp/ccznD7yc.s:174    .text:00000000000000ec .LVL17
     /tmp/ccznD7yc.s:270    .text:0000000000000194 .LVL30
     /tmp/ccznD7yc.s:218    .text:0000000000000124 .LVL24
     /tmp/ccznD7yc.s:246    .text:0000000000000168 .LVL28
     /tmp/ccznD7yc.s:201    .text:000000000000010c .LVL21
     /tmp/ccznD7yc.s:210    .text:0000000000000120 .LVL23
     /tmp/ccznD7yc.s:378    .debug_info:0000000000000000 .Ldebug_info0
     /tmp/ccznD7yc.s:46     .text:0000000000000020 .LBB4
     /tmp/ccznD7yc.s:79     .text:0000000000000050 .LBE4
     /tmp/ccznD7yc.s:107    .text:0000000000000090 .LBB8
     /tmp/ccznD7yc.s:113    .text:0000000000000098 .LBE8
     /tmp/ccznD7yc.s:182    .text:00000000000000f4 .LBB12
     /tmp/ccznD7yc.s:214    .text:0000000000000120 .LBE12
     /tmp/ccznD7yc.s:242    .text:0000000000000160 .LBB16
     /tmp/ccznD7yc.s:248    .text:0000000000000168 .LBE16

UNDEFINED SYMBOLS
thread_dispatch
_Z11printStringPKc
_Z8printIntiii
thread_create
